; Listing generated by Microsoft (R) Optimizing Compiler Version 19.31.31104.0 

	TITLE	F:\MyProject\STM32F769_Keyboard\TouchGFX\build\Debug\obj\BitmapDatabase.obj
	.686P
	.XMM
	include listing.inc
	.model	flat

INCLUDELIB MSVCRTD
INCLUDELIB OLDNAMES

EXTRN	?image_background@@3QBEB:BYTE			; image_background
EXTRN	?image_bl_bt_pre@@3QBEB:BYTE			; image_bl_bt_pre
EXTRN	?image_bl_bt_rel@@3QBEB:BYTE			; image_bl_bt_rel
EXTRN	?image_cn_bt_pre@@3QBEB:BYTE			; image_cn_bt_pre
EXTRN	?image_cn_bt_rel@@3QBEB:BYTE			; image_cn_bt_rel
EXTRN	?image_cn_lift_bt_pre@@3QBEB:BYTE		; image_cn_lift_bt_pre
EXTRN	?image_cn_lift_bt_rel@@3QBEB:BYTE		; image_cn_lift_bt_rel
EXTRN	?image_cn_right_bt_pre@@3QBEB:BYTE		; image_cn_right_bt_pre
EXTRN	?image_cn_right_bt_rel@@3QBEB:BYTE		; image_cn_right_bt_rel
EXTRN	?image_cn_select_bt_pre@@3QBEB:BYTE		; image_cn_select_bt_pre
EXTRN	?image_cn_select_bt_rel@@3QBEB:BYTE		; image_cn_select_bt_rel
EXTRN	?image_dx_bt_rel@@3QBEB:BYTE			; image_dx_bt_rel
EXTRN	?image_eng_bt_pre@@3QBEB:BYTE			; image_eng_bt_pre
EXTRN	?image_eng_bt_rel@@3QBEB:BYTE			; image_eng_bt_rel
EXTRN	?image_eng_dx_bt_pre@@3QBEB:BYTE		; image_eng_dx_bt_pre
EXTRN	?image_eng_dx_bt_rel@@3QBEB:BYTE		; image_eng_dx_bt_rel
EXTRN	?image_ent_bt_pre@@3QBEB:BYTE			; image_ent_bt_pre
EXTRN	?image_ent_bt_rel@@3QBEB:BYTE			; image_ent_bt_rel
EXTRN	?image_fuhao_bt_pre@@3QBEB:BYTE			; image_fuhao_bt_pre
EXTRN	?image_fuhao_bt_rel@@3QBEB:BYTE			; image_fuhao_bt_rel
EXTRN	?image_fuhao_dele_bt_pre@@3QBEB:BYTE		; image_fuhao_dele_bt_pre
EXTRN	?image_fuhao_dele_bt_rel@@3QBEB:BYTE		; image_fuhao_dele_bt_rel
EXTRN	?image_fun_bt_pre@@3QBEB:BYTE			; image_fun_bt_pre
EXTRN	?image_fun_bt_rel@@3QBEB:BYTE			; image_fun_bt_rel
EXTRN	?image_mianbackgroun@@3QBEB:BYTE		; image_mianbackgroun
EXTRN	?image_numb_bt_pre@@3QBEB:BYTE			; image_numb_bt_pre
EXTRN	?image_numb_bt_rel@@3QBEB:BYTE			; image_numb_bt_rel
EXTRN	?image_pinyin_bt_pre@@3QBEB:BYTE		; image_pinyin_bt_pre
EXTRN	?image_pinyin_bt_rel@@3QBEB:BYTE		; image_pinyin_bt_rel
EXTRN	?image_pinyin_select@@3QBEB:BYTE		; image_pinyin_select
EXTRN	?image_pinyin_select_pre@@3QBEB:BYTE		; image_pinyin_select_pre
EXTRN	?image_pinyin_table@@3QBEB:BYTE			; image_pinyin_table
msvcjmc	SEGMENT
__70B5BA90_concurrencysal@h DB 01H
__35156B19_sal@h DB 01H
__8DB56A60_vadefs@h DB 01H
__3ECF3657_vcruntime@h DB 01H
__D1309CD7_corecrt@h DB 01H
__913F199D_assert@h DB 01H
__F5B80406_stdint@h DB 01H
__4DF99823_Config@hpp DB 01H
__B2B90886_Types@hpp DB 01H
__1A49A924_Bitmap@hpp DB 01H
__704FE638_BitmapDatabase@hpp DB 01H
__F97767E2_BitmapDatabase@cpp DB 01H
msvcjmc	ENDS
CONST	SEGMENT
?bitmap_database@@3QBUBitmapData@Bitmap@touchgfx@@B DD FLAT:?image_background@@3QBEB ; bitmap_database
	DD	00H
	DW	0320H
	DW	019aH
	DW	00H
	DW	00H
	DW	0320H
	DW	019aH
	DD	FLAT:?image_bl_bt_pre@@3QBEB
	DD	00H
	DW	082H
	DW	03cH
	DW	05H
	DW	01H
	DW	078H
	DW	0403aH
	DD	FLAT:?image_bl_bt_rel@@3QBEB
	DD	00H
	DW	082H
	DW	03cH
	DW	05H
	DW	01H
	DW	078H
	DW	0403aH
	DD	FLAT:?image_cn_bt_pre@@3QBEB
	DD	00H
	DW	078H
	DW	046H
	DW	03H
	DW	02H
	DW	072H
	DW	04042H
	DD	FLAT:?image_cn_bt_rel@@3QBEB
	DD	00H
	DW	078H
	DW	046H
	DW	03H
	DW	02H
	DW	072H
	DW	04042H
	DD	FLAT:?image_cn_lift_bt_pre@@3QBEB
	DD	00H
	DW	046H
	DW	046H
	DW	03H
	DW	02H
	DW	040H
	DW	04042H
	DD	FLAT:?image_cn_lift_bt_rel@@3QBEB
	DD	00H
	DW	046H
	DW	046H
	DW	03H
	DW	02H
	DW	040H
	DW	04042H
	DD	FLAT:?image_cn_right_bt_pre@@3QBEB
	DD	00H
	DW	046H
	DW	046H
	DW	03H
	DW	02H
	DW	040H
	DW	04042H
	DD	FLAT:?image_cn_right_bt_rel@@3QBEB
	DD	00H
	DW	046H
	DW	046H
	DW	03H
	DW	02H
	DW	040H
	DW	04042H
	DD	FLAT:?image_cn_select_bt_pre@@3QBEB
	DD	00H
	DW	046H
	DW	046H
	DW	03H
	DW	02H
	DW	040H
	DW	04042H
	DD	FLAT:?image_cn_select_bt_rel@@3QBEB
	DD	00H
	DW	046H
	DW	046H
	DW	03H
	DW	02H
	DW	040H
	DW	04042H
	DD	FLAT:?image_dx_bt_rel@@3QBEB
	DD	00H
	DW	040H
	DW	040H
	DW	0aH
	DW	09H
	DW	02cH
	DW	0402eH
	DD	FLAT:?image_eng_bt_pre@@3QBEB
	DD	00H
	DW	046H
	DW	046H
	DW	0bH
	DW	0aH
	DW	030H
	DW	04032H
	DD	FLAT:?image_eng_bt_rel@@3QBEB
	DD	00H
	DW	046H
	DW	046H
	DW	0bH
	DW	0aH
	DW	030H
	DW	04032H
	DD	FLAT:?image_eng_dx_bt_pre@@3QBEB
	DD	00H
	DW	040H
	DW	040H
	DW	03H
	DW	02H
	DW	03aH
	DW	0403cH
	DD	FLAT:?image_eng_dx_bt_rel@@3QBEB
	DD	00H
	DW	040H
	DW	040H
	DW	03H
	DW	02H
	DW	03aH
	DW	0403cH
	DD	FLAT:?image_ent_bt_pre@@3QBEB
	DD	00H
	DW	064H
	DW	03cH
	DW	03H
	DW	02H
	DW	05eH
	DW	04038H
	DD	FLAT:?image_ent_bt_rel@@3QBEB
	DD	00H
	DW	064H
	DW	03cH
	DW	03H
	DW	02H
	DW	05eH
	DW	04038H
	DD	FLAT:?image_fuhao_bt_pre@@3QBEB
	DD	00H
	DW	046H
	DW	046H
	DW	03H
	DW	02H
	DW	040H
	DW	04042H
	DD	FLAT:?image_fuhao_bt_rel@@3QBEB
	DD	00H
	DW	046H
	DW	046H
	DW	03H
	DW	02H
	DW	040H
	DW	04042H
	DD	FLAT:?image_fuhao_dele_bt_pre@@3QBEB
	DD	00H
	DW	06eH
	DW	046H
	DW	03H
	DW	02H
	DW	068H
	DW	04042H
	DD	FLAT:?image_fuhao_dele_bt_rel@@3QBEB
	DD	00H
	DW	06eH
	DW	046H
	DW	03H
	DW	02H
	DW	068H
	DW	04042H
	DD	FLAT:?image_fun_bt_pre@@3QBEB
	DD	00H
	DW	064H
	DW	03cH
	DW	03H
	DW	02H
	DW	05eH
	DW	04038H
	DD	FLAT:?image_fun_bt_rel@@3QBEB
	DD	00H
	DW	064H
	DW	03cH
	DW	03H
	DW	02H
	DW	05eH
	DW	04038H
	DD	FLAT:?image_mianbackgroun@@3QBEB
	DD	00H
	DW	0320H
	DW	01e0H
	DW	00H
	DW	00H
	DW	0320H
	DW	01e0H
	DD	FLAT:?image_numb_bt_pre@@3QBEB
	DD	00H
	DW	06eH
	DW	041H
	DW	03H
	DW	02H
	DW	068H
	DW	0403dH
	DD	FLAT:?image_numb_bt_rel@@3QBEB
	DD	00H
	DW	06eH
	DW	041H
	DW	03H
	DW	02H
	DW	068H
	DW	0403dH
	DD	FLAT:?image_pinyin_bt_pre@@3QBEB
	DD	00H
	DW	064H
	DW	046H
	DW	03H
	DW	02H
	DW	05eH
	DW	04042H
	DD	FLAT:?image_pinyin_bt_rel@@3QBEB
	DD	00H
	DW	064H
	DW	046H
	DW	03H
	DW	02H
	DW	05eH
	DW	04042H
	DD	FLAT:?image_pinyin_select@@3QBEB
	DD	00H
	DW	078H
	DW	02aH
	DW	00H
	DW	00H
	DW	00H
	DW	04000H
	DD	FLAT:?image_pinyin_select_pre@@3QBEB
	DD	00H
	DW	078H
	DW	02aH
	DW	00H
	DW	00H
	DW	00H
	DW	04000H
	DD	FLAT:?image_pinyin_table@@3QBEB
	DD	00H
	DW	082H
	DW	0d2H
	DW	02H
	DW	03H
	DW	07eH
	DW	040ccH
CONST	ENDS
PUBLIC	?getInstance@BitmapDatabase@@YAPBUBitmapData@Bitmap@touchgfx@@XZ ; BitmapDatabase::getInstance
PUBLIC	?getInstanceSize@BitmapDatabase@@YAGXZ		; BitmapDatabase::getInstanceSize
PUBLIC	__JustMyCode_Default
EXTRN	@__CheckForDebuggerJustMyCode@4:PROC
EXTRN	__RTC_CheckEsp:PROC
EXTRN	__RTC_InitBase:PROC
EXTRN	__RTC_Shutdown:PROC
;	COMDAT rtc$TMZ
rtc$TMZ	SEGMENT
__RTC_Shutdown.rtc$TMZ DD FLAT:__RTC_Shutdown
rtc$TMZ	ENDS
;	COMDAT rtc$IMZ
rtc$IMZ	SEGMENT
__RTC_InitBase.rtc$IMZ DD FLAT:__RTC_InitBase
rtc$IMZ	ENDS
; Function compile flags: /Odt
;	COMDAT __JustMyCode_Default
_TEXT	SEGMENT
__JustMyCode_Default PROC				; COMDAT
	push	ebp
	mov	ebp, esp
	pop	ebp
	ret	0
__JustMyCode_Default ENDP
_TEXT	ENDS
; Function compile flags: /Odtp /RTCsu /ZI
;	COMDAT ?getInstanceSize@BitmapDatabase@@YAGXZ
_TEXT	SEGMENT
?getInstanceSize@BitmapDatabase@@YAGXZ PROC		; BitmapDatabase::getInstanceSize, COMDAT
; File F:\MyProject\STM32F769_Keyboard\TouchGFX\generated\images\src\BitmapDatabase.cpp
; Line 83
	push	ebp
	mov	ebp, esp
	sub	esp, 192				; 000000c0H
	push	ebx
	push	esi
	push	edi
	mov	edi, ebp
	xor	ecx, ecx
	mov	eax, -858993460				; ccccccccH
	rep stosd
	mov	ecx, OFFSET __F97767E2_BitmapDatabase@cpp
	call	@__CheckForDebuggerJustMyCode@4
; Line 84
	mov	eax, 32					; 00000020H
; Line 85
	pop	edi
	pop	esi
	pop	ebx
	add	esp, 192				; 000000c0H
	cmp	ebp, esp
	call	__RTC_CheckEsp
	mov	esp, ebp
	pop	ebp
	ret	0
?getInstanceSize@BitmapDatabase@@YAGXZ ENDP		; BitmapDatabase::getInstanceSize
_TEXT	ENDS
; Function compile flags: /Odtp /RTCsu /ZI
;	COMDAT ?getInstance@BitmapDatabase@@YAPBUBitmapData@Bitmap@touchgfx@@XZ
_TEXT	SEGMENT
?getInstance@BitmapDatabase@@YAPBUBitmapData@Bitmap@touchgfx@@XZ PROC ; BitmapDatabase::getInstance, COMDAT
; File F:\MyProject\STM32F769_Keyboard\TouchGFX\generated\images\src\BitmapDatabase.cpp
; Line 78
	push	ebp
	mov	ebp, esp
	sub	esp, 192				; 000000c0H
	push	ebx
	push	esi
	push	edi
	mov	edi, ebp
	xor	ecx, ecx
	mov	eax, -858993460				; ccccccccH
	rep stosd
	mov	ecx, OFFSET __F97767E2_BitmapDatabase@cpp
	call	@__CheckForDebuggerJustMyCode@4
; Line 79
	mov	eax, OFFSET ?bitmap_database@@3QBUBitmapData@Bitmap@touchgfx@@B
; Line 80
	pop	edi
	pop	esi
	pop	ebx
	add	esp, 192				; 000000c0H
	cmp	ebp, esp
	call	__RTC_CheckEsp
	mov	esp, ebp
	pop	ebp
	ret	0
?getInstance@BitmapDatabase@@YAPBUBitmapData@Bitmap@touchgfx@@XZ ENDP ; BitmapDatabase::getInstance
_TEXT	ENDS
END
