; Listing generated by Microsoft (R) Optimizing Compiler Version 19.31.31104.0 

	TITLE	F:\MyProject\STM32F769_Keyboard\TouchGFX\build\Debug\obj\Font_verdana_28_4bpp_0.obj
	.686P
	.XMM
	include listing.inc
	.model	flat

INCLUDELIB MSVCRTD
INCLUDELIB OLDNAMES

PUBLIC	?unicodes_verdana_28_4bpp_0@@3QBEB		; unicodes_verdana_28_4bpp_0
msvcjmc	SEGMENT
__70B5BA90_concurrencysal@h DB 01H
__35156B19_sal@h DB 01H
__8DB56A60_vadefs@h DB 01H
__3ECF3657_vcruntime@h DB 01H
__D1309CD7_corecrt@h DB 01H
__913F199D_assert@h DB 01H
__F5B80406_stdint@h DB 01H
__4DF99823_Config@hpp DB 01H
__B2B90886_Types@hpp DB 01H
__7E4491E9_Font_verdana_28_4bpp_0@cpp DB 01H
msvcjmc	ENDS
CONST	SEGMENT
?unicodes_verdana_28_4bpp_0@@3QBEB DB 072H		; unicodes_verdana_28_4bpp_0
	DB	0daH
	DB	0feH
	DB	0beH
	DB	017H
	DB	00H
	DB	0fcH
	DB	0ffH
	DB	0ffH
	DB	0ffH
	DB	0dfH
	DB	03H
	DB	0fcH
	DB	09cH
	DB	067H
	DB	0e8H
	DB	0ffH
	DB	01dH
	DB	038H
	DB	00H
	DB	00H
	DB	010H
	DB	0fbH
	DB	06fH
	DB	00H
	DB	00H
	DB	00H
	DB	00H
	DB	0f3H
	DB	0afH
	DB	00H
	DB	00H
	DB	00H
	DB	00H
	DB	0f1H
	DB	0bfH
	DB	00H
	DB	00H
	DB	00H
	DB	00H
	DB	0f3H
	DB	09fH
	DB	00H
	DB	00H
	DB	00H
	DB	00H
	DB	0f8H
	DB	04fH
	DB	00H
	DB	00H
	DB	00H
	DB	050H
	DB	0ffH
	DB	0cH
	DB	00H
	DB	00H
	DB	00H
	DB	0f7H
	DB	0dfH
	DB	02H
	DB	00H
	DB	00H
	DB	0c3H
	DB	0ffH
	DB	01bH
	DB	00H
	DB	00H
	DB	040H
	DB	0ffH
	DB	07eH
	DB	00H
	DB	00H
	DB	00H
	DB	050H
	DB	0ffH
	DB	03H
	DB	00H
	DB	00H
	DB	00H
	DB	050H
	DB	0ffH
	DB	02H
	DB	00H
	DB	00H
	DB	00H
	DB	050H
	DB	0ffH
	DB	02H
	DB	00H
	DB	00H
	DB	00H
	DB	020H
	DB	077H
	DB	01H
	DB	00H
	DB	00H
	DB	00H
	DB	00H
	DB	00H
	DB	00H
	DB	00H
	DB	00H
	DB	00H
	DB	00H
	DB	00H
	DB	00H
	DB	00H
	DB	00H
	DB	00H
	DB	060H
	DB	0eeH
	DB	05H
	DB	00H
	DB	00H
	DB	00H
	DB	070H
	DB	0ffH
	DB	05H
	DB	00H
	DB	00H
	DB	00H
	DB	070H
	DB	0ffH
	DB	05H
	DB	00H
	DB	00H
	DB	010H
	DB	0a7H
	DB	0dcH
	DB	0ffH
	DB	0bdH
	DB	06H
	DB	00H
	DB	030H
	DB	0ffH
	DB	0ffH
	DB	0ffH
	DB	0ffH
	DB	0cfH
	DB	01H
	DB	030H
	DB	0cfH
	DB	078H
	DB	055H
	DB	0b7H
	DB	0ffH
	DB	0bH
	DB	00H
	DB	01H
	DB	00H
	DB	00H
	DB	00H
	DB	0f8H
	DB	02fH
	DB	00H
	DB	00H
	DB	00H
	DB	00H
	DB	00H
	DB	0f3H
	DB	05fH
	DB	00H
	DB	00H
	DB	085H
	DB	0dbH
	DB	0eeH
	DB	0ffH
	DB	06fH
	DB	00H
	DB	0e6H
	DB	0ffH
	DB	0ffH
	DB	0ffH
	DB	0ffH
	DB	06fH
	DB	070H
	DB	0ffH
	DB	0bfH
	DB	057H
	DB	023H
	DB	0f4H
	DB	06fH
	DB	0f2H
	DB	0dfH
	DB	03H
	DB	00H
	DB	00H
	DB	0f2H
	DB	06fH
	DB	0f6H
	DB	05fH
	DB	00H
	DB	00H
	DB	00H
	DB	0f2H
	DB	06fH
	DB	0f8H
	DB	02fH
	DB	00H
	DB	00H
	DB	00H
	DB	0f2H
	DB	06fH
	DB	0f8H
	DB	03fH
	DB	00H
	DB	00H
	DB	00H
	DB	0f4H
	DB	06fH
	DB	0f5H
	DB	0afH
	DB	00H
	DB	00H
	DB	070H
	DB	0ffH
	DB	06fH
	DB	0d0H
	DB	0ffH
	DB	08cH
	DB	097H
	DB	0fdH
	DB	0ffH
	DB	06fH
	DB	030H
	DB	0feH
	DB	0ffH
	DB	0ffH
	DB	0dfH
	DB	0f6H
	DB	06fH
	DB	00H
	DB	092H
	DB	0feH
	DB	0beH
	DB	06H
	DB	0f2H
	DB	06fH
	DB	0f7H
	DB	01fH
	DB	00H
	DB	00H
	DB	00H
	DB	00H
	DB	00H
	DB	0f7H
	DB	01fH
	DB	00H
	DB	00H
	DB	00H
	DB	00H
	DB	00H
	DB	0f7H
	DB	01fH
	DB	00H
	DB	00H
	DB	00H
	DB	00H
	DB	00H
	DB	0f7H
	DB	01fH
	DB	00H
	DB	00H
	DB	00H
	DB	00H
	DB	00H
	DB	0f7H
	DB	01fH
	DB	00H
	DB	00H
	DB	00H
	DB	00H
	DB	00H
	DB	0f7H
	DB	01fH
	DB	00H
	DB	00H
	DB	00H
	DB	00H
	DB	00H
	DB	0f7H
	DB	01fH
	DB	071H
	DB	0ecH
	DB	0ceH
	DB	07H
	DB	00H
	DB	0f7H
	DB	05fH
	DB	0fdH
	DB	0ffH
	DB	0ffH
	DB	0cfH
	DB	01H
	DB	0f7H
	DB	0ffH
	DB	0dfH
	DB	089H
	DB	0e9H
	DB	0ffH
	DB	0aH
	DB	0f7H
	DB	0dfH
	DB	05H
	DB	00H
	DB	010H
	DB	0fdH
	DB	03fH
	DB	0f7H
	DB	02fH
	DB	00H
	DB	00H
	DB	00H
	DB	0f4H
	DB	08fH
	DB	0f7H
	DB	01fH
	DB	00H
	DB	00H
	DB	00H
	DB	0e0H
	DB	0bfH
	DB	0f7H
	DB	01fH
	DB	00H
	DB	00H
	DB	00H
	DB	0c0H
	DB	0dfH
	DB	0f7H
	DB	01fH
	DB	00H
	DB	00H
	DB	00H
	DB	0b0H
	DB	0efH
	DB	0f7H
	DB	01fH
	DB	00H
	DB	00H
	DB	00H
	DB	0b0H
	DB	0efH
	DB	0f7H
	DB	01fH
	DB	00H
	DB	00H
	DB	00H
	DB	0c0H
	DB	0dfH
	DB	0f7H
	DB	01fH
	DB	00H
	DB	00H
	DB	00H
	DB	0f1H
	DB	09fH
	DB	0f7H
	DB	01fH
	DB	00H
	DB	00H
	DB	00H
	DB	0f6H
	DB	05fH
	DB	0f7H
	DB	02fH
	DB	00H
	DB	00H
	DB	040H
	DB	0feH
	DB	0dH
	DB	0f7H
	DB	0ffH
	DB	07aH
	DB	066H
	DB	0faH
	DB	0ffH
	DB	04H
	DB	0f7H
	DB	0ffH
	DB	0ffH
	DB	0ffH
	DB	0ffH
	DB	05eH
	DB	00H
	DB	0f7H
	DB	04fH
	DB	0d9H
	DB	0feH
	DB	09dH
	DB	02H
	DB	00H
	DB	00H
	DB	00H
	DB	0a4H
	DB	0edH
	DB	0deH
	DB	039H
	DB	00H
	DB	00H
	DB	0a1H
	DB	0ffH
	DB	0ffH
	DB	0ffH
	DB	0ffH
	DB	0bH
	DB	00H
	DB	0fcH
	DB	0cfH
	DB	047H
	DB	085H
	DB	0fdH
	DB	0cH
	DB	070H
	DB	0ffH
	DB	09H
	DB	00H
	DB	00H
	DB	060H
	DB	0bH
	DB	0e0H
	DB	0dfH
	DB	00H
	DB	00H
	DB	00H
	DB	00H
	DB	01H
	DB	0f4H
	DB	07fH
	DB	00H
	DB	00H
	DB	00H
	DB	00H
	DB	00H
	DB	0f7H
	DB	03fH
	DB	00H
	DB	00H
	DB	00H
	DB	00H
	DB	00H
	DB	0f8H
	DB	02fH
	DB	00H
	DB	00H
	DB	00H
	DB	00H
	DB	00H
	DB	0f8H
	DB	02fH
	DB	00H
	DB	00H
	DB	00H
	DB	00H
	DB	00H
	DB	0f7H
	DB	03fH
	DB	00H
	DB	00H
	DB	00H
	DB	00H
	DB	00H
	DB	0f4H
	DB	07fH
	DB	00H
	DB	00H
	DB	00H
	DB	00H
	DB	00H
	DB	0e1H
	DB	0dfH
	DB	00H
	DB	00H
	DB	00H
	DB	00H
	DB	01H
	DB	080H
	DB	0ffH
	DB	09H
	DB	00H
	DB	00H
	DB	050H
	DB	0bH
	DB	010H
	DB	0fdH
	DB	0cfH
	DB	047H
	DB	085H
	DB	0fdH
	DB	0cH
	DB	00H
	DB	0c2H
	DB	0ffH
	DB	0ffH
	DB	0ffH
	DB	0ffH
	DB	0bH
	DB	00H
	DB	00H
	DB	0a5H
	DB	0fdH
	DB	0deH
	DB	049H
	DB	00H
	DB	00H
	DB	00H
	DB	00H
	DB	00H
	DB	00H
	DB	0a0H
	DB	0efH
	DB	00H
	DB	00H
	DB	00H
	DB	00H
	DB	00H
	DB	0a0H
	DB	0efH
	DB	00H
	DB	00H
	DB	00H
	DB	00H
	DB	00H
	DB	0a0H
	DB	0efH
	DB	00H
	DB	00H
	DB	00H
	DB	00H
	DB	00H
	DB	0a0H
	DB	0efH
	DB	00H
	DB	00H
	DB	00H
	DB	00H
	DB	00H
	DB	0a0H
	DB	0efH
	DB	00H
	DB	00H
	DB	00H
	DB	00H
	DB	00H
	DB	0a0H
	DB	0efH
	DB	00H
	DB	00H
	DB	0b5H
	DB	0feH
	DB	0beH
	DB	0a5H
	DB	0efH
	DB	00H
	DB	0b1H
	DB	0ffH
	DB	0ffH
	DB	0ffH
	DB	0ffH
	DB	0efH
	DB	00H
	DB	0fbH
	DB	0dfH
	DB	068H
	DB	097H
	DB	0fdH
	DB	0efH
	DB	060H
	DB	0ffH
	DB	01aH
	DB	00H
	DB	00H
	DB	0b0H
	DB	0efH
	DB	0d0H
	DB	0dfH
	DB	01H
	DB	00H
	DB	00H
	DB	0a0H
	DB	0efH
	DB	0f3H
	DB	07fH
	DB	00H
	DB	00H
	DB	00H
	DB	0a0H
	DB	0efH
	DB	0f6H
	DB	04fH
	DB	00H
	DB	00H
	DB	00H
	DB	0a0H
	DB	0efH
	DB	0f7H
	DB	02fH
	DB	00H
	DB	00H
	DB	00H
	DB	0a0H
	DB	0efH
	DB	0f7H
	DB	02fH
	DB	00H
	DB	00H
	DB	00H
	DB	0a0H
	DB	0efH
	DB	0f7H
	DB	03fH
	DB	00H
	DB	00H
	DB	00H
	DB	0a0H
	DB	0efH
	DB	0f4H
	DB	06fH
	DB	00H
	DB	00H
	DB	00H
	DB	0a0H
	DB	0efH
	DB	0f1H
	DB	0bfH
	DB	00H
	DB	00H
	DB	00H
	DB	0a0H
	DB	0efH
	DB	0b0H
	DB	0ffH
	DB	06H
	DB	00H
	DB	020H
	DB	0faH
	DB	0efH
	DB	030H
	DB	0ffH
	DB	0cfH
	DB	088H
	DB	0fbH
	DB	0ffH
	DB	0efH
	DB	00H
	DB	0f5H
	DB	0ffH
	DB	0ffH
	DB	0ffH
	DB	0baH
	DB	0efH
	DB	00H
	DB	030H
	DB	0eaH
	DB	0dfH
	DB	04aH
	DB	0a0H
	DB	0efH
	DB	00H
	DB	00H
	DB	0a4H
	DB	0fdH
	DB	0deH
	DB	029H
	DB	00H
	DB	00H
	DB	00H
	DB	0a0H
	DB	0ffH
	DB	0ffH
	DB	0ffH
	DB	0ffH
	DB	05H
	DB	00H
	DB	00H
	DB	0fbH
	DB	09fH
	DB	034H
	DB	063H
	DB	0fdH
	DB	03fH
	DB	00H
	DB	060H
	DB	0ffH
	DB	04H
	DB	00H
	DB	00H
	DB	0e1H
	DB	0bfH
	DB	00H
	DB	0d0H
	DB	08fH
	DB	00H
	DB	00H
	DB	00H
	DB	070H
	DB	0ffH
	DB	01H
	DB	0f3H
	DB	02fH
	DB	00H
	DB	00H
	DB	00H
	DB	040H
	DB	0ffH
	DB	03H
	DB	0f6H
	DB	0ffH
	DB	0ffH
	DB	0ffH
	DB	0ffH
	DB	0ffH
	DB	0ffH
	DB	04H
	DB	0f8H
	DB	0ffH
	DB	0ffH
	DB	0ffH
	DB	0ffH
	DB	0ffH
	DB	0ffH
	DB	05H
	DB	0f8H
	DB	01fH
	DB	00H
	DB	00H
	DB	00H
	DB	00H
	DB	00H
	DB	00H
	DB	0f7H
	DB	03fH
	DB	00H
	DB	00H
	DB	00H
	DB	00H
	DB	00H
	DB	00H
	DB	0f4H
	DB	07fH
	DB	00H
	DB	00H
	DB	00H
	DB	00H
	DB	00H
	DB	00H
	DB	0e1H
	DB	0efH
	DB	01H
	DB	00H
	DB	00H
	DB	00H
	DB	010H
	DB	00H
	DB	080H
	DB	0ffH
	DB	01cH
	DB	00H
	DB	00H
	DB	00H
	DB	0d5H
	DB	00H
	DB	00H
	DB	0fcH
	DB	0efH
	DB	059H
	DB	065H
	DB	0d9H
	DB	0ffH
	DB	00H
	DB	00H
	DB	0a1H
	DB	0ffH
	DB	0ffH
	DB	0ffH
	DB	0ffH
	DB	0dfH
	DB	00H
	DB	00H
	DB	00H
	DB	093H
	DB	0ecH
	DB	0efH
	DB	09cH
	DB	03H
	DB	00H
	DB	00H
	DB	00H
	DB	081H
	DB	0fdH
	DB	0dfH
	DB	09H
	DB	00H
	DB	020H
	DB	0fdH
	DB	0ffH
	DB	0ffH
	DB	0bH
	DB	00H
	DB	0a0H
	DB	0ffH
	DB	06aH
	DB	065H
	DB	07H
	DB	00H
	DB	0f1H
	DB	08fH
	DB	00H
	DB	00H
	DB	00H
	DB	00H
	DB	0f4H
	DB	04fH
	DB	00H
	DB	00H
	DB	00H
	DB	00H
	DB	0f5H
	DB	02fH
	DB	00H
	DB	00H
	DB	00H
	DB	0f1H
	DB	0ffH
	DB	0ffH
	DB	0ffH
	DB	0cfH
	DB	00H
	DB	0f1H
	DB	0ffH
	DB	0ffH
	DB	0ffH
	DB	0cfH
	DB	00H
	DB	030H
	DB	0f7H
	DB	06fH
	DB	033H
	DB	023H
	DB	00H
	DB	00H
	DB	0f5H
	DB	04fH
	DB	00H
	DB	00H
	DB	00H
	DB	00H
	DB	0f5H
	DB	04fH
	DB	00H
	DB	00H
	DB	00H
	DB	00H
	DB	0f5H
	DB	04fH
	DB	00H
	DB	00H
	DB	00H
	DB	00H
	DB	0f5H
	DB	04fH
	DB	00H
	DB	00H
	DB	00H
	DB	00H
	DB	0f5H
	DB	04fH
	DB	00H
	DB	00H
	DB	00H
	DB	00H
	DB	0f5H
	DB	04fH
	DB	00H
	DB	00H
	DB	00H
	DB	00H
	DB	0f5H
	DB	04fH
	DB	00H
	DB	00H
	DB	00H
	DB	00H
	DB	0f5H
	DB	04fH
	DB	00H
	DB	00H
	DB	00H
	DB	00H
	DB	0f5H
	DB	04fH
	DB	00H
	DB	00H
	DB	00H
	DB	00H
	DB	0f5H
	DB	04fH
	DB	00H
	DB	00H
	DB	00H
	DB	00H
	DB	0f5H
	DB	04fH
	DB	00H
	DB	00H
	DB	00H
	DB	00H
	DB	0f5H
	DB	04fH
	DB	00H
	DB	00H
	DB	00H
	DB	00H
	DB	0f5H
	DB	04fH
	DB	00H
	DB	00H
	DB	00H
	DB	00H
	DB	00H
	DB	0b5H
	DB	0feH
	DB	0beH
	DB	0a7H
	DB	0efH
	DB	00H
	DB	0b1H
	DB	0ffH
	DB	0ffH
	DB	0ffH
	DB	0ffH
	DB	0efH
	DB	00H
	DB	0fbH
	DB	0dfH
	DB	068H
	DB	097H
	DB	0fdH
	DB	0efH
	DB	060H
	DB	0ffH
	DB	0aH
	DB	00H
	DB	00H
	DB	0b0H
	DB	0efH
	DB	0d0H
	DB	0dfH
	DB	01H
	DB	00H
	DB	00H
	DB	0a0H
	DB	0efH
	DB	0f3H
	DB	07fH
	DB	00H
	DB	00H
	DB	00H
	DB	0a0H
	DB	0efH
	DB	0f6H
	DB	04fH
	DB	00H
	DB	00H
	DB	00H
	DB	0a0H
	DB	0efH
	DB	0f7H
	DB	02fH
	DB	00H
	DB	00H
	DB	00H
	DB	0a0H
	DB	0efH
	DB	0f7H
	DB	02fH
	DB	00H
	DB	00H
	DB	00H
	DB	0a0H
	DB	0efH
	DB	0f7H
	DB	03fH
	DB	00H
	DB	00H
	DB	00H
	DB	0a0H
	DB	0efH
	DB	0f5H
	DB	06fH
	DB	00H
	DB	00H
	DB	00H
	DB	0a0H
	DB	0efH
	DB	0f1H
	DB	0afH
	DB	00H
	DB	00H
	DB	00H
	DB	0a0H
	DB	0efH
	DB	0b0H
	DB	0ffH
	DB	05H
	DB	00H
	DB	010H
	DB	0f8H
	DB	0efH
	DB	030H
	DB	0ffH
	DB	0afH
	DB	077H
	DB	0eaH
	DB	0ffH
	DB	0efH
	DB	00H
	DB	0f6H
	DB	0ffH
	DB	0ffH
	DB	0ffH
	DB	0bbH
	DB	0efH
	DB	00H
	DB	030H
	DB	0eaH
	DB	0efH
	DB	05bH
	DB	0a0H
	DB	0dfH
	DB	00H
	DB	00H
	DB	00H
	DB	00H
	DB	00H
	DB	0c0H
	DB	0bfH
	DB	00H
	DB	00H
	DB	00H
	DB	00H
	DB	00H
	DB	0e1H
	DB	08fH
	DB	00H
	DB	03H
	DB	00H
	DB	00H
	DB	00H
	DB	0f9H
	DB	02fH
	DB	00H
	DB	0eeH
	DB	07aH
	DB	066H
	DB	0d8H
	DB	0ffH
	DB	09H
	DB	00H
	DB	0feH
	DB	0ffH
	DB	0ffH
	DB	0ffH
	DB	0afH
	DB	00H
	DB	00H
	DB	0a6H
	DB	0ecH
	DB	0efH
	DB	09dH
	DB	04H
	DB	00H
	DB	0f7H
	DB	01fH
	DB	00H
	DB	00H
	DB	00H
	DB	00H
	DB	00H
	DB	0f7H
	DB	01fH
	DB	00H
	DB	00H
	DB	00H
	DB	00H
	DB	00H
	DB	0f7H
	DB	01fH
	DB	00H
	DB	00H
	DB	00H
	DB	00H
	DB	00H
	DB	0f7H
	DB	01fH
	DB	00H
	DB	00H
	DB	00H
	DB	00H
	DB	00H
	DB	0f7H
	DB	01fH
	DB	00H
	DB	00H
	DB	00H
	DB	00H
	DB	00H
	DB	0f7H
	DB	01fH
	DB	00H
	DB	00H
	DB	00H
	DB	00H
	DB	00H
	DB	0f7H
	DB	01fH
	DB	050H
	DB	0ebH
	DB	0dfH
	DB	018H
	DB	00H
	DB	0f7H
	DB	04fH
	DB	0fcH
	DB	0ffH
	DB	0ffH
	DB	0dfH
	DB	01H
	DB	0f7H
	DB	0ffH
	DB	0efH
	DB	08aH
	DB	0e9H
	DB	0ffH
	DB	09H
	DB	0f7H
	DB	0efH
	DB	07H
	DB	00H
	DB	010H
	DB	0feH
	DB	0eH
	DB	0f7H
	DB	03fH
	DB	00H
	DB	00H
	DB	00H
	DB	0f8H
	DB	03fH
	DB	0f7H
	DB	01fH
	DB	00H
	DB	00H
	DB	00H
	DB	0f6H
	DB	04fH
	DB	0f7H
	DB	01fH
	DB	00H
	DB	00H
	DB	00H
	DB	0f5H
	DB	04fH
	DB	0f7H
	DB	01fH
	DB	00H
	DB	00H
	DB	00H
	DB	0f4H
	DB	04fH
	DB	0f7H
	DB	01fH
	DB	00H
	DB	00H
	DB	00H
	DB	0f4H
	DB	04fH
	DB	0f7H
	DB	01fH
	DB	00H
	DB	00H
	DB	00H
	DB	0f4H
	DB	04fH
	DB	0f7H
	DB	01fH
	DB	00H
	DB	00H
	DB	00H
	DB	0f4H
	DB	04fH
	DB	0f7H
	DB	01fH
	DB	00H
	DB	00H
	DB	00H
	DB	0f4H
	DB	04fH
	DB	0f7H
	DB	01fH
	DB	00H
	DB	00H
	DB	00H
	DB	0f4H
	DB	04fH
	DB	0f7H
	DB	01fH
	DB	00H
	DB	00H
	DB	00H
	DB	0f4H
	DB	04fH
	DB	0f7H
	DB	01fH
	DB	00H
	DB	00H
	DB	00H
	DB	0f4H
	DB	04fH
	DB	0f7H
	DB	01fH
	DB	00H
	DB	00H
	DB	00H
	DB	0f4H
	DB	04fH
	DB	0f9H
	DB	04fH
	DB	0f9H
	DB	04fH
	DB	0b6H
	DB	03bH
	DB	00H
	DB	00H
	DB	00H
	DB	00H
	DB	0f7H
	DB	02fH
	DB	0f7H
	DB	02fH
	DB	0f7H
	DB	02fH
	DB	0f7H
	DB	02fH
	DB	0f7H
	DB	02fH
	DB	0f7H
	DB	02fH
	DB	0f7H
	DB	02fH
	DB	0f7H
	DB	02fH
	DB	0f7H
	DB	02fH
	DB	0f7H
	DB	02fH
	DB	0f7H
	DB	02fH
	DB	0f7H
	DB	02fH
	DB	0f7H
	DB	02fH
	DB	0f7H
	DB	02fH
	DB	0f7H
	DB	02fH
	DB	0f7H
	DB	02fH
	DB	00H
	DB	00H
	DB	090H
	DB	0ffH
	DB	04H
	DB	00H
	DB	00H
	DB	090H
	DB	0ffH
	DB	04H
	DB	00H
	DB	00H
	DB	060H
	DB	0bbH
	DB	03H
	DB	00H
	DB	00H
	DB	00H
	DB	00H
	DB	00H
	DB	00H
	DB	00H
	DB	00H
	DB	00H
	DB	00H
	DB	00H
	DB	0f9H
	DB	0ffH
	DB	0ffH
	DB	02H
	DB	00H
	DB	0f9H
	DB	0ffH
	DB	0ffH
	DB	02H
	DB	00H
	DB	032H
	DB	083H
	DB	0ffH
	DB	02H
	DB	00H
	DB	00H
	DB	070H
	DB	0ffH
	DB	02H
	DB	00H
	DB	00H
	DB	070H
	DB	0ffH
	DB	02H
	DB	00H
	DB	00H
	DB	070H
	DB	0ffH
	DB	02H
	DB	00H
	DB	00H
	DB	070H
	DB	0ffH
	DB	02H
	DB	00H
	DB	00H
	DB	070H
	DB	0ffH
	DB	02H
	DB	00H
	DB	00H
	DB	070H
	DB	0ffH
	DB	02H
	DB	00H
	DB	00H
	DB	070H
	DB	0ffH
	DB	02H
	DB	00H
	DB	00H
	DB	070H
	DB	0ffH
	DB	02H
	DB	00H
	DB	00H
	DB	070H
	DB	0ffH
	DB	02H
	DB	00H
	DB	00H
	DB	070H
	DB	0ffH
	DB	02H
	DB	00H
	DB	00H
	DB	070H
	DB	0ffH
	DB	02H
	DB	00H
	DB	00H
	DB	070H
	DB	0ffH
	DB	02H
	DB	00H
	DB	00H
	DB	070H
	DB	0ffH
	DB	02H
	DB	00H
	DB	00H
	DB	080H
	DB	0ffH
	DB	02H
	DB	00H
	DB	00H
	DB	0a0H
	DB	0ffH
	DB	01H
	DB	00H
	DB	00H
	DB	0e1H
	DB	0dfH
	DB	00H
	DB	08aH
	DB	076H
	DB	0fcH
	DB	07fH
	DB	00H
	DB	0fdH
	DB	0ffH
	DB	0ffH
	DB	0bH
	DB	00H
	DB	0d9H
	DB	0ffH
	DB	07cH
	DB	00H
	DB	00H
	DB	0f5H
	DB	03fH
	DB	00H
	DB	00H
	DB	00H
	DB	00H
	DB	00H
	DB	00H
	DB	0f5H
	DB	03fH
	DB	00H
	DB	00H
	DB	00H
	DB	00H
	DB	00H
	DB	00H
	DB	0f5H
	DB	03fH
	DB	00H
	DB	00H
	DB	00H
	DB	00H
	DB	00H
	DB	00H
	DB	0f5H
	DB	03fH
	DB	00H
	DB	00H
	DB	00H
	DB	00H
	DB	00H
	DB	00H
	DB	0f5H
	DB	03fH
	DB	00H
	DB	00H
	DB	00H
	DB	00H
	DB	00H
	DB	00H
	DB	0f5H
	DB	03fH
	DB	00H
	DB	00H
	DB	00H
	DB	00H
	DB	00H
	DB	00H
	DB	0f5H
	DB	03fH
	DB	00H
	DB	00H
	DB	010H
	DB	0fcH
	DB	06fH
	DB	00H
	DB	0f5H
	DB	03fH
	DB	00H
	DB	00H
	DB	0b0H
	DB	0ffH
	DB	07H
	DB	00H
	DB	0f5H
	DB	03fH
	DB	00H
	DB	00H
	DB	0faH
	DB	07fH
	DB	00H
	DB	00H
	DB	0f5H
	DB	03fH
	DB	00H
	DB	090H
	DB	0ffH
	DB	08H
	DB	00H
	DB	00H
	DB	0f5H
	DB	03fH
	DB	00H
	DB	0f8H
	DB	08fH
	DB	00H
	DB	00H
	DB	00H
	DB	0f5H
	DB	03fH
	DB	070H
	DB	0ffH
	DB	09H
	DB	00H
	DB	00H
	DB	00H
	DB	0f5H
	DB	03fH
	DB	0f6H
	DB	09fH
	DB	00H
	DB	00H
	DB	00H
	DB	00H
	DB	0f5H
	DB	08fH
	DB	0ffH
	DB	01eH
	DB	00H
	DB	00H
	DB	00H
	DB	00H
	DB	0f5H
	DB	0ffH
	DB	0ffH
	DB	0bfH
	DB	00H
	DB	00H
	DB	00H
	DB	00H
	DB	0f5H
	DB	0ffH
	DB	0a6H
	DB	0ffH
	DB	0aH
	DB	00H
	DB	00H
	DB	00H
	DB	0f5H
	DB	06fH
	DB	010H
	DB	0fcH
	DB	08fH
	DB	00H
	DB	00H
	DB	00H
	DB	0f5H
	DB	03fH
	DB	00H
	DB	0d1H
	DB	0ffH
	DB	06H
	DB	00H
	DB	00H
	DB	0f5H
	DB	03fH
	DB	00H
	DB	020H
	DB	0feH
	DB	05fH
	DB	00H
	DB	00H
	DB	0f5H
	DB	03fH
	DB	00H
	DB	00H
	DB	0e3H
	DB	0efH
	DB	03H
	DB	00H
	DB	0f5H
	DB	03fH
	DB	00H
	DB	00H
	DB	050H
	DB	0ffH
	DB	02eH
	DB	00H
	DB	0f5H
	DB	03fH
	DB	00H
	DB	00H
	DB	00H
	DB	0f7H
	DB	0dfH
	DB	01H
	DB	0f7H
	DB	02fH
	DB	0f7H
	DB	02fH
	DB	0f7H
	DB	02fH
	DB	0f7H
	DB	02fH
	DB	0f7H
	DB	02fH
	DB	0f7H
	DB	02fH
	DB	0f7H
	DB	02fH
	DB	0f7H
	DB	02fH
	DB	0f7H
	DB	02fH
	DB	0f7H
	DB	02fH
	DB	0f7H
	DB	02fH
	DB	0f7H
	DB	02fH
	DB	0f7H
	DB	02fH
	DB	0f7H
	DB	02fH
	DB	0f7H
	DB	02fH
	DB	0f7H
	DB	02fH
	DB	0f7H
	DB	02fH
	DB	0f7H
	DB	02fH
	DB	0f7H
	DB	02fH
	DB	0f7H
	DB	02fH
	DB	0f7H
	DB	02fH
	DB	0f7H
	DB	02fH
	DB	0f7H
	DB	01fH
	DB	060H
	DB	0ecH
	DB	0ceH
	DB	06H
	DB	00H
	DB	081H
	DB	0ecH
	DB	0ceH
	DB	06H
	DB	00H
	DB	0f7H
	DB	05fH
	DB	0fdH
	DB	0ffH
	DB	0ffH
	DB	09fH
	DB	060H
	DB	0feH
	DB	0ffH
	DB	0ffH
	DB	08fH
	DB	00H
	DB	0f7H
	DB	0ffH
	DB	0efH
	DB	089H
	DB	0e9H
	DB	0ffH
	DB	0fbH
	DB	0dfH
	DB	089H
	DB	0faH
	DB	0ffH
	DB	02H
	DB	0f7H
	DB	0efH
	DB	07H
	DB	00H
	DB	040H
	DB	0ffH
	DB	0efH
	DB	05H
	DB	00H
	DB	060H
	DB	0ffH
	DB	08H
	DB	0f7H
	DB	03fH
	DB	00H
	DB	00H
	DB	00H
	DB	0fcH
	DB	01eH
	DB	00H
	DB	00H
	DB	00H
	DB	0feH
	DB	0bH
	DB	0f7H
	DB	01fH
	DB	00H
	DB	00H
	DB	00H
	DB	0faH
	DB	0eH
	DB	00H
	DB	00H
	DB	00H
	DB	0fcH
	DB	0cH
	DB	0f7H
	DB	01fH
	DB	00H
	DB	00H
	DB	00H
	DB	0faH
	DB	0eH
	DB	00H
	DB	00H
	DB	00H
	DB	0fcH
	DB	0cH
	DB	0f7H
	DB	01fH
	DB	00H
	DB	00H
	DB	00H
	DB	0f9H
	DB	0eH
	DB	00H
	DB	00H
	DB	00H
	DB	0fbH
	DB	0cH
	DB	0f7H
	DB	01fH
	DB	00H
	DB	00H
	DB	00H
	DB	0f9H
	DB	0eH
	DB	00H
	DB	00H
	DB	00H
	DB	0fbH
	DB	0cH
	DB	0f7H
	DB	01fH
	DB	00H
	DB	00H
	DB	00H
	DB	0f9H
	DB	0eH
	DB	00H
	DB	00H
	DB	00H
	DB	0fbH
	DB	0cH
	DB	0f7H
	DB	01fH
	DB	00H
	DB	00H
	DB	00H
	DB	0f9H
	DB	0eH
	DB	00H
	DB	00H
	DB	00H
	DB	0fbH
	DB	0cH
	DB	0f7H
	DB	01fH
	DB	00H
	DB	00H
	DB	00H
	DB	0f9H
	DB	0eH
	DB	00H
	DB	00H
	DB	00H
	DB	0fbH
	DB	0cH
	DB	0f7H
	DB	01fH
	DB	00H
	DB	00H
	DB	00H
	DB	0f9H
	DB	0eH
	DB	00H
	DB	00H
	DB	00H
	DB	0fbH
	DB	0cH
	DB	0f7H
	DB	01fH
	DB	00H
	DB	00H
	DB	00H
	DB	0f9H
	DB	0eH
	DB	00H
	DB	00H
	DB	00H
	DB	0fbH
	DB	0cH
	DB	0f7H
	DB	01fH
	DB	00H
	DB	00H
	DB	00H
	DB	0f9H
	DB	0eH
	DB	00H
	DB	00H
	DB	00H
	DB	0fbH
	DB	0cH
	DB	0f7H
	DB	01fH
	DB	00H
	DB	00H
	DB	00H
	DB	0f9H
	DB	0eH
	DB	00H
	DB	00H
	DB	00H
	DB	0fbH
	DB	0cH
	DB	0f7H
	DB	01fH
	DB	060H
	DB	0ebH
	DB	0dfH
	DB	018H
	DB	00H
	DB	0f7H
	DB	05fH
	DB	0fdH
	DB	0ffH
	DB	0ffH
	DB	0dfH
	DB	01H
	DB	0f7H
	DB	0ffH
	DB	0efH
	DB	08aH
	DB	0e9H
	DB	0ffH
	DB	09H
	DB	0f7H
	DB	0efH
	DB	07H
	DB	00H
	DB	010H
	DB	0feH
	DB	0eH
	DB	0f7H
	DB	03fH
	DB	00H
	DB	00H
	DB	00H
	DB	0f8H
	DB	03fH
	DB	0f7H
	DB	01fH
	DB	00H
	DB	00H
	DB	00H
	DB	0f6H
	DB	04fH
	DB	0f7H
	DB	01fH
	DB	00H
	DB	00H
	DB	00H
	DB	0f5H
	DB	04fH
	DB	0f7H
	DB	01fH
	DB	00H
	DB	00H
	DB	00H
	DB	0f4H
	DB	04fH
	DB	0f7H
	DB	01fH
	DB	00H
	DB	00H
	DB	00H
	DB	0f4H
	DB	04fH
	DB	0f7H
	DB	01fH
	DB	00H
	DB	00H
	DB	00H
	DB	0f4H
	DB	04fH
	DB	0f7H
	DB	01fH
	DB	00H
	DB	00H
	DB	00H
	DB	0f4H
	DB	04fH
	DB	0f7H
	DB	01fH
	DB	00H
	DB	00H
	DB	00H
	DB	0f4H
	DB	04fH
	DB	0f7H
	DB	01fH
	DB	00H
	DB	00H
	DB	00H
	DB	0f4H
	DB	04fH
	DB	0f7H
	DB	01fH
	DB	00H
	DB	00H
	DB	00H
	DB	0f4H
	DB	04fH
	DB	0f7H
	DB	01fH
	DB	00H
	DB	00H
	DB	00H
	DB	0f4H
	DB	04fH
	DB	0f7H
	DB	01fH
	DB	00H
	DB	00H
	DB	00H
	DB	0f4H
	DB	04fH
	DB	00H
	DB	00H
	DB	0b6H
	DB	0feH
	DB	0beH
	DB	06H
	DB	00H
	DB	00H
	DB	00H
	DB	0c1H
	DB	0ffH
	DB	0ffH
	DB	0ffH
	DB	0cfH
	DB	01H
	DB	00H
	DB	010H
	DB	0fdH
	DB	0bfH
	DB	046H
	DB	0b6H
	DB	0ffH
	DB	01cH
	DB	00H
	DB	080H
	DB	0ffH
	DB	07H
	DB	00H
	DB	00H
	DB	0f7H
	DB	08fH
	DB	00H
	DB	0e1H
	DB	0cfH
	DB	00H
	DB	00H
	DB	00H
	DB	0c0H
	DB	0efH
	DB	01H
	DB	0f4H
	DB	06fH
	DB	00H
	DB	00H
	DB	00H
	DB	060H
	DB	0ffH
	DB	04H
	DB	0f7H
	DB	03fH
	DB	00H
	DB	00H
	DB	00H
	DB	030H
	DB	0ffH
	DB	07H
	DB	0f8H
	DB	02fH
	DB	00H
	DB	00H
	DB	00H
	DB	020H
	DB	0ffH
	DB	08H
	DB	0f8H
	DB	02fH
	DB	00H
	DB	00H
	DB	00H
	DB	020H
	DB	0ffH
	DB	08H
	DB	0f7H
	DB	03fH
	DB	00H
	DB	00H
	DB	00H
	DB	030H
	DB	0ffH
	DB	07H
	DB	0f4H
	DB	06fH
	DB	00H
	DB	00H
	DB	00H
	DB	060H
	DB	0ffH
	DB	04H
	DB	0e1H
	DB	0cfH
	DB	00H
	DB	00H
	DB	00H
	DB	0c0H
	DB	0efH
	DB	01H
	DB	080H
	DB	0ffH
	DB	07H
	DB	00H
	DB	00H
	DB	0f8H
	DB	08fH
	DB	00H
	DB	010H
	DB	0fdH
	DB	0bfH
	DB	046H
	DB	0b6H
	DB	0ffH
	DB	01dH
	DB	00H
	DB	00H
	DB	0c2H
	DB	0ffH
	DB	0ffH
	DB	0ffH
	DB	0cfH
	DB	01H
	DB	00H
	DB	00H
	DB	00H
	DB	0b6H
	DB	0feH
	DB	0beH
	DB	06H
	DB	00H
	DB	00H
	DB	0f7H
	DB	01fH
	DB	071H
	DB	0ecH
	DB	0ceH
	DB	07H
	DB	00H
	DB	0f7H
	DB	06fH
	DB	0feH
	DB	0ffH
	DB	0ffH
	DB	0cfH
	DB	01H
	DB	0f7H
	DB	0ffH
	DB	0dfH
	DB	089H
	DB	0e9H
	DB	0ffH
	DB	0aH
	DB	0f7H
	DB	0dfH
	DB	05H
	DB	00H
	DB	020H
	DB	0fdH
	DB	03fH
	DB	0f7H
	DB	02fH
	DB	00H
	DB	00H
	DB	00H
	DB	0f4H
	DB	08fH
	DB	0f7H
	DB	01fH
	DB	00H
	DB	00H
	DB	00H
	DB	0e0H
	DB	0bfH
	DB	0f7H
	DB	01fH
	DB	00H
	DB	00H
	DB	00H
	DB	0c0H
	DB	0dfH
	DB	0f7H
	DB	01fH
	DB	00H
	DB	00H
	DB	00H
	DB	0b0H
	DB	0efH
	DB	0f7H
	DB	01fH
	DB	00H
	DB	00H
	DB	00H
	DB	0b0H
	DB	0efH
	DB	0f7H
	DB	01fH
	DB	00H
	DB	00H
	DB	00H
	DB	0c0H
	DB	0dfH
	DB	0f7H
	DB	01fH
	DB	00H
	DB	00H
	DB	00H
	DB	0f1H
	DB	09fH
	DB	0f7H
	DB	01fH
	DB	00H
	DB	00H
	DB	00H
	DB	0f7H
	DB	05fH
	DB	0f7H
	DB	02fH
	DB	00H
	DB	00H
	DB	040H
	DB	0feH
	DB	0dH
	DB	0f7H
	DB	0ffH
	DB	07aH
	DB	066H
	DB	0faH
	DB	0ffH
	DB	03H
	DB	0f7H
	DB	0ffH
	DB	0ffH
	DB	0ffH
	DB	0ffH
	DB	04eH
	DB	00H
	DB	0f7H
	DB	03fH
	DB	0c8H
	DB	0feH
	DB	08dH
	DB	01H
	DB	00H
	DB	0f7H
	DB	01fH
	DB	00H
	DB	00H
	DB	00H
	DB	00H
	DB	00H
	DB	0f7H
	DB	01fH
	DB	00H
	DB	00H
	DB	00H
	DB	00H
	DB	00H
	DB	0f7H
	DB	01fH
	DB	00H
	DB	00H
	DB	00H
	DB	00H
	DB	00H
	DB	0f7H
	DB	01fH
	DB	00H
	DB	00H
	DB	00H
	DB	00H
	DB	00H
	DB	0f7H
	DB	01fH
	DB	00H
	DB	00H
	DB	00H
	DB	00H
	DB	00H
	DB	0f7H
	DB	01fH
	DB	00H
	DB	00H
	DB	00H
	DB	00H
	DB	00H
	DB	00H
	DB	00H
	DB	0b5H
	DB	0feH
	DB	0beH
	DB	0a7H
	DB	0efH
	DB	00H
	DB	0b1H
	DB	0ffH
	DB	0ffH
	DB	0ffH
	DB	0ffH
	DB	0efH
	DB	00H
	DB	0fbH
	DB	0dfH
	DB	067H
	DB	097H
	DB	0fdH
	DB	0efH
	DB	060H
	DB	0ffH
	DB	09H
	DB	00H
	DB	00H
	DB	0b0H
	DB	0efH
	DB	0d0H
	DB	0dfH
	DB	00H
	DB	00H
	DB	00H
	DB	0a0H
	DB	0efH
	DB	0f3H
	DB	07fH
	DB	00H
	DB	00H
	DB	00H
	DB	0a0H
	DB	0efH
	DB	0f6H
	DB	04fH
	DB	00H
	DB	00H
	DB	00H
	DB	0a0H
	DB	0efH
	DB	0f7H
	DB	02fH
	DB	00H
	DB	00H
	DB	00H
	DB	0a0H
	DB	0efH
	DB	0f7H
	DB	02fH
	DB	00H
	DB	00H
	DB	00H
	DB	0a0H
	DB	0efH
	DB	0f7H
	DB	03fH
	DB	00H
	DB	00H
	DB	00H
	DB	0a0H
	DB	0efH
	DB	0f4H
	DB	06fH
	DB	00H
	DB	00H
	DB	00H
	DB	0a0H
	DB	0efH
	DB	0f1H
	DB	0cfH
	DB	00H
	DB	00H
	DB	00H
	DB	0a0H
	DB	0efH
	DB	0b0H
	DB	0ffH
	DB	07H
	DB	00H
	DB	020H
	DB	0faH
	DB	0efH
	DB	030H
	DB	0ffH
	DB	0cfH
	DB	088H
	DB	0fbH
	DB	0ffH
	DB	0efH
	DB	00H
	DB	0f5H
	DB	0ffH
	DB	0ffH
	DB	0ffH
	DB	0a9H
	DB	0efH
	DB	00H
	DB	030H
	DB	0eaH
	DB	0dfH
	DB	03aH
	DB	0a0H
	DB	0efH
	DB	00H
	DB	00H
	DB	00H
	DB	00H
	DB	00H
	DB	0a0H
	DB	0efH
	DB	00H
	DB	00H
	DB	00H
	DB	00H
	DB	00H
	DB	0a0H
	DB	0efH
	DB	00H
	DB	00H
	DB	00H
	DB	00H
	DB	00H
	DB	0a0H
	DB	0efH
	DB	00H
	DB	00H
	DB	00H
	DB	00H
	DB	00H
	DB	0a0H
	DB	0efH
	DB	00H
	DB	00H
	DB	00H
	DB	00H
	DB	00H
	DB	0a0H
	DB	0efH
	DB	00H
	DB	00H
	DB	00H
	DB	00H
	DB	00H
	DB	0a0H
	DB	0efH
	DB	0f7H
	DB	01fH
	DB	040H
	DB	0ebH
	DB	0efH
	DB	01H
	DB	0f7H
	DB	03fH
	DB	0fbH
	DB	0ffH
	DB	0ffH
	DB	01H
	DB	0f7H
	DB	0efH
	DB	0ffH
	DB	09bH
	DB	0caH
	DB	01H
	DB	0f7H
	DB	0ffH
	DB	019H
	DB	00H
	DB	00H
	DB	00H
	DB	0f7H
	DB	05fH
	DB	00H
	DB	00H
	DB	00H
	DB	00H
	DB	0f7H
	DB	01fH
	DB	00H
	DB	00H
	DB	00H
	DB	00H
	DB	0f7H
	DB	01fH
	DB	00H
	DB	00H
	DB	00H
	DB	00H
	DB	0f7H
	DB	01fH
	DB	00H
	DB	00H
	DB	00H
	DB	00H
	DB	0f7H
	DB	01fH
	DB	00H
	DB	00H
	DB	00H
	DB	00H
	DB	0f7H
	DB	01fH
	DB	00H
	DB	00H
	DB	00H
	DB	00H
	DB	0f7H
	DB	01fH
	DB	00H
	DB	00H
	DB	00H
	DB	00H
	DB	0f7H
	DB	01fH
	DB	00H
	DB	00H
	DB	00H
	DB	00H
	DB	0f7H
	DB	01fH
	DB	00H
	DB	00H
	DB	00H
	DB	00H
	DB	0f7H
	DB	01fH
	DB	00H
	DB	00H
	DB	00H
	DB	00H
	DB	0f7H
	DB	01fH
	DB	00H
	DB	00H
	DB	00H
	DB	00H
	DB	0f7H
	DB	01fH
	DB	00H
	DB	00H
	DB	00H
	DB	00H
	DB	00H
	DB	060H
	DB	0ebH
	DB	0efH
	DB	0adH
	DB	015H
	DB	00H
	DB	020H
	DB	0fcH
	DB	0ffH
	DB	0ffH
	DB	0ffH
	DB	0cfH
	DB	00H
	DB	0c0H
	DB	0ffH
	DB	05aH
	DB	054H
	DB	0c8H
	DB	0dfH
	DB	00H
	DB	0f3H
	DB	07fH
	DB	00H
	DB	00H
	DB	00H
	DB	093H
	DB	00H
	DB	0f6H
	DB	04fH
	DB	00H
	DB	00H
	DB	00H
	DB	00H
	DB	00H
	DB	0f4H
	DB	09fH
	DB	00H
	DB	00H
	DB	00H
	DB	00H
	DB	00H
	DB	0e1H
	DB	0ffH
	DB	08dH
	DB	014H
	DB	00H
	DB	00H
	DB	00H
	DB	040H
	DB	0feH
	DB	0ffH
	DB	0ffH
	DB	08dH
	DB	02H
	DB	00H
	DB	00H
	DB	071H
	DB	0fcH
	DB	0ffH
	DB	0ffH
	DB	05eH
	DB	00H
	DB	00H
	DB	00H
	DB	00H
	DB	063H
	DB	0fbH
	DB	0efH
	DB	01H
	DB	00H
	DB	00H
	DB	00H
	DB	00H
	DB	080H
	DB	0ffH
	DB	05H
	DB	01H
	DB	00H
	DB	00H
	DB	00H
	DB	040H
	DB	0ffH
	DB	06H
	DB	0a7H
	DB	02H
	DB	00H
	DB	00H
	DB	070H
	DB	0ffH
	DB	03H
	DB	0f8H
	DB	0bfH
	DB	047H
	DB	054H
	DB	0f9H
	DB	0bfH
	DB	00H
	DB	0f6H
	DB	0ffH
	DB	0ffH
	DB	0ffH
	DB	0ffH
	DB	01cH
	DB	00H
	DB	020H
	DB	0b7H
	DB	0feH
	DB	0dfH
	DB	05aH
	DB	00H
	DB	00H
	DB	00H
	DB	083H
	DB	018H
	DB	00H
	DB	00H
	DB	00H
	DB	00H
	DB	0f6H
	DB	02fH
	DB	00H
	DB	00H
	DB	00H
	DB	00H
	DB	0f6H
	DB	02fH
	DB	00H
	DB	00H
	DB	00H
	DB	00H
	DB	0f6H
	DB	02fH
	DB	00H
	DB	00H
	DB	00H
	DB	00H
	DB	0f6H
	DB	02fH
	DB	00H
	DB	00H
	DB	00H
	DB	0f2H
	DB	0ffH
	DB	0ffH
	DB	0ffH
	DB	0ffH
	DB	07H
	DB	0f2H
	DB	0ffH
	DB	0ffH
	DB	0ffH
	DB	0ffH
	DB	07H
	DB	030H
	DB	0f8H
	DB	05fH
	DB	033H
	DB	033H
	DB	01H
	DB	00H
	DB	0f6H
	DB	02fH
	DB	00H
	DB	00H
	DB	00H
	DB	00H
	DB	0f6H
	DB	02fH
	DB	00H
	DB	00H
	DB	00H
	DB	00H
	DB	0f6H
	DB	02fH
	DB	00H
	DB	00H
	DB	00H
	DB	00H
	DB	0f6H
	DB	02fH
	DB	00H
	DB	00H
	DB	00H
	DB	00H
	DB	0f6H
	DB	02fH
	DB	00H
	DB	00H
	DB	00H
	DB	00H
	DB	0f6H
	DB	02fH
	DB	00H
	DB	00H
	DB	00H
	DB	00H
	DB	0f6H
	DB	02fH
	DB	00H
	DB	00H
	DB	00H
	DB	00H
	DB	0f6H
	DB	03fH
	DB	00H
	DB	00H
	DB	00H
	DB	00H
	DB	0f6H
	DB	04fH
	DB	00H
	DB	00H
	DB	00H
	DB	00H
	DB	0f3H
	DB	09fH
	DB	00H
	DB	00H
	DB	00H
	DB	00H
	DB	0e0H
	DB	0ffH
	DB	058H
	DB	085H
	DB	05H
	DB	00H
	DB	050H
	DB	0ffH
	DB	0ffH
	DB	0ffH
	DB	07H
	DB	00H
	DB	00H
	DB	0b4H
	DB	0feH
	DB	0beH
	DB	04H
	DB	0f9H
	DB	0fH
	DB	00H
	DB	00H
	DB	00H
	DB	0f6H
	DB	03fH
	DB	0f9H
	DB	0fH
	DB	00H
	DB	00H
	DB	00H
	DB	0f6H
	DB	03fH
	DB	0f9H
	DB	0fH
	DB	00H
	DB	00H
	DB	00H
	DB	0f6H
	DB	03fH
	DB	0f9H
	DB	0fH
	DB	00H
	DB	00H
	DB	00H
	DB	0f6H
	DB	03fH
	DB	0f9H
	DB	0fH
	DB	00H
	DB	00H
	DB	00H
	DB	0f6H
	DB	03fH
	DB	0f9H
	DB	0fH
	DB	00H
	DB	00H
	DB	00H
	DB	0f6H
	DB	03fH
	DB	0f9H
	DB	0fH
	DB	00H
	DB	00H
	DB	00H
	DB	0f6H
	DB	03fH
	DB	0f9H
	DB	0fH
	DB	00H
	DB	00H
	DB	00H
	DB	0f6H
	DB	03fH
	DB	0f9H
	DB	0fH
	DB	00H
	DB	00H
	DB	00H
	DB	0f6H
	DB	03fH
	DB	0f9H
	DB	0fH
	DB	00H
	DB	00H
	DB	00H
	DB	0f6H
	DB	03fH
	DB	0f8H
	DB	01fH
	DB	00H
	DB	00H
	DB	00H
	DB	0f6H
	DB	03fH
	DB	0f7H
	DB	04fH
	DB	00H
	DB	00H
	DB	00H
	DB	0f7H
	DB	03fH
	DB	0f4H
	DB	0bfH
	DB	00H
	DB	00H
	DB	092H
	DB	0ffH
	DB	03fH
	DB	0d0H
	DB	0ffH
	DB	08cH
	DB	0b8H
	DB	0ffH
	DB	0ffH
	DB	03fH
	DB	040H
	DB	0feH
	DB	0ffH
	DB	0ffH
	DB	0afH
	DB	0f7H
	DB	03fH
	DB	00H
	DB	0a2H
	DB	0feH
	DB	0aeH
	DB	04H
	DB	0f6H
	DB	03fH
	DB	0e1H
	DB	0cfH
	DB	00H
	DB	00H
	DB	00H
	DB	00H
	DB	0f2H
	DB	08fH
	DB	090H
	DB	0ffH
	DB	03H
	DB	00H
	DB	00H
	DB	00H
	DB	0f8H
	DB	02fH
	DB	030H
	DB	0ffH
	DB	08H
	DB	00H
	DB	00H
	DB	00H
	DB	0fdH
	DB	0cH
	DB	00H
	DB	0fcH
	DB	0eH
	DB	00H
	DB	00H
	DB	040H
	DB	0ffH
	DB	06H
	DB	00H
	DB	0f7H
	DB	04fH
	DB	00H
	DB	00H
	DB	090H
	DB	0efH
	DB	01H
	DB	00H
	DB	0f1H
	DB	0afH
	DB	00H
	DB	00H
	DB	0e1H
	DB	09fH
	DB	00H
	DB	00H
	DB	0a0H
	DB	0ffH
	DB	01H
	DB	00H
	DB	0f5H
	DB	03fH
	DB	00H
	DB	00H
	DB	040H
	DB	0ffH
	DB	06H
	DB	00H
	DB	0fbH
	DB	0dH
	DB	00H
	DB	00H
	DB	00H
	DB	0fdH
	DB	0cH
	DB	010H
	DB	0ffH
	DB	07H
	DB	00H
	DB	00H
	DB	00H
	DB	0f8H
	DB	02fH
	DB	070H
	DB	0ffH
	DB	01H
	DB	00H
	DB	00H
	DB	00H
	DB	0f2H
	DB	08fH
	DB	0c0H
	DB	0afH
	DB	00H
	DB	00H
	DB	00H
	DB	00H
	DB	0b0H
	DB	0dfH
	DB	0f3H
	DB	04fH
	DB	00H
	DB	00H
	DB	00H
	DB	00H
	DB	060H
	DB	0ffH
	DB	0fcH
	DB	0dH
	DB	00H
	DB	00H
	DB	00H
	DB	00H
	DB	010H
	DB	0feH
	DB	0ffH
	DB	08H
	DB	00H
	DB	00H
	DB	00H
	DB	00H
	DB	00H
	DB	0f9H
	DB	0ffH
	DB	02H
	DB	00H
	DB	00H
	DB	00H
	DB	00H
	DB	00H
	DB	0f3H
	DB	0bfH
	DB	00H
	DB	00H
	DB	00H
	DB	0fbH
	DB	0eH
	DB	00H
	DB	00H
	DB	0a0H
	DB	0bfH
	DB	00H
	DB	00H
	DB	00H
	DB	0feH
	DB	09H
	DB	0f7H
	DB	03fH
	DB	00H
	DB	00H
	DB	0e1H
	DB	0ffH
	DB	01H
	DB	00H
	DB	020H
	DB	0ffH
	DB	05H
	DB	0f3H
	DB	06fH
	DB	00H
	DB	00H
	DB	0f5H
	DB	0ffH
	DB	06H
	DB	00H
	DB	060H
	DB	0ffH
	DB	02H
	DB	0e0H
	DB	0afH
	DB	00H
	DB	00H
	DB	0f9H
	DB	0ffH
	DB	0aH
	DB	00H
	DB	090H
	DB	0dfH
	DB	00H
	DB	0a0H
	DB	0dfH
	DB	00H
	DB	00H
	DB	0feH
	DB	0f7H
	DB	01fH
	DB	00H
	DB	0c0H
	DB	09fH
	DB	00H
	DB	070H
	DB	0ffH
	DB	01H
	DB	030H
	DB	0dfH
	DB	0e0H
	DB	05fH
	DB	00H
	DB	0f1H
	DB	06fH
	DB	00H
	DB	030H
	DB	0ffH
	DB	05H
	DB	080H
	DB	08fH
	DB	0a0H
	DB	0afH
	DB	00H
	DB	0f4H
	DB	02fH
	DB	00H
	DB	00H
	DB	0feH
	DB	08H
	DB	0d0H
	DB	04fH
	DB	050H
	DB	0efH
	DB	00H
	DB	0f7H
	DB	0dH
	DB	00H
	DB	00H
	DB	0faH
	DB	0cH
	DB	0f2H
	DB	0eH
	DB	010H
	DB	0ffH
	DB	04H
	DB	0faH
	DB	09H
	DB	00H
	DB	00H
	DB	0f7H
	DB	0fH
	DB	0f7H
	DB	09H
	DB	00H
	DB	0faH
	DB	09H
	DB	0fdH
	DB	06H
	DB	00H
	DB	00H
	DB	0f3H
	DB	03fH
	DB	0fbH
	DB	04H
	DB	00H
	DB	0f6H
	DB	01dH
	DB	0ffH
	DB	02H
	DB	00H
	DB	00H
	DB	0e0H
	DB	08fH
	DB	0efH
	DB	00H
	DB	00H
	DB	0f1H
	DB	08fH
	DB	0dfH
	DB	00H
	DB	00H
	DB	00H
	DB	0a0H
	DB	0efH
	DB	0afH
	DB	00H
	DB	00H
	DB	0b0H
	DB	0efH
	DB	0afH
	DB	00H
	DB	00H
	DB	00H
	DB	060H
	DB	0ffH
	DB	05fH
	DB	00H
	DB	00H
	DB	060H
	DB	0ffH
	DB	06fH
	DB	00H
	DB	00H
	DB	00H
	DB	030H
	DB	0ffH
	DB	01fH
	DB	00H
	DB	00H
	DB	020H
	DB	0ffH
	DB	02fH
	DB	00H
	DB	00H
	DB	00H
	DB	00H
	DB	0feH
	DB	0bH
	DB	00H
	DB	00H
	DB	00H
	DB	0fcH
	DB	0dH
	DB	00H
	DB	00H
	DB	0fbH
	DB	07fH
	DB	00H
	DB	00H
	DB	00H
	DB	090H
	DB	0ffH
	DB	06H
	DB	0e2H
	DB	0ffH
	DB	03H
	DB	00H
	DB	00H
	DB	0f5H
	DB	09fH
	DB	00H
	DB	040H
	DB	0ffH
	DB	01dH
	DB	00H
	DB	020H
	DB	0feH
	DB	0cH
	DB	00H
	DB	00H
	DB	0f8H
	DB	09fH
	DB	00H
	DB	0b0H
	DB	0efH
	DB	02H
	DB	00H
	DB	00H
	DB	0c0H
	DB	0ffH
	DB	05H
	DB	0f7H
	DB	05fH
	DB	00H
	DB	00H
	DB	00H
	DB	020H
	DB	0feH
	DB	05eH
	DB	0ffH
	DB	08H
	DB	00H
	DB	00H
	DB	00H
	DB	00H
	DB	0f5H
	DB	0ffH
	DB	0cfH
	DB	00H
	DB	00H
	DB	00H
	DB	00H
	DB	00H
	DB	090H
	DB	0ffH
	DB	02eH
	DB	00H
	DB	00H
	DB	00H
	DB	00H
	DB	00H
	DB	090H
	DB	0ffH
	DB	03fH
	DB	00H
	DB	00H
	DB	00H
	DB	00H
	DB	00H
	DB	0f5H
	DB	0ffH
	DB	0dfH
	DB	01H
	DB	00H
	DB	00H
	DB	00H
	DB	020H
	DB	0feH
	DB	06bH
	DB	0ffH
	DB	0aH
	DB	00H
	DB	00H
	DB	00H
	DB	0c0H
	DB	0efH
	DB	01H
	DB	0faH
	DB	06fH
	DB	00H
	DB	00H
	DB	00H
	DB	0f8H
	DB	04fH
	DB	00H
	DB	0d1H
	DB	0ffH
	DB	03H
	DB	00H
	DB	050H
	DB	0ffH
	DB	09H
	DB	00H
	DB	040H
	DB	0ffH
	DB	01dH
	DB	00H
	DB	0e2H
	DB	0dfH
	DB	01H
	DB	00H
	DB	00H
	DB	0f8H
	DB	0afH
	DB	00H
	DB	0fcH
	DB	03fH
	DB	00H
	DB	00H
	DB	00H
	DB	0c0H
	DB	0ffH
	DB	06H
	DB	0e1H
	DB	0cfH
	DB	00H
	DB	00H
	DB	00H
	DB	00H
	DB	0f2H
	DB	08fH
	DB	090H
	DB	0ffH
	DB	03H
	DB	00H
	DB	00H
	DB	00H
	DB	0f8H
	DB	02fH
	DB	030H
	DB	0ffH
	DB	09H
	DB	00H
	DB	00H
	DB	00H
	DB	0feH
	DB	0bH
	DB	00H
	DB	0fcH
	DB	01eH
	DB	00H
	DB	00H
	DB	050H
	DB	0ffH
	DB	05H
	DB	00H
	DB	0f6H
	DB	06fH
	DB	00H
	DB	00H
	DB	0b0H
	DB	0dfH
	DB	00H
	DB	00H
	DB	0e1H
	DB	0cfH
	DB	00H
	DB	00H
	DB	0f2H
	DB	08fH
	DB	00H
	DB	00H
	DB	090H
	DB	0ffH
	DB	03H
	DB	00H
	DB	0f8H
	DB	02fH
	DB	00H
	DB	00H
	DB	030H
	DB	0ffH
	DB	09H
	DB	00H
	DB	0feH
	DB	0aH
	DB	00H
	DB	00H
	DB	00H
	DB	0fcH
	DB	01eH
	DB	050H
	DB	0ffH
	DB	04H
	DB	00H
	DB	00H
	DB	00H
	DB	0f6H
	DB	05fH
	DB	0b0H
	DB	0dfH
	DB	00H
	DB	00H
	DB	00H
	DB	00H
	DB	0e1H
	DB	0bfH
	DB	0f2H
	DB	07fH
	DB	00H
	DB	00H
	DB	00H
	DB	00H
	DB	090H
	DB	0ffH
	DB	0faH
	DB	01fH
	DB	00H
	DB	00H
	DB	00H
	DB	00H
	DB	030H
	DB	0ffH
	DB	0ffH
	DB	0aH
	DB	00H
	DB	00H
	DB	00H
	DB	00H
	DB	00H
	DB	0fcH
	DB	0ffH
	DB	04H
	DB	00H
	DB	00H
	DB	00H
	DB	00H
	DB	00H
	DB	0f6H
	DB	0dfH
	DB	00H
	DB	00H
	DB	00H
	DB	00H
	DB	00H
	DB	00H
	DB	0f3H
	DB	07fH
	DB	00H
	DB	00H
	DB	00H
	DB	00H
	DB	00H
	DB	00H
	DB	0f9H
	DB	01fH
	DB	00H
	DB	00H
	DB	00H
	DB	00H
	DB	00H
	DB	010H
	DB	0feH
	DB	0aH
	DB	00H
	DB	00H
	DB	00H
	DB	00H
	DB	00H
	DB	070H
	DB	0ffH
	DB	04H
	DB	00H
	DB	00H
	DB	00H
	DB	00H
	DB	00H
	DB	0d0H
	DB	0dfH
	DB	00H
	DB	00H
	DB	00H
	DB	00H
	DB	00H
	DB	00H
	DB	0f4H
	DB	07fH
	DB	00H
	DB	00H
	DB	00H
	DB	00H
	DB	00H
	DB	00H
	DB	0fbH
	DB	01eH
	DB	00H
	DB	00H
	DB	00H
	DB	00H
	DB	0f8H
	DB	0ffH
	DB	0ffH
	DB	0ffH
	DB	0ffH
	DB	0ffH
	DB	06H
	DB	0f8H
	DB	0ffH
	DB	0ffH
	DB	0ffH
	DB	0ffH
	DB	0ffH
	DB	06H
	DB	031H
	DB	033H
	DB	033H
	DB	033H
	DB	0f5H
	DB	0dfH
	DB	01H
	DB	00H
	DB	00H
	DB	00H
	DB	00H
	DB	0fcH
	DB	03fH
	DB	00H
	DB	00H
	DB	00H
	DB	00H
	DB	080H
	DB	0ffH
	DB	06H
	DB	00H
	DB	00H
	DB	00H
	DB	00H
	DB	0f5H
	DB	0afH
	DB	00H
	DB	00H
	DB	00H
	DB	00H
	DB	020H
	DB	0feH
	DB	01dH
	DB	00H
	DB	00H
	DB	00H
	DB	00H
	DB	0c0H
	DB	0ffH
	DB	03H
	DB	00H
	DB	00H
	DB	00H
	DB	00H
	DB	0f8H
	DB	06fH
	DB	00H
	DB	00H
	DB	00H
	DB	00H
	DB	050H
	DB	0ffH
	DB	0aH
	DB	00H
	DB	00H
	DB	00H
	DB	00H
	DB	0e2H
	DB	0dfH
	DB	01H
	DB	00H
	DB	00H
	DB	00H
	DB	00H
	DB	0fcH
	DB	03fH
	DB	00H
	DB	00H
	DB	00H
	DB	00H
	DB	080H
	DB	0ffH
	DB	06H
	DB	00H
	DB	00H
	DB	00H
	DB	00H
	DB	0f5H
	DB	0cfH
	DB	033H
	DB	033H
	DB	033H
	DB	033H
	DB	02H
	DB	0fbH
	DB	0ffH
	DB	0ffH
	DB	0ffH
	DB	0ffH
	DB	0ffH
	DB	09H
	DB	0fbH
	DB	0ffH
	DB	0ffH
	DB	0ffH
	DB	0ffH
	DB	0ffH
	DB	09H
CONST	ENDS
PUBLIC	__JustMyCode_Default
; Function compile flags: /Odt
;	COMDAT __JustMyCode_Default
_TEXT	SEGMENT
__JustMyCode_Default PROC				; COMDAT
	push	ebp
	mov	ebp, esp
	pop	ebp
	ret	0
__JustMyCode_Default ENDP
_TEXT	ENDS
END
