; Listing generated by Microsoft (R) Optimizing Compiler Version 19.31.31104.0 

	TITLE	F:\MyProject\STM32F769_Keyboard\TouchGFX\build\Debug\obj\Font_MicrosoftYaHei_32_4bpp_17.obj
	.686P
	.XMM
	include listing.inc
	.model	flat

INCLUDELIB MSVCRTD
INCLUDELIB OLDNAMES

PUBLIC	?unicodes_MicrosoftYaHei_32_4bpp_17@@3QBEB	; unicodes_MicrosoftYaHei_32_4bpp_17
msvcjmc	SEGMENT
__70B5BA90_concurrencysal@h DB 01H
__35156B19_sal@h DB 01H
__8DB56A60_vadefs@h DB 01H
__3ECF3657_vcruntime@h DB 01H
__D1309CD7_corecrt@h DB 01H
__913F199D_assert@h DB 01H
__F5B80406_stdint@h DB 01H
__4DF99823_Config@hpp DB 01H
__B2B90886_Types@hpp DB 01H
__B2E1CAC5_Font_MicrosoftYaHei_32_4bpp_17@cpp DB 01H
msvcjmc	ENDS
CONST	SEGMENT
?unicodes_MicrosoftYaHei_32_4bpp_17@@3QBEB DB 00H	; unicodes_MicrosoftYaHei_32_4bpp_17
	DB	00H
	DB	00H
	DB	047H
	DB	01H
	DB	00H
	DB	00H
	DB	00H
	DB	00H
	DB	00H
	DB	00H
	DB	00H
	DB	00H
	DB	00H
	DB	00H
	DB	00H
	DB	00H
	DB	00H
	DB	030H
	DB	0ffH
	DB	04H
	DB	00H
	DB	00H
	DB	011H
	DB	011H
	DB	011H
	DB	011H
	DB	011H
	DB	011H
	DB	011H
	DB	01H
	DB	00H
	DB	00H
	DB	00H
	DB	070H
	DB	0efH
	DB	00H
	DB	00H
	DB	00H
	DB	0feH
	DB	0ffH
	DB	0ffH
	DB	0ffH
	DB	0ffH
	DB	0ffH
	DB	0ffH
	DB	07fH
	DB	00H
	DB	00H
	DB	00H
	DB	0b0H
	DB	0afH
	DB	00H
	DB	00H
	DB	00H
	DB	0feH
	DB	0cdH
	DB	0ccH
	DB	0ccH
	DB	0ccH
	DB	0ccH
	DB	0ecH
	DB	07fH
	DB	00H
	DB	00H
	DB	00H
	DB	0f1H
	DB	05fH
	DB	00H
	DB	00H
	DB	00H
	DB	0feH
	DB	04H
	DB	00H
	DB	00H
	DB	00H
	DB	00H
	DB	0b0H
	DB	07fH
	DB	00H
	DB	0a1H
	DB	0aaH
	DB	0fbH
	DB	0afH
	DB	0aaH
	DB	0aaH
	DB	08H
	DB	0feH
	DB	04H
	DB	00H
	DB	00H
	DB	00H
	DB	00H
	DB	0b0H
	DB	07fH
	DB	00H
	DB	0f2H
	DB	0ffH
	DB	0ffH
	DB	0ffH
	DB	0ffH
	DB	0ffH
	DB	0cH
	DB	0feH
	DB	014H
	DB	011H
	DB	011H
	DB	011H
	DB	011H
	DB	0b1H
	DB	07fH
	DB	00H
	DB	051H
	DB	055H
	DB	0ffH
	DB	058H
	DB	055H
	DB	055H
	DB	04H
	DB	0feH
	DB	0ffH
	DB	0ffH
	DB	0ffH
	DB	0ffH
	DB	0ffH
	DB	0ffH
	DB	07fH
	DB	00H
	DB	00H
	DB	040H
	DB	0efH
	DB	051H
	DB	04H
	DB	00H
	DB	00H
	DB	0feH
	DB	0cdH
	DB	0ccH
	DB	0ccH
	DB	0ccH
	DB	0ccH
	DB	0ecH
	DB	07fH
	DB	00H
	DB	00H
	DB	090H
	DB	0afH
	DB	0f3H
	DB	0dH
	DB	00H
	DB	00H
	DB	0feH
	DB	04H
	DB	00H
	DB	00H
	DB	00H
	DB	00H
	DB	0b0H
	DB	07fH
	DB	00H
	DB	00H
	DB	0e0H
	DB	05fH
	DB	0f3H
	DB	0dH
	DB	00H
	DB	00H
	DB	011H
	DB	00H
	DB	00H
	DB	00H
	DB	00H
	DB	00H
	DB	00H
	DB	01H
	DB	00H
	DB	00H
	DB	0f4H
	DB	01eH
	DB	0f3H
	DB	0dH
	DB	00H
	DB	0d8H
	DB	0ddH
	DB	0ddH
	DB	0ddH
	DB	0ddH
	DB	0ddH
	DB	0ddH
	DB	0ddH
	DB	0ddH
	DB	03dH
	DB	00H
	DB	0f9H
	DB	0aH
	DB	0f3H
	DB	0dH
	DB	00H
	DB	0f9H
	DB	0ffH
	DB	0ffH
	DB	0ffH
	DB	0ffH
	DB	0ffH
	DB	0ffH
	DB	0ffH
	DB	0ffH
	DB	04fH
	DB	00H
	DB	0feH
	DB	05H
	DB	0f3H
	DB	0dH
	DB	00H
	DB	010H
	DB	0faH
	DB	018H
	DB	011H
	DB	011H
	DB	011H
	DB	011H
	DB	0f1H
	DB	03fH
	DB	01H
	DB	040H
	DB	0efH
	DB	00H
	DB	0f3H
	DB	0dH
	DB	00H
	DB	00H
	DB	0faH
	DB	08H
	DB	00H
	DB	00H
	DB	00H
	DB	00H
	DB	0f0H
	DB	03fH
	DB	00H
	DB	090H
	DB	0afH
	DB	022H
	DB	0f4H
	DB	02eH
	DB	022H
	DB	01H
	DB	0faH
	DB	08H
	DB	00H
	DB	00H
	DB	00H
	DB	00H
	DB	0f0H
	DB	03fH
	DB	00H
	DB	0c0H
	DB	0ffH
	DB	0ffH
	DB	0ffH
	DB	0ffH
	DB	0ffH
	DB	08H
	DB	0faH
	DB	0deH
	DB	0ddH
	DB	0ddH
	DB	0ddH
	DB	0ddH
	DB	0fdH
	DB	03fH
	DB	00H
	DB	0b0H
	DB	0eeH
	DB	0eeH
	DB	0feH
	DB	0efH
	DB	0eeH
	DB	08H
	DB	0faH
	DB	0eeH
	DB	0eeH
	DB	0eeH
	DB	0eeH
	DB	0eeH
	DB	0feH
	DB	03fH
	DB	00H
	DB	00H
	DB	00H
	DB	00H
	DB	0f3H
	DB	0dH
	DB	00H
	DB	00H
	DB	0faH
	DB	08H
	DB	00H
	DB	00H
	DB	00H
	DB	00H
	DB	0f0H
	DB	03fH
	DB	00H
	DB	00H
	DB	00H
	DB	00H
	DB	0f3H
	DB	0dH
	DB	00H
	DB	00H
	DB	0faH
	DB	08H
	DB	00H
	DB	00H
	DB	00H
	DB	00H
	DB	0f0H
	DB	03fH
	DB	00H
	DB	00H
	DB	00H
	DB	00H
	DB	0f3H
	DB	0dH
	DB	00H
	DB	00H
	DB	0faH
	DB	029H
	DB	022H
	DB	022H
	DB	022H
	DB	022H
	DB	0f2H
	DB	03fH
	DB	00H
	DB	00H
	DB	00H
	DB	00H
	DB	0f3H
	DB	0dH
	DB	00H
	DB	01H
	DB	0faH
	DB	0ffH
	DB	0ffH
	DB	0ffH
	DB	0ffH
	DB	0ffH
	DB	0ffH
	DB	03fH
	DB	00H
	DB	00H
	DB	010H
	DB	042H
	DB	0f7H
	DB	0beH
	DB	0edH
	DB	01fH
	DB	0faH
	DB	0bdH
	DB	0bbH
	DB	0bbH
	DB	0bbH
	DB	0bbH
	DB	0fbH
	DB	03fH
	DB	00H
	DB	0d6H
	DB	0feH
	DB	0ffH
	DB	0ffH
	DB	0ffH
	DB	0ffH
	DB	0eH
	DB	0faH
	DB	08H
	DB	00H
	DB	00H
	DB	00H
	DB	00H
	DB	0f0H
	DB	03fH
	DB	00H
	DB	0f6H
	DB	0ffH
	DB	0dfH
	DB	0fcH
	DB	05eH
	DB	024H
	DB	00H
	DB	0faH
	DB	08H
	DB	00H
	DB	00H
	DB	00H
	DB	00H
	DB	0f0H
	DB	03fH
	DB	00H
	DB	062H
	DB	024H
	DB	00H
	DB	0f3H
	DB	0dH
	DB	00H
	DB	011H
	DB	0fbH
	DB	049H
	DB	055H
	DB	076H
	DB	088H
	DB	0a9H
	DB	0fbH
	DB	0dfH
	DB	09eH
	DB	00H
	DB	00H
	DB	00H
	DB	0f3H
	DB	0dH
	DB	070H
	DB	0ffH
	DB	0ffH
	DB	0ffH
	DB	0ffH
	DB	0ffH
	DB	0ffH
	DB	0ffH
	DB	0ffH
	DB	0ffH
	DB	08fH
	DB	00H
	DB	00H
	DB	00H
	DB	0f3H
	DB	0dH
	DB	060H
	DB	0efH
	DB	0ddH
	DB	0bcH
	DB	09aH
	DB	088H
	DB	067H
	DB	055H
	DB	0f4H
	DB	04fH
	DB	01H
	DB	00H
	DB	00H
	DB	00H
	DB	0f3H
	DB	0dH
	DB	00H
	DB	00H
	DB	00H
	DB	00H
	DB	00H
	DB	00H
	DB	00H
	DB	00H
	DB	0f0H
	DB	03fH
	DB	00H
	DB	00H
	DB	00H
	DB	00H
	DB	0f3H
	DB	0dH
	DB	00H
	DB	00H
	DB	00H
	DB	00H
	DB	00H
	DB	00H
	DB	00H
	DB	00H
	DB	0f0H
	DB	03fH
	DB	00H
	DB	00H
	DB	00H
	DB	00H
	DB	0f3H
	DB	0dH
	DB	00H
	DB	00H
	DB	00H
	DB	00H
	DB	00H
	DB	00H
	DB	00H
	DB	00H
	DB	0f0H
	DB	03fH
	DB	00H
CONST	ENDS
PUBLIC	__JustMyCode_Default
; Function compile flags: /Odt
;	COMDAT __JustMyCode_Default
_TEXT	SEGMENT
__JustMyCode_Default PROC				; COMDAT
	push	ebp
	mov	ebp, esp
	pop	ebp
	ret	0
__JustMyCode_Default ENDP
_TEXT	ENDS
END
