; Listing generated by Microsoft (R) Optimizing Compiler Version 19.31.31104.0 

	TITLE	F:\MyProject\STM32F769_Keyboard\TouchGFX\build\Debug\obj\Font_MicrosoftYaHei_32_4bpp_10.obj
	.686P
	.XMM
	include listing.inc
	.model	flat

INCLUDELIB MSVCRTD
INCLUDELIB OLDNAMES

PUBLIC	?unicodes_MicrosoftYaHei_32_4bpp_10@@3QBEB	; unicodes_MicrosoftYaHei_32_4bpp_10
msvcjmc	SEGMENT
__70B5BA90_concurrencysal@h DB 01H
__35156B19_sal@h DB 01H
__8DB56A60_vadefs@h DB 01H
__3ECF3657_vcruntime@h DB 01H
__D1309CD7_corecrt@h DB 01H
__913F199D_assert@h DB 01H
__F5B80406_stdint@h DB 01H
__4DF99823_Config@hpp DB 01H
__B2B90886_Types@hpp DB 01H
__00C116D5_Font_MicrosoftYaHei_32_4bpp_10@cpp DB 01H
msvcjmc	ENDS
CONST	SEGMENT
?unicodes_MicrosoftYaHei_32_4bpp_10@@3QBEB DB 055H	; unicodes_MicrosoftYaHei_32_4bpp_10
	DB	055H
	DB	055H
	DB	055H
	DB	055H
	DB	055H
	DB	055H
	DB	055H
	DB	055H
	DB	055H
	DB	055H
	DB	055H
	DB	055H
	DB	05H
	DB	0ffH
	DB	0ffH
	DB	0ffH
	DB	0ffH
	DB	0ffH
	DB	0ffH
	DB	0ffH
	DB	0ffH
	DB	0ffH
	DB	0ffH
	DB	0ffH
	DB	0ffH
	DB	0ffH
	DB	0dH
	DB	0ffH
	DB	0ffH
	DB	0ffH
	DB	0ffH
	DB	0ffH
	DB	0ffH
	DB	0ffH
	DB	0ffH
	DB	0ffH
	DB	0ffH
	DB	0ffH
	DB	0ffH
	DB	0ffH
	DB	0dH
	DB	0ffH
	DB	01aH
	DB	011H
	DB	011H
	DB	011H
	DB	011H
	DB	011H
	DB	011H
	DB	011H
	DB	011H
	DB	011H
	DB	011H
	DB	011H
	DB	01H
	DB	0ffH
	DB	0aH
	DB	00H
	DB	00H
	DB	00H
	DB	00H
	DB	00H
	DB	00H
	DB	00H
	DB	00H
	DB	081H
	DB	01H
	DB	00H
	DB	00H
	DB	0ffH
	DB	0aH
	DB	010H
	DB	08cH
	DB	00H
	DB	00H
	DB	00H
	DB	00H
	DB	00H
	DB	00H
	DB	0fbH
	DB	03dH
	DB	00H
	DB	00H
	DB	0ffH
	DB	0aH
	DB	0a0H
	DB	0ffH
	DB	01bH
	DB	00H
	DB	00H
	DB	00H
	DB	00H
	DB	070H
	DB	0ffH
	DB	01dH
	DB	00H
	DB	00H
	DB	0ffH
	DB	0aH
	DB	010H
	DB	0fcH
	DB	0cfH
	DB	02H
	DB	00H
	DB	00H
	DB	00H
	DB	0f4H
	DB	0efH
	DB	03H
	DB	00H
	DB	00H
	DB	0ffH
	DB	0aH
	DB	00H
	DB	0b1H
	DB	0ffH
	DB	03eH
	DB	00H
	DB	00H
	DB	020H
	DB	0feH
	DB	05fH
	DB	00H
	DB	00H
	DB	00H
	DB	0ffH
	DB	0aH
	DB	00H
	DB	00H
	DB	0f9H
	DB	0efH
	DB	04H
	DB	00H
	DB	0d1H
	DB	0ffH
	DB	08H
	DB	00H
	DB	00H
	DB	00H
	DB	0ffH
	DB	0aH
	DB	00H
	DB	00H
	DB	080H
	DB	0ffH
	DB	06fH
	DB	00H
	DB	0fbH
	DB	0afH
	DB	00H
	DB	00H
	DB	00H
	DB	00H
	DB	0ffH
	DB	0aH
	DB	00H
	DB	00H
	DB	00H
	DB	0f7H
	DB	0ffH
	DB	0a8H
	DB	0ffH
	DB	0bH
	DB	00H
	DB	00H
	DB	00H
	DB	00H
	DB	0ffH
	DB	0aH
	DB	00H
	DB	00H
	DB	00H
	DB	050H
	DB	0ffH
	DB	0ffH
	DB	0cfH
	DB	01H
	DB	00H
	DB	00H
	DB	00H
	DB	00H
	DB	0ffH
	DB	0aH
	DB	00H
	DB	00H
	DB	00H
	DB	00H
	DB	0f4H
	DB	0ffH
	DB	02fH
	DB	00H
	DB	00H
	DB	00H
	DB	00H
	DB	00H
	DB	0ffH
	DB	0aH
	DB	00H
	DB	00H
	DB	00H
	DB	00H
	DB	0f8H
	DB	0ffH
	DB	0bfH
	DB	01H
	DB	00H
	DB	00H
	DB	00H
	DB	00H
	DB	0ffH
	DB	0aH
	DB	00H
	DB	00H
	DB	00H
	DB	090H
	DB	0ffH
	DB	0eeH
	DB	0ffH
	DB	01cH
	DB	00H
	DB	00H
	DB	00H
	DB	00H
	DB	0ffH
	DB	0aH
	DB	00H
	DB	00H
	DB	00H
	DB	0faH
	DB	0efH
	DB	033H
	DB	0feH
	DB	0dfH
	DB	02H
	DB	00H
	DB	00H
	DB	00H
	DB	0ffH
	DB	0aH
	DB	00H
	DB	00H
	DB	0b1H
	DB	0ffH
	DB	02eH
	DB	00H
	DB	0e3H
	DB	0ffH
	DB	02dH
	DB	00H
	DB	00H
	DB	00H
	DB	0ffH
	DB	0aH
	DB	00H
	DB	020H
	DB	0fdH
	DB	0dfH
	DB	02H
	DB	00H
	DB	030H
	DB	0feH
	DB	0efH
	DB	03H
	DB	00H
	DB	00H
	DB	0ffH
	DB	0aH
	DB	00H
	DB	0e5H
	DB	0ffH
	DB	01cH
	DB	00H
	DB	00H
	DB	00H
	DB	0e3H
	DB	0ffH
	DB	03eH
	DB	00H
	DB	00H
	DB	0ffH
	DB	0aH
	DB	090H
	DB	0ffH
	DB	0bfH
	DB	01H
	DB	00H
	DB	00H
	DB	00H
	DB	030H
	DB	0feH
	DB	0efH
	DB	03H
	DB	00H
	DB	0ffH
	DB	0aH
	DB	0fcH
	DB	0ffH
	DB	08H
	DB	00H
	DB	00H
	DB	00H
	DB	00H
	DB	00H
	DB	0e3H
	DB	0ffH
	DB	09H
	DB	00H
	DB	0ffH
	DB	0aH
	DB	0f4H
	DB	05eH
	DB	00H
	DB	00H
	DB	00H
	DB	00H
	DB	00H
	DB	00H
	DB	030H
	DB	0aeH
	DB	00H
	DB	00H
	DB	0ffH
	DB	0aH
	DB	050H
	DB	03H
	DB	00H
	DB	00H
	DB	00H
	DB	00H
	DB	00H
	DB	00H
	DB	00H
	DB	02H
	DB	00H
	DB	00H
	DB	0ffH
	DB	02aH
	DB	022H
	DB	022H
	DB	022H
	DB	022H
	DB	022H
	DB	022H
	DB	022H
	DB	022H
	DB	022H
	DB	022H
	DB	022H
	DB	012H
	DB	0ffH
	DB	0ffH
	DB	0ffH
	DB	0ffH
	DB	0ffH
	DB	0ffH
	DB	0ffH
	DB	0ffH
	DB	0ffH
	DB	0ffH
	DB	0ffH
	DB	0ffH
	DB	0ffH
	DB	06fH
	DB	0ffH
	DB	0ffH
	DB	0ffH
	DB	0ffH
	DB	0ffH
	DB	0ffH
	DB	0ffH
	DB	0ffH
	DB	0ffH
	DB	0ffH
	DB	0ffH
	DB	0ffH
	DB	0ffH
	DB	06fH
	DB	044H
	DB	044H
	DB	044H
	DB	044H
	DB	044H
	DB	044H
	DB	044H
	DB	044H
	DB	044H
	DB	044H
	DB	044H
	DB	044H
	DB	044H
	DB	014H
	DB	00H
	DB	00H
	DB	095H
	DB	06H
	DB	00H
	DB	00H
	DB	00H
	DB	00H
	DB	00H
	DB	00H
	DB	0a0H
	DB	04aH
	DB	00H
	DB	00H
	DB	00H
	DB	00H
	DB	00H
	DB	00H
	DB	0f9H
	DB	0aH
	DB	00H
	DB	00H
	DB	00H
	DB	00H
	DB	00H
	DB	00H
	DB	0f0H
	DB	06fH
	DB	0b0H
	DB	02cH
	DB	00H
	DB	00H
	DB	00H
	DB	00H
	DB	0f9H
	DB	0aH
	DB	00H
	DB	00H
	DB	00H
	DB	00H
	DB	00H
	DB	00H
	DB	0f0H
	DB	06fH
	DB	0d2H
	DB	0efH
	DB	04H
	DB	00H
	DB	00H
	DB	00H
	DB	0f9H
	DB	0aH
	DB	00H
	DB	00H
	DB	00H
	DB	00H
	DB	00H
	DB	00H
	DB	0f0H
	DB	06fH
	DB	010H
	DB	0fcH
	DB	05fH
	DB	00H
	DB	00H
	DB	00H
	DB	0f9H
	DB	0aH
	DB	00H
	DB	00H
	DB	00H
	DB	00H
	DB	00H
	DB	00H
	DB	0f0H
	DB	06fH
	DB	00H
	DB	0a0H
	DB	01dH
	DB	00H
	DB	00H
	DB	00H
	DB	0f9H
	DB	0aH
	DB	00H
	DB	033H
	DB	033H
	DB	033H
	DB	033H
	DB	033H
	DB	0f3H
	DB	08fH
	DB	033H
	DB	033H
	DB	034H
	DB	03H
	DB	00H
	DB	00H
	DB	0f9H
	DB	0aH
	DB	00H
	DB	0fdH
	DB	0ffH
	DB	0ffH
	DB	0ffH
	DB	0ffH
	DB	0ffH
	DB	0ffH
	DB	0ffH
	DB	0ffH
	DB	0ffH
	DB	01fH
	DB	00H
	DB	00H
	DB	0f9H
	DB	0aH
	DB	00H
	DB	0fdH
	DB	0ffH
	DB	0ffH
	DB	0ffH
	DB	0ffH
	DB	0ffH
	DB	0ffH
	DB	0ffH
	DB	0ffH
	DB	0ffH
	DB	01fH
	DB	00H
	DB	00H
	DB	0f9H
	DB	0aH
	DB	00H
	DB	00H
	DB	00H
	DB	00H
	DB	00H
	DB	00H
	DB	0d0H
	DB	07fH
	DB	00H
	DB	00H
	DB	00H
	DB	00H
	DB	0f5H
	DB	0ffH
	DB	0ffH
	DB	0ffH
	DB	0ffH
	DB	02H
	DB	00H
	DB	00H
	DB	00H
	DB	00H
	DB	0d0H
	DB	07fH
	DB	00H
	DB	00H
	DB	00H
	DB	00H
	DB	0f5H
	DB	0ffH
	DB	0ffH
	DB	0ffH
	DB	0ffH
	DB	02H
	DB	00H
	DB	00H
	DB	00H
	DB	00H
	DB	0c0H
	DB	08fH
	DB	00H
	DB	00H
	DB	00H
	DB	00H
	DB	010H
	DB	011H
	DB	0faH
	DB	01bH
	DB	011H
	DB	0b1H
	DB	0bbH
	DB	0bbH
	DB	0bbH
	DB	0aH
	DB	0c0H
	DB	08fH
	DB	00H
	DB	020H
	DB	039H
	DB	00H
	DB	00H
	DB	00H
	DB	0f9H
	DB	0aH
	DB	00H
	DB	0f2H
	DB	0ffH
	DB	0ffH
	DB	0ffH
	DB	0eH
	DB	0b0H
	DB	09fH
	DB	00H
	DB	070H
	DB	0ffH
	DB	01H
	DB	00H
	DB	00H
	DB	0f9H
	DB	0aH
	DB	00H
	DB	0f2H
	DB	05fH
	DB	044H
	DB	0f7H
	DB	0eH
	DB	0a0H
	DB	0afH
	DB	00H
	DB	0d0H
	DB	0afH
	DB	00H
	DB	00H
	DB	00H
	DB	0f9H
	DB	0aH
	DB	00H
	DB	0f2H
	DB	01fH
	DB	00H
	DB	0f4H
	DB	0eH
	DB	090H
	DB	0bfH
	DB	00H
	DB	0f4H
	DB	04fH
	DB	00H
	DB	00H
	DB	00H
	DB	0f9H
	DB	0aH
	DB	00H
	DB	0f2H
	DB	01fH
	DB	00H
	DB	0f4H
	DB	0eH
	DB	080H
	DB	0cfH
	DB	00H
	DB	0faH
	DB	0dH
	DB	00H
	DB	00H
	DB	00H
	DB	0f9H
	DB	0aH
	DB	00H
	DB	0f2H
	DB	01fH
	DB	00H
	DB	0f4H
	DB	0eH
	DB	070H
	DB	0dfH
	DB	020H
	DB	0ffH
	DB	06H
	DB	00H
	DB	00H
	DB	00H
	DB	0f9H
	DB	0aH
	DB	00H
	DB	0f2H
	DB	01fH
	DB	00H
	DB	0f4H
	DB	0eH
	DB	050H
	DB	0ffH
	DB	090H
	DB	0dfH
	DB	00H
	DB	00H
	DB	00H
	DB	00H
	DB	0f9H
	DB	0aH
	DB	00H
	DB	0f2H
	DB	0bfH
	DB	0bbH
	DB	0fcH
	DB	0eH
	DB	040H
	DB	0ffH
	DB	0f4H
	DB	06fH
	DB	00H
	DB	00H
	DB	00H
	DB	00H
	DB	0f9H
	DB	0aH
	DB	00H
	DB	0f2H
	DB	0ffH
	DB	0ffH
	DB	0ffH
	DB	0eH
	DB	020H
	DB	0ffH
	DB	0fdH
	DB	0dH
	DB	00H
	DB	00H
	DB	00H
	DB	00H
	DB	0f9H
	DB	0aH
	DB	00H
	DB	0f2H
	DB	05fH
	DB	044H
	DB	0f7H
	DB	0eH
	DB	00H
	DB	0ffH
	DB	0ffH
	DB	06H
	DB	00H
	DB	00H
	DB	00H
	DB	00H
	DB	0f9H
	DB	0aH
	DB	072H
	DB	051H
	DB	05H
	DB	00H
	DB	00H
	DB	00H
	DB	00H
	DB	0fcH
	DB	0cfH
	DB	00H
	DB	00H
	DB	00H
	DB	00H
	DB	00H
	DB	0f9H
	DB	0bdH
	DB	0ffH
	DB	00H
	DB	00H
	DB	00H
	DB	00H
	DB	00H
	DB	00H
	DB	0faH
	DB	03fH
	DB	00H
	DB	090H
	DB	016H
	DB	00H
	DB	061H
	DB	0fdH
	DB	0ffH
	DB	0efH
	DB	01H
	DB	00H
	DB	030H
	DB	085H
	DB	0dbH
	DB	030H
	DB	0ffH
	DB	01fH
	DB	00H
	DB	0d0H
	DB	07fH
	DB	0b4H
	DB	0ffH
	DB	0ffH
	DB	0afH
	DB	025H
	DB	074H
	DB	0c9H
	DB	0feH
	DB	0ffH
	DB	0ffH
	DB	0d1H
	DB	0ffH
	DB	06fH
	DB	00H
	DB	0e0H
	DB	06fH
	DB	0f7H
	DB	0ffH
	DB	07cH
	DB	01H
	DB	0f5H
	DB	0ffH
	DB	0ffH
	DB	0ffH
	DB	09cH
	DB	046H
	DB	0fcH
	DB	0dfH
	DB	0cfH
	DB	00H
	DB	0f0H
	DB	04fH
	DB	0e3H
	DB	039H
	DB	00H
	DB	00H
	DB	0e1H
	DB	0cfH
	DB	069H
	DB	03H
	DB	00H
	DB	090H
	DB	0ffH
	DB	056H
	DB	0ffH
	DB	04H
	DB	0f2H
	DB	01fH
	DB	00H
	DB	00H
	DB	00H
	DB	00H
	DB	020H
	DB	01H
	DB	00H
	DB	00H
	DB	00H
	DB	0faH
	DB	09fH
	DB	00H
	DB	0fdH
	DB	01cH
	DB	0f5H
	DB	0eH
	DB	00H
	DB	00H
	DB	00H
	DB	00H
	DB	00H
	DB	00H
	DB	00H
	DB	00H
	DB	0a0H
	DB	0ffH
	DB	0bH
	DB	00H
	DB	0f4H
	DB	0cfH
	DB	0fdH
	DB	0bH
	DB	00H
	DB	00H
	DB	00H
	DB	00H
	DB	00H
	DB	00H
	DB	00H
	DB	00H
	DB	0f7H
	DB	0bfH
	DB	01H
	DB	00H
	DB	080H
	DB	0ffH
	DB	0ffH
	DB	06H
	DB	00H
	DB	00H
	DB	00H
	DB	00H
	DB	00H
	DB	00H
	DB	00H
	DB	00H
	DB	070H
	DB	0bH
	DB	00H
	DB	00H
	DB	00H
	DB	0d6H
	DB	09eH
	DB	00H
CONST	ENDS
PUBLIC	__JustMyCode_Default
; Function compile flags: /Odt
;	COMDAT __JustMyCode_Default
_TEXT	SEGMENT
__JustMyCode_Default PROC				; COMDAT
	push	ebp
	mov	ebp, esp
	pop	ebp
	ret	0
__JustMyCode_Default ENDP
_TEXT	ENDS
END
