; Listing generated by Microsoft (R) Optimizing Compiler Version 19.31.31104.0 

	TITLE	F:\MyProject\STM32F769_Keyboard\TouchGFX\build\Debug\obj\Font_MicrosoftYaHei_Bold_30_4bpp_18.obj
	.686P
	.XMM
	include listing.inc
	.model	flat

INCLUDELIB MSVCRTD
INCLUDELIB OLDNAMES

PUBLIC	?unicodes_MicrosoftYaHei_Bold_30_4bpp_18@@3QBEB	; unicodes_MicrosoftYaHei_Bold_30_4bpp_18
msvcjmc	SEGMENT
__70B5BA90_concurrencysal@h DB 01H
__35156B19_sal@h DB 01H
__8DB56A60_vadefs@h DB 01H
__3ECF3657_vcruntime@h DB 01H
__D1309CD7_corecrt@h DB 01H
__913F199D_assert@h DB 01H
__F5B80406_stdint@h DB 01H
__4DF99823_Config@hpp DB 01H
__B2B90886_Types@hpp DB 01H
__E39AFE85_Font_MicrosoftYaHei_Bold_30_4bpp_18@cpp DB 01H
msvcjmc	ENDS
CONST	SEGMENT
?unicodes_MicrosoftYaHei_Bold_30_4bpp_18@@3QBEB DB 00H	; unicodes_MicrosoftYaHei_Bold_30_4bpp_18
	DB	091H
	DB	0bH
	DB	00H
	DB	00H
	DB	00H
	DB	00H
	DB	00H
	DB	00H
	DB	00H
	DB	00H
	DB	00H
	DB	00H
	DB	00H
	DB	00H
	DB	040H
	DB	0fdH
	DB	08fH
	DB	00H
	DB	010H
	DB	0eeH
	DB	0eeH
	DB	0eeH
	DB	0eeH
	DB	0eeH
	DB	0eeH
	DB	0eeH
	DB	0eeH
	DB	09H
	DB	00H
	DB	080H
	DB	0ffH
	DB	0ffH
	DB	05H
	DB	010H
	DB	0ffH
	DB	0ffH
	DB	0ffH
	DB	0ffH
	DB	0ffH
	DB	0ffH
	DB	0ffH
	DB	0ffH
	DB	0aH
	DB	00H
	DB	00H
	DB	0fcH
	DB	0ffH
	DB	02eH
	DB	010H
	DB	0ffH
	DB	0ffH
	DB	0ffH
	DB	0ffH
	DB	0ffH
	DB	0ffH
	DB	0ffH
	DB	0ffH
	DB	0aH
	DB	00H
	DB	00H
	DB	0f3H
	DB	0ffH
	DB	0bfH
	DB	010H
	DB	0ffH
	DB	0dfH
	DB	088H
	DB	088H
	DB	088H
	DB	088H
	DB	0f8H
	DB	0ffH
	DB	0aH
	DB	00H
	DB	00H
	DB	080H
	DB	0ffH
	DB	0efH
	DB	012H
	DB	0ffH
	DB	0afH
	DB	00H
	DB	00H
	DB	00H
	DB	00H
	DB	0f2H
	DB	0ffH
	DB	0aH
	DB	00H
	DB	00H
	DB	010H
	DB	0feH
	DB	01bH
	DB	010H
	DB	0ffH
	DB	0bfH
	DB	033H
	DB	033H
	DB	033H
	DB	033H
	DB	0f4H
	DB	0ffH
	DB	0aH
	DB	00H
	DB	00H
	DB	00H
	DB	075H
	DB	00H
	DB	010H
	DB	0ffH
	DB	0ffH
	DB	0ffH
	DB	0ffH
	DB	0ffH
	DB	0ffH
	DB	0ffH
	DB	0ffH
	DB	0aH
	DB	00H
	DB	00H
	DB	00H
	DB	00H
	DB	00H
	DB	010H
	DB	0ffH
	DB	0ffH
	DB	0ffH
	DB	0ffH
	DB	0ffH
	DB	0ffH
	DB	0ffH
	DB	0ffH
	DB	0aH
	DB	00H
	DB	00H
	DB	00H
	DB	00H
	DB	00H
	DB	010H
	DB	0ffH
	DB	0ffH
	DB	0eeH
	DB	0eeH
	DB	0eeH
	DB	0eeH
	DB	0feH
	DB	0ffH
	DB	0aH
	DB	00H
	DB	083H
	DB	088H
	DB	088H
	DB	08H
	DB	010H
	DB	0ffH
	DB	0afH
	DB	00H
	DB	00H
	DB	00H
	DB	00H
	DB	0f2H
	DB	0ffH
	DB	0aH
	DB	00H
	DB	0f5H
	DB	0ffH
	DB	0ffH
	DB	01fH
	DB	010H
	DB	0ffH
	DB	0cfH
	DB	055H
	DB	055H
	DB	055H
	DB	055H
	DB	0f6H
	DB	0ffH
	DB	0aH
	DB	00H
	DB	0f5H
	DB	0ffH
	DB	0ffH
	DB	01fH
	DB	010H
	DB	0ffH
	DB	0ffH
	DB	0ffH
	DB	0ffH
	DB	0ffH
	DB	0ffH
	DB	0ffH
	DB	0ffH
	DB	0aH
	DB	00H
	DB	0f5H
	DB	0ffH
	DB	0ffH
	DB	01fH
	DB	010H
	DB	0ffH
	DB	0ffH
	DB	0ffH
	DB	0ffH
	DB	0ffH
	DB	0ffH
	DB	0ffH
	DB	0ffH
	DB	0aH
	DB	00H
	DB	031H
	DB	0a3H
	DB	0ffH
	DB	01fH
	DB	010H
	DB	0ffH
	DB	0ffH
	DB	0ffH
	DB	0ffH
	DB	0ffH
	DB	0ffH
	DB	0ffH
	DB	0ffH
	DB	03eH
	DB	00H
	DB	00H
	DB	090H
	DB	0ffH
	DB	01fH
	DB	010H
	DB	0ffH
	DB	0bfH
	DB	022H
	DB	072H
	DB	04cH
	DB	022H
	DB	032H
	DB	0fbH
	DB	0dfH
	DB	01H
	DB	00H
	DB	090H
	DB	0ffH
	DB	01fH
	DB	010H
	DB	0ffH
	DB	0afH
	DB	00H
	DB	0f5H
	DB	0efH
	DB	06H
	DB	0d3H
	DB	0ffH
	DB	0ffH
	DB	0aH
	DB	00H
	DB	090H
	DB	0ffH
	DB	01fH
	DB	010H
	DB	0ffH
	DB	0afH
	DB	010H
	DB	0fdH
	DB	0ffH
	DB	0cfH
	DB	0ffH
	DB	0ffH
	DB	08fH
	DB	01H
	DB	00H
	DB	090H
	DB	0ffH
	DB	01fH
	DB	010H
	DB	0ffH
	DB	0afH
	DB	00H
	DB	0b1H
	DB	0ffH
	DB	0ffH
	DB	0ffH
	DB	0bfH
	DB	02H
	DB	00H
	DB	00H
	DB	090H
	DB	0ffH
	DB	01fH
	DB	010H
	DB	0ffH
	DB	0afH
	DB	040H
	DB	0c8H
	DB	0feH
	DB	0ffH
	DB	0ffH
	DB	02dH
	DB	00H
	DB	00H
	DB	00H
	DB	090H
	DB	0ffH
	DB	01fH
	DB	040H
	DB	0ffH
	DB	0efH
	DB	0feH
	DB	0ffH
	DB	03bH
	DB	0fdH
	DB	0ffH
	DB	0efH
	DB	05H
	DB	00H
	DB	00H
	DB	090H
	DB	0ffH
	DB	01fH
	DB	090H
	DB	0ffH
	DB	0ffH
	DB	0ffH
	DB	0ffH
	DB	0bH
	DB	0a1H
	DB	0ffH
	DB	0ffH
	DB	09fH
	DB	01H
	DB	00H
	DB	0d2H
	DB	0ffH
	DB	02fH
	DB	0a0H
	DB	0ffH
	DB	0ffH
	DB	0ffH
	DB	0dfH
	DB	07H
	DB	00H
	DB	0e6H
	DB	0ffH
	DB	0dfH
	DB	01H
	DB	030H
	DB	0fdH
	DB	0ffH
	DB	0dfH
	DB	022H
	DB	0feH
	DB	0efH
	DB	06aH
	DB	02H
	DB	00H
	DB	00H
	DB	020H
	DB	0fcH
	DB	02dH
	DB	00H
	DB	0e3H
	DB	0ffH
	DB	0ffH
	DB	0ffH
	DB	0afH
	DB	0dcH
	DB	016H
	DB	00H
	DB	00H
	DB	00H
	DB	00H
	DB	00H
	DB	091H
	DB	013H
	DB	011H
	DB	0f4H
	DB	0ffH
	DB	0efH
	DB	0ffH
	DB	0ffH
	DB	0ffH
	DB	0ffH
	DB	0ffH
	DB	0ffH
	DB	0ffH
	DB	0ffH
	DB	0ffH
	DB	0ffH
	DB	0ffH
	DB	09fH
	DB	0d0H
	DB	0ffH
	DB	019H
	DB	0faH
	DB	0ffH
	DB	0ffH
	DB	0ffH
	DB	0ffH
	DB	0ffH
	DB	0ffH
	DB	0ffH
	DB	0ffH
	DB	0ffH
	DB	0ffH
	DB	03fH
	DB	080H
	DB	0bfH
	DB	00H
	DB	050H
	DB	0fdH
	DB	0ffH
	DB	0ffH
	DB	0ffH
	DB	0ffH
	DB	0ffH
	DB	0ffH
	DB	0ffH
	DB	0ffH
	DB	0ffH
	DB	0cH
	DB	020H
	DB	01cH
	DB	00H
	DB	00H
	DB	020H
	DB	076H
	DB	088H
	DB	098H
	DB	099H
	DB	099H
	DB	0aaH
	DB	0aaH
	DB	0baH
	DB	0bbH
	DB	06H
	DB	00H
	DB	01H
	DB	00H
	DB	00H
	DB	00H
	DB	00H
	DB	00H
	DB	00H
	DB	00H
	DB	00H
	DB	00H
	DB	00H
	DB	00H
	DB	00H
	DB	00H
	DB	00H
	DB	00H
	DB	00H
	DB	00H
	DB	00H
	DB	00H
	DB	00H
	DB	00H
	DB	0d2H
	DB	0ddH
	DB	0cH
	DB	00H
	DB	00H
	DB	00H
	DB	00H
	DB	063H
	DB	066H
	DB	066H
	DB	066H
	DB	066H
	DB	00H
	DB	00H
	DB	00H
	DB	0fbH
	DB	0ffH
	DB	01eH
	DB	00H
	DB	00H
	DB	00H
	DB	00H
	DB	0f7H
	DB	0ffH
	DB	0ffH
	DB	0ffH
	DB	0ffH
	DB	01H
	DB	00H
	DB	060H
	DB	0ffH
	DB	0ffH
	DB	0bfH
	DB	00H
	DB	00H
	DB	00H
	DB	00H
	DB	0f7H
	DB	0ffH
	DB	0ffH
	DB	0ffH
	DB	0ffH
	DB	01H
	DB	00H
	DB	0e3H
	DB	0ffH
	DB	0ffH
	DB	0ffH
	DB	08H
	DB	00H
	DB	00H
	DB	00H
	DB	0f7H
	DB	0ffH
	DB	0eeH
	DB	0ffH
	DB	0ffH
	DB	01H
	DB	020H
	DB	0feH
	DB	0ffH
	DB	0ebH
	DB	0ffH
	DB	08fH
	DB	00H
	DB	00H
	DB	00H
	DB	0f7H
	DB	0ffH
	DB	00H
	DB	0feH
	DB	0bfH
	DB	00H
	DB	0d2H
	DB	0ffH
	DB	0dfH
	DB	051H
	DB	0ffH
	DB	0ffH
	DB	09H
	DB	00H
	DB	00H
	DB	0f7H
	DB	0ffH
	DB	030H
	DB	0ffH
	DB	06fH
	DB	040H
	DB	0feH
	DB	0ffH
	DB	03fH
	DB	00H
	DB	0f8H
	DB	0ffH
	DB	0cfH
	DB	02H
	DB	00H
	DB	0f7H
	DB	0ffH
	DB	060H
	DB	0ffH
	DB	02fH
	DB	0f8H
	DB	0ffH
	DB	0ffH
	DB	05H
	DB	00H
	DB	090H
	DB	0ffH
	DB	0ffH
	DB	09fH
	DB	02H
	DB	0f7H
	DB	0ffH
	DB	0a0H
	DB	0ffH
	DB	0deH
	DB	0ffH
	DB	0ffH
	DB	06fH
	DB	00H
	DB	00H
	DB	00H
	DB	0f9H
	DB	0ffH
	DB	0ffH
	DB	0aH
	DB	0f7H
	DB	0ffH
	DB	0e0H
	DB	0ffH
	DB	0f9H
	DB	0ffH
	DB	0ffH
	DB	0ffH
	DB	0ffH
	DB	0ffH
	DB	0ffH
	DB	0ffH
	DB	0ffH
	DB	0ffH
	DB	04H
	DB	0f7H
	DB	0ffH
	DB	0f4H
	DB	0ffH
	DB	082H
	DB	0ffH
	DB	0ffH
	DB	0ffH
	DB	0ffH
	DB	0ffH
	DB	0ffH
	DB	0ffH
	DB	0deH
	DB	0dfH
	DB	00H
	DB	0f7H
	DB	0ffH
	DB	0f9H
	DB	0cfH
	DB	010H
	DB	0bdH
	DB	0f6H
	DB	0ffH
	DB	0ffH
	DB	0ffH
	DB	0ffH
	DB	0ffH
	DB	0cH
	DB	087H
	DB	00H
	DB	0f7H
	DB	0ffH
	DB	0fbH
	DB	0cfH
	DB	00H
	DB	02H
	DB	041H
	DB	044H
	DB	0f5H
	DB	0ffH
	DB	04dH
	DB	044H
	DB	03H
	DB	00H
	DB	00H
	DB	0f7H
	DB	0ffH
	DB	0f3H
	DB	0ffH
	DB	07H
	DB	00H
	DB	00H
	DB	00H
	DB	0f1H
	DB	0ffH
	DB	0cH
	DB	00H
	DB	00H
	DB	00H
	DB	00H
	DB	0f7H
	DB	0ffH
	DB	090H
	DB	0ffH
	DB	01eH
	DB	021H
	DB	022H
	DB	022H
	DB	0f4H
	DB	0ffH
	DB	02dH
	DB	022H
	DB	022H
	DB	012H
	DB	00H
	DB	0f7H
	DB	0ffH
	DB	020H
	DB	0ffH
	DB	06fH
	DB	0f8H
	DB	0ffH
	DB	0ffH
	DB	0ffH
	DB	0ffH
	DB	0ffH
	DB	0ffH
	DB	0ffH
	DB	0afH
	DB	00H
	DB	0f7H
	DB	0ffH
	DB	00H
	DB	0fdH
	DB	0afH
	DB	0f8H
	DB	0ffH
	DB	0ffH
	DB	0ffH
	DB	0ffH
	DB	0ffH
	DB	0ffH
	DB	0ffH
	DB	0afH
	DB	00H
	DB	0f7H
	DB	0ffH
	DB	00H
	DB	0faH
	DB	0cfH
	DB	0f8H
	DB	0ffH
	DB	0ffH
	DB	0ffH
	DB	0ffH
	DB	0ffH
	DB	0ffH
	DB	0ffH
	DB	0afH
	DB	00H
	DB	0f7H
	DB	0ffH
	DB	00H
	DB	0faH
	DB	0dfH
	DB	021H
	DB	022H
	DB	022H
	DB	0f3H
	DB	0ffH
	DB	02dH
	DB	022H
	DB	022H
	DB	012H
	DB	00H
	DB	0f7H
	DB	0ffH
	DB	043H
	DB	0feH
	DB	0dfH
	DB	020H
	DB	04aH
	DB	00H
	DB	0f1H
	DB	0ffH
	DB	0cH
	DB	030H
	DB	01aH
	DB	00H
	DB	00H
	DB	0f7H
	DB	0ffH
	DB	0fcH
	DB	0ffH
	DB	0bfH
	DB	090H
	DB	0ffH
	DB	03cH
	DB	0f1H
	DB	0ffH
	DB	02cH
	DB	0faH
	DB	09fH
	DB	00H
	DB	00H
	DB	0f7H
	DB	0ffH
	DB	0f9H
	DB	0ffH
	DB	07fH
	DB	0f2H
	DB	0ffH
	DB	02fH
	DB	0f1H
	DB	0ffH
	DB	02cH
	DB	0ffH
	DB	0ffH
	DB	04H
	DB	00H
	DB	0f7H
	DB	0ffH
	DB	0f6H
	DB	0ffH
	DB	01cH
	DB	0fbH
	DB	0ffH
	DB	09H
	DB	0f1H
	DB	0ffH
	DB	0cH
	DB	0f7H
	DB	0ffH
	DB	0dH
	DB	00H
	DB	0f7H
	DB	0ffH
	DB	0b4H
	DB	059H
	DB	060H
	DB	0ffH
	DB	0efH
	DB	01H
	DB	0f2H
	DB	0ffH
	DB	0cH
	DB	0d0H
	DB	0ffH
	DB	07fH
	DB	00H
	DB	0f7H
	DB	0ffH
	DB	00H
	DB	00H
	DB	0e3H
	DB	0ffH
	DB	08fH
	DB	00H
	DB	0f9H
	DB	0ffH
	DB	0cH
	DB	040H
	DB	0ffH
	DB	0efH
	DB	02H
	DB	0f7H
	DB	0ffH
	DB	00H
	DB	010H
	DB	0fdH
	DB	0ffH
	DB	0acH
	DB	0ffH
	DB	0ffH
	DB	0ffH
	DB	0cH
	DB	00H
	DB	0fbH
	DB	0ffH
	DB	09H
	DB	0f7H
	DB	0ffH
	DB	00H
	DB	00H
	DB	0d5H
	DB	0efH
	DB	062H
	DB	0ffH
	DB	0ffH
	DB	0ffH
	DB	09H
	DB	00H
	DB	0f3H
	DB	09fH
	DB	01H
	DB	0f7H
	DB	0ffH
	DB	00H
	DB	00H
	DB	00H
	DB	068H
	DB	030H
	DB	0ffH
	DB	0ffH
	DB	0ffH
	DB	03H
	DB	00H
	DB	060H
	DB	02H
	DB	00H
	DB	0f7H
	DB	0ffH
	DB	00H
	DB	00H
	DB	00H
	DB	00H
	DB	010H
	DB	0ffH
	DB	0deH
	DB	04aH
	DB	00H
	DB	00H
	DB	00H
	DB	00H
	DB	00H
	DB	010H
	DB	011H
	DB	00H
	DB	00H
	DB	00H
	DB	00H
	DB	00H
	DB	00H
	DB	00H
	DB	00H
	DB	00H
	DB	00H
	DB	00H
	DB	00H
	DB	00H
CONST	ENDS
PUBLIC	__JustMyCode_Default
; Function compile flags: /Odt
;	COMDAT __JustMyCode_Default
_TEXT	SEGMENT
__JustMyCode_Default PROC				; COMDAT
	push	ebp
	mov	ebp, esp
	pop	ebp
	ret	0
__JustMyCode_Default ENDP
_TEXT	ENDS
END
