; Listing generated by Microsoft (R) Optimizing Compiler Version 19.31.31104.0 

	TITLE	F:\MyProject\STM32F769_Keyboard\TouchGFX\build\Debug\obj\image_pinyin_select_pre.obj
	.686P
	.XMM
	include listing.inc
	.model	flat

INCLUDELIB MSVCRTD
INCLUDELIB OLDNAMES

PUBLIC	?image_pinyin_select_pre@@3QBEB			; image_pinyin_select_pre
msvcjmc	SEGMENT
__4DF99823_Config@hpp DB 01H
__B30C131A_image_pinyin_select_pre@cpp DB 01H
msvcjmc	ENDS
CONST	SEGMENT
?image_pinyin_select_pre@@3QBEB DB 030H			; image_pinyin_select_pre
	DB	030H
	DB	030H
	DB	00H
	DB	030H
	DB	030H
	DB	030H
	DB	00H
	DB	030H
	DB	030H
	DB	030H
	DB	00H
	DB	030H
	DB	030H
	DB	030H
	DB	00H
	DB	030H
	DB	030H
	DB	030H
	DB	01cH
	DB	030H
	DB	030H
	DB	030H
	DB	065H
	DB	030H
	DB	030H
	DB	030H
	DB	096H
	DB	030H
	DB	030H
	DB	030H
	DB	0aeH
	DB	030H
	DB	030H
	DB	030H
	DB	0b2H
	DB	030H
	DB	030H
	DB	030H
	DB	0b2H
	DB	030H
	DB	030H
	DB	030H
	DB	0b2H
	DB	030H
	DB	030H
	DB	030H
	DB	0b2H
	DB	030H
	DB	030H
	DB	030H
	DB	0b2H
	DB	030H
	DB	030H
	DB	030H
	DB	0b2H
	DB	030H
	DB	030H
	DB	030H
	DB	0b2H
	DB	030H
	DB	030H
	DB	030H
	DB	0b2H
	DB	030H
	DB	030H
	DB	030H
	DB	0b2H
	DB	030H
	DB	030H
	DB	030H
	DB	0b2H
	DB	030H
	DB	030H
	DB	030H
	DB	0b2H
	DB	030H
	DB	030H
	DB	030H
	DB	0b2H
	DB	030H
	DB	030H
	DB	030H
	DB	0b2H
	DB	030H
	DB	030H
	DB	030H
	DB	0b2H
	DB	030H
	DB	030H
	DB	030H
	DB	0b2H
	DB	030H
	DB	030H
	DB	030H
	DB	0b2H
	DB	030H
	DB	030H
	DB	030H
	DB	0b2H
	DB	030H
	DB	030H
	DB	030H
	DB	0b2H
	DB	030H
	DB	030H
	DB	030H
	DB	0b2H
	DB	030H
	DB	030H
	DB	030H
	DB	0b2H
	DB	030H
	DB	030H
	DB	030H
	DB	0b2H
	DB	030H
	DB	030H
	DB	030H
	DB	0b2H
	DB	030H
	DB	030H
	DB	030H
	DB	0b2H
	DB	030H
	DB	030H
	DB	030H
	DB	0b2H
	DB	030H
	DB	030H
	DB	030H
	DB	0b2H
	DB	030H
	DB	030H
	DB	030H
	DB	0b2H
	DB	030H
	DB	030H
	DB	030H
	DB	0b2H
	DB	030H
	DB	030H
	DB	030H
	DB	0b2H
	DB	030H
	DB	030H
	DB	030H
	DB	0b2H
	DB	030H
	DB	030H
	DB	030H
	DB	0b2H
	DB	030H
	DB	030H
	DB	030H
	DB	0b2H
	DB	030H
	DB	030H
	DB	030H
	DB	0b2H
	DB	030H
	DB	030H
	DB	030H
	DB	0b2H
	DB	030H
	DB	030H
	DB	030H
	DB	0b2H
	DB	030H
	DB	030H
	DB	030H
	DB	0b2H
	DB	030H
	DB	030H
	DB	030H
	DB	0b2H
	DB	030H
	DB	030H
	DB	030H
	DB	0b2H
	DB	030H
	DB	030H
	DB	030H
	DB	0b2H
	DB	030H
	DB	030H
	DB	030H
	DB	0b2H
	DB	030H
	DB	030H
	DB	030H
	DB	0b2H
	DB	030H
	DB	030H
	DB	030H
	DB	0b2H
	DB	030H
	DB	030H
	DB	030H
	DB	0b2H
	DB	030H
	DB	030H
	DB	030H
	DB	0b2H
	DB	030H
	DB	030H
	DB	030H
	DB	0b2H
	DB	030H
	DB	030H
	DB	030H
	DB	0b2H
	DB	030H
	DB	030H
	DB	030H
	DB	0b2H
	DB	030H
	DB	030H
	DB	030H
	DB	0b2H
	DB	030H
	DB	030H
	DB	030H
	DB	0b2H
	DB	030H
	DB	030H
	DB	030H
	DB	0b2H
	DB	030H
	DB	030H
	DB	030H
	DB	0b2H
	DB	030H
	DB	030H
	DB	030H
	DB	0b2H
	DB	030H
	DB	030H
	DB	030H
	DB	0b2H
	DB	030H
	DB	030H
	DB	030H
	DB	0b2H
	DB	030H
	DB	030H
	DB	030H
	DB	0b2H
	DB	030H
	DB	030H
	DB	030H
	DB	0b2H
	DB	030H
	DB	030H
	DB	030H
	DB	0b2H
	DB	030H
	DB	030H
	DB	030H
	DB	0b2H
	DB	030H
	DB	030H
	DB	030H
	DB	0b2H
	DB	030H
	DB	030H
	DB	030H
	DB	0b2H
	DB	030H
	DB	030H
	DB	030H
	DB	0b2H
	DB	030H
	DB	030H
	DB	030H
	DB	0b2H
	DB	030H
	DB	030H
	DB	030H
	DB	0b2H
	DB	030H
	DB	030H
	DB	030H
	DB	0b2H
	DB	030H
	DB	030H
	DB	030H
	DB	0b2H
	DB	030H
	DB	030H
	DB	030H
	DB	0b2H
	DB	030H
	DB	030H
	DB	030H
	DB	0b2H
	DB	030H
	DB	030H
	DB	030H
	DB	0b2H
	DB	030H
	DB	030H
	DB	030H
	DB	0b2H
	DB	030H
	DB	030H
	DB	030H
	DB	0b2H
	DB	030H
	DB	030H
	DB	030H
	DB	0b2H
	DB	030H
	DB	030H
	DB	030H
	DB	0b2H
	DB	030H
	DB	030H
	DB	030H
	DB	0b2H
	DB	030H
	DB	030H
	DB	030H
	DB	0b2H
	DB	030H
	DB	030H
	DB	030H
	DB	0b2H
	DB	030H
	DB	030H
	DB	030H
	DB	0b2H
	DB	030H
	DB	030H
	DB	030H
	DB	0b2H
	DB	030H
	DB	030H
	DB	030H
	DB	0b2H
	DB	030H
	DB	030H
	DB	030H
	DB	0b2H
	DB	030H
	DB	030H
	DB	030H
	DB	0b2H
	DB	030H
	DB	030H
	DB	030H
	DB	0b2H
	DB	030H
	DB	030H
	DB	030H
	DB	0b2H
	DB	030H
	DB	030H
	DB	030H
	DB	0b2H
	DB	030H
	DB	030H
	DB	030H
	DB	0b2H
	DB	030H
	DB	030H
	DB	030H
	DB	0b2H
	DB	030H
	DB	030H
	DB	030H
	DB	0b2H
	DB	030H
	DB	030H
	DB	030H
	DB	0b2H
	DB	030H
	DB	030H
	DB	030H
	DB	0b2H
	DB	030H
	DB	030H
	DB	030H
	DB	0b2H
	DB	030H
	DB	030H
	DB	030H
	DB	0b2H
	DB	030H
	DB	030H
	DB	030H
	DB	0b2H
	DB	030H
	DB	030H
	DB	030H
	DB	0b2H
	DB	030H
	DB	030H
	DB	030H
	DB	0b2H
	DB	030H
	DB	030H
	DB	030H
	DB	0b2H
	DB	030H
	DB	030H
	DB	030H
	DB	0b2H
	DB	030H
	DB	030H
	DB	030H
	DB	0b2H
	DB	030H
	DB	030H
	DB	030H
	DB	0b2H
	DB	030H
	DB	030H
	DB	030H
	DB	0b2H
	DB	030H
	DB	030H
	DB	030H
	DB	0b2H
	DB	030H
	DB	030H
	DB	030H
	DB	0b2H
	DB	030H
	DB	030H
	DB	030H
	DB	0b2H
	DB	030H
	DB	030H
	DB	030H
	DB	0b2H
	DB	030H
	DB	030H
	DB	030H
	DB	0b2H
	DB	030H
	DB	030H
	DB	030H
	DB	0b2H
	DB	030H
	DB	030H
	DB	030H
	DB	0b2H
	DB	030H
	DB	030H
	DB	030H
	DB	0aeH
	DB	030H
	DB	030H
	DB	030H
	DB	096H
	DB	030H
	DB	030H
	DB	030H
	DB	065H
	DB	030H
	DB	030H
	DB	030H
	DB	01cH
	DB	030H
	DB	030H
	DB	030H
	DB	00H
	DB	030H
	DB	030H
	DB	030H
	DB	00H
	DB	030H
	DB	030H
	DB	030H
	DB	00H
	DB	030H
	DB	030H
	DB	030H
	DB	00H
	DB	030H
	DB	030H
	DB	030H
	DB	00H
	DB	030H
	DB	030H
	DB	030H
	DB	00H
	DB	030H
	DB	030H
	DB	030H
	DB	04H
	DB	030H
	DB	030H
	DB	030H
	DB	069H
	DB	030H
	DB	030H
	DB	030H
	DB	0b2H
	DB	030H
	DB	030H
	DB	030H
	DB	0b2H
	DB	030H
	DB	030H
	DB	030H
	DB	0b2H
	DB	030H
	DB	030H
	DB	030H
	DB	0b2H
	DB	030H
	DB	030H
	DB	030H
	DB	0b2H
	DB	030H
	DB	030H
	DB	030H
	DB	0b2H
	DB	030H
	DB	030H
	DB	030H
	DB	0b2H
	DB	030H
	DB	030H
	DB	030H
	DB	0b2H
	DB	030H
	DB	030H
	DB	030H
	DB	0b2H
	DB	030H
	DB	030H
	DB	030H
	DB	0b2H
	DB	030H
	DB	030H
	DB	030H
	DB	0b2H
	DB	030H
	DB	030H
	DB	030H
	DB	0b2H
	DB	030H
	DB	030H
	DB	030H
	DB	0b2H
	DB	030H
	DB	030H
	DB	030H
	DB	0b2H
	DB	030H
	DB	030H
	DB	030H
	DB	0b2H
	DB	030H
	DB	030H
	DB	030H
	DB	0b2H
	DB	030H
	DB	030H
	DB	030H
	DB	0b2H
	DB	030H
	DB	030H
	DB	030H
	DB	0b2H
	DB	030H
	DB	030H
	DB	030H
	DB	0b2H
	DB	030H
	DB	030H
	DB	030H
	DB	0b2H
	DB	030H
	DB	030H
	DB	030H
	DB	0b2H
	DB	030H
	DB	030H
	DB	030H
	DB	0b2H
	DB	030H
	DB	030H
	DB	030H
	DB	0b2H
	DB	030H
	DB	030H
	DB	030H
	DB	0b2H
	DB	030H
	DB	030H
	DB	030H
	DB	0b2H
	DB	030H
	DB	030H
	DB	030H
	DB	0b2H
	DB	030H
	DB	030H
	DB	030H
	DB	0b2H
	DB	030H
	DB	030H
	DB	030H
	DB	0b2H
	DB	030H
	DB	030H
	DB	030H
	DB	0b2H
	DB	030H
	DB	030H
	DB	030H
	DB	0b2H
	DB	030H
	DB	030H
	DB	030H
	DB	0b2H
	DB	030H
	DB	030H
	DB	030H
	DB	0b2H
	DB	030H
	DB	030H
	DB	030H
	DB	0b2H
	DB	030H
	DB	030H
	DB	030H
	DB	0b2H
	DB	030H
	DB	030H
	DB	030H
	DB	0b2H
	DB	030H
	DB	030H
	DB	030H
	DB	0b2H
	DB	030H
	DB	030H
	DB	030H
	DB	0b2H
	DB	030H
	DB	030H
	DB	030H
	DB	0b2H
	DB	030H
	DB	030H
	DB	030H
	DB	0b2H
	DB	030H
	DB	030H
	DB	030H
	DB	0b2H
	DB	030H
	DB	030H
	DB	030H
	DB	0b2H
	DB	030H
	DB	030H
	DB	030H
	DB	0b2H
	DB	030H
	DB	030H
	DB	030H
	DB	0b2H
	DB	030H
	DB	030H
	DB	030H
	DB	0b2H
	DB	030H
	DB	030H
	DB	030H
	DB	0b2H
	DB	030H
	DB	030H
	DB	030H
	DB	0b2H
	DB	030H
	DB	030H
	DB	030H
	DB	0b2H
	DB	030H
	DB	030H
	DB	030H
	DB	0b2H
	DB	030H
	DB	030H
	DB	030H
	DB	0b2H
	DB	030H
	DB	030H
	DB	030H
	DB	0b2H
	DB	030H
	DB	030H
	DB	030H
	DB	0b2H
	DB	030H
	DB	030H
	DB	030H
	DB	0b2H
	DB	030H
	DB	030H
	DB	030H
	DB	0b2H
	DB	030H
	DB	030H
	DB	030H
	DB	0b2H
	DB	030H
	DB	030H
	DB	030H
	DB	0b2H
	DB	030H
	DB	030H
	DB	030H
	DB	0b2H
	DB	030H
	DB	030H
	DB	030H
	DB	0b2H
	DB	030H
	DB	030H
	DB	030H
	DB	0b2H
	DB	030H
	DB	030H
	DB	030H
	DB	0b2H
	DB	030H
	DB	030H
	DB	030H
	DB	0b2H
	DB	030H
	DB	030H
	DB	030H
	DB	0b2H
	DB	030H
	DB	030H
	DB	030H
	DB	0b2H
	DB	030H
	DB	030H
	DB	030H
	DB	0b2H
	DB	030H
	DB	030H
	DB	030H
	DB	0b2H
	DB	030H
	DB	030H
	DB	030H
	DB	0b2H
	DB	030H
	DB	030H
	DB	030H
	DB	0b2H
	DB	030H
	DB	030H
	DB	030H
	DB	0b2H
	DB	030H
	DB	030H
	DB	030H
	DB	0b2H
	DB	030H
	DB	030H
	DB	030H
	DB	0b2H
	DB	030H
	DB	030H
	DB	030H
	DB	0b2H
	DB	030H
	DB	030H
	DB	030H
	DB	0b2H
	DB	030H
	DB	030H
	DB	030H
	DB	0b2H
	DB	030H
	DB	030H
	DB	030H
	DB	0b2H
	DB	030H
	DB	030H
	DB	030H
	DB	0b2H
	DB	030H
	DB	030H
	DB	030H
	DB	0b2H
	DB	030H
	DB	030H
	DB	030H
	DB	0b2H
	DB	030H
	DB	030H
	DB	030H
	DB	0b2H
	DB	030H
	DB	030H
	DB	030H
	DB	0b2H
	DB	030H
	DB	030H
	DB	030H
	DB	0b2H
	DB	030H
	DB	030H
	DB	030H
	DB	0b2H
	DB	030H
	DB	030H
	DB	030H
	DB	0b2H
	DB	030H
	DB	030H
	DB	030H
	DB	0b2H
	DB	030H
	DB	030H
	DB	030H
	DB	0b2H
	DB	030H
	DB	030H
	DB	030H
	DB	0b2H
	DB	030H
	DB	030H
	DB	030H
	DB	0b2H
	DB	030H
	DB	030H
	DB	030H
	DB	0b2H
	DB	030H
	DB	030H
	DB	030H
	DB	0b2H
	DB	030H
	DB	030H
	DB	030H
	DB	0b2H
	DB	030H
	DB	030H
	DB	030H
	DB	0b2H
	DB	030H
	DB	030H
	DB	030H
	DB	0b2H
	DB	030H
	DB	030H
	DB	030H
	DB	0b2H
	DB	030H
	DB	030H
	DB	030H
	DB	0b2H
	DB	030H
	DB	030H
	DB	030H
	DB	0b2H
	DB	030H
	DB	030H
	DB	030H
	DB	0b2H
	DB	030H
	DB	030H
	DB	030H
	DB	0b2H
	DB	030H
	DB	030H
	DB	030H
	DB	0b2H
	DB	030H
	DB	030H
	DB	030H
	DB	0b2H
	DB	030H
	DB	030H
	DB	030H
	DB	0b2H
	DB	030H
	DB	030H
	DB	030H
	DB	0b2H
	DB	030H
	DB	030H
	DB	030H
	DB	0b2H
	DB	030H
	DB	030H
	DB	030H
	DB	0b2H
	DB	030H
	DB	030H
	DB	030H
	DB	0b2H
	DB	030H
	DB	030H
	DB	030H
	DB	0b2H
	DB	030H
	DB	030H
	DB	030H
	DB	0b2H
	DB	030H
	DB	030H
	DB	030H
	DB	0b2H
	DB	030H
	DB	030H
	DB	030H
	DB	0b2H
	DB	030H
	DB	030H
	DB	030H
	DB	0b2H
	DB	030H
	DB	030H
	DB	030H
	DB	0b2H
	DB	030H
	DB	030H
	DB	030H
	DB	0b2H
	DB	030H
	DB	030H
	DB	030H
	DB	0b2H
	DB	030H
	DB	030H
	DB	030H
	DB	0b2H
	DB	030H
	DB	030H
	DB	030H
	DB	0b2H
	DB	030H
	DB	030H
	DB	030H
	DB	069H
	DB	030H
	DB	030H
	DB	030H
	DB	04H
	DB	030H
	DB	030H
	DB	030H
	DB	00H
	DB	030H
	DB	030H
	DB	030H
	DB	00H
	DB	030H
	DB	030H
	DB	030H
	DB	00H
	DB	030H
	DB	030H
	DB	030H
	DB	04H
	DB	030H
	DB	034H
	DB	030H
	DB	082H
	DB	030H
	DB	030H
	DB	030H
	DB	0b2H
	DB	030H
	DB	034H
	DB	030H
	DB	0b2H
	DB	030H
	DB	030H
	DB	030H
	DB	0b2H
	DB	030H
	DB	034H
	DB	030H
	DB	0b2H
	DB	030H
	DB	030H
	DB	030H
	DB	0b2H
	DB	030H
	DB	034H
	DB	030H
	DB	0b6H
	DB	030H
	DB	030H
	DB	030H
	DB	0b2H
	DB	030H
	DB	034H
	DB	030H
	DB	0b2H
	DB	030H
	DB	030H
	DB	030H
	DB	0b6H
	DB	030H
	DB	034H
	DB	030H
	DB	0b2H
	DB	030H
	DB	030H
	DB	030H
	DB	0b6H
	DB	030H
	DB	034H
	DB	030H
	DB	0b2H
	DB	030H
	DB	030H
	DB	030H
	DB	0b6H
	DB	030H
	DB	034H
	DB	030H
	DB	0b2H
	DB	030H
	DB	030H
	DB	030H
	DB	0b6H
	DB	030H
	DB	034H
	DB	030H
	DB	0b2H
	DB	030H
	DB	030H
	DB	030H
	DB	0b6H
	DB	030H
	DB	034H
	DB	030H
	DB	0b2H
	DB	030H
	DB	030H
	DB	030H
	DB	0b6H
	DB	030H
	DB	034H
	DB	030H
	DB	0b2H
	DB	030H
	DB	030H
	DB	030H
	DB	0b6H
	DB	030H
	DB	034H
	DB	030H
	DB	0b2H
	DB	030H
	DB	030H
	DB	030H
	DB	0b6H
	DB	030H
	DB	034H
	DB	030H
	DB	0b2H
	DB	030H
	DB	030H
	DB	030H
	DB	0b6H
	DB	030H
	DB	034H
	DB	030H
	DB	0b2H
	DB	030H
	DB	030H
	DB	030H
	DB	0b6H
	DB	030H
	DB	034H
	DB	030H
	DB	0b2H
	DB	030H
	DB	030H
	DB	030H
	DB	0b6H
	DB	030H
	DB	034H
	DB	030H
	DB	0b2H
	DB	030H
	DB	030H
	DB	030H
	DB	0b6H
	DB	030H
	DB	034H
	DB	030H
	DB	0b2H
	DB	030H
	DB	030H
	DB	030H
	DB	0b6H
	DB	030H
	DB	034H
	DB	030H
	DB	0b2H
	DB	030H
	DB	030H
	DB	030H
	DB	0b6H
	DB	030H
	DB	034H
	DB	030H
	DB	0b2H
	DB	030H
	DB	030H
	DB	030H
	DB	0b6H
	DB	030H
	DB	034H
	DB	030H
	DB	0b2H
	DB	030H
	DB	030H
	DB	030H
	DB	0b6H
	DB	030H
	DB	034H
	DB	030H
	DB	0b2H
	DB	030H
	DB	030H
	DB	030H
	DB	0b6H
	DB	030H
	DB	034H
	DB	030H
	DB	0b2H
	DB	030H
	DB	030H
	DB	030H
	DB	0b6H
	DB	030H
	DB	034H
	DB	030H
	DB	0b2H
	DB	030H
	DB	030H
	DB	030H
	DB	0b6H
	DB	030H
	DB	034H
	DB	030H
	DB	0b2H
	DB	030H
	DB	030H
	DB	030H
	DB	0b6H
	DB	030H
	DB	034H
	DB	030H
	DB	0b2H
	DB	030H
	DB	030H
	DB	030H
	DB	0b6H
	DB	030H
	DB	034H
	DB	030H
	DB	0b2H
	DB	030H
	DB	030H
	DB	030H
	DB	0b6H
	DB	030H
	DB	034H
	DB	030H
	DB	0b2H
	DB	030H
	DB	030H
	DB	030H
	DB	0b6H
	DB	030H
	DB	034H
	DB	030H
	DB	0b2H
	DB	030H
	DB	030H
	DB	030H
	DB	0b6H
	DB	030H
	DB	034H
	DB	030H
	DB	0b2H
	DB	030H
	DB	030H
	DB	030H
	DB	0b6H
	DB	030H
	DB	034H
	DB	030H
	DB	0b2H
	DB	030H
	DB	030H
	DB	030H
	DB	0b6H
	DB	030H
	DB	034H
	DB	030H
	DB	0b2H
	DB	030H
	DB	030H
	DB	030H
	DB	0b6H
	DB	030H
	DB	034H
	DB	030H
	DB	0b2H
	DB	030H
	DB	030H
	DB	030H
	DB	0b6H
	DB	030H
	DB	034H
	DB	030H
	DB	0b2H
	DB	030H
	DB	030H
	DB	030H
	DB	0b6H
	DB	030H
	DB	034H
	DB	030H
	DB	0b2H
	DB	030H
	DB	030H
	DB	030H
	DB	0b6H
	DB	030H
	DB	034H
	DB	030H
	DB	0b2H
	DB	030H
	DB	030H
	DB	030H
	DB	0b6H
	DB	030H
	DB	034H
	DB	030H
	DB	0b2H
	DB	030H
	DB	030H
	DB	030H
	DB	0b6H
	DB	030H
	DB	034H
	DB	030H
	DB	0b2H
	DB	030H
	DB	030H
	DB	030H
	DB	0b6H
	DB	030H
	DB	034H
	DB	030H
	DB	0b2H
	DB	030H
	DB	030H
	DB	030H
	DB	0b6H
	DB	030H
	DB	034H
	DB	030H
	DB	0b2H
	DB	030H
	DB	030H
	DB	030H
	DB	0b6H
	DB	030H
	DB	034H
	DB	030H
	DB	0b2H
	DB	030H
	DB	030H
	DB	030H
	DB	0b6H
	DB	030H
	DB	034H
	DB	030H
	DB	0b2H
	DB	030H
	DB	030H
	DB	030H
	DB	0b6H
	DB	030H
	DB	034H
	DB	030H
	DB	0b2H
	DB	030H
	DB	030H
	DB	030H
	DB	0b6H
	DB	030H
	DB	034H
	DB	030H
	DB	0b2H
	DB	030H
	DB	030H
	DB	030H
	DB	0b6H
	DB	030H
	DB	034H
	DB	030H
	DB	0b2H
	DB	030H
	DB	030H
	DB	030H
	DB	0b6H
	DB	030H
	DB	034H
	DB	030H
	DB	0b2H
	DB	030H
	DB	030H
	DB	030H
	DB	0b6H
	DB	030H
	DB	034H
	DB	030H
	DB	0b2H
	DB	030H
	DB	030H
	DB	030H
	DB	0b6H
	DB	030H
	DB	034H
	DB	030H
	DB	0b2H
	DB	030H
	DB	030H
	DB	030H
	DB	0b6H
	DB	030H
	DB	034H
	DB	030H
	DB	0b2H
	DB	030H
	DB	030H
	DB	030H
	DB	0b6H
	DB	030H
	DB	034H
	DB	030H
	DB	0b2H
	DB	030H
	DB	030H
	DB	030H
	DB	0b6H
	DB	030H
	DB	034H
	DB	030H
	DB	0b2H
	DB	030H
	DB	030H
	DB	030H
	DB	0b6H
	DB	030H
	DB	034H
	DB	030H
	DB	0b2H
	DB	030H
	DB	030H
	DB	030H
	DB	0b6H
	DB	030H
	DB	034H
	DB	030H
	DB	0b2H
	DB	030H
	DB	030H
	DB	030H
	DB	0b6H
	DB	030H
	DB	034H
	DB	030H
	DB	0b2H
	DB	030H
	DB	030H
	DB	030H
	DB	0b6H
	DB	030H
	DB	034H
	DB	030H
	DB	0b2H
	DB	030H
	DB	030H
	DB	030H
	DB	0b6H
	DB	030H
	DB	034H
	DB	030H
	DB	0b2H
	DB	030H
	DB	030H
	DB	030H
	DB	0b2H
	DB	030H
	DB	034H
	DB	030H
	DB	0b6H
	DB	030H
	DB	030H
	DB	030H
	DB	0b2H
	DB	030H
	DB	034H
	DB	030H
	DB	0b2H
	DB	030H
	DB	030H
	DB	030H
	DB	0b2H
	DB	030H
	DB	034H
	DB	030H
	DB	0b2H
	DB	030H
	DB	030H
	DB	030H
	DB	086H
	DB	030H
	DB	030H
	DB	030H
	DB	04H
	DB	030H
	DB	030H
	DB	030H
	DB	00H
	DB	030H
	DB	030H
	DB	030H
	DB	00H
	DB	030H
	DB	030H
	DB	030H
	DB	069H
	DB	030H
	DB	030H
	DB	030H
	DB	0b2H
	DB	030H
	DB	030H
	DB	030H
	DB	0b2H
	DB	030H
	DB	030H
	DB	030H
	DB	0b2H
	DB	030H
	DB	034H
	DB	030H
	DB	0b2H
	DB	030H
	DB	030H
	DB	030H
	DB	0b6H
	DB	030H
	DB	030H
	DB	030H
	DB	0b2H
	DB	030H
	DB	030H
	DB	030H
	DB	0b2H
	DB	030H
	DB	034H
	DB	030H
	DB	0b6H
	DB	030H
	DB	030H
	DB	030H
	DB	0b2H
	DB	030H
	DB	030H
	DB	030H
	DB	0b2H
	DB	030H
	DB	030H
	DB	030H
	DB	0b6H
	DB	030H
	DB	034H
	DB	030H
	DB	0b2H
	DB	030H
	DB	030H
	DB	030H
	DB	0b2H
	DB	030H
	DB	030H
	DB	030H
	DB	0b2H
	DB	030H
	DB	030H
	DB	030H
	DB	0b6H
	DB	030H
	DB	034H
	DB	030H
	DB	0b2H
	DB	030H
	DB	030H
	DB	030H
	DB	0b2H
	DB	030H
	DB	030H
	DB	030H
	DB	0b2H
	DB	030H
	DB	030H
	DB	030H
	DB	0b6H
	DB	030H
	DB	034H
	DB	030H
	DB	0b2H
	DB	030H
	DB	030H
	DB	030H
	DB	0b2H
	DB	030H
	DB	030H
	DB	030H
	DB	0b2H
	DB	030H
	DB	030H
	DB	030H
	DB	0b6H
	DB	030H
	DB	034H
	DB	030H
	DB	0b2H
	DB	030H
	DB	030H
	DB	030H
	DB	0b2H
	DB	030H
	DB	030H
	DB	030H
	DB	0b2H
	DB	030H
	DB	030H
	DB	030H
	DB	0b6H
	DB	030H
	DB	034H
	DB	030H
	DB	0b2H
	DB	030H
	DB	030H
	DB	030H
	DB	0b2H
	DB	030H
	DB	030H
	DB	030H
	DB	0b2H
	DB	030H
	DB	030H
	DB	030H
	DB	0b6H
	DB	030H
	DB	034H
	DB	030H
	DB	0b2H
	DB	030H
	DB	030H
	DB	030H
	DB	0b2H
	DB	030H
	DB	030H
	DB	030H
	DB	0b2H
	DB	030H
	DB	030H
	DB	030H
	DB	0b6H
	DB	030H
	DB	034H
	DB	030H
	DB	0b2H
	DB	030H
	DB	030H
	DB	030H
	DB	0b2H
	DB	030H
	DB	030H
	DB	030H
	DB	0b2H
	DB	030H
	DB	030H
	DB	030H
	DB	0b6H
	DB	030H
	DB	034H
	DB	030H
	DB	0b2H
	DB	030H
	DB	030H
	DB	030H
	DB	0b2H
	DB	030H
	DB	030H
	DB	030H
	DB	0b2H
	DB	030H
	DB	030H
	DB	030H
	DB	0b6H
	DB	030H
	DB	034H
	DB	030H
	DB	0b2H
	DB	030H
	DB	030H
	DB	030H
	DB	0b2H
	DB	030H
	DB	030H
	DB	030H
	DB	0b2H
	DB	030H
	DB	030H
	DB	030H
	DB	0b6H
	DB	030H
	DB	034H
	DB	030H
	DB	0b2H
	DB	030H
	DB	030H
	DB	030H
	DB	0b2H
	DB	030H
	DB	030H
	DB	030H
	DB	0b2H
	DB	030H
	DB	030H
	DB	030H
	DB	0b6H
	DB	030H
	DB	034H
	DB	030H
	DB	0b2H
	DB	030H
	DB	030H
	DB	030H
	DB	0b2H
	DB	030H
	DB	030H
	DB	030H
	DB	0b2H
	DB	030H
	DB	030H
	DB	030H
	DB	0b6H
	DB	030H
	DB	034H
	DB	030H
	DB	0b2H
	DB	030H
	DB	030H
	DB	030H
	DB	0b2H
	DB	030H
	DB	030H
	DB	030H
	DB	0b2H
	DB	030H
	DB	030H
	DB	030H
	DB	0b6H
	DB	030H
	DB	034H
	DB	030H
	DB	0b2H
	DB	030H
	DB	030H
	DB	030H
	DB	0b2H
	DB	030H
	DB	030H
	DB	030H
	DB	0b2H
	DB	030H
	DB	030H
	DB	030H
	DB	0b6H
	DB	030H
	DB	034H
	DB	030H
	DB	0b2H
	DB	030H
	DB	030H
	DB	030H
	DB	0b2H
	DB	030H
	DB	030H
	DB	030H
	DB	0b2H
	DB	030H
	DB	030H
	DB	030H
	DB	0b6H
	DB	030H
	DB	034H
	DB	030H
	DB	0b2H
	DB	030H
	DB	030H
	DB	030H
	DB	0b2H
	DB	030H
	DB	030H
	DB	030H
	DB	0b2H
	DB	030H
	DB	030H
	DB	030H
	DB	0b6H
	DB	030H
	DB	034H
	DB	030H
	DB	0b2H
	DB	030H
	DB	030H
	DB	030H
	DB	0b2H
	DB	030H
	DB	030H
	DB	030H
	DB	0b2H
	DB	030H
	DB	030H
	DB	030H
	DB	0b6H
	DB	030H
	DB	034H
	DB	030H
	DB	0b2H
	DB	030H
	DB	030H
	DB	030H
	DB	0b2H
	DB	030H
	DB	030H
	DB	030H
	DB	0b2H
	DB	030H
	DB	030H
	DB	030H
	DB	0b6H
	DB	030H
	DB	034H
	DB	030H
	DB	0b2H
	DB	030H
	DB	030H
	DB	030H
	DB	0b2H
	DB	030H
	DB	030H
	DB	030H
	DB	0b2H
	DB	030H
	DB	030H
	DB	030H
	DB	0b6H
	DB	030H
	DB	034H
	DB	030H
	DB	0b2H
	DB	030H
	DB	030H
	DB	030H
	DB	0b2H
	DB	030H
	DB	030H
	DB	030H
	DB	0b2H
	DB	030H
	DB	030H
	DB	030H
	DB	0b6H
	DB	030H
	DB	034H
	DB	030H
	DB	0b2H
	DB	030H
	DB	030H
	DB	030H
	DB	0b2H
	DB	030H
	DB	030H
	DB	030H
	DB	0b2H
	DB	030H
	DB	030H
	DB	030H
	DB	0b6H
	DB	030H
	DB	034H
	DB	030H
	DB	0b2H
	DB	030H
	DB	030H
	DB	030H
	DB	0b2H
	DB	030H
	DB	030H
	DB	030H
	DB	0b2H
	DB	030H
	DB	030H
	DB	030H
	DB	0b6H
	DB	030H
	DB	034H
	DB	030H
	DB	0b2H
	DB	030H
	DB	030H
	DB	030H
	DB	0b2H
	DB	030H
	DB	030H
	DB	030H
	DB	0b2H
	DB	030H
	DB	030H
	DB	030H
	DB	0b6H
	DB	030H
	DB	034H
	DB	030H
	DB	0b2H
	DB	030H
	DB	030H
	DB	030H
	DB	0b2H
	DB	030H
	DB	030H
	DB	030H
	DB	0b2H
	DB	030H
	DB	030H
	DB	030H
	DB	0b6H
	DB	030H
	DB	034H
	DB	030H
	DB	0b2H
	DB	030H
	DB	030H
	DB	030H
	DB	0b2H
	DB	030H
	DB	030H
	DB	030H
	DB	0b2H
	DB	030H
	DB	030H
	DB	030H
	DB	0b6H
	DB	030H
	DB	034H
	DB	030H
	DB	0b2H
	DB	030H
	DB	030H
	DB	030H
	DB	0b2H
	DB	030H
	DB	030H
	DB	030H
	DB	0b6H
	DB	030H
	DB	030H
	DB	030H
	DB	0b2H
	DB	030H
	DB	034H
	DB	030H
	DB	0b2H
	DB	030H
	DB	030H
	DB	030H
	DB	0b6H
	DB	030H
	DB	030H
	DB	030H
	DB	0b2H
	DB	030H
	DB	030H
	DB	030H
	DB	0b2H
	DB	030H
	DB	034H
	DB	030H
	DB	0b6H
	DB	030H
	DB	030H
	DB	030H
	DB	069H
	DB	030H
	DB	030H
	DB	030H
	DB	00H
	DB	030H
	DB	030H
	DB	030H
	DB	01cH
	DB	030H
	DB	030H
	DB	030H
	DB	0b2H
	DB	030H
	DB	034H
	DB	030H
	DB	0b2H
	DB	030H
	DB	030H
	DB	030H
	DB	0b2H
	DB	038H
	DB	030H
	DB	038H
	DB	0b6H
	DB	030H
	DB	030H
	DB	030H
	DB	0b2H
	DB	030H
	DB	030H
	DB	030H
	DB	0b2H
	DB	038H
	DB	030H
	DB	038H
	DB	0b2H
	DB	030H
	DB	030H
	DB	030H
	DB	0b2H
	DB	030H
	DB	030H
	DB	030H
	DB	0b2H
	DB	038H
	DB	030H
	DB	038H
	DB	0b2H
	DB	030H
	DB	030H
	DB	030H
	DB	0b2H
	DB	030H
	DB	030H
	DB	030H
	DB	0b2H
	DB	038H
	DB	030H
	DB	038H
	DB	0b2H
	DB	030H
	DB	030H
	DB	030H
	DB	0b2H
	DB	030H
	DB	030H
	DB	030H
	DB	0b2H
	DB	038H
	DB	030H
	DB	038H
	DB	0b2H
	DB	030H
	DB	030H
	DB	030H
	DB	0b2H
	DB	030H
	DB	030H
	DB	030H
	DB	0b2H
	DB	038H
	DB	030H
	DB	038H
	DB	0b2H
	DB	030H
	DB	030H
	DB	030H
	DB	0b2H
	DB	030H
	DB	030H
	DB	030H
	DB	0b2H
	DB	038H
	DB	030H
	DB	038H
	DB	0b2H
	DB	030H
	DB	030H
	DB	030H
	DB	0b2H
	DB	030H
	DB	030H
	DB	030H
	DB	0b2H
	DB	038H
	DB	030H
	DB	038H
	DB	0b2H
	DB	030H
	DB	030H
	DB	030H
	DB	0b2H
	DB	030H
	DB	030H
	DB	030H
	DB	0b2H
	DB	038H
	DB	030H
	DB	038H
	DB	0b2H
	DB	030H
	DB	030H
	DB	030H
	DB	0b2H
	DB	030H
	DB	030H
	DB	030H
	DB	0b2H
	DB	038H
	DB	030H
	DB	038H
	DB	0b2H
	DB	030H
	DB	030H
	DB	030H
	DB	0b2H
	DB	030H
	DB	030H
	DB	030H
	DB	0b2H
	DB	038H
	DB	030H
	DB	038H
	DB	0b2H
	DB	030H
	DB	030H
	DB	030H
	DB	0b2H
	DB	030H
	DB	030H
	DB	030H
	DB	0b2H
	DB	038H
	DB	030H
	DB	038H
	DB	0b2H
	DB	030H
	DB	030H
	DB	030H
	DB	0b2H
	DB	030H
	DB	030H
	DB	030H
	DB	0b2H
	DB	038H
	DB	030H
	DB	038H
	DB	0b2H
	DB	030H
	DB	030H
	DB	030H
	DB	0b2H
	DB	030H
	DB	030H
	DB	030H
	DB	0b2H
	DB	038H
	DB	030H
	DB	038H
	DB	0b2H
	DB	030H
	DB	030H
	DB	030H
	DB	0b2H
	DB	030H
	DB	030H
	DB	030H
	DB	0b2H
	DB	038H
	DB	030H
	DB	038H
	DB	0b2H
	DB	030H
	DB	030H
	DB	030H
	DB	0b2H
	DB	030H
	DB	030H
	DB	030H
	DB	0b2H
	DB	038H
	DB	030H
	DB	038H
	DB	0b2H
	DB	030H
	DB	030H
	DB	030H
	DB	0b2H
	DB	030H
	DB	030H
	DB	030H
	DB	0b2H
	DB	038H
	DB	030H
	DB	038H
	DB	0b2H
	DB	030H
	DB	030H
	DB	030H
	DB	0b2H
	DB	030H
	DB	030H
	DB	030H
	DB	0b2H
	DB	038H
	DB	030H
	DB	038H
	DB	0b2H
	DB	030H
	DB	030H
	DB	030H
	DB	0b2H
	DB	030H
	DB	030H
	DB	030H
	DB	0b2H
	DB	038H
	DB	030H
	DB	038H
	DB	0b2H
	DB	030H
	DB	030H
	DB	030H
	DB	0b2H
	DB	030H
	DB	030H
	DB	030H
	DB	0b2H
	DB	038H
	DB	030H
	DB	038H
	DB	0b2H
	DB	030H
	DB	030H
	DB	030H
	DB	0b2H
	DB	030H
	DB	030H
	DB	030H
	DB	0b2H
	DB	038H
	DB	030H
	DB	038H
	DB	0b2H
	DB	030H
	DB	030H
	DB	030H
	DB	0b2H
	DB	030H
	DB	030H
	DB	030H
	DB	0b2H
	DB	038H
	DB	030H
	DB	038H
	DB	0b2H
	DB	030H
	DB	030H
	DB	030H
	DB	0b2H
	DB	030H
	DB	030H
	DB	030H
	DB	0b2H
	DB	038H
	DB	030H
	DB	038H
	DB	0b2H
	DB	030H
	DB	030H
	DB	030H
	DB	0b2H
	DB	030H
	DB	030H
	DB	030H
	DB	0b2H
	DB	038H
	DB	030H
	DB	038H
	DB	0b2H
	DB	030H
	DB	030H
	DB	030H
	DB	0b2H
	DB	030H
	DB	030H
	DB	030H
	DB	0b2H
	DB	038H
	DB	030H
	DB	038H
	DB	0b2H
	DB	030H
	DB	030H
	DB	030H
	DB	0b2H
	DB	030H
	DB	030H
	DB	030H
	DB	0b2H
	DB	038H
	DB	030H
	DB	038H
	DB	0b2H
	DB	030H
	DB	030H
	DB	030H
	DB	0b2H
	DB	030H
	DB	030H
	DB	030H
	DB	0b2H
	DB	038H
	DB	030H
	DB	038H
	DB	0b2H
	DB	030H
	DB	030H
	DB	030H
	DB	0b2H
	DB	030H
	DB	030H
	DB	030H
	DB	0b2H
	DB	038H
	DB	030H
	DB	038H
	DB	0b2H
	DB	030H
	DB	030H
	DB	030H
	DB	0b2H
	DB	030H
	DB	030H
	DB	030H
	DB	0b2H
	DB	038H
	DB	030H
	DB	038H
	DB	0b2H
	DB	030H
	DB	030H
	DB	030H
	DB	0b2H
	DB	030H
	DB	030H
	DB	030H
	DB	0b2H
	DB	038H
	DB	030H
	DB	038H
	DB	0b2H
	DB	030H
	DB	030H
	DB	030H
	DB	0b2H
	DB	030H
	DB	030H
	DB	030H
	DB	0b2H
	DB	038H
	DB	030H
	DB	038H
	DB	0b2H
	DB	030H
	DB	030H
	DB	030H
	DB	0b2H
	DB	030H
	DB	030H
	DB	030H
	DB	0b2H
	DB	038H
	DB	030H
	DB	038H
	DB	0b2H
	DB	030H
	DB	030H
	DB	030H
	DB	0b2H
	DB	030H
	DB	030H
	DB	030H
	DB	0b2H
	DB	038H
	DB	030H
	DB	038H
	DB	0b2H
	DB	030H
	DB	030H
	DB	030H
	DB	0b2H
	DB	030H
	DB	030H
	DB	030H
	DB	0b2H
	DB	038H
	DB	030H
	DB	038H
	DB	0b2H
	DB	030H
	DB	030H
	DB	030H
	DB	0b2H
	DB	030H
	DB	030H
	DB	030H
	DB	0b2H
	DB	038H
	DB	030H
	DB	038H
	DB	0b2H
	DB	030H
	DB	030H
	DB	030H
	DB	0b2H
	DB	030H
	DB	030H
	DB	030H
	DB	0b2H
	DB	038H
	DB	030H
	DB	038H
	DB	0b2H
	DB	030H
	DB	030H
	DB	030H
	DB	0b2H
	DB	030H
	DB	030H
	DB	030H
	DB	0b2H
	DB	038H
	DB	030H
	DB	038H
	DB	0b2H
	DB	030H
	DB	030H
	DB	030H
	DB	0b2H
	DB	030H
	DB	030H
	DB	030H
	DB	0b6H
	DB	038H
	DB	030H
	DB	038H
	DB	0b2H
	DB	030H
	DB	030H
	DB	030H
	DB	0b2H
	DB	030H
	DB	034H
	DB	030H
	DB	0b2H
	DB	030H
	DB	030H
	DB	030H
	DB	0b2H
	DB	030H
	DB	030H
	DB	030H
	DB	01cH
	DB	030H
	DB	030H
	DB	030H
	DB	065H
	DB	030H
	DB	030H
	DB	030H
	DB	0b2H
	DB	030H
	DB	034H
	DB	030H
	DB	0b2H
	DB	030H
	DB	030H
	DB	030H
	DB	0b2H
	DB	030H
	DB	030H
	DB	030H
	DB	0b6H
	DB	030H
	DB	034H
	DB	030H
	DB	0b2H
	DB	030H
	DB	030H
	DB	030H
	DB	0b2H
	DB	030H
	DB	034H
	DB	030H
	DB	0b6H
	DB	030H
	DB	030H
	DB	030H
	DB	0b2H
	DB	030H
	DB	030H
	DB	030H
	DB	0b6H
	DB	030H
	DB	034H
	DB	030H
	DB	0b2H
	DB	030H
	DB	034H
	DB	030H
	DB	0b6H
	DB	030H
	DB	030H
	DB	030H
	DB	0b2H
	DB	030H
	DB	030H
	DB	030H
	DB	0b6H
	DB	030H
	DB	034H
	DB	030H
	DB	0b6H
	DB	030H
	DB	034H
	DB	030H
	DB	0b2H
	DB	030H
	DB	030H
	DB	030H
	DB	0b2H
	DB	030H
	DB	030H
	DB	030H
	DB	0b6H
	DB	030H
	DB	034H
	DB	030H
	DB	0b6H
	DB	030H
	DB	034H
	DB	030H
	DB	0b2H
	DB	030H
	DB	030H
	DB	030H
	DB	0b2H
	DB	030H
	DB	030H
	DB	030H
	DB	0b6H
	DB	030H
	DB	034H
	DB	030H
	DB	0b6H
	DB	030H
	DB	034H
	DB	030H
	DB	0b2H
	DB	030H
	DB	030H
	DB	030H
	DB	0b2H
	DB	030H
	DB	030H
	DB	030H
	DB	0b6H
	DB	030H
	DB	034H
	DB	030H
	DB	0b6H
	DB	030H
	DB	034H
	DB	030H
	DB	0b2H
	DB	030H
	DB	030H
	DB	030H
	DB	0b2H
	DB	030H
	DB	030H
	DB	030H
	DB	0b6H
	DB	030H
	DB	034H
	DB	030H
	DB	0b6H
	DB	030H
	DB	034H
	DB	030H
	DB	0b2H
	DB	030H
	DB	030H
	DB	030H
	DB	0b2H
	DB	030H
	DB	030H
	DB	030H
	DB	0b6H
	DB	030H
	DB	034H
	DB	030H
	DB	0b6H
	DB	030H
	DB	034H
	DB	030H
	DB	0b2H
	DB	030H
	DB	030H
	DB	030H
	DB	0b2H
	DB	030H
	DB	030H
	DB	030H
	DB	0b6H
	DB	030H
	DB	034H
	DB	030H
	DB	0b6H
	DB	030H
	DB	034H
	DB	030H
	DB	0b2H
	DB	030H
	DB	030H
	DB	030H
	DB	0b2H
	DB	030H
	DB	030H
	DB	030H
	DB	0b6H
	DB	030H
	DB	034H
	DB	030H
	DB	0b6H
	DB	030H
	DB	034H
	DB	030H
	DB	0b2H
	DB	030H
	DB	030H
	DB	030H
	DB	0b2H
	DB	030H
	DB	030H
	DB	030H
	DB	0b6H
	DB	030H
	DB	034H
	DB	030H
	DB	0b6H
	DB	030H
	DB	034H
	DB	030H
	DB	0b2H
	DB	030H
	DB	030H
	DB	030H
	DB	0b2H
	DB	030H
	DB	030H
	DB	030H
	DB	0b6H
	DB	030H
	DB	034H
	DB	030H
	DB	0b6H
	DB	030H
	DB	034H
	DB	030H
	DB	0b2H
	DB	030H
	DB	030H
	DB	030H
	DB	0b2H
	DB	030H
	DB	030H
	DB	030H
	DB	0b6H
	DB	030H
	DB	034H
	DB	030H
	DB	0b6H
	DB	030H
	DB	034H
	DB	030H
	DB	0b2H
	DB	030H
	DB	030H
	DB	030H
	DB	0b2H
	DB	030H
	DB	030H
	DB	030H
	DB	0b6H
	DB	030H
	DB	034H
	DB	030H
	DB	0b6H
	DB	030H
	DB	034H
	DB	030H
	DB	0b2H
	DB	030H
	DB	030H
	DB	030H
	DB	0b2H
	DB	030H
	DB	030H
	DB	030H
	DB	0b6H
	DB	030H
	DB	034H
	DB	030H
	DB	0b6H
	DB	030H
	DB	034H
	DB	030H
	DB	0b2H
	DB	030H
	DB	030H
	DB	030H
	DB	0b2H
	DB	030H
	DB	030H
	DB	030H
	DB	0b6H
	DB	030H
	DB	034H
	DB	030H
	DB	0b6H
	DB	030H
	DB	034H
	DB	030H
	DB	0b2H
	DB	030H
	DB	030H
	DB	030H
	DB	0b2H
	DB	030H
	DB	030H
	DB	030H
	DB	0b6H
	DB	030H
	DB	034H
	DB	030H
	DB	0b6H
	DB	030H
	DB	034H
	DB	030H
	DB	0b2H
	DB	030H
	DB	030H
	DB	030H
	DB	0b2H
	DB	030H
	DB	030H
	DB	030H
	DB	0b6H
	DB	030H
	DB	034H
	DB	030H
	DB	0b6H
	DB	030H
	DB	034H
	DB	030H
	DB	0b2H
	DB	030H
	DB	030H
	DB	030H
	DB	0b2H
	DB	030H
	DB	030H
	DB	030H
	DB	0b6H
	DB	030H
	DB	034H
	DB	030H
	DB	0b6H
	DB	030H
	DB	034H
	DB	030H
	DB	0b2H
	DB	030H
	DB	030H
	DB	030H
	DB	0b2H
	DB	030H
	DB	030H
	DB	030H
	DB	0b6H
	DB	030H
	DB	034H
	DB	030H
	DB	0b6H
	DB	030H
	DB	034H
	DB	030H
	DB	0b2H
	DB	030H
	DB	030H
	DB	030H
	DB	0b2H
	DB	030H
	DB	030H
	DB	030H
	DB	0b6H
	DB	030H
	DB	034H
	DB	030H
	DB	0b6H
	DB	030H
	DB	034H
	DB	030H
	DB	0b2H
	DB	030H
	DB	030H
	DB	030H
	DB	0b2H
	DB	030H
	DB	030H
	DB	030H
	DB	0b6H
	DB	030H
	DB	034H
	DB	030H
	DB	0b6H
	DB	030H
	DB	034H
	DB	030H
	DB	0b2H
	DB	030H
	DB	030H
	DB	030H
	DB	0b2H
	DB	030H
	DB	030H
	DB	030H
	DB	0b6H
	DB	030H
	DB	034H
	DB	030H
	DB	0b6H
	DB	030H
	DB	034H
	DB	030H
	DB	0b2H
	DB	030H
	DB	030H
	DB	030H
	DB	0b2H
	DB	030H
	DB	030H
	DB	030H
	DB	0b6H
	DB	030H
	DB	034H
	DB	030H
	DB	0b6H
	DB	030H
	DB	034H
	DB	030H
	DB	0b2H
	DB	030H
	DB	030H
	DB	030H
	DB	0b2H
	DB	030H
	DB	030H
	DB	030H
	DB	0b6H
	DB	030H
	DB	034H
	DB	030H
	DB	0b6H
	DB	030H
	DB	034H
	DB	030H
	DB	0b2H
	DB	030H
	DB	030H
	DB	030H
	DB	0b2H
	DB	030H
	DB	030H
	DB	030H
	DB	0b6H
	DB	030H
	DB	034H
	DB	030H
	DB	0b6H
	DB	030H
	DB	034H
	DB	030H
	DB	0b2H
	DB	030H
	DB	030H
	DB	030H
	DB	0b2H
	DB	030H
	DB	030H
	DB	030H
	DB	0b6H
	DB	030H
	DB	034H
	DB	030H
	DB	0b2H
	DB	030H
	DB	034H
	DB	030H
	DB	0b6H
	DB	030H
	DB	030H
	DB	030H
	DB	0b2H
	DB	030H
	DB	030H
	DB	030H
	DB	0b2H
	DB	030H
	DB	034H
	DB	030H
	DB	0b2H
	DB	030H
	DB	030H
	DB	030H
	DB	0b2H
	DB	030H
	DB	030H
	DB	030H
	DB	0b2H
	DB	038H
	DB	030H
	DB	038H
	DB	0b2H
	DB	030H
	DB	034H
	DB	030H
	DB	0b2H
	DB	030H
	DB	030H
	DB	030H
	DB	065H
	DB	030H
	DB	030H
	DB	030H
	DB	096H
	DB	030H
	DB	030H
	DB	030H
	DB	0b2H
	DB	030H
	DB	030H
	DB	030H
	DB	0b2H
	DB	030H
	DB	030H
	DB	030H
	DB	0b2H
	DB	030H
	DB	034H
	DB	030H
	DB	0b2H
	DB	030H
	DB	030H
	DB	030H
	DB	0b2H
	DB	030H
	DB	030H
	DB	030H
	DB	0b6H
	DB	030H
	DB	034H
	DB	030H
	DB	0b2H
	DB	030H
	DB	030H
	DB	030H
	DB	0b2H
	DB	030H
	DB	030H
	DB	030H
	DB	0b2H
	DB	030H
	DB	030H
	DB	030H
	DB	0b6H
	DB	030H
	DB	030H
	DB	030H
	DB	0b2H
	DB	030H
	DB	034H
	DB	030H
	DB	0b2H
	DB	030H
	DB	030H
	DB	030H
	DB	0b2H
	DB	030H
	DB	030H
	DB	030H
	DB	0b2H
	DB	030H
	DB	030H
	DB	030H
	DB	0b2H
	DB	030H
	DB	030H
	DB	030H
	DB	0b2H
	DB	030H
	DB	030H
	DB	030H
	DB	0b2H
	DB	030H
	DB	030H
	DB	030H
	DB	0b2H
	DB	030H
	DB	030H
	DB	030H
	DB	0b6H
	DB	030H
	DB	034H
	DB	030H
	DB	0b2H
	DB	030H
	DB	030H
	DB	030H
	DB	0b2H
	DB	030H
	DB	030H
	DB	030H
	DB	0b2H
	DB	030H
	DB	030H
	DB	030H
	DB	0b2H
	DB	030H
	DB	030H
	DB	030H
	DB	0b2H
	DB	030H
	DB	030H
	DB	030H
	DB	0b2H
	DB	030H
	DB	030H
	DB	030H
	DB	0b2H
	DB	030H
	DB	030H
	DB	030H
	DB	0b6H
	DB	030H
	DB	034H
	DB	030H
	DB	0b2H
	DB	030H
	DB	030H
	DB	030H
	DB	0b2H
	DB	030H
	DB	030H
	DB	030H
	DB	0b2H
	DB	030H
	DB	030H
	DB	030H
	DB	0b2H
	DB	030H
	DB	030H
	DB	030H
	DB	0b2H
	DB	030H
	DB	030H
	DB	030H
	DB	0b2H
	DB	030H
	DB	030H
	DB	030H
	DB	0b2H
	DB	030H
	DB	030H
	DB	030H
	DB	0b6H
	DB	030H
	DB	034H
	DB	030H
	DB	0b2H
	DB	030H
	DB	030H
	DB	030H
	DB	0b2H
	DB	030H
	DB	030H
	DB	030H
	DB	0b2H
	DB	030H
	DB	030H
	DB	030H
	DB	0b2H
	DB	030H
	DB	030H
	DB	030H
	DB	0b2H
	DB	030H
	DB	030H
	DB	030H
	DB	0b2H
	DB	030H
	DB	030H
	DB	030H
	DB	0b2H
	DB	030H
	DB	030H
	DB	030H
	DB	0b6H
	DB	030H
	DB	034H
	DB	030H
	DB	0b2H
	DB	030H
	DB	030H
	DB	030H
	DB	0b2H
	DB	030H
	DB	030H
	DB	030H
	DB	0b2H
	DB	030H
	DB	030H
	DB	030H
	DB	0b2H
	DB	030H
	DB	030H
	DB	030H
	DB	0b2H
	DB	030H
	DB	030H
	DB	030H
	DB	0b2H
	DB	030H
	DB	030H
	DB	030H
	DB	0b2H
	DB	030H
	DB	030H
	DB	030H
	DB	0b6H
	DB	030H
	DB	034H
	DB	030H
	DB	0b2H
	DB	030H
	DB	030H
	DB	030H
	DB	0b2H
	DB	030H
	DB	030H
	DB	030H
	DB	0b2H
	DB	030H
	DB	030H
	DB	030H
	DB	0b2H
	DB	030H
	DB	030H
	DB	030H
	DB	0b2H
	DB	030H
	DB	030H
	DB	030H
	DB	0b2H
	DB	030H
	DB	030H
	DB	030H
	DB	0b2H
	DB	030H
	DB	030H
	DB	030H
	DB	0b6H
	DB	030H
	DB	034H
	DB	030H
	DB	0b2H
	DB	030H
	DB	030H
	DB	030H
	DB	0b2H
	DB	030H
	DB	030H
	DB	030H
	DB	0b2H
	DB	030H
	DB	030H
	DB	030H
	DB	0b2H
	DB	030H
	DB	030H
	DB	030H
	DB	0b2H
	DB	030H
	DB	030H
	DB	030H
	DB	0b2H
	DB	030H
	DB	030H
	DB	030H
	DB	0b2H
	DB	030H
	DB	030H
	DB	030H
	DB	0b6H
	DB	030H
	DB	034H
	DB	030H
	DB	0b2H
	DB	030H
	DB	030H
	DB	030H
	DB	0b2H
	DB	030H
	DB	030H
	DB	030H
	DB	0b2H
	DB	030H
	DB	030H
	DB	030H
	DB	0b2H
	DB	030H
	DB	030H
	DB	030H
	DB	0b2H
	DB	030H
	DB	030H
	DB	030H
	DB	0b2H
	DB	030H
	DB	030H
	DB	030H
	DB	0b2H
	DB	030H
	DB	030H
	DB	030H
	DB	0b6H
	DB	030H
	DB	034H
	DB	030H
	DB	0b2H
	DB	030H
	DB	030H
	DB	030H
	DB	0b2H
	DB	030H
	DB	030H
	DB	030H
	DB	0b2H
	DB	030H
	DB	030H
	DB	030H
	DB	0b2H
	DB	030H
	DB	030H
	DB	030H
	DB	0b2H
	DB	030H
	DB	030H
	DB	030H
	DB	0b2H
	DB	030H
	DB	030H
	DB	030H
	DB	0b2H
	DB	030H
	DB	030H
	DB	030H
	DB	0b6H
	DB	030H
	DB	034H
	DB	030H
	DB	0b2H
	DB	030H
	DB	030H
	DB	030H
	DB	0b2H
	DB	030H
	DB	030H
	DB	030H
	DB	0b2H
	DB	030H
	DB	030H
	DB	030H
	DB	0b2H
	DB	030H
	DB	030H
	DB	030H
	DB	0b2H
	DB	030H
	DB	030H
	DB	030H
	DB	0b2H
	DB	030H
	DB	030H
	DB	030H
	DB	0b2H
	DB	030H
	DB	030H
	DB	030H
	DB	0b6H
	DB	030H
	DB	034H
	DB	030H
	DB	0b2H
	DB	030H
	DB	030H
	DB	030H
	DB	0b2H
	DB	030H
	DB	030H
	DB	030H
	DB	0b2H
	DB	030H
	DB	030H
	DB	030H
	DB	0b2H
	DB	030H
	DB	030H
	DB	030H
	DB	0b2H
	DB	030H
	DB	030H
	DB	030H
	DB	0b2H
	DB	030H
	DB	030H
	DB	030H
	DB	0b2H
	DB	030H
	DB	030H
	DB	030H
	DB	0b6H
	DB	030H
	DB	034H
	DB	030H
	DB	0b2H
	DB	030H
	DB	030H
	DB	030H
	DB	0b2H
	DB	030H
	DB	030H
	DB	030H
	DB	0b2H
	DB	030H
	DB	030H
	DB	030H
	DB	0b2H
	DB	030H
	DB	030H
	DB	030H
	DB	0b2H
	DB	030H
	DB	030H
	DB	030H
	DB	0b2H
	DB	030H
	DB	030H
	DB	030H
	DB	0b2H
	DB	030H
	DB	030H
	DB	030H
	DB	0b6H
	DB	030H
	DB	034H
	DB	030H
	DB	0b2H
	DB	030H
	DB	030H
	DB	030H
	DB	0b2H
	DB	030H
	DB	030H
	DB	030H
	DB	0b6H
	DB	030H
	DB	030H
	DB	030H
	DB	0b2H
	DB	030H
	DB	030H
	DB	030H
	DB	0b2H
	DB	030H
	DB	034H
	DB	030H
	DB	0b6H
	DB	030H
	DB	030H
	DB	030H
	DB	0b2H
	DB	030H
	DB	034H
	DB	030H
	DB	0b6H
	DB	030H
	DB	030H
	DB	030H
	DB	0b6H
	DB	030H
	DB	030H
	DB	030H
	DB	0b2H
	DB	030H
	DB	030H
	DB	030H
	DB	0b2H
	DB	030H
	DB	030H
	DB	030H
	DB	096H
	DB	030H
	DB	030H
	DB	030H
	DB	0aeH
	DB	030H
	DB	034H
	DB	030H
	DB	0b2H
	DB	038H
	DB	030H
	DB	038H
	DB	0b6H
	DB	030H
	DB	030H
	DB	030H
	DB	0b6H
	DB	030H
	DB	030H
	DB	030H
	DB	0b2H
	DB	038H
	DB	030H
	DB	038H
	DB	0b2H
	DB	030H
	DB	030H
	DB	030H
	DB	0b2H
	DB	030H
	DB	030H
	DB	030H
	DB	0b2H
	DB	038H
	DB	034H
	DB	038H
	DB	0b2H
	DB	030H
	DB	030H
	DB	030H
	DB	0b2H
	DB	030H
	DB	030H
	DB	030H
	DB	0b2H
	DB	038H
	DB	030H
	DB	038H
	DB	0b2H
	DB	030H
	DB	030H
	DB	030H
	DB	0b2H
	DB	030H
	DB	030H
	DB	030H
	DB	0b2H
	DB	038H
	DB	030H
	DB	038H
	DB	0b6H
	DB	030H
	DB	034H
	DB	030H
	DB	0b2H
	DB	030H
	DB	030H
	DB	030H
	DB	0b6H
	DB	038H
	DB	034H
	DB	038H
	DB	0b2H
	DB	030H
	DB	030H
	DB	030H
	DB	0b2H
	DB	030H
	DB	030H
	DB	030H
	DB	0b2H
	DB	038H
	DB	030H
	DB	038H
	DB	0b2H
	DB	030H
	DB	030H
	DB	030H
	DB	0b2H
	DB	030H
	DB	030H
	DB	030H
	DB	0b6H
	DB	038H
	DB	034H
	DB	038H
	DB	0b2H
	DB	030H
	DB	030H
	DB	030H
	DB	0b6H
	DB	030H
	DB	034H
	DB	030H
	DB	0b2H
	DB	038H
	DB	030H
	DB	038H
	DB	0b2H
	DB	030H
	DB	030H
	DB	030H
	DB	0b2H
	DB	030H
	DB	030H
	DB	030H
	DB	0b2H
	DB	038H
	DB	030H
	DB	038H
	DB	0b2H
	DB	030H
	DB	030H
	DB	030H
	DB	0b6H
	DB	030H
	DB	034H
	DB	030H
	DB	0b2H
	DB	038H
	DB	030H
	DB	038H
	DB	0b6H
	DB	030H
	DB	034H
	DB	030H
	DB	0b2H
	DB	030H
	DB	030H
	DB	030H
	DB	0b2H
	DB	038H
	DB	030H
	DB	038H
	DB	0b2H
	DB	030H
	DB	030H
	DB	030H
	DB	0b2H
	DB	030H
	DB	030H
	DB	030H
	DB	0b2H
	DB	038H
	DB	030H
	DB	038H
	DB	0b6H
	DB	030H
	DB	034H
	DB	030H
	DB	0b2H
	DB	030H
	DB	030H
	DB	030H
	DB	0b6H
	DB	038H
	DB	034H
	DB	038H
	DB	0b2H
	DB	030H
	DB	030H
	DB	030H
	DB	0b2H
	DB	030H
	DB	030H
	DB	030H
	DB	0b2H
	DB	038H
	DB	030H
	DB	038H
	DB	0b2H
	DB	030H
	DB	030H
	DB	030H
	DB	0b2H
	DB	030H
	DB	030H
	DB	030H
	DB	0b6H
	DB	038H
	DB	034H
	DB	038H
	DB	0b2H
	DB	030H
	DB	030H
	DB	030H
	DB	0b6H
	DB	030H
	DB	034H
	DB	030H
	DB	0b2H
	DB	038H
	DB	030H
	DB	038H
	DB	0b2H
	DB	030H
	DB	030H
	DB	030H
	DB	0b2H
	DB	030H
	DB	030H
	DB	030H
	DB	0b2H
	DB	038H
	DB	030H
	DB	038H
	DB	0b2H
	DB	030H
	DB	030H
	DB	030H
	DB	0b6H
	DB	030H
	DB	034H
	DB	030H
	DB	0b2H
	DB	038H
	DB	030H
	DB	038H
	DB	0b6H
	DB	030H
	DB	034H
	DB	030H
	DB	0b2H
	DB	030H
	DB	030H
	DB	030H
	DB	0b2H
	DB	038H
	DB	030H
	DB	038H
	DB	0b2H
	DB	030H
	DB	030H
	DB	030H
	DB	0b2H
	DB	030H
	DB	030H
	DB	030H
	DB	0b2H
	DB	038H
	DB	030H
	DB	038H
	DB	0b6H
	DB	030H
	DB	034H
	DB	030H
	DB	0b2H
	DB	030H
	DB	030H
	DB	030H
	DB	0b6H
	DB	038H
	DB	034H
	DB	038H
	DB	0b2H
	DB	030H
	DB	030H
	DB	030H
	DB	0b2H
	DB	030H
	DB	030H
	DB	030H
	DB	0b2H
	DB	038H
	DB	030H
	DB	038H
	DB	0b2H
	DB	030H
	DB	030H
	DB	030H
	DB	0b2H
	DB	030H
	DB	030H
	DB	030H
	DB	0b6H
	DB	038H
	DB	034H
	DB	038H
	DB	0b2H
	DB	030H
	DB	030H
	DB	030H
	DB	0b6H
	DB	030H
	DB	034H
	DB	030H
	DB	0b2H
	DB	038H
	DB	030H
	DB	038H
	DB	0b2H
	DB	030H
	DB	030H
	DB	030H
	DB	0b2H
	DB	030H
	DB	030H
	DB	030H
	DB	0b2H
	DB	038H
	DB	030H
	DB	038H
	DB	0b2H
	DB	030H
	DB	030H
	DB	030H
	DB	0b6H
	DB	030H
	DB	034H
	DB	030H
	DB	0b2H
	DB	038H
	DB	030H
	DB	038H
	DB	0b6H
	DB	030H
	DB	034H
	DB	030H
	DB	0b2H
	DB	030H
	DB	030H
	DB	030H
	DB	0b2H
	DB	038H
	DB	030H
	DB	038H
	DB	0b2H
	DB	030H
	DB	030H
	DB	030H
	DB	0b2H
	DB	030H
	DB	030H
	DB	030H
	DB	0b2H
	DB	038H
	DB	030H
	DB	038H
	DB	0b6H
	DB	030H
	DB	034H
	DB	030H
	DB	0b2H
	DB	030H
	DB	030H
	DB	030H
	DB	0b6H
	DB	038H
	DB	034H
	DB	038H
	DB	0b2H
	DB	030H
	DB	030H
	DB	030H
	DB	0b2H
	DB	030H
	DB	030H
	DB	030H
	DB	0b2H
	DB	038H
	DB	030H
	DB	038H
	DB	0b2H
	DB	030H
	DB	030H
	DB	030H
	DB	0b2H
	DB	030H
	DB	030H
	DB	030H
	DB	0b6H
	DB	038H
	DB	034H
	DB	038H
	DB	0b2H
	DB	030H
	DB	030H
	DB	030H
	DB	0b6H
	DB	030H
	DB	034H
	DB	030H
	DB	0b2H
	DB	038H
	DB	030H
	DB	038H
	DB	0b2H
	DB	030H
	DB	030H
	DB	030H
	DB	0b2H
	DB	030H
	DB	030H
	DB	030H
	DB	0b2H
	DB	038H
	DB	030H
	DB	038H
	DB	0b2H
	DB	030H
	DB	030H
	DB	030H
	DB	0b6H
	DB	030H
	DB	034H
	DB	030H
	DB	0b2H
	DB	038H
	DB	030H
	DB	038H
	DB	0b6H
	DB	030H
	DB	034H
	DB	030H
	DB	0b2H
	DB	030H
	DB	030H
	DB	030H
	DB	0b2H
	DB	038H
	DB	030H
	DB	038H
	DB	0b2H
	DB	030H
	DB	030H
	DB	030H
	DB	0b2H
	DB	030H
	DB	030H
	DB	030H
	DB	0b2H
	DB	038H
	DB	030H
	DB	038H
	DB	0b2H
	DB	030H
	DB	030H
	DB	030H
	DB	0b2H
	DB	030H
	DB	034H
	DB	030H
	DB	0b2H
	DB	038H
	DB	030H
	DB	038H
	DB	0b2H
	DB	030H
	DB	030H
	DB	030H
	DB	0b2H
	DB	030H
	DB	030H
	DB	030H
	DB	0b2H
	DB	038H
	DB	034H
	DB	038H
	DB	0b2H
	DB	030H
	DB	030H
	DB	030H
	DB	0b6H
	DB	030H
	DB	030H
	DB	030H
	DB	0b2H
	DB	030H
	DB	030H
	DB	030H
	DB	0aeH
	DB	030H
	DB	030H
	DB	030H
	DB	0b2H
	DB	030H
	DB	030H
	DB	030H
	DB	0b2H
	DB	030H
	DB	034H
	DB	030H
	DB	0b2H
	DB	030H
	DB	030H
	DB	030H
	DB	0b2H
	DB	030H
	DB	034H
	DB	030H
	DB	0b6H
	DB	030H
	DB	030H
	DB	030H
	DB	0b2H
	DB	030H
	DB	030H
	DB	030H
	DB	0b6H
	DB	030H
	DB	030H
	DB	030H
	DB	0b6H
	DB	030H
	DB	030H
	DB	030H
	DB	0b2H
	DB	030H
	DB	034H
	DB	030H
	DB	0b6H
	DB	030H
	DB	030H
	DB	030H
	DB	0b2H
	DB	030H
	DB	034H
	DB	030H
	DB	0b6H
	DB	030H
	DB	030H
	DB	030H
	DB	0b2H
	DB	030H
	DB	030H
	DB	030H
	DB	0b6H
	DB	030H
	DB	034H
	DB	030H
	DB	0b2H
	DB	030H
	DB	030H
	DB	030H
	DB	0b2H
	DB	030H
	DB	030H
	DB	030H
	DB	0b2H
	DB	030H
	DB	034H
	DB	030H
	DB	0b6H
	DB	030H
	DB	030H
	DB	030H
	DB	0b2H
	DB	030H
	DB	030H
	DB	030H
	DB	0b2H
	DB	030H
	DB	034H
	DB	030H
	DB	0b6H
	DB	030H
	DB	030H
	DB	030H
	DB	0b2H
	DB	030H
	DB	030H
	DB	030H
	DB	0b2H
	DB	030H
	DB	034H
	DB	030H
	DB	0b6H
	DB	030H
	DB	030H
	DB	030H
	DB	0b2H
	DB	030H
	DB	030H
	DB	030H
	DB	0b2H
	DB	030H
	DB	034H
	DB	030H
	DB	0b6H
	DB	030H
	DB	030H
	DB	030H
	DB	0b2H
	DB	030H
	DB	030H
	DB	030H
	DB	0b2H
	DB	030H
	DB	034H
	DB	030H
	DB	0b6H
	DB	030H
	DB	030H
	DB	030H
	DB	0b2H
	DB	030H
	DB	030H
	DB	030H
	DB	0b2H
	DB	030H
	DB	034H
	DB	030H
	DB	0b6H
	DB	030H
	DB	030H
	DB	030H
	DB	0b2H
	DB	030H
	DB	030H
	DB	030H
	DB	0b2H
	DB	030H
	DB	034H
	DB	030H
	DB	0b6H
	DB	030H
	DB	030H
	DB	030H
	DB	0b2H
	DB	030H
	DB	030H
	DB	030H
	DB	0b2H
	DB	030H
	DB	034H
	DB	030H
	DB	0b6H
	DB	030H
	DB	030H
	DB	030H
	DB	0b2H
	DB	030H
	DB	030H
	DB	030H
	DB	0b2H
	DB	030H
	DB	034H
	DB	030H
	DB	0b6H
	DB	030H
	DB	030H
	DB	030H
	DB	0b2H
	DB	030H
	DB	030H
	DB	030H
	DB	0b2H
	DB	030H
	DB	034H
	DB	030H
	DB	0b6H
	DB	030H
	DB	030H
	DB	030H
	DB	0b2H
	DB	030H
	DB	030H
	DB	030H
	DB	0b2H
	DB	030H
	DB	034H
	DB	030H
	DB	0b6H
	DB	030H
	DB	030H
	DB	030H
	DB	0b2H
	DB	030H
	DB	030H
	DB	030H
	DB	0b2H
	DB	030H
	DB	034H
	DB	030H
	DB	0b6H
	DB	030H
	DB	030H
	DB	030H
	DB	0b2H
	DB	030H
	DB	030H
	DB	030H
	DB	0b2H
	DB	030H
	DB	034H
	DB	030H
	DB	0b6H
	DB	030H
	DB	030H
	DB	030H
	DB	0b2H
	DB	030H
	DB	030H
	DB	030H
	DB	0b2H
	DB	030H
	DB	034H
	DB	030H
	DB	0b6H
	DB	030H
	DB	030H
	DB	030H
	DB	0b2H
	DB	030H
	DB	030H
	DB	030H
	DB	0b2H
	DB	030H
	DB	034H
	DB	030H
	DB	0b6H
	DB	030H
	DB	030H
	DB	030H
	DB	0b2H
	DB	030H
	DB	030H
	DB	030H
	DB	0b2H
	DB	030H
	DB	034H
	DB	030H
	DB	0b6H
	DB	030H
	DB	030H
	DB	030H
	DB	0b2H
	DB	030H
	DB	030H
	DB	030H
	DB	0b2H
	DB	030H
	DB	034H
	DB	030H
	DB	0b6H
	DB	030H
	DB	030H
	DB	030H
	DB	0b2H
	DB	030H
	DB	030H
	DB	030H
	DB	0b2H
	DB	030H
	DB	034H
	DB	030H
	DB	0b6H
	DB	030H
	DB	030H
	DB	030H
	DB	0b2H
	DB	030H
	DB	030H
	DB	030H
	DB	0b2H
	DB	030H
	DB	034H
	DB	030H
	DB	0b6H
	DB	030H
	DB	030H
	DB	030H
	DB	0b2H
	DB	030H
	DB	030H
	DB	030H
	DB	0b2H
	DB	030H
	DB	034H
	DB	030H
	DB	0b6H
	DB	030H
	DB	030H
	DB	030H
	DB	0b2H
	DB	030H
	DB	030H
	DB	030H
	DB	0b2H
	DB	030H
	DB	034H
	DB	030H
	DB	0b6H
	DB	030H
	DB	030H
	DB	030H
	DB	0b2H
	DB	030H
	DB	030H
	DB	030H
	DB	0b2H
	DB	030H
	DB	034H
	DB	030H
	DB	0b6H
	DB	030H
	DB	030H
	DB	030H
	DB	0b2H
	DB	030H
	DB	030H
	DB	030H
	DB	0b2H
	DB	030H
	DB	034H
	DB	030H
	DB	0b6H
	DB	030H
	DB	030H
	DB	030H
	DB	0b2H
	DB	030H
	DB	030H
	DB	030H
	DB	0b2H
	DB	030H
	DB	034H
	DB	030H
	DB	0b6H
	DB	030H
	DB	030H
	DB	030H
	DB	0b2H
	DB	030H
	DB	030H
	DB	030H
	DB	0b2H
	DB	030H
	DB	034H
	DB	030H
	DB	0b6H
	DB	030H
	DB	030H
	DB	030H
	DB	0b2H
	DB	030H
	DB	030H
	DB	030H
	DB	0b2H
	DB	030H
	DB	034H
	DB	030H
	DB	0b6H
	DB	030H
	DB	030H
	DB	030H
	DB	0b2H
	DB	030H
	DB	030H
	DB	030H
	DB	0b2H
	DB	030H
	DB	034H
	DB	030H
	DB	0b6H
	DB	030H
	DB	030H
	DB	030H
	DB	0b2H
	DB	030H
	DB	030H
	DB	030H
	DB	0b2H
	DB	030H
	DB	034H
	DB	030H
	DB	0b6H
	DB	030H
	DB	030H
	DB	030H
	DB	0b2H
	DB	030H
	DB	030H
	DB	030H
	DB	0b2H
	DB	030H
	DB	034H
	DB	030H
	DB	0b6H
	DB	030H
	DB	030H
	DB	030H
	DB	0b2H
	DB	030H
	DB	030H
	DB	030H
	DB	0b2H
	DB	030H
	DB	034H
	DB	030H
	DB	0b6H
	DB	030H
	DB	030H
	DB	030H
	DB	0b2H
	DB	030H
	DB	030H
	DB	030H
	DB	0b2H
	DB	030H
	DB	034H
	DB	030H
	DB	0b6H
	DB	030H
	DB	030H
	DB	030H
	DB	0b2H
	DB	030H
	DB	034H
	DB	030H
	DB	0b6H
	DB	030H
	DB	030H
	DB	030H
	DB	0b2H
	DB	030H
	DB	030H
	DB	030H
	DB	0b6H
	DB	030H
	DB	034H
	DB	030H
	DB	0b2H
	DB	030H
	DB	030H
	DB	030H
	DB	0b2H
	DB	030H
	DB	030H
	DB	030H
	DB	0b6H
	DB	030H
	DB	030H
	DB	030H
	DB	0b2H
	DB	030H
	DB	030H
	DB	030H
	DB	0b2H
	DB	030H
	DB	034H
	DB	030H
	DB	0b2H
	DB	030H
	DB	030H
	DB	030H
	DB	0b2H
	DB	030H
	DB	030H
	DB	030H
	DB	0b2H
	DB	030H
	DB	030H
	DB	030H
	DB	0b2H
	DB	030H
	DB	030H
	DB	030H
	DB	0b2H
	DB	030H
	DB	030H
	DB	030H
	DB	0b2H
	DB	030H
	DB	030H
	DB	030H
	DB	0b2H
	DB	030H
	DB	030H
	DB	030H
	DB	0b2H
	DB	030H
	DB	034H
	DB	030H
	DB	0b2H
	DB	038H
	DB	034H
	DB	038H
	DB	0b2H
	DB	030H
	DB	030H
	DB	030H
	DB	0b2H
	DB	030H
	DB	030H
	DB	030H
	DB	0b2H
	DB	030H
	DB	030H
	DB	030H
	DB	0b2H
	DB	038H
	DB	030H
	DB	038H
	DB	0b6H
	DB	030H
	DB	034H
	DB	030H
	DB	0b2H
	DB	030H
	DB	030H
	DB	030H
	DB	0b2H
	DB	030H
	DB	030H
	DB	030H
	DB	0b2H
	DB	030H
	DB	034H
	DB	030H
	DB	0b2H
	DB	038H
	DB	030H
	DB	038H
	DB	0b2H
	DB	030H
	DB	030H
	DB	030H
	DB	0b2H
	DB	030H
	DB	030H
	DB	030H
	DB	0b6H
	DB	030H
	DB	030H
	DB	030H
	DB	0b2H
	DB	038H
	DB	034H
	DB	038H
	DB	0b2H
	DB	030H
	DB	030H
	DB	030H
	DB	0b6H
	DB	030H
	DB	030H
	DB	030H
	DB	0b2H
	DB	030H
	DB	030H
	DB	030H
	DB	0b2H
	DB	030H
	DB	030H
	DB	030H
	DB	0b2H
	DB	038H
	DB	030H
	DB	038H
	DB	0b2H
	DB	030H
	DB	030H
	DB	030H
	DB	0b2H
	DB	030H
	DB	030H
	DB	030H
	DB	0b6H
	DB	030H
	DB	034H
	DB	030H
	DB	0b2H
	DB	038H
	DB	030H
	DB	038H
	DB	0b2H
	DB	030H
	DB	030H
	DB	030H
	DB	0b6H
	DB	030H
	DB	030H
	DB	030H
	DB	0b2H
	DB	030H
	DB	030H
	DB	030H
	DB	0b2H
	DB	030H
	DB	030H
	DB	030H
	DB	0b2H
	DB	038H
	DB	030H
	DB	038H
	DB	0b2H
	DB	030H
	DB	030H
	DB	030H
	DB	0b6H
	DB	030H
	DB	034H
	DB	030H
	DB	0b2H
	DB	030H
	DB	030H
	DB	030H
	DB	0b2H
	DB	038H
	DB	030H
	DB	038H
	DB	0b2H
	DB	030H
	DB	034H
	DB	030H
	DB	0b2H
	DB	030H
	DB	030H
	DB	030H
	DB	0b2H
	DB	030H
	DB	030H
	DB	030H
	DB	0b2H
	DB	030H
	DB	030H
	DB	030H
	DB	0b2H
	DB	038H
	DB	030H
	DB	038H
	DB	0b6H
	DB	030H
	DB	034H
	DB	030H
	DB	0b2H
	DB	030H
	DB	030H
	DB	030H
	DB	0b2H
	DB	030H
	DB	030H
	DB	030H
	DB	0b2H
	DB	038H
	DB	030H
	DB	038H
	DB	0b2H
	DB	030H
	DB	030H
	DB	030H
	DB	0b2H
	DB	030H
	DB	030H
	DB	030H
	DB	0b2H
	DB	030H
	DB	030H
	DB	030H
	DB	0b2H
	DB	030H
	DB	030H
	DB	030H
	DB	0b6H
	DB	038H
	DB	034H
	DB	038H
	DB	0b2H
	DB	030H
	DB	030H
	DB	030H
	DB	0b2H
	DB	030H
	DB	030H
	DB	030H
	DB	0b6H
	DB	030H
	DB	030H
	DB	030H
	DB	0b2H
	DB	038H
	DB	030H
	DB	038H
	DB	0b2H
	DB	030H
	DB	030H
	DB	030H
	DB	0b2H
	DB	030H
	DB	030H
	DB	030H
	DB	0b2H
	DB	030H
	DB	030H
	DB	030H
	DB	0b6H
	DB	030H
	DB	034H
	DB	030H
	DB	0b2H
	DB	038H
	DB	030H
	DB	038H
	DB	0b2H
	DB	030H
	DB	030H
	DB	030H
	DB	0b2H
	DB	030H
	DB	034H
	DB	030H
	DB	0b2H
	DB	030H
	DB	030H
	DB	030H
	DB	0b2H
	DB	038H
	DB	030H
	DB	038H
	DB	0b2H
	DB	030H
	DB	030H
	DB	030H
	DB	0b2H
	DB	030H
	DB	030H
	DB	030H
	DB	0b6H
	DB	030H
	DB	034H
	DB	030H
	DB	0b2H
	DB	030H
	DB	030H
	DB	030H
	DB	0b2H
	DB	038H
	DB	030H
	DB	038H
	DB	0b2H
	DB	030H
	DB	030H
	DB	030H
	DB	0b2H
	DB	030H
	DB	030H
	DB	030H
	DB	0b2H
	DB	030H
	DB	030H
	DB	030H
	DB	0b2H
	DB	038H
	DB	030H
	DB	038H
	DB	0b2H
	DB	030H
	DB	030H
	DB	030H
	DB	0b6H
	DB	030H
	DB	034H
	DB	030H
	DB	0b2H
	DB	030H
	DB	030H
	DB	030H
	DB	0b2H
	DB	030H
	DB	030H
	DB	030H
	DB	0b6H
	DB	038H
	DB	030H
	DB	038H
	DB	0b2H
	DB	030H
	DB	030H
	DB	030H
	DB	0b2H
	DB	030H
	DB	030H
	DB	030H
	DB	0b2H
	DB	030H
	DB	030H
	DB	030H
	DB	0b2H
	DB	038H
	DB	030H
	DB	038H
	DB	0b6H
	DB	030H
	DB	034H
	DB	030H
	DB	0b2H
	DB	030H
	DB	030H
	DB	030H
	DB	0b2H
	DB	030H
	DB	030H
	DB	030H
	DB	0b2H
	DB	030H
	DB	034H
	DB	030H
	DB	0b2H
	DB	038H
	DB	030H
	DB	038H
	DB	0b2H
	DB	030H
	DB	030H
	DB	030H
	DB	0b2H
	DB	030H
	DB	030H
	DB	030H
	DB	0b2H
	DB	030H
	DB	030H
	DB	030H
	DB	0b6H
	DB	038H
	DB	034H
	DB	038H
	DB	0b2H
	DB	030H
	DB	030H
	DB	030H
	DB	0b2H
	DB	030H
	DB	030H
	DB	030H
	DB	0b2H
	DB	030H
	DB	030H
	DB	030H
	DB	0b2H
	DB	030H
	DB	030H
	DB	030H
	DB	0b2H
	DB	038H
	DB	030H
	DB	038H
	DB	0b2H
	DB	030H
	DB	030H
	DB	030H
	DB	0b2H
	DB	030H
	DB	030H
	DB	030H
	DB	0b6H
	DB	030H
	DB	034H
	DB	030H
	DB	0b2H
	DB	038H
	DB	030H
	DB	038H
	DB	0b2H
	DB	030H
	DB	030H
	DB	030H
	DB	0b6H
	DB	030H
	DB	030H
	DB	030H
	DB	0b2H
	DB	030H
	DB	030H
	DB	030H
	DB	0b2H
	DB	030H
	DB	030H
	DB	030H
	DB	0b2H
	DB	038H
	DB	030H
	DB	038H
	DB	0b2H
	DB	030H
	DB	030H
	DB	030H
	DB	0b6H
	DB	030H
	DB	030H
	DB	030H
	DB	0b2H
	DB	030H
	DB	034H
	DB	030H
	DB	0b2H
	DB	038H
	DB	030H
	DB	038H
	DB	0b2H
	DB	030H
	DB	030H
	DB	030H
	DB	0b2H
	DB	030H
	DB	030H
	DB	030H
	DB	0b6H
	DB	030H
	DB	030H
	DB	030H
	DB	0b2H
	DB	030H
	DB	030H
	DB	030H
	DB	0b2H
	DB	038H
	DB	034H
	DB	038H
	DB	0b6H
	DB	030H
	DB	030H
	DB	030H
	DB	0b2H
	DB	030H
	DB	030H
	DB	030H
	DB	0b2H
	DB	030H
	DB	034H
	DB	030H
	DB	0b6H
	DB	030H
	DB	030H
	DB	030H
	DB	0b2H
	DB	030H
	DB	030H
	DB	030H
	DB	0b2H
	DB	030H
	DB	030H
	DB	030H
	DB	0b2H
	DB	030H
	DB	030H
	DB	030H
	DB	0b6H
	DB	030H
	DB	034H
	DB	030H
	DB	0b6H
	DB	038H
	DB	030H
	DB	038H
	DB	0b2H
	DB	030H
	DB	030H
	DB	030H
	DB	0b2H
	DB	030H
	DB	030H
	DB	030H
	DB	0b6H
	DB	030H
	DB	030H
	DB	030H
	DB	0b2H
	DB	030H
	DB	034H
	DB	030H
	DB	0b2H
	DB	030H
	DB	030H
	DB	030H
	DB	0b2H
	DB	030H
	DB	030H
	DB	030H
	DB	0b2H
	DB	030H
	DB	034H
	DB	030H
	DB	0b2H
	DB	030H
	DB	030H
	DB	030H
	DB	0b2H
	DB	038H
	DB	030H
	DB	038H
	DB	0b2H
	DB	030H
	DB	030H
	DB	030H
	DB	0b6H
	DB	030H
	DB	030H
	DB	030H
	DB	0b6H
	DB	030H
	DB	030H
	DB	030H
	DB	0b2H
	DB	030H
	DB	034H
	DB	030H
	DB	0b2H
	DB	030H
	DB	030H
	DB	030H
	DB	0b2H
	DB	030H
	DB	030H
	DB	030H
	DB	0b2H
	DB	030H
	DB	030H
	DB	030H
	DB	0b2H
	DB	030H
	DB	034H
	DB	030H
	DB	0b2H
	DB	038H
	DB	030H
	DB	038H
	DB	0b6H
	DB	030H
	DB	034H
	DB	030H
	DB	0b2H
	DB	030H
	DB	030H
	DB	030H
	DB	0b2H
	DB	030H
	DB	034H
	DB	030H
	DB	0b6H
	DB	030H
	DB	030H
	DB	030H
	DB	0b2H
	DB	030H
	DB	030H
	DB	030H
	DB	0b2H
	DB	030H
	DB	030H
	DB	030H
	DB	0b2H
	DB	030H
	DB	034H
	DB	030H
	DB	0b2H
	DB	030H
	DB	030H
	DB	030H
	DB	0b2H
	DB	038H
	DB	034H
	DB	038H
	DB	0b2H
	DB	030H
	DB	030H
	DB	030H
	DB	0b6H
	DB	030H
	DB	034H
	DB	030H
	DB	0b2H
	DB	030H
	DB	030H
	DB	030H
	DB	0b2H
	DB	030H
	DB	030H
	DB	030H
	DB	0b2H
	DB	030H
	DB	030H
	DB	030H
	DB	0b6H
	DB	030H
	DB	030H
	DB	030H
	DB	0b2H
	DB	030H
	DB	030H
	DB	030H
	DB	0b6H
	DB	030H
	DB	030H
	DB	030H
	DB	0b2H
	DB	038H
	DB	030H
	DB	038H
	DB	0b6H
	DB	030H
	DB	034H
	DB	030H
	DB	0b2H
	DB	030H
	DB	030H
	DB	030H
	DB	0b2H
	DB	030H
	DB	030H
	DB	030H
	DB	0b2H
	DB	030H
	DB	030H
	DB	030H
	DB	0b6H
	DB	030H
	DB	034H
	DB	030H
	DB	0b2H
	DB	030H
	DB	030H
	DB	030H
	DB	0b6H
	DB	030H
	DB	034H
	DB	030H
	DB	0b2H
	DB	030H
	DB	030H
	DB	030H
	DB	0b6H
	DB	038H
	DB	034H
	DB	038H
	DB	0b2H
	DB	030H
	DB	030H
	DB	030H
	DB	0b2H
	DB	030H
	DB	030H
	DB	030H
	DB	0b2H
	DB	030H
	DB	030H
	DB	030H
	DB	0b2H
	DB	030H
	DB	034H
	DB	030H
	DB	0b2H
	DB	030H
	DB	030H
	DB	030H
	DB	0b2H
	DB	030H
	DB	034H
	DB	030H
	DB	0b2H
	DB	030H
	DB	030H
	DB	030H
	DB	0b6H
	DB	030H
	DB	034H
	DB	030H
	DB	0b2H
	DB	038H
	DB	030H
	DB	038H
	DB	0b2H
	DB	030H
	DB	030H
	DB	030H
	DB	0b2H
	DB	030H
	DB	030H
	DB	030H
	DB	0b6H
	DB	030H
	DB	030H
	DB	030H
	DB	0b2H
	DB	030H
	DB	030H
	DB	030H
	DB	0b6H
	DB	030H
	DB	030H
	DB	030H
	DB	0b2H
	DB	030H
	DB	030H
	DB	030H
	DB	0b6H
	DB	030H
	DB	034H
	DB	030H
	DB	0b2H
	DB	030H
	DB	030H
	DB	030H
	DB	0b2H
	DB	038H
	DB	030H
	DB	038H
	DB	0b2H
	DB	030H
	DB	030H
	DB	030H
	DB	0b6H
	DB	030H
	DB	034H
	DB	030H
	DB	0b2H
	DB	030H
	DB	030H
	DB	030H
	DB	0b6H
	DB	030H
	DB	034H
	DB	030H
	DB	0b2H
	DB	030H
	DB	030H
	DB	030H
	DB	0b6H
	DB	030H
	DB	034H
	DB	030H
	DB	0b2H
	DB	030H
	DB	030H
	DB	030H
	DB	0b2H
	DB	030H
	DB	030H
	DB	030H
	DB	0b2H
	DB	038H
	DB	030H
	DB	038H
	DB	0b2H
	DB	030H
	DB	034H
	DB	030H
	DB	0b2H
	DB	030H
	DB	030H
	DB	030H
	DB	0b2H
	DB	030H
	DB	034H
	DB	030H
	DB	0b2H
	DB	030H
	DB	030H
	DB	030H
	DB	0b6H
	DB	030H
	DB	034H
	DB	030H
	DB	0b2H
	DB	030H
	DB	030H
	DB	030H
	DB	0b2H
	DB	030H
	DB	030H
	DB	030H
	DB	0b2H
	DB	030H
	DB	030H
	DB	030H
	DB	0b6H
	DB	038H
	DB	030H
	DB	038H
	DB	0b2H
	DB	030H
	DB	030H
	DB	030H
	DB	0b6H
	DB	030H
	DB	030H
	DB	030H
	DB	0b2H
	DB	030H
	DB	030H
	DB	030H
	DB	0b6H
	DB	030H
	DB	034H
	DB	030H
	DB	0b2H
	DB	030H
	DB	030H
	DB	030H
	DB	0b2H
	DB	030H
	DB	030H
	DB	030H
	DB	0b2H
	DB	030H
	DB	030H
	DB	030H
	DB	0b6H
	DB	030H
	DB	034H
	DB	030H
	DB	0b2H
	DB	038H
	DB	030H
	DB	038H
	DB	0b6H
	DB	030H
	DB	034H
	DB	030H
	DB	0b2H
	DB	030H
	DB	030H
	DB	030H
	DB	0b6H
	DB	030H
	DB	034H
	DB	030H
	DB	0b2H
	DB	030H
	DB	030H
	DB	030H
	DB	0b2H
	DB	030H
	DB	030H
	DB	030H
	DB	0b2H
	DB	030H
	DB	030H
	DB	030H
	DB	0b2H
	DB	030H
	DB	034H
	DB	030H
	DB	0b2H
	DB	030H
	DB	030H
	DB	030H
	DB	0b2H
	DB	038H
	DB	034H
	DB	038H
	DB	0b2H
	DB	030H
	DB	030H
	DB	030H
	DB	0b6H
	DB	030H
	DB	034H
	DB	030H
	DB	0b2H
	DB	030H
	DB	030H
	DB	030H
	DB	0b2H
	DB	030H
	DB	030H
	DB	030H
	DB	0b2H
	DB	030H
	DB	030H
	DB	030H
	DB	0b2H
	DB	030H
	DB	030H
	DB	030H
	DB	0b6H
	DB	030H
	DB	030H
	DB	030H
	DB	0b2H
	DB	030H
	DB	034H
	DB	030H
	DB	0b2H
	DB	038H
	DB	034H
	DB	038H
	DB	0b2H
	DB	030H
	DB	030H
	DB	030H
	DB	0b2H
	DB	030H
	DB	030H
	DB	030H
	DB	0b2H
	DB	030H
	DB	034H
	DB	030H
	DB	0b2H
	DB	030H
	DB	030H
	DB	030H
	DB	0b2H
	DB	030H
	DB	030H
	DB	030H
	DB	0b6H
	DB	038H
	DB	030H
	DB	038H
	DB	0b2H
	DB	030H
	DB	030H
	DB	030H
	DB	0b2H
	DB	030H
	DB	030H
	DB	030H
	DB	0b6H
	DB	030H
	DB	030H
	DB	030H
	DB	0b2H
	DB	030H
	DB	030H
	DB	030H
	DB	0b2H
	DB	030H
	DB	034H
	DB	030H
	DB	0b2H
	DB	030H
	DB	030H
	DB	030H
	DB	0b2H
	DB	030H
	DB	030H
	DB	030H
	DB	0b6H
	DB	030H
	DB	030H
	DB	030H
	DB	0b2H
	DB	030H
	DB	030H
	DB	030H
	DB	0b2H
	DB	030H
	DB	030H
	DB	030H
	DB	0b6H
	DB	038H
	DB	034H
	DB	038H
	DB	0b6H
	DB	030H
	DB	030H
	DB	030H
	DB	0b2H
	DB	030H
	DB	030H
	DB	030H
	DB	0b2H
	DB	030H
	DB	030H
	DB	030H
	DB	0b6H
	DB	030H
	DB	034H
	DB	030H
	DB	0b2H
	DB	030H
	DB	030H
	DB	030H
	DB	0b2H
	DB	030H
	DB	030H
	DB	030H
	DB	0b2H
	DB	030H
	DB	034H
	DB	030H
	DB	0b6H
	DB	038H
	DB	030H
	DB	038H
	DB	0b2H
	DB	030H
	DB	030H
	DB	030H
	DB	0b6H
	DB	030H
	DB	030H
	DB	030H
	DB	0b2H
	DB	030H
	DB	034H
	DB	030H
	DB	0b2H
	DB	030H
	DB	030H
	DB	030H
	DB	0b6H
	DB	030H
	DB	030H
	DB	030H
	DB	0b2H
	DB	030H
	DB	030H
	DB	030H
	DB	0b2H
	DB	030H
	DB	030H
	DB	030H
	DB	0b6H
	DB	030H
	DB	034H
	DB	030H
	DB	0b2H
	DB	038H
	DB	030H
	DB	038H
	DB	0b2H
	DB	030H
	DB	030H
	DB	030H
	DB	0b6H
	DB	030H
	DB	030H
	DB	030H
	DB	0b2H
	DB	030H
	DB	030H
	DB	030H
	DB	0b6H
	DB	030H
	DB	030H
	DB	030H
	DB	0b2H
	DB	030H
	DB	030H
	DB	030H
	DB	0b2H
	DB	030H
	DB	034H
	DB	030H
	DB	0b2H
	DB	030H
	DB	030H
	DB	030H
	DB	0b6H
	DB	030H
	DB	030H
	DB	030H
	DB	0b2H
	DB	038H
	DB	034H
	DB	038H
	DB	0b2H
	DB	030H
	DB	030H
	DB	030H
	DB	0b2H
	DB	030H
	DB	034H
	DB	030H
	DB	0b2H
	DB	030H
	DB	030H
	DB	030H
	DB	0b2H
	DB	030H
	DB	030H
	DB	030H
	DB	0b6H
	DB	030H
	DB	034H
	DB	030H
	DB	0b2H
	DB	030H
	DB	030H
	DB	030H
	DB	0b2H
	DB	030H
	DB	030H
	DB	030H
	DB	0b6H
	DB	030H
	DB	030H
	DB	030H
	DB	0b2H
	DB	038H
	DB	034H
	DB	038H
	DB	0b2H
	DB	030H
	DB	030H
	DB	030H
	DB	0b2H
	DB	030H
	DB	030H
	DB	030H
	DB	0b2H
	DB	030H
	DB	030H
	DB	030H
	DB	0b6H
	DB	030H
	DB	030H
	DB	030H
	DB	0b2H
	DB	030H
	DB	034H
	DB	030H
	DB	0b2H
	DB	030H
	DB	030H
	DB	030H
	DB	0b6H
	DB	030H
	DB	030H
	DB	030H
	DB	0b2H
	DB	030H
	DB	030H
	DB	030H
	DB	0b6H
	DB	038H
	DB	030H
	DB	038H
	DB	0b2H
	DB	030H
	DB	030H
	DB	030H
	DB	0b2H
	DB	030H
	DB	030H
	DB	030H
	DB	0b6H
	DB	030H
	DB	034H
	DB	030H
	DB	0b2H
	DB	030H
	DB	030H
	DB	030H
	DB	0b2H
	DB	030H
	DB	030H
	DB	030H
	DB	0b2H
	DB	030H
	DB	034H
	DB	030H
	DB	0b6H
	DB	030H
	DB	030H
	DB	030H
	DB	0b2H
	DB	030H
	DB	034H
	DB	030H
	DB	0b2H
	DB	038H
	DB	030H
	DB	038H
	DB	0b2H
	DB	030H
	DB	030H
	DB	030H
	DB	0b2H
	DB	030H
	DB	034H
	DB	030H
	DB	0b6H
	DB	030H
	DB	030H
	DB	030H
	DB	0b2H
	DB	030H
	DB	030H
	DB	030H
	DB	0b2H
	DB	030H
	DB	030H
	DB	030H
	DB	0b2H
	DB	030H
	DB	034H
	DB	030H
	DB	0b2H
	DB	030H
	DB	030H
	DB	030H
	DB	0b2H
	DB	030H
	DB	030H
	DB	030H
	DB	0b2H
	DB	038H
	DB	030H
	DB	038H
	DB	0b6H
	DB	030H
	DB	030H
	DB	030H
	DB	0b2H
	DB	030H
	DB	034H
	DB	030H
	DB	0b2H
	DB	030H
	DB	030H
	DB	030H
	DB	0b6H
	DB	030H
	DB	030H
	DB	030H
	DB	0b2H
	DB	030H
	DB	030H
	DB	030H
	DB	0b6H
	DB	030H
	DB	030H
	DB	030H
	DB	0b2H
	DB	030H
	DB	030H
	DB	030H
	DB	0b2H
	DB	030H
	DB	030H
	DB	030H
	DB	0b6H
	DB	038H
	DB	034H
	DB	038H
	DB	0b2H
	DB	030H
	DB	030H
	DB	030H
	DB	0b2H
	DB	030H
	DB	030H
	DB	030H
	DB	0b2H
	DB	030H
	DB	034H
	DB	030H
	DB	0b6H
	DB	030H
	DB	030H
	DB	030H
	DB	0b2H
	DB	030H
	DB	034H
	DB	030H
	DB	0b2H
	DB	030H
	DB	030H
	DB	030H
	DB	0b2H
	DB	030H
	DB	030H
	DB	030H
	DB	0b2H
	DB	030H
	DB	034H
	DB	030H
	DB	0b6H
	DB	038H
	DB	030H
	DB	038H
	DB	0b2H
	DB	030H
	DB	030H
	DB	030H
	DB	0b2H
	DB	030H
	DB	030H
	DB	030H
	DB	0b2H
	DB	030H
	DB	034H
	DB	030H
	DB	0b2H
	DB	030H
	DB	030H
	DB	030H
	DB	0b2H
	DB	030H
	DB	030H
	DB	030H
	DB	0b2H
	DB	030H
	DB	030H
	DB	030H
	DB	0b6H
	DB	030H
	DB	030H
	DB	030H
	DB	0b2H
	DB	030H
	DB	034H
	DB	030H
	DB	0b2H
	DB	038H
	DB	030H
	DB	038H
	DB	0b6H
	DB	030H
	DB	030H
	DB	030H
	DB	0b2H
	DB	030H
	DB	030H
	DB	030H
	DB	0b6H
	DB	030H
	DB	030H
	DB	030H
	DB	0b2H
	DB	030H
	DB	030H
	DB	030H
	DB	0b2H
	DB	030H
	DB	030H
	DB	030H
	DB	0b6H
	DB	030H
	DB	034H
	DB	030H
	DB	0b2H
	DB	030H
	DB	030H
	DB	030H
	DB	0b2H
	DB	030H
	DB	034H
	DB	030H
	DB	0b6H
	DB	038H
	DB	030H
	DB	038H
	DB	0b2H
	DB	030H
	DB	034H
	DB	030H
	DB	0b2H
	DB	030H
	DB	030H
	DB	030H
	DB	0b6H
	DB	030H
	DB	030H
	DB	030H
	DB	0b2H
	DB	030H
	DB	030H
	DB	030H
	DB	0b2H
	DB	030H
	DB	030H
	DB	030H
	DB	0b6H
	DB	030H
	DB	030H
	DB	030H
	DB	0b6H
	DB	030H
	DB	030H
	DB	030H
	DB	0b2H
	DB	030H
	DB	030H
	DB	030H
	DB	0b2H
	DB	030H
	DB	030H
	DB	030H
	DB	0b6H
	DB	030H
	DB	034H
	DB	030H
	DB	0b2H
	DB	030H
	DB	030H
	DB	030H
	DB	0b2H
	DB	030H
	DB	030H
	DB	030H
	DB	0b2H
	DB	030H
	DB	034H
	DB	030H
	DB	0b2H
	DB	030H
	DB	030H
	DB	030H
	DB	0b2H
	DB	030H
	DB	030H
	DB	030H
	DB	0b2H
	DB	030H
	DB	030H
	DB	030H
	DB	0b2H
	DB	030H
	DB	034H
	DB	030H
	DB	0b2H
	DB	030H
	DB	030H
	DB	030H
	DB	0b2H
	DB	038H
	DB	034H
	DB	038H
	DB	0b2H
	DB	030H
	DB	030H
	DB	030H
	DB	0b2H
	DB	030H
	DB	030H
	DB	030H
	DB	0b2H
	DB	030H
	DB	030H
	DB	030H
	DB	0b2H
	DB	030H
	DB	034H
	DB	030H
	DB	0b6H
	DB	030H
	DB	030H
	DB	030H
	DB	0b2H
	DB	030H
	DB	030H
	DB	030H
	DB	0b2H
	DB	030H
	DB	034H
	DB	030H
	DB	0b6H
	DB	030H
	DB	030H
	DB	030H
	DB	0b2H
	DB	030H
	DB	030H
	DB	030H
	DB	0b2H
	DB	030H
	DB	030H
	DB	030H
	DB	0b2H
	DB	030H
	DB	030H
	DB	030H
	DB	0b2H
	DB	030H
	DB	034H
	DB	030H
	DB	0b6H
	DB	030H
	DB	030H
	DB	030H
	DB	0b2H
	DB	038H
	DB	030H
	DB	038H
	DB	0b2H
	DB	030H
	DB	030H
	DB	030H
	DB	0b2H
	DB	030H
	DB	030H
	DB	030H
	DB	0b2H
	DB	030H
	DB	030H
	DB	030H
	DB	0b2H
	DB	030H
	DB	030H
	DB	030H
	DB	0b2H
	DB	030H
	DB	030H
	DB	030H
	DB	0b2H
	DB	030H
	DB	034H
	DB	030H
	DB	0b2H
	DB	030H
	DB	030H
	DB	030H
	DB	0b2H
	DB	030H
	DB	034H
	DB	030H
	DB	0b2H
	DB	038H
	DB	030H
	DB	038H
	DB	0b6H
	DB	030H
	DB	030H
	DB	030H
	DB	0b2H
	DB	030H
	DB	030H
	DB	030H
	DB	0b2H
	DB	030H
	DB	030H
	DB	030H
	DB	0b2H
	DB	030H
	DB	030H
	DB	030H
	DB	0b2H
	DB	030H
	DB	030H
	DB	030H
	DB	0b6H
	DB	030H
	DB	030H
	DB	030H
	DB	0b2H
	DB	030H
	DB	034H
	DB	030H
	DB	0b2H
	DB	030H
	DB	030H
	DB	030H
	DB	0b6H
	DB	038H
	DB	030H
	DB	038H
	DB	0b2H
	DB	030H
	DB	034H
	DB	030H
	DB	0b2H
	DB	030H
	DB	030H
	DB	030H
	DB	0b2H
	DB	030H
	DB	030H
	DB	030H
	DB	0b2H
	DB	030H
	DB	030H
	DB	030H
	DB	0b2H
	DB	030H
	DB	034H
	DB	030H
	DB	0b6H
	DB	030H
	DB	030H
	DB	030H
	DB	0b2H
	DB	030H
	DB	030H
	DB	030H
	DB	0b2H
	DB	030H
	DB	030H
	DB	030H
	DB	0b2H
	DB	038H
	DB	030H
	DB	038H
	DB	0b2H
	DB	030H
	DB	030H
	DB	030H
	DB	0b2H
	DB	030H
	DB	030H
	DB	030H
	DB	0b2H
	DB	030H
	DB	034H
	DB	030H
	DB	0b2H
	DB	030H
	DB	030H
	DB	030H
	DB	0b6H
	DB	030H
	DB	034H
	DB	030H
	DB	0b2H
	DB	030H
	DB	030H
	DB	030H
	DB	0b2H
	DB	030H
	DB	030H
	DB	030H
	DB	0b6H
	DB	030H
	DB	030H
	DB	030H
	DB	0b2H
	DB	038H
	DB	030H
	DB	038H
	DB	0b2H
	DB	030H
	DB	030H
	DB	030H
	DB	0b2H
	DB	030H
	DB	030H
	DB	030H
	DB	0b6H
	DB	030H
	DB	030H
	DB	030H
	DB	0b2H
	DB	030H
	DB	034H
	DB	030H
	DB	0b2H
	DB	030H
	DB	030H
	DB	030H
	DB	0b2H
	DB	030H
	DB	030H
	DB	030H
	DB	0b2H
	DB	030H
	DB	034H
	DB	030H
	DB	0b2H
	DB	030H
	DB	030H
	DB	030H
	DB	0b2H
	DB	038H
	DB	030H
	DB	038H
	DB	0b6H
	DB	030H
	DB	030H
	DB	030H
	DB	0b2H
	DB	030H
	DB	034H
	DB	030H
	DB	0b6H
	DB	030H
	DB	030H
	DB	030H
	DB	0b2H
	DB	030H
	DB	030H
	DB	030H
	DB	0b2H
	DB	030H
	DB	030H
	DB	030H
	DB	0b2H
	DB	030H
	DB	030H
	DB	030H
	DB	0b2H
	DB	030H
	DB	030H
	DB	030H
	DB	0b2H
	DB	030H
	DB	030H
	DB	030H
	DB	0b2H
	DB	038H
	DB	034H
	DB	038H
	DB	0b2H
	DB	030H
	DB	030H
	DB	030H
	DB	0b6H
	DB	030H
	DB	034H
	DB	030H
	DB	0b2H
	DB	030H
	DB	030H
	DB	030H
	DB	0b2H
	DB	030H
	DB	030H
	DB	030H
	DB	0b6H
	DB	030H
	DB	030H
	DB	030H
	DB	0b2H
	DB	030H
	DB	030H
	DB	030H
	DB	0b2H
	DB	030H
	DB	030H
	DB	030H
	DB	0b2H
	DB	030H
	DB	030H
	DB	030H
	DB	0b6H
	DB	038H
	DB	030H
	DB	038H
	DB	0b2H
	DB	030H
	DB	034H
	DB	030H
	DB	0b2H
	DB	030H
	DB	030H
	DB	030H
	DB	0b2H
	DB	030H
	DB	030H
	DB	030H
	DB	0b2H
	DB	030H
	DB	034H
	DB	030H
	DB	0b2H
	DB	030H
	DB	030H
	DB	030H
	DB	0b2H
	DB	030H
	DB	030H
	DB	030H
	DB	0b6H
	DB	030H
	DB	030H
	DB	030H
	DB	0b2H
	DB	030H
	DB	034H
	DB	030H
	DB	0b6H
	DB	038H
	DB	030H
	DB	038H
	DB	0b2H
	DB	030H
	DB	030H
	DB	030H
	DB	0b2H
	DB	030H
	DB	030H
	DB	030H
	DB	0b2H
	DB	030H
	DB	030H
	DB	030H
	DB	0b2H
	DB	030H
	DB	030H
	DB	030H
	DB	0b2H
	DB	030H
	DB	030H
	DB	030H
	DB	0b2H
	DB	030H
	DB	034H
	DB	030H
	DB	0b2H
	DB	030H
	DB	030H
	DB	030H
	DB	0b6H
	DB	030H
	DB	034H
	DB	030H
	DB	0b2H
	DB	038H
	DB	030H
	DB	038H
	DB	0b2H
	DB	030H
	DB	030H
	DB	030H
	DB	0b6H
	DB	030H
	DB	030H
	DB	030H
	DB	0b2H
	DB	030H
	DB	030H
	DB	030H
	DB	0b2H
	DB	030H
	DB	030H
	DB	030H
	DB	0b2H
	DB	030H
	DB	030H
	DB	030H
	DB	0b6H
	DB	030H
	DB	030H
	DB	030H
	DB	0b2H
	DB	030H
	DB	034H
	DB	030H
	DB	0b2H
	DB	030H
	DB	030H
	DB	030H
	DB	0b2H
	DB	038H
	DB	030H
	DB	038H
	DB	0b2H
	DB	030H
	DB	034H
	DB	030H
	DB	0b2H
	DB	030H
	DB	030H
	DB	030H
	DB	0b2H
	DB	030H
	DB	030H
	DB	030H
	DB	0b2H
	DB	038H
	DB	034H
	DB	038H
	DB	0b2H
	DB	030H
	DB	030H
	DB	030H
	DB	0b6H
	DB	030H
	DB	030H
	DB	030H
	DB	0b2H
	DB	030H
	DB	034H
	DB	030H
	DB	0b2H
	DB	030H
	DB	030H
	DB	030H
	DB	0b6H
	DB	030H
	DB	030H
	DB	030H
	DB	0b2H
	DB	030H
	DB	030H
	DB	030H
	DB	0b2H
	DB	030H
	DB	030H
	DB	030H
	DB	0b2H
	DB	030H
	DB	030H
	DB	030H
	DB	0b6H
	DB	038H
	DB	030H
	DB	038H
	DB	0b6H
	DB	030H
	DB	030H
	DB	030H
	DB	0b2H
	DB	030H
	DB	030H
	DB	030H
	DB	0b6H
	DB	030H
	DB	034H
	DB	030H
	DB	0b2H
	DB	030H
	DB	030H
	DB	030H
	DB	0b6H
	DB	030H
	DB	030H
	DB	030H
	DB	0b2H
	DB	030H
	DB	030H
	DB	030H
	DB	0b2H
	DB	030H
	DB	030H
	DB	030H
	DB	0b2H
	DB	038H
	DB	030H
	DB	038H
	DB	0b2H
	DB	030H
	DB	030H
	DB	030H
	DB	0b2H
	DB	030H
	DB	030H
	DB	030H
	DB	0b2H
	DB	038H
	DB	034H
	DB	038H
	DB	0b6H
	DB	030H
	DB	030H
	DB	030H
	DB	0b2H
	DB	030H
	DB	030H
	DB	030H
	DB	0b2H
	DB	030H
	DB	034H
	DB	030H
	DB	0b2H
	DB	030H
	DB	030H
	DB	030H
	DB	0b2H
	DB	030H
	DB	030H
	DB	030H
	DB	0b6H
	DB	030H
	DB	034H
	DB	030H
	DB	0b2H
	DB	030H
	DB	030H
	DB	030H
	DB	0b2H
	DB	030H
	DB	034H
	DB	030H
	DB	0b6H
	DB	038H
	DB	034H
	DB	038H
	DB	0b2H
	DB	030H
	DB	030H
	DB	030H
	DB	0b6H
	DB	030H
	DB	030H
	DB	030H
	DB	0b2H
	DB	030H
	DB	030H
	DB	030H
	DB	0b6H
	DB	030H
	DB	030H
	DB	030H
	DB	0b2H
	DB	030H
	DB	034H
	DB	030H
	DB	0b2H
	DB	030H
	DB	030H
	DB	030H
	DB	0b2H
	DB	030H
	DB	034H
	DB	030H
	DB	0b6H
	DB	030H
	DB	034H
	DB	030H
	DB	0b2H
	DB	038H
	DB	030H
	DB	038H
	DB	0b6H
	DB	030H
	DB	034H
	DB	030H
	DB	0b2H
	DB	030H
	DB	030H
	DB	030H
	DB	0b2H
	DB	030H
	DB	030H
	DB	030H
	DB	0b6H
	DB	030H
	DB	030H
	DB	030H
	DB	0b2H
	DB	030H
	DB	030H
	DB	030H
	DB	0b2H
	DB	030H
	DB	030H
	DB	030H
	DB	0b6H
	DB	030H
	DB	030H
	DB	030H
	DB	0b2H
	DB	030H
	DB	030H
	DB	030H
	DB	0b2H
	DB	038H
	DB	034H
	DB	038H
	DB	0b6H
	DB	030H
	DB	030H
	DB	030H
	DB	0b2H
	DB	030H
	DB	030H
	DB	030H
	DB	0b2H
	DB	030H
	DB	030H
	DB	030H
	DB	0b6H
	DB	030H
	DB	034H
	DB	030H
	DB	0b2H
	DB	030H
	DB	034H
	DB	030H
	DB	0b6H
	DB	030H
	DB	030H
	DB	030H
	DB	0b2H
	DB	030H
	DB	034H
	DB	030H
	DB	0b6H
	DB	030H
	DB	030H
	DB	030H
	DB	0b2H
	DB	038H
	DB	030H
	DB	038H
	DB	0b2H
	DB	030H
	DB	030H
	DB	030H
	DB	0b2H
	DB	030H
	DB	034H
	DB	030H
	DB	0b2H
	DB	030H
	DB	030H
	DB	030H
	DB	0b2H
	DB	030H
	DB	034H
	DB	030H
	DB	0b2H
	DB	030H
	DB	034H
	DB	030H
	DB	0b2H
	DB	030H
	DB	030H
	DB	030H
	DB	0b6H
	DB	030H
	DB	034H
	DB	030H
	DB	0b2H
	DB	030H
	DB	030H
	DB	030H
	DB	0b2H
	DB	038H
	DB	030H
	DB	038H
	DB	0b2H
	DB	030H
	DB	030H
	DB	030H
	DB	0b6H
	DB	030H
	DB	030H
	DB	030H
	DB	0b6H
	DB	030H
	DB	030H
	DB	030H
	DB	0b2H
	DB	030H
	DB	030H
	DB	030H
	DB	0b6H
	DB	030H
	DB	030H
	DB	030H
	DB	0b2H
	DB	030H
	DB	034H
	DB	030H
	DB	0b2H
	DB	030H
	DB	030H
	DB	030H
	DB	0b2H
	DB	030H
	DB	030H
	DB	030H
	DB	0b6H
	DB	038H
	DB	030H
	DB	038H
	DB	0b2H
	DB	030H
	DB	034H
	DB	030H
	DB	0b6H
	DB	030H
	DB	034H
	DB	030H
	DB	0b6H
	DB	030H
	DB	030H
	DB	030H
	DB	0b2H
	DB	030H
	DB	034H
	DB	030H
	DB	0b6H
	DB	030H
	DB	030H
	DB	030H
	DB	0b2H
	DB	030H
	DB	030H
	DB	030H
	DB	0b2H
	DB	030H
	DB	030H
	DB	030H
	DB	0b2H
	DB	030H
	DB	034H
	DB	030H
	DB	0b2H
	DB	038H
	DB	030H
	DB	038H
	DB	0b2H
	DB	030H
	DB	034H
	DB	030H
	DB	0b2H
	DB	030H
	DB	034H
	DB	030H
	DB	0b2H
	DB	030H
	DB	030H
	DB	030H
	DB	0b6H
	DB	030H
	DB	034H
	DB	030H
	DB	0b2H
	DB	030H
	DB	030H
	DB	030H
	DB	0b2H
	DB	030H
	DB	030H
	DB	030H
	DB	0b2H
	DB	030H
	DB	030H
	DB	030H
	DB	0b6H
	DB	030H
	DB	030H
	DB	030H
	DB	0b6H
	DB	038H
	DB	030H
	DB	038H
	DB	0b2H
	DB	030H
	DB	030H
	DB	030H
	DB	0b6H
	DB	030H
	DB	030H
	DB	030H
	DB	0b2H
	DB	030H
	DB	034H
	DB	030H
	DB	0b2H
	DB	030H
	DB	030H
	DB	030H
	DB	0b2H
	DB	030H
	DB	030H
	DB	030H
	DB	0b6H
	DB	030H
	DB	030H
	DB	030H
	DB	0b2H
	DB	030H
	DB	034H
	DB	030H
	DB	0b6H
	DB	030H
	DB	034H
	DB	030H
	DB	0b6H
	DB	038H
	DB	030H
	DB	038H
	DB	0b2H
	DB	030H
	DB	034H
	DB	030H
	DB	0b6H
	DB	030H
	DB	030H
	DB	030H
	DB	0b2H
	DB	030H
	DB	030H
	DB	030H
	DB	0b2H
	DB	030H
	DB	030H
	DB	030H
	DB	0b2H
	DB	030H
	DB	034H
	DB	030H
	DB	0b2H
	DB	030H
	DB	030H
	DB	030H
	DB	0b2H
	DB	030H
	DB	034H
	DB	030H
	DB	0b2H
	DB	030H
	DB	034H
	DB	030H
	DB	0b2H
	DB	038H
	DB	030H
	DB	038H
	DB	0b2H
	DB	030H
	DB	030H
	DB	030H
	DB	0b6H
	DB	030H
	DB	030H
	DB	030H
	DB	0b2H
	DB	030H
	DB	030H
	DB	030H
	DB	0b2H
	DB	030H
	DB	030H
	DB	030H
	DB	0b6H
	DB	030H
	DB	030H
	DB	030H
	DB	0b2H
	DB	030H
	DB	034H
	DB	030H
	DB	0b6H
	DB	030H
	DB	030H
	DB	030H
	DB	0b2H
	DB	030H
	DB	030H
	DB	030H
	DB	0b2H
	DB	030H
	DB	034H
	DB	030H
	DB	0b6H
	DB	030H
	DB	030H
	DB	030H
	DB	0b2H
	DB	030H
	DB	030H
	DB	030H
	DB	0b2H
	DB	038H
	DB	030H
	DB	038H
	DB	0b2H
	DB	030H
	DB	030H
	DB	030H
	DB	0b2H
	DB	030H
	DB	034H
	DB	030H
	DB	0b2H
	DB	038H
	DB	030H
	DB	038H
	DB	0b6H
	DB	030H
	DB	030H
	DB	030H
	DB	0b2H
	DB	030H
	DB	030H
	DB	030H
	DB	0b2H
	DB	030H
	DB	034H
	DB	030H
	DB	0b2H
	DB	030H
	DB	030H
	DB	030H
	DB	0b2H
	DB	030H
	DB	030H
	DB	030H
	DB	0b2H
	DB	030H
	DB	030H
	DB	030H
	DB	0b2H
	DB	030H
	DB	030H
	DB	030H
	DB	0b6H
	DB	030H
	DB	034H
	DB	030H
	DB	0b2H
	DB	038H
	DB	030H
	DB	038H
	DB	0b2H
	DB	030H
	DB	034H
	DB	030H
	DB	0b6H
	DB	030H
	DB	030H
	DB	030H
	DB	0b2H
	DB	030H
	DB	034H
	DB	030H
	DB	0b6H
	DB	030H
	DB	030H
	DB	030H
	DB	0b2H
	DB	030H
	DB	030H
	DB	030H
	DB	0b2H
	DB	030H
	DB	030H
	DB	030H
	DB	0b2H
	DB	030H
	DB	034H
	DB	030H
	DB	0b6H
	DB	038H
	DB	030H
	DB	038H
	DB	0b2H
	DB	030H
	DB	030H
	DB	030H
	DB	0b2H
	DB	030H
	DB	030H
	DB	030H
	DB	0b2H
	DB	038H
	DB	030H
	DB	038H
	DB	0b6H
	DB	030H
	DB	030H
	DB	030H
	DB	0b2H
	DB	030H
	DB	030H
	DB	030H
	DB	0b2H
	DB	030H
	DB	030H
	DB	030H
	DB	0b6H
	DB	030H
	DB	030H
	DB	030H
	DB	0b2H
	DB	030H
	DB	034H
	DB	030H
	DB	0b2H
	DB	038H
	DB	030H
	DB	038H
	DB	0b2H
	DB	030H
	DB	030H
	DB	030H
	DB	0b2H
	DB	030H
	DB	030H
	DB	030H
	DB	0b6H
	DB	038H
	DB	030H
	DB	038H
	DB	0b2H
	DB	030H
	DB	030H
	DB	030H
	DB	0b2H
	DB	030H
	DB	030H
	DB	030H
	DB	0b2H
	DB	030H
	DB	030H
	DB	030H
	DB	0b2H
	DB	030H
	DB	030H
	DB	030H
	DB	0b2H
	DB	030H
	DB	030H
	DB	030H
	DB	0b2H
	DB	038H
	DB	034H
	DB	038H
	DB	0b2H
	DB	030H
	DB	030H
	DB	030H
	DB	0b2H
	DB	030H
	DB	034H
	DB	030H
	DB	0b2H
	DB	038H
	DB	030H
	DB	038H
	DB	0b2H
	DB	030H
	DB	034H
	DB	030H
	DB	0b2H
	DB	030H
	DB	030H
	DB	030H
	DB	0b2H
	DB	030H
	DB	030H
	DB	030H
	DB	0b6H
	DB	030H
	DB	034H
	DB	030H
	DB	0b2H
	DB	030H
	DB	030H
	DB	030H
	DB	0b2H
	DB	038H
	DB	030H
	DB	038H
	DB	0b2H
	DB	030H
	DB	030H
	DB	030H
	DB	0b2H
	DB	030H
	DB	030H
	DB	030H
	DB	0b2H
	DB	038H
	DB	030H
	DB	038H
	DB	0b2H
	DB	030H
	DB	030H
	DB	030H
	DB	0b6H
	DB	030H
	DB	030H
	DB	030H
	DB	0b2H
	DB	030H
	DB	034H
	DB	030H
	DB	0b2H
	DB	030H
	DB	030H
	DB	030H
	DB	0b6H
	DB	030H
	DB	030H
	DB	030H
	DB	0b2H
	DB	038H
	DB	030H
	DB	038H
	DB	0b6H
	DB	030H
	DB	030H
	DB	030H
	DB	0b2H
	DB	030H
	DB	030H
	DB	030H
	DB	0b2H
	DB	038H
	DB	030H
	DB	038H
	DB	0b6H
	DB	030H
	DB	030H
	DB	030H
	DB	0b2H
	DB	030H
	DB	030H
	DB	030H
	DB	0b2H
	DB	030H
	DB	034H
	DB	030H
	DB	0b2H
	DB	030H
	DB	030H
	DB	030H
	DB	0b2H
	DB	030H
	DB	034H
	DB	030H
	DB	0b2H
	DB	038H
	DB	030H
	DB	038H
	DB	0b2H
	DB	030H
	DB	034H
	DB	030H
	DB	0b2H
	DB	030H
	DB	030H
	DB	030H
	DB	0b2H
	DB	038H
	DB	030H
	DB	038H
	DB	0b6H
	DB	030H
	DB	034H
	DB	030H
	DB	0b2H
	DB	030H
	DB	030H
	DB	030H
	DB	0b2H
	DB	030H
	DB	030H
	DB	030H
	DB	0b2H
	DB	030H
	DB	030H
	DB	030H
	DB	0b2H
	DB	030H
	DB	030H
	DB	030H
	DB	0b2H
	DB	038H
	DB	030H
	DB	038H
	DB	0b2H
	DB	030H
	DB	030H
	DB	030H
	DB	0b2H
	DB	030H
	DB	030H
	DB	030H
	DB	0b2H
	DB	038H
	DB	034H
	DB	038H
	DB	0b6H
	DB	030H
	DB	030H
	DB	030H
	DB	0b2H
	DB	030H
	DB	030H
	DB	030H
	DB	0b6H
	DB	030H
	DB	030H
	DB	030H
	DB	0b2H
	DB	030H
	DB	030H
	DB	030H
	DB	0b6H
	DB	030H
	DB	030H
	DB	030H
	DB	0b2H
	DB	038H
	DB	030H
	DB	038H
	DB	0b2H
	DB	030H
	DB	030H
	DB	030H
	DB	0b6H
	DB	030H
	DB	030H
	DB	030H
	DB	0b2H
	DB	038H
	DB	034H
	DB	038H
	DB	0b2H
	DB	030H
	DB	030H
	DB	030H
	DB	0b2H
	DB	030H
	DB	034H
	DB	030H
	DB	0b2H
	DB	030H
	DB	030H
	DB	030H
	DB	0b2H
	DB	030H
	DB	034H
	DB	030H
	DB	0b2H
	DB	030H
	DB	030H
	DB	030H
	DB	0b2H
	DB	038H
	DB	030H
	DB	038H
	DB	0b6H
	DB	030H
	DB	034H
	DB	030H
	DB	0b2H
	DB	030H
	DB	030H
	DB	030H
	DB	0b2H
	DB	038H
	DB	030H
	DB	038H
	DB	0b2H
	DB	030H
	DB	030H
	DB	030H
	DB	0b2H
	DB	030H
	DB	030H
	DB	030H
	DB	0b2H
	DB	030H
	DB	030H
	DB	030H
	DB	0b2H
	DB	030H
	DB	030H
	DB	030H
	DB	0b2H
	DB	030H
	DB	030H
	DB	030H
	DB	0b2H
	DB	038H
	DB	034H
	DB	038H
	DB	0b6H
	DB	030H
	DB	030H
	DB	030H
	DB	0b2H
	DB	030H
	DB	030H
	DB	030H
	DB	0b6H
	DB	038H
	DB	030H
	DB	038H
	DB	0b2H
	DB	030H
	DB	030H
	DB	030H
	DB	0b6H
	DB	030H
	DB	030H
	DB	030H
	DB	0b2H
	DB	030H
	DB	030H
	DB	030H
	DB	0b2H
	DB	030H
	DB	034H
	DB	030H
	DB	0b6H
	DB	030H
	DB	030H
	DB	030H
	DB	0b2H
	DB	038H
	DB	034H
	DB	038H
	DB	0b2H
	DB	030H
	DB	034H
	DB	030H
	DB	0b2H
	DB	030H
	DB	030H
	DB	030H
	DB	0b2H
	DB	038H
	DB	030H
	DB	038H
	DB	0b2H
	DB	030H
	DB	030H
	DB	030H
	DB	0b6H
	DB	030H
	DB	030H
	DB	030H
	DB	0b2H
	DB	030H
	DB	030H
	DB	030H
	DB	0b2H
	DB	038H
	DB	034H
	DB	038H
	DB	0b6H
	DB	030H
	DB	030H
	DB	030H
	DB	0b2H
	DB	030H
	DB	030H
	DB	030H
	DB	0b2H
	DB	030H
	DB	034H
	DB	030H
	DB	0b6H
	DB	030H
	DB	030H
	DB	030H
	DB	0b2H
	DB	030H
	DB	030H
	DB	030H
	DB	0b2H
	DB	030H
	DB	030H
	DB	030H
	DB	0b2H
	DB	030H
	DB	030H
	DB	030H
	DB	0b2H
	DB	030H
	DB	030H
	DB	030H
	DB	0b2H
	DB	030H
	DB	030H
	DB	030H
	DB	0b2H
	DB	030H
	DB	034H
	DB	030H
	DB	0b2H
	DB	030H
	DB	034H
	DB	030H
	DB	0b2H
	DB	038H
	DB	030H
	DB	038H
	DB	0b2H
	DB	030H
	DB	030H
	DB	030H
	DB	0b2H
	DB	030H
	DB	030H
	DB	030H
	DB	0b2H
	DB	030H
	DB	030H
	DB	030H
	DB	0b2H
	DB	030H
	DB	030H
	DB	030H
	DB	0b2H
	DB	030H
	DB	034H
	DB	030H
	DB	0b6H
	DB	030H
	DB	030H
	DB	030H
	DB	0b2H
	DB	030H
	DB	030H
	DB	030H
	DB	0b2H
	DB	038H
	DB	034H
	DB	038H
	DB	0b6H
	DB	030H
	DB	030H
	DB	030H
	DB	0b2H
	DB	030H
	DB	030H
	DB	030H
	DB	0b2H
	DB	030H
	DB	030H
	DB	030H
	DB	0b6H
	DB	030H
	DB	034H
	DB	030H
	DB	0b2H
	DB	030H
	DB	030H
	DB	030H
	DB	0b2H
	DB	030H
	DB	034H
	DB	030H
	DB	0b2H
	DB	030H
	DB	030H
	DB	030H
	DB	0b2H
	DB	030H
	DB	030H
	DB	030H
	DB	0b2H
	DB	030H
	DB	030H
	DB	030H
	DB	0b2H
	DB	030H
	DB	030H
	DB	030H
	DB	0b2H
	DB	030H
	DB	030H
	DB	030H
	DB	0b2H
	DB	030H
	DB	034H
	DB	030H
	DB	0b6H
	DB	030H
	DB	034H
	DB	030H
	DB	0b2H
	DB	030H
	DB	030H
	DB	030H
	DB	0b2H
	DB	030H
	DB	030H
	DB	030H
	DB	0b6H
	DB	030H
	DB	034H
	DB	030H
	DB	0b2H
	DB	030H
	DB	030H
	DB	030H
	DB	0b2H
	DB	030H
	DB	030H
	DB	030H
	DB	0b6H
	DB	030H
	DB	030H
	DB	030H
	DB	0b2H
	DB	030H
	DB	030H
	DB	030H
	DB	0b6H
	DB	030H
	DB	030H
	DB	030H
	DB	0b2H
	DB	030H
	DB	030H
	DB	030H
	DB	0b6H
	DB	030H
	DB	030H
	DB	030H
	DB	0b2H
	DB	030H
	DB	034H
	DB	030H
	DB	0b6H
	DB	030H
	DB	030H
	DB	030H
	DB	0b2H
	DB	030H
	DB	030H
	DB	030H
	DB	0b2H
	DB	030H
	DB	030H
	DB	030H
	DB	0b2H
	DB	030H
	DB	030H
	DB	030H
	DB	0b2H
	DB	030H
	DB	034H
	DB	030H
	DB	0b6H
	DB	030H
	DB	030H
	DB	030H
	DB	0b2H
	DB	030H
	DB	034H
	DB	030H
	DB	0b2H
	DB	030H
	DB	030H
	DB	030H
	DB	0b6H
	DB	030H
	DB	030H
	DB	030H
	DB	0b2H
	DB	030H
	DB	030H
	DB	030H
	DB	0b2H
	DB	030H
	DB	030H
	DB	030H
	DB	0b2H
	DB	030H
	DB	030H
	DB	030H
	DB	0b2H
	DB	030H
	DB	034H
	DB	030H
	DB	0b2H
	DB	030H
	DB	030H
	DB	030H
	DB	0b6H
	DB	030H
	DB	030H
	DB	030H
	DB	0b2H
	DB	030H
	DB	034H
	DB	030H
	DB	0b2H
	DB	030H
	DB	030H
	DB	030H
	DB	0b6H
	DB	030H
	DB	030H
	DB	030H
	DB	0b2H
	DB	030H
	DB	030H
	DB	030H
	DB	0b2H
	DB	030H
	DB	030H
	DB	030H
	DB	0b6H
	DB	030H
	DB	030H
	DB	030H
	DB	0b6H
	DB	030H
	DB	030H
	DB	030H
	DB	0b2H
	DB	030H
	DB	030H
	DB	030H
	DB	0b2H
	DB	030H
	DB	034H
	DB	030H
	DB	0b6H
	DB	030H
	DB	030H
	DB	030H
	DB	0b2H
	DB	030H
	DB	030H
	DB	030H
	DB	0b2H
	DB	030H
	DB	030H
	DB	030H
	DB	0b2H
	DB	030H
	DB	030H
	DB	030H
	DB	0b6H
	DB	030H
	DB	034H
	DB	030H
	DB	0b2H
	DB	030H
	DB	030H
	DB	030H
	DB	0b2H
	DB	030H
	DB	034H
	DB	030H
	DB	0b6H
	DB	030H
	DB	030H
	DB	030H
	DB	0b2H
	DB	030H
	DB	030H
	DB	030H
	DB	0b2H
	DB	030H
	DB	030H
	DB	030H
	DB	0b2H
	DB	030H
	DB	030H
	DB	030H
	DB	0b2H
	DB	030H
	DB	030H
	DB	030H
	DB	0b2H
	DB	030H
	DB	034H
	DB	030H
	DB	0b2H
	DB	030H
	DB	030H
	DB	030H
	DB	0b2H
	DB	030H
	DB	030H
	DB	030H
	DB	0b6H
	DB	030H
	DB	034H
	DB	030H
	DB	0b2H
	DB	030H
	DB	030H
	DB	030H
	DB	0b2H
	DB	030H
	DB	030H
	DB	030H
	DB	0b2H
	DB	030H
	DB	030H
	DB	030H
	DB	0b2H
	DB	030H
	DB	030H
	DB	030H
	DB	0b6H
	DB	030H
	DB	030H
	DB	030H
	DB	0b2H
	DB	030H
	DB	030H
	DB	030H
	DB	0b6H
	DB	030H
	DB	030H
	DB	030H
	DB	0b2H
	DB	030H
	DB	034H
	DB	030H
	DB	0b2H
	DB	030H
	DB	030H
	DB	030H
	DB	0b2H
	DB	030H
	DB	030H
	DB	030H
	DB	0b2H
	DB	030H
	DB	030H
	DB	030H
	DB	0b2H
	DB	030H
	DB	030H
	DB	030H
	DB	0b6H
	DB	030H
	DB	034H
	DB	030H
	DB	0b2H
	DB	030H
	DB	030H
	DB	030H
	DB	0b2H
	DB	030H
	DB	034H
	DB	030H
	DB	0b6H
	DB	030H
	DB	030H
	DB	030H
	DB	0b2H
	DB	030H
	DB	030H
	DB	030H
	DB	0b2H
	DB	030H
	DB	030H
	DB	030H
	DB	0b2H
	DB	030H
	DB	030H
	DB	030H
	DB	0b2H
	DB	030H
	DB	030H
	DB	030H
	DB	0b2H
	DB	030H
	DB	034H
	DB	030H
	DB	0b2H
	DB	030H
	DB	030H
	DB	030H
	DB	0b2H
	DB	030H
	DB	030H
	DB	030H
	DB	0b6H
	DB	030H
	DB	034H
	DB	030H
	DB	0b2H
	DB	030H
	DB	030H
	DB	030H
	DB	0b2H
	DB	030H
	DB	030H
	DB	030H
	DB	0b6H
	DB	030H
	DB	030H
	DB	030H
	DB	0b2H
	DB	030H
	DB	030H
	DB	030H
	DB	0b2H
	DB	030H
	DB	030H
	DB	030H
	DB	0b2H
	DB	030H
	DB	030H
	DB	030H
	DB	0b6H
	DB	030H
	DB	034H
	DB	030H
	DB	0b2H
	DB	030H
	DB	030H
	DB	030H
	DB	0b2H
	DB	030H
	DB	034H
	DB	030H
	DB	0b2H
	DB	030H
	DB	030H
	DB	030H
	DB	0b2H
	DB	030H
	DB	030H
	DB	030H
	DB	0b2H
	DB	030H
	DB	030H
	DB	030H
	DB	0b2H
	DB	030H
	DB	030H
	DB	030H
	DB	0b2H
	DB	030H
	DB	034H
	DB	030H
	DB	0b6H
	DB	030H
	DB	030H
	DB	030H
	DB	0b2H
	DB	030H
	DB	030H
	DB	030H
	DB	0b2H
	DB	030H
	DB	034H
	DB	030H
	DB	0b6H
	DB	030H
	DB	030H
	DB	030H
	DB	0b2H
	DB	030H
	DB	030H
	DB	030H
	DB	0b2H
	DB	030H
	DB	030H
	DB	030H
	DB	0b2H
	DB	030H
	DB	030H
	DB	030H
	DB	0b6H
	DB	030H
	DB	030H
	DB	030H
	DB	0b2H
	DB	030H
	DB	030H
	DB	030H
	DB	0b6H
	DB	030H
	DB	034H
	DB	030H
	DB	0b6H
	DB	030H
	DB	030H
	DB	030H
	DB	0b2H
	DB	030H
	DB	030H
	DB	030H
	DB	0b2H
	DB	030H
	DB	034H
	DB	030H
	DB	0b6H
	DB	030H
	DB	030H
	DB	030H
	DB	0b2H
	DB	038H
	DB	030H
	DB	038H
	DB	0b2H
	DB	030H
	DB	030H
	DB	030H
	DB	0b2H
	DB	030H
	DB	030H
	DB	030H
	DB	0b2H
	DB	030H
	DB	030H
	DB	030H
	DB	0b2H
	DB	030H
	DB	034H
	DB	030H
	DB	0b2H
	DB	030H
	DB	030H
	DB	030H
	DB	0b2H
	DB	030H
	DB	030H
	DB	030H
	DB	0b2H
	DB	030H
	DB	030H
	DB	030H
	DB	0b6H
	DB	030H
	DB	034H
	DB	030H
	DB	0b2H
	DB	030H
	DB	030H
	DB	030H
	DB	0b6H
	DB	030H
	DB	034H
	DB	030H
	DB	0b2H
	DB	038H
	DB	034H
	DB	038H
	DB	0b6H
	DB	030H
	DB	030H
	DB	030H
	DB	0b2H
	DB	030H
	DB	034H
	DB	030H
	DB	0b2H
	DB	038H
	DB	030H
	DB	038H
	DB	0b6H
	DB	030H
	DB	030H
	DB	030H
	DB	0b2H
	DB	030H
	DB	030H
	DB	030H
	DB	0b2H
	DB	030H
	DB	030H
	DB	030H
	DB	0b2H
	DB	030H
	DB	034H
	DB	030H
	DB	0b2H
	DB	030H
	DB	030H
	DB	030H
	DB	0b6H
	DB	038H
	DB	030H
	DB	038H
	DB	0b2H
	DB	030H
	DB	034H
	DB	030H
	DB	0b2H
	DB	030H
	DB	034H
	DB	030H
	DB	0b6H
	DB	038H
	DB	030H
	DB	038H
	DB	0b2H
	DB	030H
	DB	034H
	DB	030H
	DB	0b2H
	DB	030H
	DB	030H
	DB	030H
	DB	0b2H
	DB	030H
	DB	030H
	DB	030H
	DB	0b6H
	DB	030H
	DB	030H
	DB	030H
	DB	0b2H
	DB	030H
	DB	030H
	DB	030H
	DB	0b2H
	DB	038H
	DB	034H
	DB	038H
	DB	0b6H
	DB	030H
	DB	030H
	DB	030H
	DB	0b2H
	DB	030H
	DB	030H
	DB	030H
	DB	0b2H
	DB	038H
	DB	030H
	DB	038H
	DB	0b6H
	DB	030H
	DB	030H
	DB	030H
	DB	0b2H
	DB	030H
	DB	030H
	DB	030H
	DB	0b2H
	DB	030H
	DB	034H
	DB	030H
	DB	0b6H
	DB	030H
	DB	034H
	DB	030H
	DB	0b2H
	DB	030H
	DB	030H
	DB	030H
	DB	0b2H
	DB	038H
	DB	030H
	DB	038H
	DB	0b6H
	DB	030H
	DB	034H
	DB	030H
	DB	0b2H
	DB	030H
	DB	030H
	DB	030H
	DB	0b2H
	DB	038H
	DB	030H
	DB	038H
	DB	0b2H
	DB	030H
	DB	030H
	DB	030H
	DB	0b2H
	DB	030H
	DB	034H
	DB	030H
	DB	0b2H
	DB	030H
	DB	030H
	DB	030H
	DB	0b2H
	DB	030H
	DB	034H
	DB	030H
	DB	0b2H
	DB	030H
	DB	034H
	DB	030H
	DB	0b2H
	DB	038H
	DB	030H
	DB	038H
	DB	0b2H
	DB	030H
	DB	030H
	DB	030H
	DB	0b2H
	DB	030H
	DB	034H
	DB	030H
	DB	0b2H
	DB	038H
	DB	030H
	DB	038H
	DB	0b6H
	DB	030H
	DB	030H
	DB	030H
	DB	0b2H
	DB	030H
	DB	030H
	DB	030H
	DB	0b2H
	DB	030H
	DB	034H
	DB	030H
	DB	0b2H
	DB	030H
	DB	030H
	DB	030H
	DB	0b2H
	DB	030H
	DB	030H
	DB	030H
	DB	0b2H
	DB	038H
	DB	030H
	DB	038H
	DB	0b6H
	DB	030H
	DB	030H
	DB	030H
	DB	0b2H
	DB	030H
	DB	030H
	DB	030H
	DB	0b2H
	DB	038H
	DB	034H
	DB	038H
	DB	0b6H
	DB	030H
	DB	034H
	DB	030H
	DB	0b2H
	DB	030H
	DB	030H
	DB	030H
	DB	0b6H
	DB	030H
	DB	030H
	DB	030H
	DB	0b6H
	DB	030H
	DB	034H
	DB	030H
	DB	0b2H
	DB	030H
	DB	030H
	DB	030H
	DB	0b2H
	DB	038H
	DB	030H
	DB	038H
	DB	0b2H
	DB	030H
	DB	030H
	DB	030H
	DB	0b2H
	DB	030H
	DB	034H
	DB	030H
	DB	0b2H
	DB	038H
	DB	030H
	DB	038H
	DB	0b6H
	DB	030H
	DB	034H
	DB	030H
	DB	0b2H
	DB	030H
	DB	034H
	DB	030H
	DB	0b2H
	DB	030H
	DB	030H
	DB	030H
	DB	0b2H
	DB	030H
	DB	030H
	DB	030H
	DB	0b2H
	DB	030H
	DB	034H
	DB	030H
	DB	0b2H
	DB	038H
	DB	030H
	DB	038H
	DB	0b6H
	DB	030H
	DB	030H
	DB	030H
	DB	0b6H
	DB	030H
	DB	030H
	DB	030H
	DB	0b2H
	DB	038H
	DB	034H
	DB	038H
	DB	0b2H
	DB	030H
	DB	030H
	DB	030H
	DB	0b6H
	DB	030H
	DB	030H
	DB	030H
	DB	0b2H
	DB	030H
	DB	030H
	DB	030H
	DB	0b2H
	DB	030H
	DB	030H
	DB	030H
	DB	0b2H
	DB	030H
	DB	030H
	DB	030H
	DB	0b6H
	DB	038H
	DB	034H
	DB	038H
	DB	0b2H
	DB	030H
	DB	034H
	DB	030H
	DB	0b6H
	DB	030H
	DB	030H
	DB	030H
	DB	0b6H
	DB	038H
	DB	030H
	DB	038H
	DB	0b2H
	DB	030H
	DB	034H
	DB	030H
	DB	0b2H
	DB	030H
	DB	030H
	DB	030H
	DB	0b6H
	DB	030H
	DB	030H
	DB	030H
	DB	0b2H
	DB	030H
	DB	030H
	DB	030H
	DB	0b2H
	DB	030H
	DB	034H
	DB	030H
	DB	0b2H
	DB	038H
	DB	030H
	DB	038H
	DB	0b2H
	DB	030H
	DB	030H
	DB	030H
	DB	0b2H
	DB	030H
	DB	034H
	DB	030H
	DB	0b2H
	DB	038H
	DB	030H
	DB	038H
	DB	0b6H
	DB	030H
	DB	030H
	DB	030H
	DB	0b2H
	DB	030H
	DB	030H
	DB	030H
	DB	0b2H
	DB	030H
	DB	030H
	DB	030H
	DB	0b6H
	DB	030H
	DB	030H
	DB	030H
	DB	0b2H
	DB	030H
	DB	030H
	DB	030H
	DB	0b2H
	DB	038H
	DB	034H
	DB	038H
	DB	0b6H
	DB	030H
	DB	030H
	DB	030H
	DB	0b6H
	DB	030H
	DB	030H
	DB	030H
	DB	0b2H
	DB	030H
	DB	034H
	DB	030H
	DB	0b2H
	DB	030H
	DB	030H
	DB	030H
	DB	0b2H
	DB	038H
	DB	030H
	DB	038H
	DB	0b2H
	DB	030H
	DB	030H
	DB	030H
	DB	0b2H
	DB	030H
	DB	034H
	DB	030H
	DB	0b6H
	DB	030H
	DB	030H
	DB	030H
	DB	0b2H
	DB	030H
	DB	030H
	DB	030H
	DB	0b2H
	DB	030H
	DB	030H
	DB	030H
	DB	0b2H
	DB	030H
	DB	030H
	DB	030H
	DB	0b2H
	DB	030H
	DB	030H
	DB	030H
	DB	0b2H
	DB	030H
	DB	030H
	DB	030H
	DB	0b2H
	DB	030H
	DB	030H
	DB	030H
	DB	0b2H
	DB	030H
	DB	034H
	DB	030H
	DB	0b2H
	DB	038H
	DB	030H
	DB	038H
	DB	0b6H
	DB	030H
	DB	030H
	DB	030H
	DB	0b2H
	DB	030H
	DB	034H
	DB	030H
	DB	0b2H
	DB	030H
	DB	030H
	DB	030H
	DB	0b2H
	DB	030H
	DB	030H
	DB	030H
	DB	0b6H
	DB	030H
	DB	034H
	DB	030H
	DB	0b2H
	DB	030H
	DB	030H
	DB	030H
	DB	0b6H
	DB	030H
	DB	030H
	DB	030H
	DB	0b2H
	DB	038H
	DB	034H
	DB	038H
	DB	0b2H
	DB	030H
	DB	030H
	DB	030H
	DB	0b6H
	DB	030H
	DB	030H
	DB	030H
	DB	0b2H
	DB	038H
	DB	030H
	DB	038H
	DB	0b2H
	DB	030H
	DB	030H
	DB	030H
	DB	0b2H
	DB	030H
	DB	030H
	DB	030H
	DB	0b6H
	DB	030H
	DB	030H
	DB	030H
	DB	0b2H
	DB	030H
	DB	030H
	DB	030H
	DB	0b2H
	DB	030H
	DB	030H
	DB	030H
	DB	0b6H
	DB	030H
	DB	030H
	DB	030H
	DB	0b2H
	DB	030H
	DB	030H
	DB	030H
	DB	0b2H
	DB	030H
	DB	030H
	DB	030H
	DB	0b6H
	DB	038H
	DB	034H
	DB	038H
	DB	0b2H
	DB	030H
	DB	030H
	DB	030H
	DB	0b2H
	DB	030H
	DB	030H
	DB	030H
	DB	0b2H
	DB	030H
	DB	030H
	DB	030H
	DB	0b2H
	DB	030H
	DB	030H
	DB	030H
	DB	0b2H
	DB	030H
	DB	030H
	DB	030H
	DB	0b2H
	DB	030H
	DB	030H
	DB	030H
	DB	0b2H
	DB	030H
	DB	030H
	DB	030H
	DB	0b2H
	DB	030H
	DB	034H
	DB	030H
	DB	0b2H
	DB	038H
	DB	030H
	DB	038H
	DB	0b2H
	DB	030H
	DB	030H
	DB	030H
	DB	0b2H
	DB	030H
	DB	034H
	DB	030H
	DB	0b2H
	DB	030H
	DB	030H
	DB	030H
	DB	0b6H
	DB	030H
	DB	030H
	DB	030H
	DB	0b2H
	DB	030H
	DB	034H
	DB	030H
	DB	0b2H
	DB	030H
	DB	030H
	DB	030H
	DB	0b2H
	DB	030H
	DB	030H
	DB	030H
	DB	0b2H
	DB	030H
	DB	030H
	DB	030H
	DB	0b2H
	DB	038H
	DB	030H
	DB	038H
	DB	0b2H
	DB	030H
	DB	030H
	DB	030H
	DB	0b2H
	DB	030H
	DB	030H
	DB	030H
	DB	0b2H
	DB	030H
	DB	034H
	DB	030H
	DB	0b6H
	DB	030H
	DB	030H
	DB	030H
	DB	0b2H
	DB	030H
	DB	030H
	DB	030H
	DB	0b2H
	DB	030H
	DB	030H
	DB	030H
	DB	0b6H
	DB	030H
	DB	034H
	DB	030H
	DB	0b2H
	DB	030H
	DB	030H
	DB	030H
	DB	0b6H
	DB	038H
	DB	030H
	DB	038H
	DB	0b2H
	DB	030H
	DB	030H
	DB	030H
	DB	0b6H
	DB	030H
	DB	030H
	DB	030H
	DB	0b2H
	DB	030H
	DB	030H
	DB	030H
	DB	0b2H
	DB	030H
	DB	034H
	DB	030H
	DB	0b2H
	DB	030H
	DB	030H
	DB	030H
	DB	0b6H
	DB	030H
	DB	030H
	DB	030H
	DB	0b2H
	DB	030H
	DB	030H
	DB	030H
	DB	0b2H
	DB	030H
	DB	034H
	DB	030H
	DB	0b6H
	DB	038H
	DB	030H
	DB	038H
	DB	0b6H
	DB	030H
	DB	030H
	DB	030H
	DB	0b2H
	DB	030H
	DB	034H
	DB	030H
	DB	0b2H
	DB	030H
	DB	030H
	DB	030H
	DB	0b2H
	DB	030H
	DB	030H
	DB	030H
	DB	0b2H
	DB	030H
	DB	030H
	DB	030H
	DB	0b2H
	DB	030H
	DB	030H
	DB	030H
	DB	0b2H
	DB	030H
	DB	030H
	DB	030H
	DB	0b2H
	DB	030H
	DB	030H
	DB	030H
	DB	0b2H
	DB	038H
	DB	034H
	DB	038H
	DB	0b2H
	DB	030H
	DB	030H
	DB	030H
	DB	0b6H
	DB	030H
	DB	030H
	DB	030H
	DB	0b2H
	DB	030H
	DB	030H
	DB	030H
	DB	0b6H
	DB	030H
	DB	034H
	DB	030H
	DB	0b2H
	DB	030H
	DB	030H
	DB	030H
	DB	0b2H
	DB	030H
	DB	030H
	DB	030H
	DB	0b6H
	DB	030H
	DB	030H
	DB	030H
	DB	0b2H
	DB	030H
	DB	030H
	DB	030H
	DB	0b2H
	DB	038H
	DB	030H
	DB	038H
	DB	0b6H
	DB	030H
	DB	034H
	DB	030H
	DB	0b2H
	DB	030H
	DB	030H
	DB	030H
	DB	0b2H
	DB	030H
	DB	030H
	DB	030H
	DB	0b2H
	DB	030H
	DB	030H
	DB	030H
	DB	0b2H
	DB	030H
	DB	034H
	DB	030H
	DB	0b2H
	DB	030H
	DB	030H
	DB	030H
	DB	0b6H
	DB	030H
	DB	030H
	DB	030H
	DB	0b2H
	DB	030H
	DB	034H
	DB	030H
	DB	0b2H
	DB	038H
	DB	030H
	DB	038H
	DB	0b2H
	DB	030H
	DB	030H
	DB	030H
	DB	0b6H
	DB	030H
	DB	030H
	DB	030H
	DB	0b2H
	DB	030H
	DB	030H
	DB	030H
	DB	0b2H
	DB	030H
	DB	030H
	DB	030H
	DB	0b2H
	DB	030H
	DB	030H
	DB	030H
	DB	0b2H
	DB	030H
	DB	034H
	DB	030H
	DB	0b2H
	DB	030H
	DB	030H
	DB	030H
	DB	0b6H
	DB	030H
	DB	030H
	DB	030H
	DB	0b2H
	DB	038H
	DB	030H
	DB	038H
	DB	0b2H
	DB	030H
	DB	034H
	DB	030H
	DB	0b2H
	DB	030H
	DB	030H
	DB	030H
	DB	0b6H
	DB	030H
	DB	030H
	DB	030H
	DB	0b2H
	DB	030H
	DB	030H
	DB	030H
	DB	0b2H
	DB	030H
	DB	034H
	DB	030H
	DB	0b6H
	DB	030H
	DB	030H
	DB	030H
	DB	0b2H
	DB	030H
	DB	030H
	DB	030H
	DB	0b2H
	DB	030H
	DB	034H
	DB	030H
	DB	0b2H
	DB	038H
	DB	030H
	DB	038H
	DB	0b2H
	DB	030H
	DB	030H
	DB	030H
	DB	0b6H
	DB	030H
	DB	030H
	DB	030H
	DB	0b2H
	DB	030H
	DB	034H
	DB	030H
	DB	0b2H
	DB	030H
	DB	030H
	DB	030H
	DB	0b2H
	DB	030H
	DB	030H
	DB	030H
	DB	0b6H
	DB	030H
	DB	030H
	DB	030H
	DB	0b2H
	DB	030H
	DB	030H
	DB	030H
	DB	0b2H
	DB	030H
	DB	030H
	DB	030H
	DB	0b6H
	DB	030H
	DB	034H
	DB	030H
	DB	0b2H
	DB	038H
	DB	030H
	DB	038H
	DB	0b2H
	DB	030H
	DB	030H
	DB	030H
	DB	0b2H
	DB	030H
	DB	030H
	DB	030H
	DB	0b2H
	DB	030H
	DB	030H
	DB	030H
	DB	0b2H
	DB	030H
	DB	034H
	DB	030H
	DB	0b2H
	DB	038H
	DB	030H
	DB	038H
	DB	0b6H
	DB	030H
	DB	030H
	DB	030H
	DB	0b2H
	DB	030H
	DB	034H
	DB	030H
	DB	0b2H
	DB	030H
	DB	030H
	DB	030H
	DB	0b2H
	DB	030H
	DB	030H
	DB	030H
	DB	0b2H
	DB	030H
	DB	030H
	DB	030H
	DB	0b6H
	DB	030H
	DB	030H
	DB	030H
	DB	0b2H
	DB	030H
	DB	030H
	DB	030H
	DB	0b2H
	DB	030H
	DB	034H
	DB	030H
	DB	0b6H
	DB	038H
	DB	030H
	DB	038H
	DB	0b2H
	DB	030H
	DB	030H
	DB	030H
	DB	0b2H
	DB	030H
	DB	030H
	DB	030H
	DB	0b6H
	DB	030H
	DB	030H
	DB	030H
	DB	0b2H
	DB	030H
	DB	034H
	DB	030H
	DB	0b2H
	DB	030H
	DB	030H
	DB	030H
	DB	0b2H
	DB	030H
	DB	030H
	DB	030H
	DB	0b2H
	DB	030H
	DB	030H
	DB	030H
	DB	0b2H
	DB	030H
	DB	030H
	DB	030H
	DB	0b2H
	DB	030H
	DB	030H
	DB	030H
	DB	0b2H
	DB	030H
	DB	034H
	DB	030H
	DB	0b2H
	DB	030H
	DB	030H
	DB	030H
	DB	0b2H
	DB	030H
	DB	034H
	DB	030H
	DB	0b2H
	DB	030H
	DB	030H
	DB	030H
	DB	0b2H
	DB	030H
	DB	030H
	DB	030H
	DB	0b6H
	DB	030H
	DB	030H
	DB	030H
	DB	0b2H
	DB	030H
	DB	030H
	DB	030H
	DB	0b2H
	DB	030H
	DB	034H
	DB	030H
	DB	0b6H
	DB	030H
	DB	030H
	DB	030H
	DB	0b2H
	DB	030H
	DB	030H
	DB	030H
	DB	0b6H
	DB	030H
	DB	034H
	DB	030H
	DB	0b2H
	DB	030H
	DB	030H
	DB	030H
	DB	0b6H
	DB	030H
	DB	030H
	DB	030H
	DB	0b6H
	DB	030H
	DB	030H
	DB	030H
	DB	0b2H
	DB	030H
	DB	034H
	DB	030H
	DB	0b2H
	DB	030H
	DB	030H
	DB	030H
	DB	0b6H
	DB	030H
	DB	030H
	DB	030H
	DB	0b2H
	DB	030H
	DB	030H
	DB	030H
	DB	0b2H
	DB	030H
	DB	030H
	DB	030H
	DB	0b2H
	DB	030H
	DB	034H
	DB	030H
	DB	0b6H
	DB	030H
	DB	030H
	DB	030H
	DB	0b2H
	DB	030H
	DB	034H
	DB	030H
	DB	0b6H
	DB	030H
	DB	030H
	DB	030H
	DB	0b2H
	DB	030H
	DB	030H
	DB	030H
	DB	0b6H
	DB	030H
	DB	030H
	DB	030H
	DB	0b2H
	DB	030H
	DB	034H
	DB	030H
	DB	0b2H
	DB	030H
	DB	030H
	DB	030H
	DB	0b2H
	DB	030H
	DB	030H
	DB	030H
	DB	0b2H
	DB	030H
	DB	030H
	DB	030H
	DB	0b6H
	DB	030H
	DB	034H
	DB	030H
	DB	0b2H
	DB	030H
	DB	030H
	DB	030H
	DB	0b2H
	DB	030H
	DB	030H
	DB	030H
	DB	0b2H
	DB	030H
	DB	030H
	DB	030H
	DB	0b6H
	DB	030H
	DB	030H
	DB	030H
	DB	0b2H
	DB	030H
	DB	030H
	DB	030H
	DB	0b2H
	DB	030H
	DB	034H
	DB	030H
	DB	0b6H
	DB	030H
	DB	030H
	DB	030H
	DB	0b2H
	DB	030H
	DB	030H
	DB	030H
	DB	0b2H
	DB	030H
	DB	030H
	DB	030H
	DB	0b2H
	DB	030H
	DB	034H
	DB	030H
	DB	0b2H
	DB	030H
	DB	030H
	DB	030H
	DB	0b2H
	DB	030H
	DB	030H
	DB	030H
	DB	0b2H
	DB	030H
	DB	030H
	DB	030H
	DB	0b6H
	DB	030H
	DB	034H
	DB	030H
	DB	0b2H
	DB	030H
	DB	030H
	DB	030H
	DB	0b2H
	DB	030H
	DB	034H
	DB	030H
	DB	0b6H
	DB	030H
	DB	030H
	DB	030H
	DB	0b2H
	DB	030H
	DB	030H
	DB	030H
	DB	0b2H
	DB	030H
	DB	030H
	DB	030H
	DB	0b6H
	DB	030H
	DB	034H
	DB	030H
	DB	0b2H
	DB	030H
	DB	030H
	DB	030H
	DB	0b2H
	DB	030H
	DB	030H
	DB	030H
	DB	0b2H
	DB	030H
	DB	030H
	DB	030H
	DB	0b2H
	DB	030H
	DB	034H
	DB	030H
	DB	0b6H
	DB	030H
	DB	030H
	DB	030H
	DB	0b2H
	DB	030H
	DB	030H
	DB	030H
	DB	0b2H
	DB	030H
	DB	030H
	DB	030H
	DB	0b2H
	DB	030H
	DB	030H
	DB	030H
	DB	0b2H
	DB	030H
	DB	030H
	DB	030H
	DB	0b6H
	DB	030H
	DB	034H
	DB	030H
	DB	0b2H
	DB	030H
	DB	030H
	DB	030H
	DB	0b2H
	DB	030H
	DB	030H
	DB	030H
	DB	0b6H
	DB	030H
	DB	030H
	DB	030H
	DB	0b2H
	DB	030H
	DB	034H
	DB	030H
	DB	0b2H
	DB	030H
	DB	030H
	DB	030H
	DB	0b2H
	DB	030H
	DB	030H
	DB	030H
	DB	0b2H
	DB	030H
	DB	030H
	DB	030H
	DB	0b2H
	DB	030H
	DB	034H
	DB	030H
	DB	0b6H
	DB	030H
	DB	030H
	DB	030H
	DB	0b2H
	DB	030H
	DB	034H
	DB	030H
	DB	0b2H
	DB	030H
	DB	030H
	DB	030H
	DB	0b2H
	DB	030H
	DB	030H
	DB	030H
	DB	0b2H
	DB	030H
	DB	030H
	DB	030H
	DB	0b2H
	DB	030H
	DB	034H
	DB	030H
	DB	0b2H
	DB	030H
	DB	030H
	DB	030H
	DB	0b6H
	DB	030H
	DB	030H
	DB	030H
	DB	0b2H
	DB	030H
	DB	030H
	DB	030H
	DB	0b2H
	DB	030H
	DB	034H
	DB	030H
	DB	0b2H
	DB	030H
	DB	030H
	DB	030H
	DB	0b6H
	DB	030H
	DB	030H
	DB	030H
	DB	0b2H
	DB	030H
	DB	030H
	DB	030H
	DB	0b2H
	DB	030H
	DB	030H
	DB	030H
	DB	0b6H
	DB	030H
	DB	030H
	DB	030H
	DB	0b2H
	DB	030H
	DB	030H
	DB	030H
	DB	0b2H
	DB	030H
	DB	034H
	DB	030H
	DB	0b6H
	DB	030H
	DB	030H
	DB	030H
	DB	0b2H
	DB	030H
	DB	034H
	DB	030H
	DB	0b2H
	DB	030H
	DB	030H
	DB	030H
	DB	0b2H
	DB	030H
	DB	030H
	DB	030H
	DB	0b6H
	DB	030H
	DB	030H
	DB	030H
	DB	0b2H
	DB	030H
	DB	034H
	DB	030H
	DB	0b2H
	DB	038H
	DB	030H
	DB	038H
	DB	0b2H
	DB	030H
	DB	034H
	DB	030H
	DB	0b2H
	DB	030H
	DB	030H
	DB	030H
	DB	0b6H
	DB	030H
	DB	030H
	DB	030H
	DB	0b2H
	DB	030H
	DB	030H
	DB	030H
	DB	0b2H
	DB	030H
	DB	030H
	DB	030H
	DB	0b6H
	DB	030H
	DB	034H
	DB	030H
	DB	0b2H
	DB	030H
	DB	030H
	DB	030H
	DB	0b2H
	DB	030H
	DB	030H
	DB	030H
	DB	0b2H
	DB	030H
	DB	030H
	DB	030H
	DB	0b2H
	DB	030H
	DB	034H
	DB	030H
	DB	0b2H
	DB	030H
	DB	030H
	DB	030H
	DB	0b6H
	DB	030H
	DB	030H
	DB	030H
	DB	0b2H
	DB	038H
	DB	030H
	DB	038H
	DB	0b2H
	DB	030H
	DB	034H
	DB	030H
	DB	0b6H
	DB	030H
	DB	030H
	DB	030H
	DB	0b2H
	DB	038H
	DB	030H
	DB	038H
	DB	0b2H
	DB	030H
	DB	034H
	DB	030H
	DB	0b2H
	DB	030H
	DB	030H
	DB	030H
	DB	0b2H
	DB	030H
	DB	030H
	DB	030H
	DB	0b2H
	DB	030H
	DB	034H
	DB	030H
	DB	0b2H
	DB	030H
	DB	030H
	DB	030H
	DB	0b2H
	DB	030H
	DB	030H
	DB	030H
	DB	0b6H
	DB	030H
	DB	030H
	DB	030H
	DB	0b2H
	DB	030H
	DB	034H
	DB	030H
	DB	0b6H
	DB	030H
	DB	030H
	DB	030H
	DB	0b2H
	DB	038H
	DB	034H
	DB	038H
	DB	0b6H
	DB	030H
	DB	030H
	DB	030H
	DB	0b2H
	DB	030H
	DB	034H
	DB	030H
	DB	0b6H
	DB	038H
	DB	030H
	DB	038H
	DB	0b2H
	DB	030H
	DB	030H
	DB	030H
	DB	0b6H
	DB	030H
	DB	034H
	DB	030H
	DB	0b2H
	DB	038H
	DB	030H
	DB	038H
	DB	0b2H
	DB	030H
	DB	034H
	DB	030H
	DB	0b2H
	DB	030H
	DB	030H
	DB	030H
	DB	0b2H
	DB	030H
	DB	030H
	DB	030H
	DB	0b6H
	DB	038H
	DB	034H
	DB	038H
	DB	0b2H
	DB	030H
	DB	030H
	DB	030H
	DB	0b2H
	DB	030H
	DB	030H
	DB	030H
	DB	0b2H
	DB	038H
	DB	034H
	DB	038H
	DB	0b2H
	DB	030H
	DB	030H
	DB	030H
	DB	0b2H
	DB	030H
	DB	030H
	DB	030H
	DB	0b2H
	DB	038H
	DB	030H
	DB	038H
	DB	0b2H
	DB	030H
	DB	030H
	DB	030H
	DB	0b6H
	DB	030H
	DB	034H
	DB	030H
	DB	0b2H
	DB	038H
	DB	030H
	DB	038H
	DB	0b2H
	DB	030H
	DB	030H
	DB	030H
	DB	0b2H
	DB	030H
	DB	034H
	DB	030H
	DB	0b6H
	DB	038H
	DB	030H
	DB	038H
	DB	0b2H
	DB	030H
	DB	030H
	DB	030H
	DB	0b2H
	DB	030H
	DB	030H
	DB	030H
	DB	0b2H
	DB	038H
	DB	034H
	DB	038H
	DB	0b6H
	DB	030H
	DB	030H
	DB	030H
	DB	0b2H
	DB	030H
	DB	034H
	DB	030H
	DB	0b2H
	DB	038H
	DB	030H
	DB	038H
	DB	0b6H
	DB	030H
	DB	030H
	DB	030H
	DB	0b2H
	DB	030H
	DB	030H
	DB	030H
	DB	0b2H
	DB	038H
	DB	034H
	DB	038H
	DB	0b2H
	DB	030H
	DB	030H
	DB	030H
	DB	0b2H
	DB	030H
	DB	030H
	DB	030H
	DB	0b2H
	DB	038H
	DB	030H
	DB	038H
	DB	0b2H
	DB	030H
	DB	034H
	DB	030H
	DB	0b2H
	DB	030H
	DB	030H
	DB	030H
	DB	0b2H
	DB	038H
	DB	030H
	DB	038H
	DB	0b2H
	DB	030H
	DB	030H
	DB	030H
	DB	0b6H
	DB	030H
	DB	030H
	DB	030H
	DB	0b2H
	DB	038H
	DB	034H
	DB	038H
	DB	0b2H
	DB	030H
	DB	030H
	DB	030H
	DB	0b6H
	DB	030H
	DB	030H
	DB	030H
	DB	0b2H
	DB	038H
	DB	030H
	DB	038H
	DB	0b2H
	DB	030H
	DB	030H
	DB	030H
	DB	0b2H
	DB	030H
	DB	034H
	DB	030H
	DB	0b2H
	DB	038H
	DB	030H
	DB	038H
	DB	0b6H
	DB	030H
	DB	030H
	DB	030H
	DB	0b2H
	DB	030H
	DB	030H
	DB	030H
	DB	0b2H
	DB	038H
	DB	034H
	DB	038H
	DB	0b6H
	DB	030H
	DB	030H
	DB	030H
	DB	0b2H
	DB	030H
	DB	034H
	DB	030H
	DB	0b2H
	DB	038H
	DB	030H
	DB	038H
	DB	0b6H
	DB	030H
	DB	030H
	DB	030H
	DB	0b2H
	DB	030H
	DB	030H
	DB	030H
	DB	0b2H
	DB	038H
	DB	034H
	DB	038H
	DB	0b2H
	DB	030H
	DB	030H
	DB	030H
	DB	0b2H
	DB	030H
	DB	030H
	DB	030H
	DB	0b6H
	DB	038H
	DB	030H
	DB	038H
	DB	0b2H
	DB	030H
	DB	034H
	DB	030H
	DB	0b2H
	DB	030H
	DB	030H
	DB	030H
	DB	0b6H
	DB	038H
	DB	030H
	DB	038H
	DB	0b2H
	DB	030H
	DB	030H
	DB	030H
	DB	0b2H
	DB	030H
	DB	030H
	DB	030H
	DB	0b2H
	DB	038H
	DB	034H
	DB	038H
	DB	0b6H
	DB	030H
	DB	030H
	DB	030H
	DB	0b2H
	DB	030H
	DB	030H
	DB	030H
	DB	0b6H
	DB	038H
	DB	030H
	DB	038H
	DB	0b6H
	DB	030H
	DB	030H
	DB	030H
	DB	0b2H
	DB	030H
	DB	034H
	DB	030H
	DB	0b2H
	DB	038H
	DB	030H
	DB	038H
	DB	0b2H
	DB	030H
	DB	030H
	DB	030H
	DB	0b6H
	DB	030H
	DB	030H
	DB	030H
	DB	0b2H
	DB	038H
	DB	034H
	DB	038H
	DB	0b2H
	DB	030H
	DB	030H
	DB	030H
	DB	0b6H
	DB	030H
	DB	034H
	DB	030H
	DB	0b2H
	DB	038H
	DB	030H
	DB	038H
	DB	0b2H
	DB	030H
	DB	030H
	DB	030H
	DB	0b6H
	DB	030H
	DB	030H
	DB	030H
	DB	0b2H
	DB	038H
	DB	034H
	DB	038H
	DB	0b2H
	DB	030H
	DB	030H
	DB	030H
	DB	0b6H
	DB	030H
	DB	030H
	DB	030H
	DB	0b2H
	DB	038H
	DB	034H
	DB	038H
	DB	0b2H
	DB	030H
	DB	030H
	DB	030H
	DB	0b2H
	DB	030H
	DB	034H
	DB	030H
	DB	0b2H
	DB	038H
	DB	030H
	DB	038H
	DB	0b2H
	DB	030H
	DB	030H
	DB	030H
	DB	0b2H
	DB	030H
	DB	030H
	DB	030H
	DB	0b6H
	DB	038H
	DB	030H
	DB	038H
	DB	0b2H
	DB	030H
	DB	030H
	DB	030H
	DB	0b2H
	DB	030H
	DB	034H
	DB	030H
	DB	0b2H
	DB	038H
	DB	030H
	DB	038H
	DB	0b2H
	DB	030H
	DB	030H
	DB	030H
	DB	0b6H
	DB	030H
	DB	030H
	DB	030H
	DB	0b2H
	DB	030H
	DB	030H
	DB	030H
	DB	0b2H
	DB	030H
	DB	034H
	DB	030H
	DB	0b6H
	DB	038H
	DB	030H
	DB	038H
	DB	0b2H
	DB	030H
	DB	030H
	DB	030H
	DB	0b2H
	DB	030H
	DB	034H
	DB	030H
	DB	0b2H
	DB	030H
	DB	030H
	DB	030H
	DB	0b6H
	DB	030H
	DB	030H
	DB	030H
	DB	0b2H
	DB	030H
	DB	030H
	DB	030H
	DB	0b2H
	DB	030H
	DB	030H
	DB	030H
	DB	0b2H
	DB	030H
	DB	030H
	DB	030H
	DB	0b2H
	DB	030H
	DB	030H
	DB	030H
	DB	0b2H
	DB	030H
	DB	030H
	DB	030H
	DB	0b6H
	DB	030H
	DB	030H
	DB	030H
	DB	0b2H
	DB	030H
	DB	034H
	DB	030H
	DB	0b2H
	DB	030H
	DB	030H
	DB	030H
	DB	0b2H
	DB	030H
	DB	030H
	DB	030H
	DB	0b2H
	DB	030H
	DB	034H
	DB	030H
	DB	0b6H
	DB	030H
	DB	030H
	DB	030H
	DB	0b2H
	DB	030H
	DB	030H
	DB	030H
	DB	0b2H
	DB	030H
	DB	030H
	DB	030H
	DB	0b6H
	DB	030H
	DB	030H
	DB	030H
	DB	0b2H
	DB	038H
	DB	034H
	DB	038H
	DB	0b2H
	DB	030H
	DB	030H
	DB	030H
	DB	0b2H
	DB	030H
	DB	030H
	DB	030H
	DB	0b2H
	DB	038H
	DB	030H
	DB	038H
	DB	0b2H
	DB	030H
	DB	030H
	DB	030H
	DB	0b6H
	DB	030H
	DB	030H
	DB	030H
	DB	0b2H
	DB	030H
	DB	034H
	DB	030H
	DB	0b2H
	DB	030H
	DB	030H
	DB	030H
	DB	0b2H
	DB	030H
	DB	030H
	DB	030H
	DB	0b6H
	DB	030H
	DB	030H
	DB	030H
	DB	0b2H
	DB	030H
	DB	030H
	DB	030H
	DB	0b2H
	DB	030H
	DB	030H
	DB	030H
	DB	0b6H
	DB	030H
	DB	030H
	DB	030H
	DB	0b2H
	DB	030H
	DB	034H
	DB	030H
	DB	0b2H
	DB	030H
	DB	030H
	DB	030H
	DB	0b2H
	DB	030H
	DB	030H
	DB	030H
	DB	0b2H
	DB	030H
	DB	030H
	DB	030H
	DB	0b6H
	DB	030H
	DB	030H
	DB	030H
	DB	0b2H
	DB	030H
	DB	030H
	DB	030H
	DB	0b2H
	DB	030H
	DB	034H
	DB	030H
	DB	0b6H
	DB	030H
	DB	030H
	DB	030H
	DB	0b2H
	DB	030H
	DB	030H
	DB	030H
	DB	0b2H
	DB	030H
	DB	034H
	DB	030H
	DB	0b2H
	DB	030H
	DB	030H
	DB	030H
	DB	0b6H
	DB	030H
	DB	030H
	DB	030H
	DB	0b2H
	DB	030H
	DB	030H
	DB	030H
	DB	0b2H
	DB	030H
	DB	030H
	DB	030H
	DB	0b2H
	DB	030H
	DB	030H
	DB	030H
	DB	0b2H
	DB	030H
	DB	030H
	DB	030H
	DB	0b2H
	DB	030H
	DB	030H
	DB	030H
	DB	0b2H
	DB	030H
	DB	030H
	DB	030H
	DB	0b2H
	DB	030H
	DB	030H
	DB	030H
	DB	0b2H
	DB	030H
	DB	030H
	DB	030H
	DB	0b2H
	DB	030H
	DB	030H
	DB	030H
	DB	0b6H
	DB	030H
	DB	034H
	DB	030H
	DB	0b2H
	DB	030H
	DB	030H
	DB	030H
	DB	0b6H
	DB	030H
	DB	030H
	DB	030H
	DB	0b2H
	DB	030H
	DB	030H
	DB	030H
	DB	0b6H
	DB	030H
	DB	030H
	DB	030H
	DB	0b6H
	DB	030H
	DB	034H
	DB	030H
	DB	0b2H
	DB	030H
	DB	030H
	DB	030H
	DB	0b2H
	DB	030H
	DB	034H
	DB	030H
	DB	0b6H
	DB	030H
	DB	030H
	DB	030H
	DB	0b2H
	DB	030H
	DB	030H
	DB	030H
	DB	0b2H
	DB	030H
	DB	034H
	DB	030H
	DB	0b2H
	DB	030H
	DB	030H
	DB	030H
	DB	0b6H
	DB	030H
	DB	030H
	DB	030H
	DB	0b2H
	DB	030H
	DB	034H
	DB	030H
	DB	0b2H
	DB	030H
	DB	030H
	DB	030H
	DB	0b6H
	DB	030H
	DB	030H
	DB	030H
	DB	0b2H
	DB	030H
	DB	030H
	DB	030H
	DB	0b2H
	DB	030H
	DB	030H
	DB	030H
	DB	0b2H
	DB	030H
	DB	030H
	DB	030H
	DB	0b2H
	DB	030H
	DB	030H
	DB	030H
	DB	0b2H
	DB	030H
	DB	030H
	DB	030H
	DB	0b6H
	DB	030H
	DB	030H
	DB	030H
	DB	0b2H
	DB	030H
	DB	030H
	DB	030H
	DB	0b2H
	DB	030H
	DB	030H
	DB	030H
	DB	0b2H
	DB	030H
	DB	034H
	DB	030H
	DB	0b6H
	DB	030H
	DB	030H
	DB	030H
	DB	0b2H
	DB	030H
	DB	030H
	DB	030H
	DB	0b2H
	DB	030H
	DB	030H
	DB	030H
	DB	0b6H
	DB	030H
	DB	030H
	DB	030H
	DB	0b2H
	DB	030H
	DB	034H
	DB	030H
	DB	0b2H
	DB	030H
	DB	030H
	DB	030H
	DB	0b2H
	DB	030H
	DB	034H
	DB	030H
	DB	0b2H
	DB	030H
	DB	030H
	DB	030H
	DB	0b2H
	DB	030H
	DB	030H
	DB	030H
	DB	0b2H
	DB	030H
	DB	034H
	DB	030H
	DB	0b6H
	DB	030H
	DB	030H
	DB	030H
	DB	0b2H
	DB	030H
	DB	030H
	DB	030H
	DB	0b2H
	DB	030H
	DB	034H
	DB	030H
	DB	0b2H
	DB	030H
	DB	030H
	DB	030H
	DB	0b2H
	DB	030H
	DB	030H
	DB	030H
	DB	0b2H
	DB	030H
	DB	030H
	DB	030H
	DB	0b6H
	DB	030H
	DB	030H
	DB	030H
	DB	0b2H
	DB	030H
	DB	030H
	DB	030H
	DB	0b2H
	DB	030H
	DB	030H
	DB	030H
	DB	0b2H
	DB	030H
	DB	030H
	DB	030H
	DB	0b6H
	DB	030H
	DB	030H
	DB	030H
	DB	0b2H
	DB	030H
	DB	030H
	DB	030H
	DB	0b2H
	DB	030H
	DB	030H
	DB	030H
	DB	0b2H
	DB	030H
	DB	034H
	DB	030H
	DB	0b2H
	DB	030H
	DB	030H
	DB	030H
	DB	0b2H
	DB	030H
	DB	030H
	DB	030H
	DB	0b2H
	DB	030H
	DB	030H
	DB	030H
	DB	0b2H
	DB	030H
	DB	030H
	DB	030H
	DB	0b6H
	DB	030H
	DB	030H
	DB	030H
	DB	0b2H
	DB	030H
	DB	034H
	DB	030H
	DB	0b6H
	DB	030H
	DB	030H
	DB	030H
	DB	0b2H
	DB	030H
	DB	030H
	DB	030H
	DB	0b2H
	DB	030H
	DB	034H
	DB	030H
	DB	0b6H
	DB	030H
	DB	030H
	DB	030H
	DB	0b2H
	DB	030H
	DB	030H
	DB	030H
	DB	0b2H
	DB	030H
	DB	030H
	DB	030H
	DB	0b6H
	DB	030H
	DB	034H
	DB	030H
	DB	0b2H
	DB	030H
	DB	030H
	DB	030H
	DB	0b2H
	DB	030H
	DB	030H
	DB	030H
	DB	0b2H
	DB	030H
	DB	034H
	DB	030H
	DB	0b2H
	DB	030H
	DB	030H
	DB	030H
	DB	0b6H
	DB	030H
	DB	030H
	DB	030H
	DB	0b2H
	DB	030H
	DB	030H
	DB	030H
	DB	0b2H
	DB	030H
	DB	034H
	DB	030H
	DB	0b2H
	DB	030H
	DB	030H
	DB	030H
	DB	0b2H
	DB	038H
	DB	030H
	DB	038H
	DB	0b2H
	DB	030H
	DB	030H
	DB	030H
	DB	0b2H
	DB	030H
	DB	030H
	DB	030H
	DB	0b2H
	DB	030H
	DB	030H
	DB	030H
	DB	0b2H
	DB	030H
	DB	030H
	DB	030H
	DB	0b2H
	DB	030H
	DB	034H
	DB	030H
	DB	0b6H
	DB	038H
	DB	030H
	DB	038H
	DB	0b2H
	DB	030H
	DB	030H
	DB	030H
	DB	0b2H
	DB	030H
	DB	034H
	DB	030H
	DB	0b6H
	DB	030H
	DB	030H
	DB	030H
	DB	0b2H
	DB	030H
	DB	030H
	DB	030H
	DB	0b2H
	DB	030H
	DB	030H
	DB	030H
	DB	0b6H
	DB	030H
	DB	030H
	DB	030H
	DB	0b2H
	DB	038H
	DB	034H
	DB	038H
	DB	0b2H
	DB	030H
	DB	030H
	DB	030H
	DB	0b6H
	DB	030H
	DB	030H
	DB	030H
	DB	0b2H
	DB	030H
	DB	030H
	DB	030H
	DB	0b2H
	DB	030H
	DB	034H
	DB	030H
	DB	0b6H
	DB	030H
	DB	030H
	DB	030H
	DB	0b2H
	DB	030H
	DB	030H
	DB	030H
	DB	0b2H
	DB	030H
	DB	034H
	DB	030H
	DB	0b2H
	DB	030H
	DB	030H
	DB	030H
	DB	0b2H
	DB	030H
	DB	030H
	DB	030H
	DB	0b2H
	DB	030H
	DB	030H
	DB	030H
	DB	0b2H
	DB	030H
	DB	030H
	DB	030H
	DB	0b2H
	DB	030H
	DB	034H
	DB	030H
	DB	0b2H
	DB	038H
	DB	030H
	DB	038H
	DB	0b2H
	DB	030H
	DB	030H
	DB	030H
	DB	0b6H
	DB	030H
	DB	030H
	DB	030H
	DB	0b2H
	DB	038H
	DB	030H
	DB	038H
	DB	0b6H
	DB	030H
	DB	034H
	DB	030H
	DB	0b2H
	DB	030H
	DB	030H
	DB	030H
	DB	0b2H
	DB	030H
	DB	030H
	DB	030H
	DB	0b6H
	DB	030H
	DB	034H
	DB	030H
	DB	0b2H
	DB	030H
	DB	030H
	DB	030H
	DB	0b2H
	DB	030H
	DB	030H
	DB	030H
	DB	0b6H
	DB	030H
	DB	034H
	DB	030H
	DB	0b2H
	DB	030H
	DB	030H
	DB	030H
	DB	0b2H
	DB	030H
	DB	030H
	DB	030H
	DB	0b2H
	DB	030H
	DB	030H
	DB	030H
	DB	0b2H
	DB	030H
	DB	034H
	DB	030H
	DB	0b6H
	DB	030H
	DB	030H
	DB	030H
	DB	0b2H
	DB	030H
	DB	034H
	DB	030H
	DB	0b6H
	DB	030H
	DB	030H
	DB	030H
	DB	0b6H
	DB	030H
	DB	034H
	DB	030H
	DB	0b2H
	DB	030H
	DB	034H
	DB	030H
	DB	0b6H
	DB	030H
	DB	030H
	DB	030H
	DB	0b2H
	DB	030H
	DB	030H
	DB	030H
	DB	0b2H
	DB	030H
	DB	034H
	DB	030H
	DB	0b6H
	DB	030H
	DB	030H
	DB	030H
	DB	0b2H
	DB	030H
	DB	030H
	DB	030H
	DB	0b2H
	DB	030H
	DB	034H
	DB	030H
	DB	0b2H
	DB	030H
	DB	030H
	DB	030H
	DB	0b2H
	DB	030H
	DB	030H
	DB	030H
	DB	0b2H
	DB	030H
	DB	034H
	DB	030H
	DB	0b2H
	DB	030H
	DB	030H
	DB	030H
	DB	0b2H
	DB	030H
	DB	030H
	DB	030H
	DB	0b6H
	DB	030H
	DB	030H
	DB	030H
	DB	0b2H
	DB	030H
	DB	034H
	DB	030H
	DB	0b2H
	DB	030H
	DB	030H
	DB	030H
	DB	0b2H
	DB	030H
	DB	030H
	DB	030H
	DB	0b6H
	DB	030H
	DB	030H
	DB	030H
	DB	0b2H
	DB	030H
	DB	030H
	DB	030H
	DB	0b2H
	DB	030H
	DB	034H
	DB	030H
	DB	0b2H
	DB	030H
	DB	030H
	DB	030H
	DB	0b6H
	DB	030H
	DB	030H
	DB	030H
	DB	0b2H
	DB	030H
	DB	034H
	DB	030H
	DB	0b2H
	DB	030H
	DB	030H
	DB	030H
	DB	0b6H
	DB	030H
	DB	034H
	DB	030H
	DB	0b2H
	DB	030H
	DB	034H
	DB	030H
	DB	0b2H
	DB	030H
	DB	030H
	DB	030H
	DB	0b2H
	DB	030H
	DB	030H
	DB	030H
	DB	0b6H
	DB	030H
	DB	034H
	DB	030H
	DB	0b2H
	DB	030H
	DB	030H
	DB	030H
	DB	0b2H
	DB	030H
	DB	030H
	DB	030H
	DB	0b2H
	DB	030H
	DB	034H
	DB	030H
	DB	0b6H
	DB	030H
	DB	030H
	DB	030H
	DB	0b2H
	DB	030H
	DB	030H
	DB	030H
	DB	0b2H
	DB	030H
	DB	034H
	DB	030H
	DB	0b2H
	DB	030H
	DB	030H
	DB	030H
	DB	0b6H
	DB	030H
	DB	030H
	DB	030H
	DB	0b2H
	DB	030H
	DB	030H
	DB	030H
	DB	0b6H
	DB	030H
	DB	034H
	DB	030H
	DB	0b2H
	DB	030H
	DB	030H
	DB	030H
	DB	0b2H
	DB	030H
	DB	030H
	DB	030H
	DB	0b2H
	DB	030H
	DB	030H
	DB	030H
	DB	0b2H
	DB	030H
	DB	030H
	DB	030H
	DB	0b2H
	DB	030H
	DB	034H
	DB	030H
	DB	0b2H
	DB	030H
	DB	030H
	DB	030H
	DB	0b2H
	DB	030H
	DB	030H
	DB	030H
	DB	0b6H
	DB	030H
	DB	034H
	DB	030H
	DB	0b2H
	DB	030H
	DB	030H
	DB	030H
	DB	0b2H
	DB	030H
	DB	034H
	DB	030H
	DB	0b2H
	DB	030H
	DB	034H
	DB	030H
	DB	0b6H
	DB	030H
	DB	030H
	DB	030H
	DB	0b2H
	DB	030H
	DB	030H
	DB	030H
	DB	0b2H
	DB	030H
	DB	034H
	DB	030H
	DB	0b6H
	DB	030H
	DB	030H
	DB	030H
	DB	0b6H
	DB	030H
	DB	030H
	DB	030H
	DB	0b2H
	DB	030H
	DB	034H
	DB	030H
	DB	0b6H
	DB	030H
	DB	030H
	DB	030H
	DB	0b2H
	DB	030H
	DB	030H
	DB	030H
	DB	0b2H
	DB	030H
	DB	034H
	DB	030H
	DB	0b2H
	DB	030H
	DB	030H
	DB	030H
	DB	0b2H
	DB	030H
	DB	030H
	DB	030H
	DB	0b2H
	DB	030H
	DB	030H
	DB	030H
	DB	0b6H
	DB	030H
	DB	030H
	DB	030H
	DB	0b2H
	DB	030H
	DB	034H
	DB	030H
	DB	0b2H
	DB	030H
	DB	030H
	DB	030H
	DB	0b2H
	DB	030H
	DB	030H
	DB	030H
	DB	0b2H
	DB	030H
	DB	034H
	DB	030H
	DB	0b6H
	DB	030H
	DB	030H
	DB	030H
	DB	0b2H
	DB	030H
	DB	030H
	DB	030H
	DB	0b2H
	DB	030H
	DB	030H
	DB	030H
	DB	0b6H
	DB	038H
	DB	034H
	DB	038H
	DB	0b2H
	DB	030H
	DB	030H
	DB	030H
	DB	0b2H
	DB	030H
	DB	030H
	DB	030H
	DB	0b2H
	DB	030H
	DB	030H
	DB	030H
	DB	0b6H
	DB	030H
	DB	030H
	DB	030H
	DB	0b6H
	DB	030H
	DB	034H
	DB	030H
	DB	0b2H
	DB	030H
	DB	030H
	DB	030H
	DB	0b6H
	DB	030H
	DB	034H
	DB	030H
	DB	0b2H
	DB	030H
	DB	030H
	DB	030H
	DB	0b2H
	DB	030H
	DB	030H
	DB	030H
	DB	0b2H
	DB	030H
	DB	030H
	DB	030H
	DB	0b2H
	DB	030H
	DB	034H
	DB	030H
	DB	0b2H
	DB	030H
	DB	030H
	DB	030H
	DB	0b2H
	DB	030H
	DB	030H
	DB	030H
	DB	0b2H
	DB	030H
	DB	030H
	DB	030H
	DB	0b6H
	DB	038H
	DB	030H
	DB	038H
	DB	0b2H
	DB	030H
	DB	034H
	DB	030H
	DB	0b2H
	DB	030H
	DB	030H
	DB	030H
	DB	0b2H
	DB	030H
	DB	030H
	DB	030H
	DB	0b2H
	DB	030H
	DB	030H
	DB	030H
	DB	0b2H
	DB	030H
	DB	034H
	DB	030H
	DB	0b6H
	DB	030H
	DB	030H
	DB	030H
	DB	0b2H
	DB	030H
	DB	030H
	DB	030H
	DB	0b2H
	DB	030H
	DB	030H
	DB	030H
	DB	0b6H
	DB	030H
	DB	034H
	DB	030H
	DB	0b2H
	DB	030H
	DB	030H
	DB	030H
	DB	0b2H
	DB	030H
	DB	030H
	DB	030H
	DB	0b6H
	DB	038H
	DB	034H
	DB	038H
	DB	0b2H
	DB	030H
	DB	030H
	DB	030H
	DB	0b6H
	DB	030H
	DB	030H
	DB	030H
	DB	0b2H
	DB	038H
	DB	034H
	DB	038H
	DB	0b6H
	DB	030H
	DB	030H
	DB	030H
	DB	0b2H
	DB	030H
	DB	030H
	DB	030H
	DB	0b2H
	DB	030H
	DB	034H
	DB	030H
	DB	0b2H
	DB	030H
	DB	030H
	DB	030H
	DB	0b2H
	DB	030H
	DB	030H
	DB	030H
	DB	0b2H
	DB	030H
	DB	030H
	DB	030H
	DB	0b6H
	DB	030H
	DB	034H
	DB	030H
	DB	0b2H
	DB	038H
	DB	030H
	DB	038H
	DB	0b2H
	DB	030H
	DB	030H
	DB	030H
	DB	0b2H
	DB	030H
	DB	030H
	DB	030H
	DB	0b2H
	DB	038H
	DB	030H
	DB	038H
	DB	0b2H
	DB	030H
	DB	030H
	DB	030H
	DB	0b6H
	DB	030H
	DB	034H
	DB	030H
	DB	0b2H
	DB	038H
	DB	030H
	DB	038H
	DB	0b2H
	DB	030H
	DB	030H
	DB	030H
	DB	0b6H
	DB	030H
	DB	030H
	DB	030H
	DB	0b2H
	DB	038H
	DB	034H
	DB	038H
	DB	0b2H
	DB	030H
	DB	030H
	DB	030H
	DB	0b2H
	DB	030H
	DB	030H
	DB	030H
	DB	0b2H
	DB	038H
	DB	030H
	DB	038H
	DB	0b2H
	DB	030H
	DB	030H
	DB	030H
	DB	0b2H
	DB	030H
	DB	030H
	DB	030H
	DB	0b6H
	DB	038H
	DB	034H
	DB	038H
	DB	0b2H
	DB	030H
	DB	030H
	DB	030H
	DB	0b2H
	DB	030H
	DB	030H
	DB	030H
	DB	0b2H
	DB	038H
	DB	030H
	DB	038H
	DB	0b2H
	DB	030H
	DB	030H
	DB	030H
	DB	0b6H
	DB	030H
	DB	034H
	DB	030H
	DB	0b2H
	DB	038H
	DB	030H
	DB	038H
	DB	0b2H
	DB	030H
	DB	030H
	DB	030H
	DB	0b2H
	DB	030H
	DB	030H
	DB	030H
	DB	0b6H
	DB	038H
	DB	030H
	DB	038H
	DB	0b2H
	DB	030H
	DB	030H
	DB	030H
	DB	0b2H
	DB	030H
	DB	030H
	DB	030H
	DB	0b6H
	DB	038H
	DB	034H
	DB	038H
	DB	0b2H
	DB	030H
	DB	030H
	DB	030H
	DB	0b2H
	DB	030H
	DB	030H
	DB	030H
	DB	0b2H
	DB	038H
	DB	034H
	DB	038H
	DB	0b2H
	DB	030H
	DB	030H
	DB	030H
	DB	0b6H
	DB	030H
	DB	030H
	DB	030H
	DB	0b2H
	DB	038H
	DB	034H
	DB	038H
	DB	0b2H
	DB	030H
	DB	030H
	DB	030H
	DB	0b6H
	DB	030H
	DB	030H
	DB	030H
	DB	0b2H
	DB	038H
	DB	030H
	DB	038H
	DB	0b6H
	DB	030H
	DB	030H
	DB	030H
	DB	0b2H
	DB	030H
	DB	030H
	DB	030H
	DB	0b2H
	DB	038H
	DB	034H
	DB	038H
	DB	0b2H
	DB	030H
	DB	030H
	DB	030H
	DB	0b6H
	DB	030H
	DB	030H
	DB	030H
	DB	0b2H
	DB	038H
	DB	030H
	DB	038H
	DB	0b2H
	DB	030H
	DB	030H
	DB	030H
	DB	0b2H
	DB	030H
	DB	034H
	DB	030H
	DB	0b6H
	DB	038H
	DB	030H
	DB	038H
	DB	0b2H
	DB	030H
	DB	030H
	DB	030H
	DB	0b2H
	DB	030H
	DB	030H
	DB	030H
	DB	0b2H
	DB	038H
	DB	030H
	DB	038H
	DB	0b6H
	DB	030H
	DB	030H
	DB	030H
	DB	0b2H
	DB	030H
	DB	030H
	DB	030H
	DB	0b2H
	DB	038H
	DB	034H
	DB	038H
	DB	0b6H
	DB	030H
	DB	030H
	DB	030H
	DB	0b2H
	DB	030H
	DB	030H
	DB	030H
	DB	0b6H
	DB	038H
	DB	034H
	DB	038H
	DB	0b6H
	DB	030H
	DB	030H
	DB	030H
	DB	0b2H
	DB	030H
	DB	030H
	DB	030H
	DB	0b2H
	DB	038H
	DB	034H
	DB	038H
	DB	0b2H
	DB	030H
	DB	030H
	DB	030H
	DB	0b2H
	DB	030H
	DB	030H
	DB	030H
	DB	0b6H
	DB	038H
	DB	030H
	DB	038H
	DB	0b2H
	DB	030H
	DB	030H
	DB	030H
	DB	0b2H
	DB	030H
	DB	030H
	DB	030H
	DB	0b2H
	DB	038H
	DB	034H
	DB	038H
	DB	0b2H
	DB	030H
	DB	030H
	DB	030H
	DB	0b2H
	DB	030H
	DB	030H
	DB	030H
	DB	0b2H
	DB	038H
	DB	030H
	DB	038H
	DB	0b2H
	DB	030H
	DB	030H
	DB	030H
	DB	0b2H
	DB	030H
	DB	034H
	DB	030H
	DB	0b6H
	DB	038H
	DB	030H
	DB	038H
	DB	0b2H
	DB	030H
	DB	030H
	DB	030H
	DB	0b2H
	DB	030H
	DB	034H
	DB	030H
	DB	0b6H
	DB	038H
	DB	030H
	DB	038H
	DB	0b2H
	DB	030H
	DB	030H
	DB	030H
	DB	0b2H
	DB	030H
	DB	034H
	DB	030H
	DB	0b2H
	DB	038H
	DB	030H
	DB	038H
	DB	0b6H
	DB	030H
	DB	030H
	DB	030H
	DB	0b2H
	DB	030H
	DB	030H
	DB	030H
	DB	0b2H
	DB	038H
	DB	030H
	DB	038H
	DB	0b2H
	DB	030H
	DB	030H
	DB	030H
	DB	0b2H
	DB	030H
	DB	030H
	DB	030H
	DB	0b6H
	DB	030H
	DB	034H
	DB	030H
	DB	0b2H
	DB	030H
	DB	030H
	DB	030H
	DB	0b2H
	DB	030H
	DB	030H
	DB	030H
	DB	0b2H
	DB	030H
	DB	034H
	DB	030H
	DB	0b2H
	DB	038H
	DB	030H
	DB	038H
	DB	0b2H
	DB	030H
	DB	030H
	DB	030H
	DB	0b2H
	DB	030H
	DB	030H
	DB	030H
	DB	0b2H
	DB	030H
	DB	030H
	DB	030H
	DB	0b2H
	DB	030H
	DB	030H
	DB	030H
	DB	0b6H
	DB	030H
	DB	030H
	DB	030H
	DB	0b2H
	DB	030H
	DB	030H
	DB	030H
	DB	0b2H
	DB	030H
	DB	030H
	DB	030H
	DB	0b6H
	DB	030H
	DB	030H
	DB	030H
	DB	0b2H
	DB	030H
	DB	034H
	DB	030H
	DB	0b2H
	DB	030H
	DB	030H
	DB	030H
	DB	0b6H
	DB	030H
	DB	030H
	DB	030H
	DB	0b2H
	DB	030H
	DB	034H
	DB	030H
	DB	0b2H
	DB	030H
	DB	030H
	DB	030H
	DB	0b6H
	DB	030H
	DB	030H
	DB	030H
	DB	0b2H
	DB	038H
	DB	034H
	DB	038H
	DB	0b2H
	DB	030H
	DB	030H
	DB	030H
	DB	0b6H
	DB	030H
	DB	030H
	DB	030H
	DB	0b2H
	DB	038H
	DB	034H
	DB	038H
	DB	0b2H
	DB	030H
	DB	030H
	DB	030H
	DB	0b2H
	DB	030H
	DB	030H
	DB	030H
	DB	0b2H
	DB	038H
	DB	030H
	DB	038H
	DB	0b2H
	DB	030H
	DB	030H
	DB	030H
	DB	0b6H
	DB	030H
	DB	030H
	DB	030H
	DB	0b2H
	DB	030H
	DB	030H
	DB	030H
	DB	0b2H
	DB	030H
	DB	030H
	DB	030H
	DB	0b2H
	DB	030H
	DB	034H
	DB	030H
	DB	0b6H
	DB	030H
	DB	030H
	DB	030H
	DB	0b2H
	DB	030H
	DB	030H
	DB	030H
	DB	0b2H
	DB	030H
	DB	030H
	DB	030H
	DB	0b6H
	DB	030H
	DB	034H
	DB	030H
	DB	0b2H
	DB	030H
	DB	030H
	DB	030H
	DB	0b2H
	DB	030H
	DB	030H
	DB	030H
	DB	0b2H
	DB	030H
	DB	030H
	DB	030H
	DB	0b2H
	DB	030H
	DB	030H
	DB	030H
	DB	0b6H
	DB	030H
	DB	034H
	DB	030H
	DB	0b2H
	DB	030H
	DB	030H
	DB	030H
	DB	0b2H
	DB	030H
	DB	034H
	DB	030H
	DB	0b6H
	DB	030H
	DB	030H
	DB	030H
	DB	0b2H
	DB	030H
	DB	030H
	DB	030H
	DB	0b2H
	DB	030H
	DB	030H
	DB	030H
	DB	0b6H
	DB	030H
	DB	034H
	DB	030H
	DB	0b2H
	DB	030H
	DB	030H
	DB	030H
	DB	0b2H
	DB	030H
	DB	030H
	DB	030H
	DB	0b2H
	DB	030H
	DB	030H
	DB	030H
	DB	0b2H
	DB	030H
	DB	030H
	DB	030H
	DB	0b2H
	DB	030H
	DB	030H
	DB	030H
	DB	0b6H
	DB	030H
	DB	034H
	DB	030H
	DB	0b2H
	DB	030H
	DB	030H
	DB	030H
	DB	0b2H
	DB	030H
	DB	030H
	DB	030H
	DB	0b2H
	DB	030H
	DB	030H
	DB	030H
	DB	0b6H
	DB	030H
	DB	030H
	DB	030H
	DB	0b2H
	DB	030H
	DB	034H
	DB	030H
	DB	0b2H
	DB	030H
	DB	030H
	DB	030H
	DB	0b6H
	DB	030H
	DB	030H
	DB	030H
	DB	0b2H
	DB	030H
	DB	030H
	DB	030H
	DB	0b2H
	DB	030H
	DB	034H
	DB	030H
	DB	0b6H
	DB	030H
	DB	030H
	DB	030H
	DB	0b2H
	DB	030H
	DB	034H
	DB	030H
	DB	0b2H
	DB	030H
	DB	030H
	DB	030H
	DB	0b2H
	DB	030H
	DB	030H
	DB	030H
	DB	0b2H
	DB	030H
	DB	034H
	DB	030H
	DB	0b6H
	DB	030H
	DB	030H
	DB	030H
	DB	0b2H
	DB	030H
	DB	030H
	DB	030H
	DB	0b2H
	DB	030H
	DB	030H
	DB	030H
	DB	0b6H
	DB	030H
	DB	030H
	DB	030H
	DB	0b2H
	DB	030H
	DB	030H
	DB	030H
	DB	0b2H
	DB	030H
	DB	030H
	DB	030H
	DB	0b2H
	DB	030H
	DB	030H
	DB	030H
	DB	0b2H
	DB	030H
	DB	030H
	DB	030H
	DB	0b2H
	DB	030H
	DB	030H
	DB	030H
	DB	0b2H
	DB	030H
	DB	034H
	DB	030H
	DB	0b2H
	DB	030H
	DB	030H
	DB	030H
	DB	0b6H
	DB	030H
	DB	030H
	DB	030H
	DB	0b2H
	DB	030H
	DB	030H
	DB	030H
	DB	0b2H
	DB	030H
	DB	030H
	DB	030H
	DB	0b2H
	DB	030H
	DB	034H
	DB	030H
	DB	0b6H
	DB	030H
	DB	030H
	DB	030H
	DB	0b2H
	DB	030H
	DB	030H
	DB	030H
	DB	0b2H
	DB	030H
	DB	030H
	DB	030H
	DB	0b2H
	DB	030H
	DB	030H
	DB	030H
	DB	0b6H
	DB	030H
	DB	034H
	DB	030H
	DB	0b2H
	DB	030H
	DB	030H
	DB	030H
	DB	0b2H
	DB	030H
	DB	034H
	DB	030H
	DB	0b2H
	DB	030H
	DB	030H
	DB	030H
	DB	0b2H
	DB	030H
	DB	030H
	DB	030H
	DB	0b2H
	DB	030H
	DB	030H
	DB	030H
	DB	0b6H
	DB	030H
	DB	034H
	DB	030H
	DB	0b2H
	DB	030H
	DB	030H
	DB	030H
	DB	0b2H
	DB	030H
	DB	030H
	DB	030H
	DB	0b2H
	DB	030H
	DB	030H
	DB	030H
	DB	0b2H
	DB	030H
	DB	030H
	DB	030H
	DB	0b6H
	DB	030H
	DB	030H
	DB	030H
	DB	0b2H
	DB	030H
	DB	030H
	DB	030H
	DB	0b2H
	DB	030H
	DB	030H
	DB	030H
	DB	0b6H
	DB	030H
	DB	034H
	DB	030H
	DB	0b2H
	DB	030H
	DB	030H
	DB	030H
	DB	0b2H
	DB	030H
	DB	030H
	DB	030H
	DB	0b6H
	DB	030H
	DB	030H
	DB	030H
	DB	0b2H
	DB	030H
	DB	030H
	DB	030H
	DB	0b2H
	DB	030H
	DB	034H
	DB	030H
	DB	0b6H
	DB	030H
	DB	030H
	DB	030H
	DB	0b2H
	DB	030H
	DB	030H
	DB	030H
	DB	0b2H
	DB	030H
	DB	030H
	DB	030H
	DB	0b2H
	DB	030H
	DB	030H
	DB	030H
	DB	0b6H
	DB	030H
	DB	030H
	DB	030H
	DB	0b2H
	DB	030H
	DB	030H
	DB	030H
	DB	0b2H
	DB	030H
	DB	030H
	DB	030H
	DB	0b6H
	DB	030H
	DB	030H
	DB	030H
	DB	0b2H
	DB	030H
	DB	030H
	DB	030H
	DB	0b2H
	DB	030H
	DB	030H
	DB	030H
	DB	0b6H
	DB	030H
	DB	034H
	DB	030H
	DB	0b2H
	DB	030H
	DB	034H
	DB	030H
	DB	0b2H
	DB	030H
	DB	030H
	DB	030H
	DB	0b6H
	DB	030H
	DB	030H
	DB	030H
	DB	0b2H
	DB	030H
	DB	034H
	DB	030H
	DB	0b2H
	DB	038H
	DB	030H
	DB	038H
	DB	0b2H
	DB	030H
	DB	030H
	DB	030H
	DB	0b6H
	DB	030H
	DB	030H
	DB	030H
	DB	0b6H
	DB	030H
	DB	034H
	DB	030H
	DB	0b2H
	DB	030H
	DB	030H
	DB	030H
	DB	0b2H
	DB	030H
	DB	030H
	DB	030H
	DB	0b6H
	DB	038H
	DB	034H
	DB	038H
	DB	0b2H
	DB	030H
	DB	030H
	DB	030H
	DB	0b2H
	DB	030H
	DB	030H
	DB	030H
	DB	0b2H
	DB	030H
	DB	034H
	DB	030H
	DB	0b2H
	DB	030H
	DB	030H
	DB	030H
	DB	0b2H
	DB	030H
	DB	030H
	DB	030H
	DB	0b2H
	DB	030H
	DB	030H
	DB	030H
	DB	0b6H
	DB	038H
	DB	030H
	DB	038H
	DB	0b2H
	DB	030H
	DB	034H
	DB	030H
	DB	0b2H
	DB	030H
	DB	030H
	DB	030H
	DB	0b2H
	DB	030H
	DB	030H
	DB	030H
	DB	0b2H
	DB	030H
	DB	030H
	DB	030H
	DB	0b6H
	DB	030H
	DB	030H
	DB	030H
	DB	0b2H
	DB	030H
	DB	030H
	DB	030H
	DB	0b2H
	DB	030H
	DB	030H
	DB	030H
	DB	0b2H
	DB	030H
	DB	030H
	DB	030H
	DB	0b2H
	DB	030H
	DB	030H
	DB	030H
	DB	0b6H
	DB	030H
	DB	034H
	DB	030H
	DB	0b2H
	DB	030H
	DB	030H
	DB	030H
	DB	0b2H
	DB	030H
	DB	030H
	DB	030H
	DB	0b6H
	DB	030H
	DB	034H
	DB	030H
	DB	0b2H
	DB	030H
	DB	034H
	DB	030H
	DB	0b2H
	DB	030H
	DB	030H
	DB	030H
	DB	0b2H
	DB	030H
	DB	030H
	DB	030H
	DB	0b2H
	DB	030H
	DB	030H
	DB	030H
	DB	0b2H
	DB	030H
	DB	030H
	DB	030H
	DB	0b2H
	DB	030H
	DB	030H
	DB	030H
	DB	0b2H
	DB	030H
	DB	034H
	DB	030H
	DB	0b6H
	DB	038H
	DB	030H
	DB	038H
	DB	0b2H
	DB	030H
	DB	030H
	DB	030H
	DB	0b6H
	DB	030H
	DB	034H
	DB	030H
	DB	0b2H
	DB	038H
	DB	030H
	DB	038H
	DB	0b2H
	DB	030H
	DB	030H
	DB	030H
	DB	0b2H
	DB	030H
	DB	030H
	DB	030H
	DB	0b6H
	DB	030H
	DB	030H
	DB	030H
	DB	0b2H
	DB	038H
	DB	030H
	DB	038H
	DB	0b2H
	DB	030H
	DB	034H
	DB	030H
	DB	0b2H
	DB	030H
	DB	030H
	DB	030H
	DB	0b2H
	DB	030H
	DB	030H
	DB	030H
	DB	0b2H
	DB	030H
	DB	030H
	DB	030H
	DB	0b6H
	DB	038H
	DB	034H
	DB	038H
	DB	0b2H
	DB	030H
	DB	030H
	DB	030H
	DB	0b6H
	DB	030H
	DB	030H
	DB	030H
	DB	0b2H
	DB	030H
	DB	034H
	DB	030H
	DB	0b2H
	DB	038H
	DB	030H
	DB	038H
	DB	0b6H
	DB	030H
	DB	030H
	DB	030H
	DB	0b2H
	DB	030H
	DB	034H
	DB	030H
	DB	0b2H
	DB	030H
	DB	030H
	DB	030H
	DB	0b2H
	DB	030H
	DB	030H
	DB	030H
	DB	0b2H
	DB	038H
	DB	034H
	DB	038H
	DB	0b6H
	DB	030H
	DB	030H
	DB	030H
	DB	0b2H
	DB	030H
	DB	030H
	DB	030H
	DB	0b2H
	DB	030H
	DB	034H
	DB	030H
	DB	0b2H
	DB	038H
	DB	030H
	DB	038H
	DB	0b2H
	DB	030H
	DB	030H
	DB	030H
	DB	0b6H
	DB	030H
	DB	030H
	DB	030H
	DB	0b2H
	DB	030H
	DB	030H
	DB	030H
	DB	0b2H
	DB	030H
	DB	034H
	DB	030H
	DB	0b6H
	DB	038H
	DB	030H
	DB	038H
	DB	0b2H
	DB	030H
	DB	030H
	DB	030H
	DB	0b2H
	DB	030H
	DB	030H
	DB	030H
	DB	0b2H
	DB	030H
	DB	034H
	DB	030H
	DB	0b2H
	DB	038H
	DB	030H
	DB	038H
	DB	0b6H
	DB	030H
	DB	034H
	DB	030H
	DB	0b2H
	DB	030H
	DB	030H
	DB	030H
	DB	0b2H
	DB	030H
	DB	034H
	DB	030H
	DB	0b6H
	DB	030H
	DB	030H
	DB	030H
	DB	0b2H
	DB	038H
	DB	030H
	DB	038H
	DB	0b2H
	DB	030H
	DB	034H
	DB	030H
	DB	0b6H
	DB	030H
	DB	030H
	DB	030H
	DB	0b2H
	DB	030H
	DB	030H
	DB	030H
	DB	0b2H
	DB	038H
	DB	034H
	DB	038H
	DB	0b6H
	DB	030H
	DB	030H
	DB	030H
	DB	0b2H
	DB	030H
	DB	030H
	DB	030H
	DB	0b2H
	DB	030H
	DB	034H
	DB	030H
	DB	0b2H
	DB	030H
	DB	030H
	DB	030H
	DB	0b6H
	DB	038H
	DB	030H
	DB	038H
	DB	0b2H
	DB	030H
	DB	034H
	DB	030H
	DB	0b2H
	DB	030H
	DB	030H
	DB	030H
	DB	0b2H
	DB	030H
	DB	030H
	DB	030H
	DB	0b6H
	DB	038H
	DB	030H
	DB	038H
	DB	0b2H
	DB	030H
	DB	034H
	DB	030H
	DB	0b2H
	DB	030H
	DB	030H
	DB	030H
	DB	0b6H
	DB	030H
	DB	030H
	DB	030H
	DB	0b2H
	DB	030H
	DB	030H
	DB	030H
	DB	0b2H
	DB	038H
	DB	030H
	DB	038H
	DB	0b2H
	DB	030H
	DB	034H
	DB	030H
	DB	0b2H
	DB	030H
	DB	030H
	DB	030H
	DB	0b2H
	DB	030H
	DB	030H
	DB	030H
	DB	0b6H
	DB	038H
	DB	034H
	DB	038H
	DB	0b2H
	DB	030H
	DB	030H
	DB	030H
	DB	0b2H
	DB	030H
	DB	030H
	DB	030H
	DB	0b2H
	DB	030H
	DB	034H
	DB	030H
	DB	0b2H
	DB	030H
	DB	030H
	DB	030H
	DB	0b2H
	DB	038H
	DB	030H
	DB	038H
	DB	0b6H
	DB	030H
	DB	034H
	DB	030H
	DB	0b2H
	DB	030H
	DB	030H
	DB	030H
	DB	0b2H
	DB	030H
	DB	030H
	DB	030H
	DB	0b6H
	DB	038H
	DB	034H
	DB	038H
	DB	0b2H
	DB	030H
	DB	030H
	DB	030H
	DB	0b2H
	DB	030H
	DB	030H
	DB	030H
	DB	0b6H
	DB	030H
	DB	034H
	DB	030H
	DB	0b2H
	DB	030H
	DB	030H
	DB	030H
	DB	0b2H
	DB	038H
	DB	034H
	DB	038H
	DB	0b2H
	DB	030H
	DB	030H
	DB	030H
	DB	0b2H
	DB	030H
	DB	034H
	DB	030H
	DB	0b2H
	DB	030H
	DB	030H
	DB	030H
	DB	0b2H
	DB	038H
	DB	030H
	DB	038H
	DB	0b2H
	DB	030H
	DB	030H
	DB	030H
	DB	0b2H
	DB	030H
	DB	030H
	DB	030H
	DB	0b2H
	DB	030H
	DB	030H
	DB	030H
	DB	0b6H
	DB	030H
	DB	030H
	DB	030H
	DB	0b2H
	DB	030H
	DB	034H
	DB	030H
	DB	0b2H
	DB	030H
	DB	030H
	DB	030H
	DB	0b2H
	DB	030H
	DB	030H
	DB	030H
	DB	0b2H
	DB	030H
	DB	030H
	DB	030H
	DB	0b2H
	DB	030H
	DB	030H
	DB	030H
	DB	0b2H
	DB	038H
	DB	030H
	DB	038H
	DB	0b2H
	DB	030H
	DB	030H
	DB	030H
	DB	0b6H
	DB	030H
	DB	034H
	DB	030H
	DB	0b2H
	DB	030H
	DB	030H
	DB	030H
	DB	0b2H
	DB	030H
	DB	030H
	DB	030H
	DB	0b6H
	DB	030H
	DB	034H
	DB	030H
	DB	0b2H
	DB	030H
	DB	030H
	DB	030H
	DB	0b2H
	DB	030H
	DB	030H
	DB	030H
	DB	0b2H
	DB	030H
	DB	034H
	DB	030H
	DB	0b2H
	DB	030H
	DB	030H
	DB	030H
	DB	0b2H
	DB	030H
	DB	030H
	DB	030H
	DB	0b2H
	DB	030H
	DB	030H
	DB	030H
	DB	0b6H
	DB	030H
	DB	030H
	DB	030H
	DB	0b2H
	DB	038H
	DB	034H
	DB	038H
	DB	0b2H
	DB	030H
	DB	030H
	DB	030H
	DB	0b2H
	DB	030H
	DB	034H
	DB	030H
	DB	0b6H
	DB	030H
	DB	030H
	DB	030H
	DB	0b2H
	DB	030H
	DB	034H
	DB	030H
	DB	0b2H
	DB	030H
	DB	030H
	DB	030H
	DB	0b6H
	DB	030H
	DB	030H
	DB	030H
	DB	0b2H
	DB	030H
	DB	030H
	DB	030H
	DB	0b2H
	DB	030H
	DB	034H
	DB	030H
	DB	0b6H
	DB	030H
	DB	030H
	DB	030H
	DB	0b2H
	DB	030H
	DB	030H
	DB	030H
	DB	0b2H
	DB	038H
	DB	030H
	DB	038H
	DB	0b6H
	DB	030H
	DB	034H
	DB	030H
	DB	0b2H
	DB	030H
	DB	030H
	DB	030H
	DB	0b6H
	DB	038H
	DB	030H
	DB	038H
	DB	0b2H
	DB	030H
	DB	034H
	DB	030H
	DB	0b2H
	DB	030H
	DB	030H
	DB	030H
	DB	0b6H
	DB	030H
	DB	030H
	DB	030H
	DB	0b2H
	DB	030H
	DB	030H
	DB	030H
	DB	0b2H
	DB	030H
	DB	030H
	DB	030H
	DB	0b2H
	DB	030H
	DB	034H
	DB	030H
	DB	0b6H
	DB	030H
	DB	030H
	DB	030H
	DB	0b2H
	DB	030H
	DB	034H
	DB	030H
	DB	0b2H
	DB	030H
	DB	030H
	DB	030H
	DB	0b2H
	DB	030H
	DB	030H
	DB	030H
	DB	0b6H
	DB	030H
	DB	030H
	DB	030H
	DB	0b2H
	DB	030H
	DB	034H
	DB	030H
	DB	0b6H
	DB	038H
	DB	030H
	DB	038H
	DB	0b2H
	DB	030H
	DB	030H
	DB	030H
	DB	0b2H
	DB	030H
	DB	030H
	DB	030H
	DB	0b2H
	DB	030H
	DB	030H
	DB	030H
	DB	0b2H
	DB	030H
	DB	034H
	DB	030H
	DB	0b2H
	DB	030H
	DB	030H
	DB	030H
	DB	0b6H
	DB	030H
	DB	030H
	DB	030H
	DB	0b2H
	DB	030H
	DB	030H
	DB	030H
	DB	0b2H
	DB	030H
	DB	030H
	DB	030H
	DB	0b6H
	DB	038H
	DB	030H
	DB	038H
	DB	0b2H
	DB	030H
	DB	034H
	DB	030H
	DB	0b2H
	DB	030H
	DB	030H
	DB	030H
	DB	0b6H
	DB	030H
	DB	030H
	DB	030H
	DB	0b2H
	DB	030H
	DB	030H
	DB	030H
	DB	0b2H
	DB	030H
	DB	030H
	DB	030H
	DB	0b6H
	DB	030H
	DB	030H
	DB	030H
	DB	0b2H
	DB	030H
	DB	034H
	DB	030H
	DB	0b2H
	DB	030H
	DB	030H
	DB	030H
	DB	0b2H
	DB	038H
	DB	030H
	DB	038H
	DB	0b2H
	DB	030H
	DB	030H
	DB	030H
	DB	0b6H
	DB	030H
	DB	030H
	DB	030H
	DB	0b2H
	DB	030H
	DB	034H
	DB	030H
	DB	0b2H
	DB	030H
	DB	030H
	DB	030H
	DB	0b6H
	DB	030H
	DB	030H
	DB	030H
	DB	0b2H
	DB	030H
	DB	030H
	DB	030H
	DB	0b2H
	DB	030H
	DB	034H
	DB	030H
	DB	0b2H
	DB	030H
	DB	030H
	DB	030H
	DB	0b2H
	DB	038H
	DB	030H
	DB	038H
	DB	0b6H
	DB	030H
	DB	030H
	DB	030H
	DB	0b2H
	DB	030H
	DB	034H
	DB	030H
	DB	0b2H
	DB	030H
	DB	030H
	DB	030H
	DB	0b6H
	DB	030H
	DB	030H
	DB	030H
	DB	0b2H
	DB	030H
	DB	030H
	DB	030H
	DB	0b2H
	DB	030H
	DB	030H
	DB	030H
	DB	0b2H
	DB	030H
	DB	034H
	DB	030H
	DB	0b2H
	DB	030H
	DB	030H
	DB	030H
	DB	0b6H
	DB	038H
	DB	030H
	DB	038H
	DB	0b2H
	DB	030H
	DB	030H
	DB	030H
	DB	0b2H
	DB	030H
	DB	030H
	DB	030H
	DB	0b2H
	DB	030H
	DB	034H
	DB	030H
	DB	0b6H
	DB	030H
	DB	030H
	DB	030H
	DB	0b2H
	DB	030H
	DB	030H
	DB	030H
	DB	0b2H
	DB	030H
	DB	030H
	DB	030H
	DB	0b2H
	DB	030H
	DB	030H
	DB	030H
	DB	0b6H
	DB	030H
	DB	030H
	DB	030H
	DB	0b2H
	DB	038H
	DB	034H
	DB	038H
	DB	0b2H
	DB	030H
	DB	030H
	DB	030H
	DB	0b6H
	DB	030H
	DB	030H
	DB	030H
	DB	0b2H
	DB	030H
	DB	034H
	DB	030H
	DB	0b2H
	DB	030H
	DB	030H
	DB	030H
	DB	0b6H
	DB	030H
	DB	030H
	DB	030H
	DB	0b2H
	DB	030H
	DB	034H
	DB	030H
	DB	0b2H
	DB	030H
	DB	030H
	DB	030H
	DB	0b6H
	DB	030H
	DB	030H
	DB	030H
	DB	0b2H
	DB	038H
	DB	034H
	DB	038H
	DB	0b6H
	DB	030H
	DB	030H
	DB	030H
	DB	0b2H
	DB	030H
	DB	030H
	DB	030H
	DB	0b2H
	DB	030H
	DB	030H
	DB	030H
	DB	0b2H
	DB	030H
	DB	034H
	DB	030H
	DB	0b2H
	DB	030H
	DB	030H
	DB	030H
	DB	0b2H
	DB	030H
	DB	030H
	DB	030H
	DB	0b2H
	DB	030H
	DB	030H
	DB	030H
	DB	0b2H
	DB	030H
	DB	030H
	DB	030H
	DB	0b2H
	DB	038H
	DB	034H
	DB	038H
	DB	0b6H
	DB	030H
	DB	030H
	DB	030H
	DB	0b2H
	DB	030H
	DB	030H
	DB	030H
	DB	0b2H
	DB	030H
	DB	030H
	DB	030H
	DB	0b6H
	DB	030H
	DB	034H
	DB	030H
	DB	0b2H
	DB	030H
	DB	030H
	DB	030H
	DB	0b6H
	DB	030H
	DB	034H
	DB	030H
	DB	0b2H
	DB	030H
	DB	034H
	DB	030H
	DB	0b6H
	DB	030H
	DB	030H
	DB	030H
	DB	0b2H
	DB	038H
	DB	030H
	DB	038H
	DB	0b2H
	DB	030H
	DB	030H
	DB	030H
	DB	0b2H
	DB	030H
	DB	034H
	DB	030H
	DB	0b6H
	DB	038H
	DB	030H
	DB	038H
	DB	0b2H
	DB	030H
	DB	030H
	DB	030H
	DB	0b6H
	DB	030H
	DB	034H
	DB	030H
	DB	0b6H
	DB	030H
	DB	030H
	DB	030H
	DB	0b2H
	DB	030H
	DB	034H
	DB	030H
	DB	0b2H
	DB	030H
	DB	030H
	DB	030H
	DB	0b2H
	DB	030H
	DB	030H
	DB	030H
	DB	0b2H
	DB	030H
	DB	030H
	DB	030H
	DB	0b2H
	DB	030H
	DB	030H
	DB	030H
	DB	0b2H
	DB	030H
	DB	030H
	DB	030H
	DB	0b6H
	DB	030H
	DB	030H
	DB	030H
	DB	0b2H
	DB	030H
	DB	030H
	DB	030H
	DB	0b2H
	DB	030H
	DB	030H
	DB	030H
	DB	0b2H
	DB	030H
	DB	030H
	DB	030H
	DB	0b2H
	DB	030H
	DB	034H
	DB	030H
	DB	0b6H
	DB	030H
	DB	030H
	DB	030H
	DB	0b2H
	DB	030H
	DB	030H
	DB	030H
	DB	0b2H
	DB	030H
	DB	034H
	DB	030H
	DB	0b6H
	DB	030H
	DB	030H
	DB	030H
	DB	0b2H
	DB	030H
	DB	030H
	DB	030H
	DB	0b2H
	DB	038H
	DB	030H
	DB	038H
	DB	0b2H
	DB	030H
	DB	034H
	DB	030H
	DB	0b6H
	DB	030H
	DB	030H
	DB	030H
	DB	0b2H
	DB	038H
	DB	030H
	DB	038H
	DB	0b2H
	DB	030H
	DB	034H
	DB	030H
	DB	0b2H
	DB	030H
	DB	030H
	DB	030H
	DB	0b2H
	DB	038H
	DB	030H
	DB	038H
	DB	0b2H
	DB	030H
	DB	030H
	DB	030H
	DB	0b2H
	DB	030H
	DB	030H
	DB	030H
	DB	0b2H
	DB	030H
	DB	030H
	DB	030H
	DB	0b2H
	DB	030H
	DB	030H
	DB	030H
	DB	0b6H
	DB	030H
	DB	034H
	DB	030H
	DB	0b2H
	DB	030H
	DB	030H
	DB	030H
	DB	0b2H
	DB	030H
	DB	030H
	DB	030H
	DB	0b6H
	DB	030H
	DB	034H
	DB	030H
	DB	0b2H
	DB	038H
	DB	030H
	DB	038H
	DB	0b2H
	DB	030H
	DB	030H
	DB	030H
	DB	0b2H
	DB	030H
	DB	034H
	DB	030H
	DB	0b2H
	DB	030H
	DB	030H
	DB	030H
	DB	0b2H
	DB	030H
	DB	030H
	DB	030H
	DB	0b6H
	DB	038H
	DB	030H
	DB	038H
	DB	0b2H
	DB	030H
	DB	034H
	DB	030H
	DB	0b2H
	DB	030H
	DB	030H
	DB	030H
	DB	0b2H
	DB	030H
	DB	030H
	DB	030H
	DB	0b2H
	DB	030H
	DB	030H
	DB	030H
	DB	0b2H
	DB	030H
	DB	034H
	DB	030H
	DB	0b6H
	DB	030H
	DB	030H
	DB	030H
	DB	0b2H
	DB	030H
	DB	030H
	DB	030H
	DB	0b2H
	DB	030H
	DB	034H
	DB	030H
	DB	0b6H
	DB	030H
	DB	030H
	DB	030H
	DB	0b2H
	DB	038H
	DB	030H
	DB	038H
	DB	0b2H
	DB	030H
	DB	034H
	DB	030H
	DB	0b2H
	DB	030H
	DB	030H
	DB	030H
	DB	0b2H
	DB	030H
	DB	030H
	DB	030H
	DB	0b2H
	DB	030H
	DB	034H
	DB	030H
	DB	0b6H
	DB	030H
	DB	030H
	DB	030H
	DB	0b2H
	DB	030H
	DB	030H
	DB	030H
	DB	0b2H
	DB	030H
	DB	034H
	DB	030H
	DB	0b2H
	DB	030H
	DB	030H
	DB	030H
	DB	0b2H
	DB	038H
	DB	030H
	DB	038H
	DB	0b6H
	DB	030H
	DB	034H
	DB	030H
	DB	0b2H
	DB	030H
	DB	030H
	DB	030H
	DB	0b2H
	DB	030H
	DB	030H
	DB	030H
	DB	0b6H
	DB	030H
	DB	034H
	DB	030H
	DB	0b2H
	DB	030H
	DB	030H
	DB	030H
	DB	0b2H
	DB	030H
	DB	030H
	DB	030H
	DB	0b2H
	DB	030H
	DB	030H
	DB	030H
	DB	0b2H
	DB	030H
	DB	034H
	DB	030H
	DB	0b6H
	DB	038H
	DB	030H
	DB	038H
	DB	0b2H
	DB	030H
	DB	030H
	DB	030H
	DB	0b2H
	DB	030H
	DB	030H
	DB	030H
	DB	0b6H
	DB	030H
	DB	030H
	DB	030H
	DB	0b2H
	DB	030H
	DB	030H
	DB	030H
	DB	0b2H
	DB	030H
	DB	030H
	DB	030H
	DB	0b2H
	DB	030H
	DB	030H
	DB	030H
	DB	0b2H
	DB	030H
	DB	034H
	DB	030H
	DB	0b2H
	DB	030H
	DB	030H
	DB	030H
	DB	0b2H
	DB	038H
	DB	030H
	DB	038H
	DB	0b6H
	DB	030H
	DB	034H
	DB	030H
	DB	0b2H
	DB	030H
	DB	030H
	DB	030H
	DB	0b2H
	DB	030H
	DB	030H
	DB	030H
	DB	0b2H
	DB	030H
	DB	034H
	DB	030H
	DB	0b6H
	DB	030H
	DB	030H
	DB	030H
	DB	0b2H
	DB	030H
	DB	030H
	DB	030H
	DB	0b2H
	DB	030H
	DB	030H
	DB	030H
	DB	0b2H
	DB	030H
	DB	034H
	DB	030H
	DB	0b6H
	DB	038H
	DB	030H
	DB	038H
	DB	0b2H
	DB	030H
	DB	034H
	DB	030H
	DB	0b2H
	DB	030H
	DB	030H
	DB	030H
	DB	0b2H
	DB	030H
	DB	030H
	DB	030H
	DB	0b2H
	DB	030H
	DB	034H
	DB	030H
	DB	0b2H
	DB	030H
	DB	030H
	DB	030H
	DB	0b2H
	DB	030H
	DB	030H
	DB	030H
	DB	0b6H
	DB	030H
	DB	030H
	DB	030H
	DB	0b2H
	DB	030H
	DB	030H
	DB	030H
	DB	0b2H
	DB	038H
	DB	030H
	DB	038H
	DB	0b2H
	DB	030H
	DB	030H
	DB	030H
	DB	0b2H
	DB	030H
	DB	030H
	DB	030H
	DB	0b2H
	DB	030H
	DB	030H
	DB	030H
	DB	0b2H
	DB	030H
	DB	030H
	DB	030H
	DB	0b6H
	DB	030H
	DB	034H
	DB	030H
	DB	0b2H
	DB	030H
	DB	030H
	DB	030H
	DB	0b2H
	DB	030H
	DB	030H
	DB	030H
	DB	0b6H
	DB	030H
	DB	030H
	DB	030H
	DB	0b6H
	DB	038H
	DB	034H
	DB	038H
	DB	0b2H
	DB	030H
	DB	030H
	DB	030H
	DB	0b6H
	DB	030H
	DB	030H
	DB	030H
	DB	0b2H
	DB	030H
	DB	034H
	DB	030H
	DB	0b2H
	DB	030H
	DB	030H
	DB	030H
	DB	0b2H
	DB	030H
	DB	030H
	DB	030H
	DB	0b2H
	DB	030H
	DB	030H
	DB	030H
	DB	0b6H
	DB	030H
	DB	030H
	DB	030H
	DB	0b2H
	DB	030H
	DB	030H
	DB	030H
	DB	0b2H
	DB	038H
	DB	030H
	DB	038H
	DB	0b2H
	DB	030H
	DB	030H
	DB	030H
	DB	0b6H
	DB	030H
	DB	030H
	DB	030H
	DB	0b2H
	DB	030H
	DB	034H
	DB	030H
	DB	0b2H
	DB	030H
	DB	030H
	DB	030H
	DB	0b6H
	DB	030H
	DB	030H
	DB	030H
	DB	0b2H
	DB	030H
	DB	034H
	DB	030H
	DB	0b2H
	DB	030H
	DB	030H
	DB	030H
	DB	0b2H
	DB	030H
	DB	030H
	DB	030H
	DB	0b2H
	DB	038H
	DB	030H
	DB	038H
	DB	0b2H
	DB	030H
	DB	030H
	DB	030H
	DB	0b6H
	DB	030H
	DB	034H
	DB	030H
	DB	0b2H
	DB	030H
	DB	030H
	DB	030H
	DB	0b6H
	DB	030H
	DB	030H
	DB	030H
	DB	0b2H
	DB	038H
	DB	034H
	DB	038H
	DB	0b2H
	DB	030H
	DB	034H
	DB	030H
	DB	0b6H
	DB	030H
	DB	030H
	DB	030H
	DB	0b2H
	DB	038H
	DB	030H
	DB	038H
	DB	0b2H
	DB	030H
	DB	030H
	DB	030H
	DB	0b2H
	DB	030H
	DB	030H
	DB	030H
	DB	0b2H
	DB	030H
	DB	030H
	DB	030H
	DB	0b2H
	DB	038H
	DB	030H
	DB	038H
	DB	0b6H
	DB	030H
	DB	034H
	DB	030H
	DB	0b2H
	DB	030H
	DB	030H
	DB	030H
	DB	0b2H
	DB	038H
	DB	030H
	DB	038H
	DB	0b2H
	DB	030H
	DB	030H
	DB	030H
	DB	0b6H
	DB	030H
	DB	030H
	DB	030H
	DB	0b2H
	DB	030H
	DB	030H
	DB	030H
	DB	0b2H
	DB	030H
	DB	030H
	DB	030H
	DB	0b2H
	DB	030H
	DB	030H
	DB	030H
	DB	0b6H
	DB	030H
	DB	030H
	DB	030H
	DB	0b2H
	DB	030H
	DB	034H
	DB	030H
	DB	0b6H
	DB	030H
	DB	030H
	DB	030H
	DB	0b2H
	DB	030H
	DB	030H
	DB	030H
	DB	0b2H
	DB	030H
	DB	034H
	DB	030H
	DB	0b6H
	DB	030H
	DB	034H
	DB	030H
	DB	0b2H
	DB	030H
	DB	030H
	DB	030H
	DB	0b2H
	DB	030H
	DB	030H
	DB	030H
	DB	0b2H
	DB	030H
	DB	030H
	DB	030H
	DB	0b2H
	DB	030H
	DB	030H
	DB	030H
	DB	0b2H
	DB	030H
	DB	030H
	DB	030H
	DB	0b2H
	DB	030H
	DB	034H
	DB	030H
	DB	0b2H
	DB	030H
	DB	030H
	DB	030H
	DB	0b6H
	DB	030H
	DB	030H
	DB	030H
	DB	0b2H
	DB	030H
	DB	030H
	DB	030H
	DB	0b2H
	DB	030H
	DB	030H
	DB	030H
	DB	0b6H
	DB	030H
	DB	030H
	DB	030H
	DB	0b2H
	DB	030H
	DB	030H
	DB	030H
	DB	0b2H
	DB	030H
	DB	034H
	DB	030H
	DB	0b6H
	DB	030H
	DB	030H
	DB	030H
	DB	0b2H
	DB	038H
	DB	030H
	DB	038H
	DB	0b2H
	DB	030H
	DB	034H
	DB	030H
	DB	0b2H
	DB	030H
	DB	030H
	DB	030H
	DB	0b6H
	DB	030H
	DB	030H
	DB	030H
	DB	0b2H
	DB	038H
	DB	034H
	DB	038H
	DB	0b2H
	DB	030H
	DB	030H
	DB	030H
	DB	0b6H
	DB	030H
	DB	030H
	DB	030H
	DB	0b2H
	DB	030H
	DB	030H
	DB	030H
	DB	0b2H
	DB	030H
	DB	034H
	DB	030H
	DB	0b6H
	DB	030H
	DB	030H
	DB	030H
	DB	0b2H
	DB	030H
	DB	030H
	DB	030H
	DB	0b2H
	DB	030H
	DB	030H
	DB	030H
	DB	0b2H
	DB	030H
	DB	030H
	DB	030H
	DB	0b6H
	DB	038H
	DB	030H
	DB	038H
	DB	0b2H
	DB	030H
	DB	034H
	DB	030H
	DB	0b2H
	DB	030H
	DB	030H
	DB	030H
	DB	0b2H
	DB	030H
	DB	030H
	DB	030H
	DB	0b2H
	DB	030H
	DB	030H
	DB	030H
	DB	0b2H
	DB	030H
	DB	030H
	DB	030H
	DB	0b6H
	DB	030H
	DB	030H
	DB	030H
	DB	0b2H
	DB	030H
	DB	034H
	DB	030H
	DB	0b2H
	DB	030H
	DB	030H
	DB	030H
	DB	0b6H
	DB	038H
	DB	030H
	DB	038H
	DB	0b2H
	DB	030H
	DB	030H
	DB	030H
	DB	0b2H
	DB	030H
	DB	030H
	DB	030H
	DB	0b2H
	DB	030H
	DB	034H
	DB	030H
	DB	0b2H
	DB	030H
	DB	030H
	DB	030H
	DB	0b6H
	DB	030H
	DB	030H
	DB	030H
	DB	0b2H
	DB	030H
	DB	034H
	DB	030H
	DB	0b2H
	DB	030H
	DB	034H
	DB	030H
	DB	0b6H
	DB	030H
	DB	030H
	DB	030H
	DB	0b2H
	DB	038H
	DB	030H
	DB	038H
	DB	0b6H
	DB	030H
	DB	030H
	DB	030H
	DB	0b2H
	DB	030H
	DB	034H
	DB	030H
	DB	0b2H
	DB	030H
	DB	030H
	DB	030H
	DB	0b6H
	DB	030H
	DB	030H
	DB	030H
	DB	0b2H
	DB	030H
	DB	030H
	DB	030H
	DB	0b2H
	DB	030H
	DB	030H
	DB	030H
	DB	0b2H
	DB	030H
	DB	034H
	DB	030H
	DB	0b2H
	DB	030H
	DB	030H
	DB	030H
	DB	0b6H
	DB	038H
	DB	030H
	DB	038H
	DB	0b2H
	DB	030H
	DB	030H
	DB	030H
	DB	0b2H
	DB	030H
	DB	030H
	DB	030H
	DB	0b2H
	DB	030H
	DB	030H
	DB	030H
	DB	0b6H
	DB	030H
	DB	034H
	DB	030H
	DB	0b2H
	DB	030H
	DB	030H
	DB	030H
	DB	0b2H
	DB	030H
	DB	030H
	DB	030H
	DB	0b6H
	DB	030H
	DB	030H
	DB	030H
	DB	0b2H
	DB	030H
	DB	034H
	DB	030H
	DB	0b2H
	DB	038H
	DB	030H
	DB	038H
	DB	0b2H
	DB	030H
	DB	030H
	DB	030H
	DB	0b6H
	DB	030H
	DB	034H
	DB	030H
	DB	0b2H
	DB	030H
	DB	030H
	DB	030H
	DB	0b6H
	DB	030H
	DB	034H
	DB	030H
	DB	0b2H
	DB	030H
	DB	030H
	DB	030H
	DB	0b2H
	DB	030H
	DB	030H
	DB	030H
	DB	0b2H
	DB	030H
	DB	034H
	DB	030H
	DB	0b2H
	DB	030H
	DB	030H
	DB	030H
	DB	0b2H
	DB	038H
	DB	030H
	DB	038H
	DB	0b2H
	DB	030H
	DB	030H
	DB	030H
	DB	0b2H
	DB	030H
	DB	030H
	DB	030H
	DB	0b2H
	DB	030H
	DB	030H
	DB	030H
	DB	0b2H
	DB	030H
	DB	034H
	DB	030H
	DB	0b2H
	DB	030H
	DB	030H
	DB	030H
	DB	0b6H
	DB	030H
	DB	030H
	DB	030H
	DB	0b2H
	DB	030H
	DB	030H
	DB	030H
	DB	0b2H
	DB	030H
	DB	034H
	DB	030H
	DB	0b6H
	DB	038H
	DB	034H
	DB	038H
	DB	0b2H
	DB	030H
	DB	030H
	DB	030H
	DB	0b2H
	DB	030H
	DB	030H
	DB	030H
	DB	0b2H
	DB	030H
	DB	034H
	DB	030H
	DB	0b2H
	DB	030H
	DB	030H
	DB	030H
	DB	0b2H
	DB	030H
	DB	030H
	DB	030H
	DB	0b2H
	DB	030H
	DB	030H
	DB	030H
	DB	0b2H
	DB	030H
	DB	030H
	DB	030H
	DB	0b6H
	DB	030H
	DB	030H
	DB	030H
	DB	0b2H
	DB	030H
	DB	030H
	DB	030H
	DB	0b2H
	DB	030H
	DB	030H
	DB	030H
	DB	0b6H
	DB	030H
	DB	034H
	DB	030H
	DB	0b2H
	DB	030H
	DB	030H
	DB	030H
	DB	0b2H
	DB	030H
	DB	030H
	DB	030H
	DB	0b2H
	DB	030H
	DB	030H
	DB	030H
	DB	0b2H
	DB	030H
	DB	030H
	DB	030H
	DB	0b6H
	DB	030H
	DB	030H
	DB	030H
	DB	0b2H
	DB	030H
	DB	030H
	DB	030H
	DB	0b2H
	DB	030H
	DB	030H
	DB	030H
	DB	0b2H
	DB	030H
	DB	034H
	DB	030H
	DB	0b2H
	DB	030H
	DB	030H
	DB	030H
	DB	0b6H
	DB	030H
	DB	030H
	DB	030H
	DB	0b2H
	DB	030H
	DB	030H
	DB	030H
	DB	0b2H
	DB	030H
	DB	030H
	DB	030H
	DB	0b2H
	DB	030H
	DB	030H
	DB	030H
	DB	0b2H
	DB	030H
	DB	030H
	DB	030H
	DB	0b2H
	DB	030H
	DB	034H
	DB	030H
	DB	0b2H
	DB	030H
	DB	030H
	DB	030H
	DB	0b2H
	DB	030H
	DB	034H
	DB	030H
	DB	0b2H
	DB	030H
	DB	030H
	DB	030H
	DB	0b6H
	DB	030H
	DB	034H
	DB	030H
	DB	0b2H
	DB	030H
	DB	030H
	DB	030H
	DB	0b2H
	DB	030H
	DB	030H
	DB	030H
	DB	0b2H
	DB	030H
	DB	034H
	DB	030H
	DB	0b2H
	DB	030H
	DB	030H
	DB	030H
	DB	0b2H
	DB	030H
	DB	030H
	DB	030H
	DB	0b6H
	DB	030H
	DB	030H
	DB	030H
	DB	0b2H
	DB	038H
	DB	030H
	DB	038H
	DB	0b2H
	DB	030H
	DB	030H
	DB	030H
	DB	0b6H
	DB	030H
	DB	034H
	DB	030H
	DB	0b2H
	DB	038H
	DB	030H
	DB	038H
	DB	0b2H
	DB	030H
	DB	030H
	DB	030H
	DB	0b6H
	DB	030H
	DB	034H
	DB	030H
	DB	0b2H
	DB	038H
	DB	030H
	DB	038H
	DB	0b2H
	DB	030H
	DB	030H
	DB	030H
	DB	0b6H
	DB	030H
	DB	030H
	DB	030H
	DB	0b2H
	DB	030H
	DB	034H
	DB	030H
	DB	0b2H
	DB	038H
	DB	030H
	DB	038H
	DB	0b6H
	DB	030H
	DB	034H
	DB	030H
	DB	0b2H
	DB	030H
	DB	030H
	DB	030H
	DB	0b2H
	DB	030H
	DB	030H
	DB	030H
	DB	0b2H
	DB	030H
	DB	030H
	DB	030H
	DB	0b6H
	DB	030H
	DB	030H
	DB	030H
	DB	0b2H
	DB	030H
	DB	034H
	DB	030H
	DB	0b2H
	DB	030H
	DB	030H
	DB	030H
	DB	0b6H
	DB	030H
	DB	030H
	DB	030H
	DB	0b2H
	DB	030H
	DB	030H
	DB	030H
	DB	0b2H
	DB	030H
	DB	030H
	DB	030H
	DB	0b2H
	DB	030H
	DB	030H
	DB	030H
	DB	0b2H
	DB	030H
	DB	030H
	DB	030H
	DB	0b2H
	DB	030H
	DB	034H
	DB	030H
	DB	0b6H
	DB	030H
	DB	030H
	DB	030H
	DB	0b2H
	DB	038H
	DB	030H
	DB	038H
	DB	0b2H
	DB	030H
	DB	034H
	DB	030H
	DB	0b6H
	DB	030H
	DB	030H
	DB	030H
	DB	0b2H
	DB	030H
	DB	030H
	DB	030H
	DB	0b2H
	DB	030H
	DB	034H
	DB	030H
	DB	0b6H
	DB	030H
	DB	030H
	DB	030H
	DB	0b2H
	DB	030H
	DB	030H
	DB	030H
	DB	0b6H
	DB	030H
	DB	034H
	DB	030H
	DB	0b2H
	DB	030H
	DB	030H
	DB	030H
	DB	0b2H
	DB	038H
	DB	030H
	DB	038H
	DB	0b2H
	DB	030H
	DB	034H
	DB	030H
	DB	0b2H
	DB	030H
	DB	030H
	DB	030H
	DB	0b2H
	DB	030H
	DB	030H
	DB	030H
	DB	0b6H
	DB	030H
	DB	034H
	DB	030H
	DB	0b2H
	DB	030H
	DB	030H
	DB	030H
	DB	0b2H
	DB	030H
	DB	030H
	DB	030H
	DB	0b6H
	DB	030H
	DB	034H
	DB	030H
	DB	0b2H
	DB	030H
	DB	030H
	DB	030H
	DB	0b2H
	DB	038H
	DB	030H
	DB	038H
	DB	0b2H
	DB	030H
	DB	030H
	DB	030H
	DB	0b2H
	DB	030H
	DB	030H
	DB	030H
	DB	0b2H
	DB	030H
	DB	034H
	DB	030H
	DB	0b6H
	DB	030H
	DB	030H
	DB	030H
	DB	0b2H
	DB	030H
	DB	030H
	DB	030H
	DB	0b2H
	DB	030H
	DB	030H
	DB	030H
	DB	0b2H
	DB	030H
	DB	034H
	DB	030H
	DB	0b2H
	DB	030H
	DB	030H
	DB	030H
	DB	0b6H
	DB	038H
	DB	030H
	DB	038H
	DB	0b2H
	DB	030H
	DB	030H
	DB	030H
	DB	0b2H
	DB	030H
	DB	030H
	DB	030H
	DB	0b6H
	DB	030H
	DB	034H
	DB	030H
	DB	0b2H
	DB	030H
	DB	030H
	DB	030H
	DB	0b2H
	DB	030H
	DB	034H
	DB	030H
	DB	0b2H
	DB	030H
	DB	030H
	DB	030H
	DB	0b2H
	DB	030H
	DB	030H
	DB	030H
	DB	0b6H
	DB	030H
	DB	030H
	DB	030H
	DB	0b2H
	DB	038H
	DB	034H
	DB	038H
	DB	0b2H
	DB	030H
	DB	030H
	DB	030H
	DB	0b6H
	DB	030H
	DB	030H
	DB	030H
	DB	0b2H
	DB	030H
	DB	030H
	DB	030H
	DB	0b2H
	DB	030H
	DB	034H
	DB	030H
	DB	0b6H
	DB	030H
	DB	030H
	DB	030H
	DB	0b2H
	DB	030H
	DB	030H
	DB	030H
	DB	0b2H
	DB	030H
	DB	034H
	DB	030H
	DB	0b2H
	DB	030H
	DB	030H
	DB	030H
	DB	0b6H
	DB	038H
	DB	030H
	DB	038H
	DB	0b6H
	DB	030H
	DB	034H
	DB	030H
	DB	0b2H
	DB	030H
	DB	030H
	DB	030H
	DB	0b6H
	DB	030H
	DB	030H
	DB	030H
	DB	0b2H
	DB	030H
	DB	034H
	DB	030H
	DB	0b6H
	DB	030H
	DB	034H
	DB	030H
	DB	0b2H
	DB	030H
	DB	030H
	DB	030H
	DB	0b2H
	DB	030H
	DB	030H
	DB	030H
	DB	0b6H
	DB	030H
	DB	030H
	DB	030H
	DB	0b2H
	DB	038H
	DB	034H
	DB	038H
	DB	0b2H
	DB	030H
	DB	030H
	DB	030H
	DB	0b6H
	DB	030H
	DB	030H
	DB	030H
	DB	0b2H
	DB	030H
	DB	030H
	DB	030H
	DB	0b2H
	DB	030H
	DB	030H
	DB	030H
	DB	0b2H
	DB	030H
	DB	030H
	DB	030H
	DB	0b6H
	DB	030H
	DB	034H
	DB	030H
	DB	0b6H
	DB	030H
	DB	030H
	DB	030H
	DB	0b2H
	DB	030H
	DB	030H
	DB	030H
	DB	0b2H
	DB	038H
	DB	034H
	DB	038H
	DB	0b6H
	DB	030H
	DB	030H
	DB	030H
	DB	0b2H
	DB	030H
	DB	034H
	DB	030H
	DB	0b2H
	DB	038H
	DB	030H
	DB	038H
	DB	0b2H
	DB	030H
	DB	030H
	DB	030H
	DB	0b2H
	DB	030H
	DB	034H
	DB	030H
	DB	0b6H
	DB	038H
	DB	030H
	DB	038H
	DB	0b2H
	DB	030H
	DB	030H
	DB	030H
	DB	0b2H
	DB	030H
	DB	034H
	DB	030H
	DB	0b2H
	DB	038H
	DB	030H
	DB	038H
	DB	0b2H
	DB	030H
	DB	034H
	DB	030H
	DB	0b2H
	DB	030H
	DB	034H
	DB	030H
	DB	0b6H
	DB	030H
	DB	030H
	DB	030H
	DB	0b2H
	DB	030H
	DB	030H
	DB	030H
	DB	0b2H
	DB	030H
	DB	030H
	DB	030H
	DB	0b6H
	DB	030H
	DB	034H
	DB	030H
	DB	0b2H
	DB	030H
	DB	030H
	DB	030H
	DB	0b2H
	DB	030H
	DB	030H
	DB	030H
	DB	0b2H
	DB	030H
	DB	034H
	DB	030H
	DB	0b2H
	DB	030H
	DB	030H
	DB	030H
	DB	0b6H
	DB	030H
	DB	030H
	DB	030H
	DB	0b2H
	DB	030H
	DB	030H
	DB	030H
	DB	0b6H
	DB	030H
	DB	030H
	DB	030H
	DB	0b2H
	DB	030H
	DB	030H
	DB	030H
	DB	0b2H
	DB	038H
	DB	034H
	DB	038H
	DB	0b2H
	DB	030H
	DB	030H
	DB	030H
	DB	0b6H
	DB	030H
	DB	030H
	DB	030H
	DB	0b2H
	DB	038H
	DB	034H
	DB	038H
	DB	0b2H
	DB	030H
	DB	030H
	DB	030H
	DB	0b6H
	DB	030H
	DB	030H
	DB	030H
	DB	0b2H
	DB	038H
	DB	034H
	DB	038H
	DB	0b2H
	DB	030H
	DB	030H
	DB	030H
	DB	0b2H
	DB	030H
	DB	030H
	DB	030H
	DB	0b2H
	DB	030H
	DB	030H
	DB	030H
	DB	0b6H
	DB	030H
	DB	030H
	DB	030H
	DB	0b2H
	DB	030H
	DB	034H
	DB	030H
	DB	0b2H
	DB	030H
	DB	030H
	DB	030H
	DB	0b6H
	DB	030H
	DB	030H
	DB	030H
	DB	0b2H
	DB	030H
	DB	034H
	DB	030H
	DB	0b2H
	DB	030H
	DB	030H
	DB	030H
	DB	0b6H
	DB	030H
	DB	030H
	DB	030H
	DB	0b2H
	DB	030H
	DB	030H
	DB	030H
	DB	0b2H
	DB	030H
	DB	034H
	DB	030H
	DB	0b2H
	DB	030H
	DB	030H
	DB	030H
	DB	0b2H
	DB	038H
	DB	030H
	DB	038H
	DB	0b2H
	DB	030H
	DB	034H
	DB	030H
	DB	0b6H
	DB	030H
	DB	030H
	DB	030H
	DB	0b2H
	DB	038H
	DB	030H
	DB	038H
	DB	0b2H
	DB	030H
	DB	030H
	DB	030H
	DB	0b2H
	DB	030H
	DB	030H
	DB	030H
	DB	0b2H
	DB	030H
	DB	034H
	DB	030H
	DB	0b2H
	DB	030H
	DB	030H
	DB	030H
	DB	0b6H
	DB	030H
	DB	030H
	DB	030H
	DB	0b2H
	DB	030H
	DB	034H
	DB	030H
	DB	0b2H
	DB	038H
	DB	030H
	DB	038H
	DB	0b6H
	DB	030H
	DB	030H
	DB	030H
	DB	0b2H
	DB	030H
	DB	030H
	DB	030H
	DB	0b2H
	DB	030H
	DB	030H
	DB	030H
	DB	0b2H
	DB	030H
	DB	034H
	DB	030H
	DB	0b2H
	DB	030H
	DB	030H
	DB	030H
	DB	0b2H
	DB	038H
	DB	030H
	DB	038H
	DB	0b2H
	DB	030H
	DB	030H
	DB	030H
	DB	0b2H
	DB	030H
	DB	030H
	DB	030H
	DB	0b2H
	DB	038H
	DB	030H
	DB	038H
	DB	0b6H
	DB	030H
	DB	034H
	DB	030H
	DB	0b2H
	DB	030H
	DB	030H
	DB	030H
	DB	0b2H
	DB	030H
	DB	030H
	DB	030H
	DB	0b6H
	DB	030H
	DB	030H
	DB	030H
	DB	0b2H
	DB	030H
	DB	030H
	DB	030H
	DB	0b2H
	DB	038H
	DB	030H
	DB	038H
	DB	0b2H
	DB	030H
	DB	034H
	DB	030H
	DB	0b2H
	DB	030H
	DB	030H
	DB	030H
	DB	0b6H
	DB	038H
	DB	030H
	DB	038H
	DB	0b2H
	DB	030H
	DB	030H
	DB	030H
	DB	0b2H
	DB	030H
	DB	034H
	DB	030H
	DB	0b6H
	DB	030H
	DB	030H
	DB	030H
	DB	0b2H
	DB	030H
	DB	030H
	DB	030H
	DB	0b2H
	DB	030H
	DB	030H
	DB	030H
	DB	0b2H
	DB	038H
	DB	030H
	DB	038H
	DB	0b2H
	DB	030H
	DB	034H
	DB	030H
	DB	0b2H
	DB	030H
	DB	030H
	DB	030H
	DB	0b6H
	DB	038H
	DB	030H
	DB	038H
	DB	0b2H
	DB	030H
	DB	030H
	DB	030H
	DB	0b2H
	DB	030H
	DB	034H
	DB	030H
	DB	0b6H
	DB	030H
	DB	030H
	DB	030H
	DB	0b2H
	DB	030H
	DB	030H
	DB	030H
	DB	0b2H
	DB	030H
	DB	034H
	DB	030H
	DB	0b2H
	DB	038H
	DB	030H
	DB	038H
	DB	0b2H
	DB	030H
	DB	030H
	DB	030H
	DB	0b6H
	DB	030H
	DB	030H
	DB	030H
	DB	0b2H
	DB	038H
	DB	034H
	DB	038H
	DB	0b2H
	DB	030H
	DB	030H
	DB	030H
	DB	0b2H
	DB	030H
	DB	030H
	DB	030H
	DB	0b2H
	DB	030H
	DB	030H
	DB	030H
	DB	0b2H
	DB	030H
	DB	034H
	DB	030H
	DB	0b2H
	DB	030H
	DB	030H
	DB	030H
	DB	0b6H
	DB	038H
	DB	030H
	DB	038H
	DB	0b2H
	DB	030H
	DB	030H
	DB	030H
	DB	0b2H
	DB	030H
	DB	030H
	DB	030H
	DB	0b2H
	DB	038H
	DB	030H
	DB	038H
	DB	0b2H
	DB	030H
	DB	030H
	DB	030H
	DB	0b2H
	DB	030H
	DB	030H
	DB	030H
	DB	0b2H
	DB	030H
	DB	030H
	DB	030H
	DB	0b2H
	DB	030H
	DB	030H
	DB	030H
	DB	0b2H
	DB	030H
	DB	030H
	DB	030H
	DB	0b2H
	DB	038H
	DB	030H
	DB	038H
	DB	0b6H
	DB	030H
	DB	030H
	DB	030H
	DB	0b2H
	DB	030H
	DB	030H
	DB	030H
	DB	0b2H
	DB	038H
	DB	034H
	DB	038H
	DB	0b6H
	DB	030H
	DB	030H
	DB	030H
	DB	0b2H
	DB	030H
	DB	030H
	DB	030H
	DB	0b2H
	DB	030H
	DB	030H
	DB	030H
	DB	0b2H
	DB	030H
	DB	034H
	DB	030H
	DB	0b2H
	DB	030H
	DB	030H
	DB	030H
	DB	0b2H
	DB	038H
	DB	030H
	DB	038H
	DB	0b2H
	DB	030H
	DB	030H
	DB	030H
	DB	0b2H
	DB	030H
	DB	030H
	DB	030H
	DB	0b2H
	DB	038H
	DB	030H
	DB	038H
	DB	0b2H
	DB	030H
	DB	030H
	DB	030H
	DB	0b2H
	DB	030H
	DB	030H
	DB	030H
	DB	0b6H
	DB	030H
	DB	030H
	DB	030H
	DB	0b2H
	DB	030H
	DB	030H
	DB	030H
	DB	0b2H
	DB	030H
	DB	034H
	DB	030H
	DB	0b6H
	DB	030H
	DB	030H
	DB	030H
	DB	0b2H
	DB	030H
	DB	030H
	DB	030H
	DB	0b2H
	DB	030H
	DB	034H
	DB	030H
	DB	0b2H
	DB	030H
	DB	030H
	DB	030H
	DB	0b6H
	DB	030H
	DB	030H
	DB	030H
	DB	0b2H
	DB	030H
	DB	030H
	DB	030H
	DB	0b6H
	DB	030H
	DB	030H
	DB	030H
	DB	0b2H
	DB	030H
	DB	030H
	DB	030H
	DB	0b2H
	DB	038H
	DB	030H
	DB	038H
	DB	0b6H
	DB	030H
	DB	030H
	DB	030H
	DB	0b2H
	DB	030H
	DB	034H
	DB	030H
	DB	0b2H
	DB	038H
	DB	030H
	DB	038H
	DB	0b2H
	DB	030H
	DB	030H
	DB	030H
	DB	0b2H
	DB	030H
	DB	030H
	DB	030H
	DB	0b2H
	DB	030H
	DB	030H
	DB	030H
	DB	0b2H
	DB	030H
	DB	030H
	DB	030H
	DB	0b2H
	DB	030H
	DB	034H
	DB	030H
	DB	0b2H
	DB	038H
	DB	030H
	DB	038H
	DB	0b6H
	DB	030H
	DB	030H
	DB	030H
	DB	0b2H
	DB	030H
	DB	034H
	DB	030H
	DB	0b2H
	DB	030H
	DB	030H
	DB	030H
	DB	0b6H
	DB	030H
	DB	030H
	DB	030H
	DB	0b2H
	DB	030H
	DB	030H
	DB	030H
	DB	0b2H
	DB	030H
	DB	030H
	DB	030H
	DB	0b2H
	DB	030H
	DB	030H
	DB	030H
	DB	0b6H
	DB	030H
	DB	030H
	DB	030H
	DB	0b2H
	DB	030H
	DB	030H
	DB	030H
	DB	0b2H
	DB	030H
	DB	030H
	DB	030H
	DB	0b6H
	DB	030H
	DB	034H
	DB	030H
	DB	0b2H
	DB	030H
	DB	030H
	DB	030H
	DB	0b2H
	DB	030H
	DB	030H
	DB	030H
	DB	0b2H
	DB	030H
	DB	034H
	DB	030H
	DB	0b2H
	DB	030H
	DB	030H
	DB	030H
	DB	0b2H
	DB	038H
	DB	030H
	DB	038H
	DB	0b2H
	DB	030H
	DB	030H
	DB	030H
	DB	0b2H
	DB	030H
	DB	030H
	DB	030H
	DB	0b2H
	DB	030H
	DB	034H
	DB	030H
	DB	0b2H
	DB	038H
	DB	030H
	DB	038H
	DB	0b2H
	DB	030H
	DB	030H
	DB	030H
	DB	0b6H
	DB	030H
	DB	030H
	DB	030H
	DB	0b2H
	DB	030H
	DB	030H
	DB	030H
	DB	0b2H
	DB	030H
	DB	030H
	DB	030H
	DB	0b6H
	DB	030H
	DB	034H
	DB	030H
	DB	0b2H
	DB	030H
	DB	030H
	DB	030H
	DB	0b2H
	DB	030H
	DB	030H
	DB	030H
	DB	0b6H
	DB	030H
	DB	034H
	DB	030H
	DB	0b2H
	DB	030H
	DB	030H
	DB	030H
	DB	0b2H
	DB	038H
	DB	030H
	DB	038H
	DB	0b6H
	DB	030H
	DB	034H
	DB	030H
	DB	0b2H
	DB	030H
	DB	030H
	DB	030H
	DB	0b2H
	DB	030H
	DB	030H
	DB	030H
	DB	0b6H
	DB	030H
	DB	034H
	DB	030H
	DB	0b2H
	DB	030H
	DB	030H
	DB	030H
	DB	0b2H
	DB	030H
	DB	030H
	DB	030H
	DB	0b6H
	DB	030H
	DB	034H
	DB	030H
	DB	0b2H
	DB	030H
	DB	030H
	DB	030H
	DB	0b2H
	DB	030H
	DB	030H
	DB	030H
	DB	0b6H
	DB	030H
	DB	034H
	DB	030H
	DB	0b2H
	DB	030H
	DB	030H
	DB	030H
	DB	0b2H
	DB	030H
	DB	030H
	DB	030H
	DB	0b2H
	DB	030H
	DB	034H
	DB	030H
	DB	0b2H
	DB	030H
	DB	030H
	DB	030H
	DB	0b6H
	DB	030H
	DB	030H
	DB	030H
	DB	0b2H
	DB	030H
	DB	034H
	DB	030H
	DB	0b2H
	DB	030H
	DB	030H
	DB	030H
	DB	0b6H
	DB	030H
	DB	030H
	DB	030H
	DB	0b2H
	DB	030H
	DB	034H
	DB	030H
	DB	0b2H
	DB	030H
	DB	030H
	DB	030H
	DB	0b6H
	DB	030H
	DB	030H
	DB	030H
	DB	0b2H
	DB	030H
	DB	030H
	DB	030H
	DB	0b2H
	DB	030H
	DB	030H
	DB	030H
	DB	0b2H
	DB	030H
	DB	030H
	DB	030H
	DB	0b6H
	DB	030H
	DB	034H
	DB	030H
	DB	0b2H
	DB	030H
	DB	030H
	DB	030H
	DB	0b6H
	DB	030H
	DB	030H
	DB	030H
	DB	0b6H
	DB	030H
	DB	034H
	DB	030H
	DB	0b2H
	DB	030H
	DB	030H
	DB	030H
	DB	0b2H
	DB	030H
	DB	030H
	DB	030H
	DB	0b6H
	DB	030H
	DB	034H
	DB	030H
	DB	0b2H
	DB	030H
	DB	030H
	DB	030H
	DB	0b2H
	DB	030H
	DB	030H
	DB	030H
	DB	0b2H
	DB	030H
	DB	034H
	DB	030H
	DB	0b6H
	DB	030H
	DB	030H
	DB	030H
	DB	0b2H
	DB	030H
	DB	030H
	DB	030H
	DB	0b2H
	DB	030H
	DB	030H
	DB	030H
	DB	0b6H
	DB	030H
	DB	030H
	DB	030H
	DB	0b2H
	DB	030H
	DB	030H
	DB	030H
	DB	0b6H
	DB	030H
	DB	034H
	DB	030H
	DB	0b2H
	DB	030H
	DB	030H
	DB	030H
	DB	0b6H
	DB	030H
	DB	030H
	DB	030H
	DB	0b2H
	DB	030H
	DB	030H
	DB	030H
	DB	0b2H
	DB	030H
	DB	030H
	DB	030H
	DB	0b6H
	DB	030H
	DB	034H
	DB	030H
	DB	0b2H
	DB	030H
	DB	030H
	DB	030H
	DB	0b2H
	DB	030H
	DB	030H
	DB	030H
	DB	0b2H
	DB	030H
	DB	034H
	DB	030H
	DB	0b6H
	DB	030H
	DB	034H
	DB	030H
	DB	0b6H
	DB	030H
	DB	030H
	DB	030H
	DB	0b2H
	DB	030H
	DB	034H
	DB	030H
	DB	0b2H
	DB	030H
	DB	030H
	DB	030H
	DB	0b2H
	DB	030H
	DB	034H
	DB	030H
	DB	0b2H
	DB	030H
	DB	030H
	DB	030H
	DB	0b2H
	DB	030H
	DB	030H
	DB	030H
	DB	0b2H
	DB	030H
	DB	030H
	DB	030H
	DB	0b2H
	DB	030H
	DB	030H
	DB	030H
	DB	0b2H
	DB	030H
	DB	030H
	DB	030H
	DB	0b2H
	DB	030H
	DB	034H
	DB	030H
	DB	0b2H
	DB	030H
	DB	030H
	DB	030H
	DB	0b6H
	DB	030H
	DB	030H
	DB	030H
	DB	0b2H
	DB	030H
	DB	030H
	DB	030H
	DB	0b2H
	DB	030H
	DB	034H
	DB	030H
	DB	0b6H
	DB	030H
	DB	030H
	DB	030H
	DB	0b6H
	DB	030H
	DB	034H
	DB	030H
	DB	0b2H
	DB	030H
	DB	034H
	DB	030H
	DB	0b2H
	DB	030H
	DB	030H
	DB	030H
	DB	0b2H
	DB	030H
	DB	030H
	DB	030H
	DB	0b6H
	DB	030H
	DB	034H
	DB	030H
	DB	0b2H
	DB	030H
	DB	030H
	DB	030H
	DB	0b2H
	DB	030H
	DB	030H
	DB	030H
	DB	0b2H
	DB	030H
	DB	030H
	DB	030H
	DB	0b6H
	DB	030H
	DB	030H
	DB	030H
	DB	0b2H
	DB	030H
	DB	030H
	DB	030H
	DB	0b2H
	DB	030H
	DB	030H
	DB	030H
	DB	0b2H
	DB	030H
	DB	030H
	DB	030H
	DB	0b2H
	DB	030H
	DB	034H
	DB	030H
	DB	0b2H
	DB	030H
	DB	030H
	DB	030H
	DB	0b6H
	DB	030H
	DB	030H
	DB	030H
	DB	0b2H
	DB	030H
	DB	034H
	DB	030H
	DB	0b2H
	DB	030H
	DB	030H
	DB	030H
	DB	0b2H
	DB	030H
	DB	030H
	DB	030H
	DB	0b6H
	DB	030H
	DB	030H
	DB	030H
	DB	0b2H
	DB	030H
	DB	034H
	DB	030H
	DB	0b2H
	DB	030H
	DB	030H
	DB	030H
	DB	0b6H
	DB	030H
	DB	030H
	DB	030H
	DB	0b2H
	DB	030H
	DB	030H
	DB	030H
	DB	0b2H
	DB	030H
	DB	030H
	DB	030H
	DB	0b2H
	DB	030H
	DB	030H
	DB	030H
	DB	0b2H
	DB	030H
	DB	034H
	DB	030H
	DB	0b2H
	DB	030H
	DB	030H
	DB	030H
	DB	0b2H
	DB	030H
	DB	030H
	DB	030H
	DB	0b2H
	DB	038H
	DB	030H
	DB	038H
	DB	0b6H
	DB	030H
	DB	034H
	DB	030H
	DB	0b2H
	DB	030H
	DB	030H
	DB	030H
	DB	0b2H
	DB	030H
	DB	030H
	DB	030H
	DB	0b6H
	DB	030H
	DB	034H
	DB	030H
	DB	0b2H
	DB	030H
	DB	030H
	DB	030H
	DB	0b2H
	DB	030H
	DB	030H
	DB	030H
	DB	0b2H
	DB	030H
	DB	034H
	DB	030H
	DB	0b6H
	DB	030H
	DB	030H
	DB	030H
	DB	0b2H
	DB	038H
	DB	030H
	DB	038H
	DB	0b2H
	DB	030H
	DB	034H
	DB	030H
	DB	0b6H
	DB	030H
	DB	030H
	DB	030H
	DB	0b6H
	DB	030H
	DB	030H
	DB	030H
	DB	0b2H
	DB	030H
	DB	034H
	DB	030H
	DB	0b6H
	DB	030H
	DB	030H
	DB	030H
	DB	0b6H
	DB	030H
	DB	030H
	DB	030H
	DB	0b2H
	DB	030H
	DB	030H
	DB	030H
	DB	0b2H
	DB	030H
	DB	034H
	DB	030H
	DB	0b6H
	DB	030H
	DB	030H
	DB	030H
	DB	0b2H
	DB	030H
	DB	030H
	DB	030H
	DB	0b2H
	DB	030H
	DB	034H
	DB	030H
	DB	0b6H
	DB	030H
	DB	030H
	DB	030H
	DB	0b2H
	DB	030H
	DB	030H
	DB	030H
	DB	0b2H
	DB	030H
	DB	030H
	DB	030H
	DB	0b2H
	DB	030H
	DB	034H
	DB	030H
	DB	0b6H
	DB	030H
	DB	030H
	DB	030H
	DB	0b2H
	DB	030H
	DB	030H
	DB	030H
	DB	0b2H
	DB	030H
	DB	030H
	DB	030H
	DB	0b6H
	DB	030H
	DB	030H
	DB	030H
	DB	0b2H
	DB	038H
	DB	030H
	DB	038H
	DB	0b2H
	DB	030H
	DB	030H
	DB	030H
	DB	0b2H
	DB	030H
	DB	034H
	DB	030H
	DB	0b2H
	DB	030H
	DB	030H
	DB	030H
	DB	0b2H
	DB	038H
	DB	030H
	DB	038H
	DB	0b6H
	DB	030H
	DB	030H
	DB	030H
	DB	0b2H
	DB	030H
	DB	030H
	DB	030H
	DB	0b2H
	DB	038H
	DB	030H
	DB	038H
	DB	0b6H
	DB	030H
	DB	034H
	DB	030H
	DB	0b2H
	DB	030H
	DB	030H
	DB	030H
	DB	0b6H
	DB	030H
	DB	030H
	DB	030H
	DB	0b2H
	DB	030H
	DB	030H
	DB	030H
	DB	0b2H
	DB	030H
	DB	030H
	DB	030H
	DB	0b2H
	DB	038H
	DB	030H
	DB	038H
	DB	0b2H
	DB	030H
	DB	034H
	DB	030H
	DB	0b2H
	DB	030H
	DB	030H
	DB	030H
	DB	0b6H
	DB	038H
	DB	030H
	DB	038H
	DB	0b2H
	DB	030H
	DB	030H
	DB	030H
	DB	0b2H
	DB	030H
	DB	030H
	DB	030H
	DB	0b2H
	DB	030H
	DB	034H
	DB	030H
	DB	0b2H
	DB	030H
	DB	034H
	DB	030H
	DB	0b2H
	DB	030H
	DB	030H
	DB	030H
	DB	0b6H
	DB	038H
	DB	030H
	DB	038H
	DB	0b2H
	DB	030H
	DB	034H
	DB	030H
	DB	0b2H
	DB	030H
	DB	030H
	DB	030H
	DB	0b2H
	DB	038H
	DB	030H
	DB	038H
	DB	0b2H
	DB	030H
	DB	030H
	DB	030H
	DB	0b2H
	DB	030H
	DB	030H
	DB	030H
	DB	0b2H
	DB	030H
	DB	030H
	DB	030H
	DB	0b2H
	DB	030H
	DB	030H
	DB	030H
	DB	0b6H
	DB	030H
	DB	030H
	DB	030H
	DB	0b2H
	DB	038H
	DB	030H
	DB	038H
	DB	0b2H
	DB	030H
	DB	030H
	DB	030H
	DB	0b2H
	DB	030H
	DB	034H
	DB	030H
	DB	0b6H
	DB	038H
	DB	030H
	DB	038H
	DB	0b2H
	DB	030H
	DB	034H
	DB	030H
	DB	0b2H
	DB	030H
	DB	030H
	DB	030H
	DB	0b2H
	DB	030H
	DB	030H
	DB	030H
	DB	0b2H
	DB	030H
	DB	030H
	DB	030H
	DB	0b2H
	DB	030H
	DB	034H
	DB	030H
	DB	0b6H
	DB	038H
	DB	030H
	DB	038H
	DB	0b2H
	DB	030H
	DB	030H
	DB	030H
	DB	0b2H
	DB	030H
	DB	034H
	DB	030H
	DB	0b2H
	DB	038H
	DB	030H
	DB	038H
	DB	0b2H
	DB	030H
	DB	030H
	DB	030H
	DB	0b6H
	DB	030H
	DB	030H
	DB	030H
	DB	0b2H
	DB	030H
	DB	030H
	DB	030H
	DB	0b2H
	DB	030H
	DB	030H
	DB	030H
	DB	0b2H
	DB	030H
	DB	030H
	DB	030H
	DB	0b6H
	DB	038H
	DB	030H
	DB	038H
	DB	0b2H
	DB	030H
	DB	034H
	DB	030H
	DB	0b6H
	DB	030H
	DB	030H
	DB	030H
	DB	0b6H
	DB	038H
	DB	030H
	DB	038H
	DB	0b2H
	DB	030H
	DB	034H
	DB	030H
	DB	0b6H
	DB	030H
	DB	034H
	DB	030H
	DB	0b2H
	DB	030H
	DB	030H
	DB	030H
	DB	0b6H
	DB	030H
	DB	030H
	DB	030H
	DB	0b2H
	DB	030H
	DB	030H
	DB	030H
	DB	0b2H
	DB	038H
	DB	034H
	DB	038H
	DB	0b6H
	DB	030H
	DB	030H
	DB	030H
	DB	0b2H
	DB	030H
	DB	030H
	DB	030H
	DB	0b2H
	DB	038H
	DB	030H
	DB	038H
	DB	0b2H
	DB	030H
	DB	030H
	DB	030H
	DB	0b2H
	DB	030H
	DB	030H
	DB	030H
	DB	0b6H
	DB	030H
	DB	030H
	DB	030H
	DB	0b2H
	DB	030H
	DB	030H
	DB	030H
	DB	0b2H
	DB	030H
	DB	034H
	DB	030H
	DB	0b2H
	DB	038H
	DB	030H
	DB	038H
	DB	0b2H
	DB	030H
	DB	030H
	DB	030H
	DB	0b2H
	DB	030H
	DB	034H
	DB	030H
	DB	0b6H
	DB	038H
	DB	030H
	DB	038H
	DB	0b2H
	DB	030H
	DB	034H
	DB	030H
	DB	0b2H
	DB	030H
	DB	030H
	DB	030H
	DB	0b6H
	DB	038H
	DB	030H
	DB	038H
	DB	0b2H
	DB	030H
	DB	034H
	DB	030H
	DB	0b2H
	DB	030H
	DB	030H
	DB	030H
	DB	0b2H
	DB	038H
	DB	030H
	DB	038H
	DB	0b2H
	DB	030H
	DB	034H
	DB	030H
	DB	0b6H
	DB	030H
	DB	030H
	DB	030H
	DB	0b2H
	DB	030H
	DB	030H
	DB	030H
	DB	0b2H
	DB	030H
	DB	034H
	DB	030H
	DB	0b2H
	DB	030H
	DB	030H
	DB	030H
	DB	0b6H
	DB	030H
	DB	030H
	DB	030H
	DB	0b2H
	DB	030H
	DB	030H
	DB	030H
	DB	0b2H
	DB	030H
	DB	030H
	DB	030H
	DB	0b2H
	DB	030H
	DB	030H
	DB	030H
	DB	0b2H
	DB	030H
	DB	030H
	DB	030H
	DB	0b6H
	DB	030H
	DB	030H
	DB	030H
	DB	0b6H
	DB	030H
	DB	030H
	DB	030H
	DB	0b2H
	DB	030H
	DB	034H
	DB	030H
	DB	0b2H
	DB	030H
	DB	030H
	DB	030H
	DB	0b6H
	DB	030H
	DB	030H
	DB	030H
	DB	0b2H
	DB	030H
	DB	034H
	DB	030H
	DB	0b2H
	DB	030H
	DB	030H
	DB	030H
	DB	0b2H
	DB	038H
	DB	030H
	DB	038H
	DB	0b2H
	DB	030H
	DB	034H
	DB	030H
	DB	0b2H
	DB	030H
	DB	030H
	DB	030H
	DB	0b2H
	DB	038H
	DB	030H
	DB	038H
	DB	0b6H
	DB	030H
	DB	030H
	DB	030H
	DB	0b2H
	DB	030H
	DB	030H
	DB	030H
	DB	0b2H
	DB	030H
	DB	030H
	DB	030H
	DB	0b2H
	DB	030H
	DB	030H
	DB	030H
	DB	0b2H
	DB	030H
	DB	030H
	DB	030H
	DB	0b2H
	DB	038H
	DB	030H
	DB	038H
	DB	0b2H
	DB	030H
	DB	030H
	DB	030H
	DB	0b2H
	DB	030H
	DB	034H
	DB	030H
	DB	0b2H
	DB	038H
	DB	030H
	DB	038H
	DB	0b2H
	DB	030H
	DB	030H
	DB	030H
	DB	0b6H
	DB	030H
	DB	030H
	DB	030H
	DB	0b2H
	DB	030H
	DB	034H
	DB	030H
	DB	0b2H
	DB	038H
	DB	030H
	DB	038H
	DB	0b2H
	DB	030H
	DB	030H
	DB	030H
	DB	0b2H
	DB	030H
	DB	034H
	DB	030H
	DB	0b2H
	DB	038H
	DB	030H
	DB	038H
	DB	0b2H
	DB	030H
	DB	030H
	DB	030H
	DB	0b2H
	DB	030H
	DB	030H
	DB	030H
	DB	0b2H
	DB	038H
	DB	034H
	DB	038H
	DB	0b2H
	DB	030H
	DB	030H
	DB	030H
	DB	0b2H
	DB	030H
	DB	034H
	DB	030H
	DB	0b2H
	DB	030H
	DB	030H
	DB	030H
	DB	0b2H
	DB	030H
	DB	030H
	DB	030H
	DB	0b6H
	DB	030H
	DB	034H
	DB	030H
	DB	0b2H
	DB	030H
	DB	030H
	DB	030H
	DB	0b2H
	DB	030H
	DB	030H
	DB	030H
	DB	0b2H
	DB	030H
	DB	034H
	DB	030H
	DB	0b2H
	DB	030H
	DB	030H
	DB	030H
	DB	0b2H
	DB	030H
	DB	030H
	DB	030H
	DB	0b2H
	DB	030H
	DB	034H
	DB	030H
	DB	0b2H
	DB	030H
	DB	030H
	DB	030H
	DB	0b2H
	DB	030H
	DB	030H
	DB	030H
	DB	0b6H
	DB	038H
	DB	034H
	DB	038H
	DB	0b2H
	DB	030H
	DB	030H
	DB	030H
	DB	0b2H
	DB	030H
	DB	030H
	DB	030H
	DB	0b6H
	DB	030H
	DB	034H
	DB	030H
	DB	0b2H
	DB	030H
	DB	030H
	DB	030H
	DB	0b2H
	DB	030H
	DB	030H
	DB	030H
	DB	0b2H
	DB	030H
	DB	034H
	DB	030H
	DB	0b6H
	DB	030H
	DB	030H
	DB	030H
	DB	0b2H
	DB	030H
	DB	030H
	DB	030H
	DB	0b6H
	DB	038H
	DB	030H
	DB	038H
	DB	0b2H
	DB	030H
	DB	030H
	DB	030H
	DB	0b2H
	DB	030H
	DB	030H
	DB	030H
	DB	0b2H
	DB	030H
	DB	030H
	DB	030H
	DB	0b2H
	DB	030H
	DB	030H
	DB	030H
	DB	0b2H
	DB	030H
	DB	034H
	DB	030H
	DB	0b2H
	DB	030H
	DB	030H
	DB	030H
	DB	0b6H
	DB	030H
	DB	030H
	DB	030H
	DB	0b2H
	DB	030H
	DB	034H
	DB	030H
	DB	0b2H
	DB	038H
	DB	034H
	DB	038H
	DB	0b2H
	DB	030H
	DB	030H
	DB	030H
	DB	0b2H
	DB	030H
	DB	034H
	DB	030H
	DB	0b6H
	DB	030H
	DB	030H
	DB	030H
	DB	0b2H
	DB	030H
	DB	030H
	DB	030H
	DB	0b2H
	DB	030H
	DB	030H
	DB	030H
	DB	0b2H
	DB	030H
	DB	030H
	DB	030H
	DB	0b2H
	DB	030H
	DB	030H
	DB	030H
	DB	0b6H
	DB	030H
	DB	034H
	DB	030H
	DB	0b2H
	DB	038H
	DB	030H
	DB	038H
	DB	0b2H
	DB	030H
	DB	030H
	DB	030H
	DB	0b2H
	DB	030H
	DB	030H
	DB	030H
	DB	0b2H
	DB	030H
	DB	034H
	DB	030H
	DB	0b6H
	DB	030H
	DB	030H
	DB	030H
	DB	0b2H
	DB	030H
	DB	030H
	DB	030H
	DB	0b2H
	DB	030H
	DB	030H
	DB	030H
	DB	0b6H
	DB	030H
	DB	034H
	DB	030H
	DB	0b2H
	DB	030H
	DB	030H
	DB	030H
	DB	0b2H
	DB	038H
	DB	030H
	DB	038H
	DB	0b2H
	DB	030H
	DB	034H
	DB	030H
	DB	0b2H
	DB	030H
	DB	030H
	DB	030H
	DB	0b2H
	DB	030H
	DB	030H
	DB	030H
	DB	0b2H
	DB	030H
	DB	030H
	DB	030H
	DB	0b2H
	DB	030H
	DB	030H
	DB	030H
	DB	0b2H
	DB	030H
	DB	030H
	DB	030H
	DB	0b2H
	DB	030H
	DB	030H
	DB	030H
	DB	0b2H
	DB	030H
	DB	030H
	DB	030H
	DB	0b6H
	DB	038H
	DB	034H
	DB	038H
	DB	0b2H
	DB	030H
	DB	030H
	DB	030H
	DB	0b2H
	DB	030H
	DB	030H
	DB	030H
	DB	0b2H
	DB	030H
	DB	030H
	DB	030H
	DB	0b2H
	DB	030H
	DB	034H
	DB	030H
	DB	0b6H
	DB	030H
	DB	030H
	DB	030H
	DB	0b2H
	DB	030H
	DB	030H
	DB	030H
	DB	0b2H
	DB	030H
	DB	034H
	DB	030H
	DB	0b2H
	DB	030H
	DB	030H
	DB	030H
	DB	0b2H
	DB	038H
	DB	030H
	DB	038H
	DB	0b6H
	DB	030H
	DB	030H
	DB	030H
	DB	0b2H
	DB	030H
	DB	034H
	DB	030H
	DB	0b6H
	DB	030H
	DB	030H
	DB	030H
	DB	0b2H
	DB	030H
	DB	030H
	DB	030H
	DB	0b2H
	DB	030H
	DB	030H
	DB	030H
	DB	0b2H
	DB	030H
	DB	034H
	DB	030H
	DB	0b2H
	DB	030H
	DB	030H
	DB	030H
	DB	0b2H
	DB	030H
	DB	030H
	DB	030H
	DB	0b6H
	DB	030H
	DB	034H
	DB	030H
	DB	0b2H
	DB	030H
	DB	030H
	DB	030H
	DB	0b6H
	DB	030H
	DB	030H
	DB	030H
	DB	0b2H
	DB	030H
	DB	030H
	DB	030H
	DB	0b2H
	DB	030H
	DB	030H
	DB	030H
	DB	0b2H
	DB	030H
	DB	030H
	DB	030H
	DB	0b6H
	DB	038H
	DB	030H
	DB	038H
	DB	0b2H
	DB	030H
	DB	030H
	DB	030H
	DB	0b2H
	DB	030H
	DB	034H
	DB	030H
	DB	0b2H
	DB	038H
	DB	030H
	DB	038H
	DB	0b6H
	DB	030H
	DB	030H
	DB	030H
	DB	0b2H
	DB	030H
	DB	034H
	DB	030H
	DB	0b2H
	DB	030H
	DB	030H
	DB	030H
	DB	0b2H
	DB	030H
	DB	034H
	DB	030H
	DB	0b2H
	DB	030H
	DB	030H
	DB	030H
	DB	0b2H
	DB	038H
	DB	030H
	DB	038H
	DB	0b2H
	DB	030H
	DB	030H
	DB	030H
	DB	0b6H
	DB	030H
	DB	030H
	DB	030H
	DB	0b2H
	DB	030H
	DB	030H
	DB	030H
	DB	0b2H
	DB	030H
	DB	030H
	DB	030H
	DB	0b6H
	DB	030H
	DB	030H
	DB	030H
	DB	0b2H
	DB	030H
	DB	030H
	DB	030H
	DB	0b2H
	DB	030H
	DB	030H
	DB	030H
	DB	0b6H
	DB	030H
	DB	034H
	DB	030H
	DB	0b2H
	DB	030H
	DB	030H
	DB	030H
	DB	0b2H
	DB	030H
	DB	034H
	DB	030H
	DB	0b2H
	DB	030H
	DB	030H
	DB	030H
	DB	0b6H
	DB	030H
	DB	034H
	DB	030H
	DB	0b2H
	DB	030H
	DB	030H
	DB	030H
	DB	0b2H
	DB	030H
	DB	034H
	DB	030H
	DB	0b6H
	DB	030H
	DB	030H
	DB	030H
	DB	0b2H
	DB	030H
	DB	030H
	DB	030H
	DB	0b2H
	DB	030H
	DB	030H
	DB	030H
	DB	0b2H
	DB	030H
	DB	034H
	DB	030H
	DB	0b2H
	DB	030H
	DB	030H
	DB	030H
	DB	0b2H
	DB	030H
	DB	030H
	DB	030H
	DB	0b2H
	DB	030H
	DB	030H
	DB	030H
	DB	0b6H
	DB	030H
	DB	030H
	DB	030H
	DB	0b2H
	DB	030H
	DB	030H
	DB	030H
	DB	0b2H
	DB	030H
	DB	030H
	DB	030H
	DB	0b6H
	DB	030H
	DB	034H
	DB	030H
	DB	0b6H
	DB	030H
	DB	030H
	DB	030H
	DB	0b2H
	DB	030H
	DB	030H
	DB	030H
	DB	0b6H
	DB	030H
	DB	030H
	DB	030H
	DB	0b2H
	DB	030H
	DB	030H
	DB	030H
	DB	0b6H
	DB	030H
	DB	034H
	DB	030H
	DB	0b2H
	DB	030H
	DB	030H
	DB	030H
	DB	0b2H
	DB	030H
	DB	030H
	DB	030H
	DB	0b6H
	DB	038H
	DB	030H
	DB	038H
	DB	0b2H
	DB	030H
	DB	030H
	DB	030H
	DB	0b6H
	DB	030H
	DB	030H
	DB	030H
	DB	0b6H
	DB	030H
	DB	034H
	DB	030H
	DB	0b2H
	DB	030H
	DB	030H
	DB	030H
	DB	0b6H
	DB	030H
	DB	030H
	DB	030H
	DB	0b2H
	DB	030H
	DB	030H
	DB	030H
	DB	0b2H
	DB	030H
	DB	030H
	DB	030H
	DB	0b6H
	DB	030H
	DB	030H
	DB	030H
	DB	0b2H
	DB	030H
	DB	034H
	DB	030H
	DB	0b2H
	DB	030H
	DB	030H
	DB	030H
	DB	0b6H
	DB	030H
	DB	030H
	DB	030H
	DB	0b2H
	DB	030H
	DB	030H
	DB	030H
	DB	0b6H
	DB	030H
	DB	030H
	DB	030H
	DB	0b2H
	DB	030H
	DB	030H
	DB	030H
	DB	0b2H
	DB	030H
	DB	034H
	DB	030H
	DB	0b2H
	DB	030H
	DB	030H
	DB	030H
	DB	0b2H
	DB	030H
	DB	030H
	DB	030H
	DB	0b6H
	DB	030H
	DB	034H
	DB	030H
	DB	0b2H
	DB	030H
	DB	030H
	DB	030H
	DB	0b2H
	DB	030H
	DB	034H
	DB	030H
	DB	0b6H
	DB	030H
	DB	030H
	DB	030H
	DB	0b2H
	DB	030H
	DB	030H
	DB	030H
	DB	0b6H
	DB	030H
	DB	030H
	DB	030H
	DB	0b2H
	DB	030H
	DB	034H
	DB	030H
	DB	0b2H
	DB	030H
	DB	030H
	DB	030H
	DB	0b6H
	DB	030H
	DB	030H
	DB	030H
	DB	0b6H
	DB	030H
	DB	030H
	DB	030H
	DB	0b2H
	DB	030H
	DB	030H
	DB	030H
	DB	0b2H
	DB	030H
	DB	030H
	DB	030H
	DB	0b2H
	DB	030H
	DB	034H
	DB	030H
	DB	0b6H
	DB	030H
	DB	030H
	DB	030H
	DB	0b2H
	DB	030H
	DB	030H
	DB	030H
	DB	0b2H
	DB	030H
	DB	034H
	DB	030H
	DB	0b6H
	DB	030H
	DB	030H
	DB	030H
	DB	0b2H
	DB	030H
	DB	030H
	DB	030H
	DB	0b2H
	DB	030H
	DB	034H
	DB	030H
	DB	0b6H
	DB	030H
	DB	030H
	DB	030H
	DB	0b2H
	DB	030H
	DB	030H
	DB	030H
	DB	0b2H
	DB	030H
	DB	030H
	DB	030H
	DB	0b2H
	DB	030H
	DB	034H
	DB	030H
	DB	0b6H
	DB	030H
	DB	030H
	DB	030H
	DB	0b2H
	DB	030H
	DB	030H
	DB	030H
	DB	0b2H
	DB	030H
	DB	034H
	DB	030H
	DB	0b2H
	DB	030H
	DB	030H
	DB	030H
	DB	0b6H
	DB	030H
	DB	030H
	DB	030H
	DB	0b2H
	DB	030H
	DB	034H
	DB	030H
	DB	0b6H
	DB	030H
	DB	030H
	DB	030H
	DB	0b2H
	DB	030H
	DB	030H
	DB	030H
	DB	0b2H
	DB	030H
	DB	034H
	DB	030H
	DB	0b6H
	DB	030H
	DB	030H
	DB	030H
	DB	0b2H
	DB	030H
	DB	034H
	DB	030H
	DB	0b2H
	DB	030H
	DB	030H
	DB	030H
	DB	0b2H
	DB	030H
	DB	030H
	DB	030H
	DB	0b2H
	DB	030H
	DB	030H
	DB	030H
	DB	0b2H
	DB	030H
	DB	034H
	DB	030H
	DB	0b6H
	DB	030H
	DB	030H
	DB	030H
	DB	0b2H
	DB	030H
	DB	030H
	DB	030H
	DB	0b2H
	DB	030H
	DB	030H
	DB	030H
	DB	0b2H
	DB	030H
	DB	034H
	DB	030H
	DB	0b6H
	DB	030H
	DB	030H
	DB	030H
	DB	0b2H
	DB	030H
	DB	030H
	DB	030H
	DB	0b6H
	DB	030H
	DB	034H
	DB	030H
	DB	0b2H
	DB	030H
	DB	030H
	DB	030H
	DB	0b2H
	DB	030H
	DB	030H
	DB	030H
	DB	0b2H
	DB	030H
	DB	030H
	DB	030H
	DB	0b6H
	DB	030H
	DB	034H
	DB	030H
	DB	0b2H
	DB	030H
	DB	030H
	DB	030H
	DB	0b2H
	DB	030H
	DB	030H
	DB	030H
	DB	0b6H
	DB	030H
	DB	030H
	DB	030H
	DB	0b2H
	DB	038H
	DB	030H
	DB	038H
	DB	0b2H
	DB	030H
	DB	030H
	DB	030H
	DB	0b2H
	DB	030H
	DB	030H
	DB	030H
	DB	0b2H
	DB	030H
	DB	030H
	DB	030H
	DB	0b2H
	DB	030H
	DB	034H
	DB	030H
	DB	0b6H
	DB	030H
	DB	030H
	DB	030H
	DB	0b2H
	DB	030H
	DB	034H
	DB	030H
	DB	0b2H
	DB	030H
	DB	030H
	DB	030H
	DB	0b2H
	DB	030H
	DB	030H
	DB	030H
	DB	0b6H
	DB	030H
	DB	034H
	DB	030H
	DB	0b2H
	DB	030H
	DB	030H
	DB	030H
	DB	0b2H
	DB	030H
	DB	030H
	DB	030H
	DB	0b2H
	DB	030H
	DB	030H
	DB	030H
	DB	0b2H
	DB	030H
	DB	030H
	DB	030H
	DB	0b2H
	DB	030H
	DB	030H
	DB	030H
	DB	0aeH
	DB	030H
	DB	030H
	DB	030H
	DB	0b2H
	DB	030H
	DB	034H
	DB	030H
	DB	0b2H
	DB	030H
	DB	030H
	DB	030H
	DB	0b2H
	DB	030H
	DB	030H
	DB	030H
	DB	0b2H
	DB	038H
	DB	034H
	DB	038H
	DB	0b2H
	DB	030H
	DB	034H
	DB	030H
	DB	0b2H
	DB	030H
	DB	030H
	DB	030H
	DB	0b6H
	DB	038H
	DB	034H
	DB	038H
	DB	0b2H
	DB	030H
	DB	030H
	DB	030H
	DB	0b2H
	DB	030H
	DB	030H
	DB	030H
	DB	0b6H
	DB	030H
	DB	030H
	DB	030H
	DB	0b2H
	DB	030H
	DB	030H
	DB	030H
	DB	0b2H
	DB	038H
	DB	030H
	DB	038H
	DB	0b6H
	DB	030H
	DB	034H
	DB	030H
	DB	0b2H
	DB	030H
	DB	030H
	DB	030H
	DB	0b2H
	DB	038H
	DB	030H
	DB	038H
	DB	0b6H
	DB	030H
	DB	030H
	DB	030H
	DB	0b2H
	DB	030H
	DB	034H
	DB	030H
	DB	0b2H
	DB	030H
	DB	030H
	DB	030H
	DB	0b6H
	DB	030H
	DB	030H
	DB	030H
	DB	0b6H
	DB	030H
	DB	030H
	DB	030H
	DB	0b2H
	DB	030H
	DB	034H
	DB	030H
	DB	0b2H
	DB	038H
	DB	030H
	DB	038H
	DB	0b6H
	DB	030H
	DB	030H
	DB	030H
	DB	0b2H
	DB	030H
	DB	034H
	DB	030H
	DB	0b2H
	DB	030H
	DB	030H
	DB	030H
	DB	0b6H
	DB	030H
	DB	030H
	DB	030H
	DB	0b2H
	DB	030H
	DB	030H
	DB	030H
	DB	0b2H
	DB	038H
	DB	034H
	DB	038H
	DB	0b2H
	DB	030H
	DB	030H
	DB	030H
	DB	0b2H
	DB	030H
	DB	030H
	DB	030H
	DB	0b6H
	DB	030H
	DB	030H
	DB	030H
	DB	0b2H
	DB	038H
	DB	030H
	DB	038H
	DB	0b2H
	DB	030H
	DB	034H
	DB	030H
	DB	0b2H
	DB	030H
	DB	030H
	DB	030H
	DB	0b2H
	DB	030H
	DB	030H
	DB	030H
	DB	0b2H
	DB	030H
	DB	034H
	DB	030H
	DB	0b2H
	DB	038H
	DB	030H
	DB	038H
	DB	0b2H
	DB	030H
	DB	030H
	DB	030H
	DB	0b2H
	DB	030H
	DB	030H
	DB	030H
	DB	0b2H
	DB	038H
	DB	034H
	DB	038H
	DB	0b6H
	DB	030H
	DB	030H
	DB	030H
	DB	0b2H
	DB	030H
	DB	030H
	DB	030H
	DB	0b2H
	DB	038H
	DB	034H
	DB	038H
	DB	0b2H
	DB	030H
	DB	030H
	DB	030H
	DB	0b2H
	DB	030H
	DB	030H
	DB	030H
	DB	0b2H
	DB	038H
	DB	034H
	DB	038H
	DB	0b2H
	DB	030H
	DB	030H
	DB	030H
	DB	0b2H
	DB	030H
	DB	030H
	DB	030H
	DB	0b6H
	DB	038H
	DB	034H
	DB	038H
	DB	0b2H
	DB	030H
	DB	030H
	DB	030H
	DB	0b2H
	DB	030H
	DB	030H
	DB	030H
	DB	0b2H
	DB	030H
	DB	034H
	DB	030H
	DB	0b2H
	DB	030H
	DB	030H
	DB	030H
	DB	0b6H
	DB	030H
	DB	030H
	DB	030H
	DB	0b2H
	DB	038H
	DB	030H
	DB	038H
	DB	0b2H
	DB	030H
	DB	034H
	DB	030H
	DB	0b6H
	DB	030H
	DB	030H
	DB	030H
	DB	0b2H
	DB	038H
	DB	030H
	DB	038H
	DB	0b2H
	DB	030H
	DB	030H
	DB	030H
	DB	0b2H
	DB	030H
	DB	030H
	DB	030H
	DB	0b2H
	DB	030H
	DB	030H
	DB	030H
	DB	0b2H
	DB	030H
	DB	034H
	DB	030H
	DB	0b6H
	DB	030H
	DB	030H
	DB	030H
	DB	0b2H
	DB	038H
	DB	030H
	DB	038H
	DB	0b2H
	DB	030H
	DB	030H
	DB	030H
	DB	0b2H
	DB	030H
	DB	034H
	DB	030H
	DB	0b6H
	DB	038H
	DB	030H
	DB	038H
	DB	0b2H
	DB	030H
	DB	030H
	DB	030H
	DB	0b2H
	DB	030H
	DB	030H
	DB	030H
	DB	0b2H
	DB	030H
	DB	030H
	DB	030H
	DB	0b2H
	DB	030H
	DB	030H
	DB	030H
	DB	0b6H
	DB	030H
	DB	034H
	DB	030H
	DB	0b2H
	DB	038H
	DB	030H
	DB	038H
	DB	0b2H
	DB	030H
	DB	030H
	DB	030H
	DB	0b6H
	DB	030H
	DB	030H
	DB	030H
	DB	0b2H
	DB	038H
	DB	030H
	DB	038H
	DB	0b2H
	DB	030H
	DB	030H
	DB	030H
	DB	0b2H
	DB	030H
	DB	030H
	DB	030H
	DB	0b6H
	DB	030H
	DB	030H
	DB	030H
	DB	0b2H
	DB	030H
	DB	030H
	DB	030H
	DB	0b2H
	DB	030H
	DB	030H
	DB	030H
	DB	0b2H
	DB	038H
	DB	030H
	DB	038H
	DB	0b6H
	DB	030H
	DB	034H
	DB	030H
	DB	0b2H
	DB	030H
	DB	030H
	DB	030H
	DB	0b2H
	DB	038H
	DB	030H
	DB	038H
	DB	0b6H
	DB	030H
	DB	030H
	DB	030H
	DB	0b2H
	DB	030H
	DB	034H
	DB	030H
	DB	0b6H
	DB	030H
	DB	030H
	DB	030H
	DB	0b2H
	DB	030H
	DB	030H
	DB	030H
	DB	0b2H
	DB	030H
	DB	030H
	DB	030H
	DB	0b6H
	DB	038H
	DB	034H
	DB	038H
	DB	0b2H
	DB	030H
	DB	030H
	DB	030H
	DB	0b2H
	DB	030H
	DB	030H
	DB	030H
	DB	0b6H
	DB	038H
	DB	030H
	DB	038H
	DB	0b2H
	DB	030H
	DB	030H
	DB	030H
	DB	0b2H
	DB	030H
	DB	030H
	DB	030H
	DB	0b2H
	DB	030H
	DB	034H
	DB	030H
	DB	0b6H
	DB	030H
	DB	030H
	DB	030H
	DB	0b2H
	DB	030H
	DB	030H
	DB	030H
	DB	0b2H
	DB	038H
	DB	030H
	DB	038H
	DB	0b2H
	DB	030H
	DB	030H
	DB	030H
	DB	0b2H
	DB	030H
	DB	034H
	DB	030H
	DB	0b6H
	DB	038H
	DB	030H
	DB	038H
	DB	0b2H
	DB	030H
	DB	030H
	DB	030H
	DB	0b2H
	DB	030H
	DB	034H
	DB	030H
	DB	0b6H
	DB	030H
	DB	030H
	DB	030H
	DB	0b2H
	DB	030H
	DB	030H
	DB	030H
	DB	0b2H
	DB	038H
	DB	034H
	DB	038H
	DB	0b6H
	DB	030H
	DB	030H
	DB	030H
	DB	0b2H
	DB	030H
	DB	030H
	DB	030H
	DB	0b2H
	DB	038H
	DB	030H
	DB	038H
	DB	0b6H
	DB	030H
	DB	034H
	DB	030H
	DB	0b2H
	DB	030H
	DB	030H
	DB	030H
	DB	0b2H
	DB	030H
	DB	030H
	DB	030H
	DB	0b6H
	DB	030H
	DB	030H
	DB	030H
	DB	0b2H
	DB	030H
	DB	034H
	DB	030H
	DB	0b2H
	DB	030H
	DB	030H
	DB	030H
	DB	0b6H
	DB	030H
	DB	030H
	DB	030H
	DB	0aaH
	DB	030H
	DB	030H
	DB	030H
	DB	096H
	DB	030H
	DB	030H
	DB	030H
	DB	0b6H
	DB	030H
	DB	030H
	DB	030H
	DB	0b6H
	DB	030H
	DB	034H
	DB	030H
	DB	0b2H
	DB	030H
	DB	030H
	DB	030H
	DB	0b2H
	DB	030H
	DB	030H
	DB	030H
	DB	0b6H
	DB	030H
	DB	030H
	DB	030H
	DB	0b2H
	DB	030H
	DB	030H
	DB	030H
	DB	0b2H
	DB	030H
	DB	030H
	DB	030H
	DB	0b2H
	DB	030H
	DB	034H
	DB	030H
	DB	0b2H
	DB	030H
	DB	030H
	DB	030H
	DB	0b2H
	DB	038H
	DB	030H
	DB	038H
	DB	0b2H
	DB	030H
	DB	034H
	DB	030H
	DB	0b2H
	DB	030H
	DB	030H
	DB	030H
	DB	0b2H
	DB	030H
	DB	030H
	DB	030H
	DB	0b2H
	DB	030H
	DB	030H
	DB	030H
	DB	0b2H
	DB	030H
	DB	030H
	DB	030H
	DB	0b2H
	DB	030H
	DB	030H
	DB	030H
	DB	0b2H
	DB	030H
	DB	030H
	DB	030H
	DB	0b2H
	DB	038H
	DB	034H
	DB	038H
	DB	0b2H
	DB	030H
	DB	030H
	DB	030H
	DB	0b2H
	DB	030H
	DB	030H
	DB	030H
	DB	0b6H
	DB	030H
	DB	030H
	DB	030H
	DB	0b2H
	DB	030H
	DB	034H
	DB	030H
	DB	0b2H
	DB	030H
	DB	030H
	DB	030H
	DB	0b2H
	DB	038H
	DB	030H
	DB	038H
	DB	0b2H
	DB	030H
	DB	034H
	DB	030H
	DB	0b2H
	DB	030H
	DB	030H
	DB	030H
	DB	0b2H
	DB	030H
	DB	030H
	DB	030H
	DB	0b2H
	DB	030H
	DB	030H
	DB	030H
	DB	0b2H
	DB	030H
	DB	034H
	DB	030H
	DB	0b2H
	DB	030H
	DB	030H
	DB	030H
	DB	0b2H
	DB	030H
	DB	030H
	DB	030H
	DB	0b2H
	DB	030H
	DB	034H
	DB	030H
	DB	0b6H
	DB	030H
	DB	030H
	DB	030H
	DB	0b2H
	DB	030H
	DB	030H
	DB	030H
	DB	0b2H
	DB	030H
	DB	034H
	DB	030H
	DB	0b6H
	DB	030H
	DB	030H
	DB	030H
	DB	0b2H
	DB	030H
	DB	030H
	DB	030H
	DB	0b2H
	DB	030H
	DB	030H
	DB	030H
	DB	0b2H
	DB	030H
	DB	034H
	DB	030H
	DB	0b2H
	DB	030H
	DB	030H
	DB	030H
	DB	0b2H
	DB	030H
	DB	030H
	DB	030H
	DB	0b6H
	DB	030H
	DB	034H
	DB	030H
	DB	0b2H
	DB	030H
	DB	030H
	DB	030H
	DB	0b2H
	DB	030H
	DB	030H
	DB	030H
	DB	0b6H
	DB	030H
	DB	030H
	DB	030H
	DB	0b2H
	DB	030H
	DB	034H
	DB	030H
	DB	0b2H
	DB	030H
	DB	030H
	DB	030H
	DB	0b2H
	DB	030H
	DB	030H
	DB	030H
	DB	0b6H
	DB	030H
	DB	030H
	DB	030H
	DB	0b2H
	DB	030H
	DB	030H
	DB	030H
	DB	0b6H
	DB	038H
	DB	030H
	DB	038H
	DB	0b2H
	DB	030H
	DB	030H
	DB	030H
	DB	0b2H
	DB	030H
	DB	030H
	DB	030H
	DB	0b2H
	DB	030H
	DB	030H
	DB	030H
	DB	0b2H
	DB	030H
	DB	030H
	DB	030H
	DB	0b2H
	DB	030H
	DB	034H
	DB	030H
	DB	0b2H
	DB	030H
	DB	030H
	DB	030H
	DB	0b2H
	DB	030H
	DB	030H
	DB	030H
	DB	0b6H
	DB	030H
	DB	034H
	DB	030H
	DB	0b2H
	DB	038H
	DB	030H
	DB	038H
	DB	0b2H
	DB	030H
	DB	030H
	DB	030H
	DB	0b2H
	DB	030H
	DB	034H
	DB	030H
	DB	0b2H
	DB	030H
	DB	030H
	DB	030H
	DB	0b6H
	DB	030H
	DB	030H
	DB	030H
	DB	0b2H
	DB	030H
	DB	030H
	DB	030H
	DB	0b2H
	DB	030H
	DB	030H
	DB	030H
	DB	0b2H
	DB	030H
	DB	034H
	DB	030H
	DB	0b2H
	DB	030H
	DB	030H
	DB	030H
	DB	0b6H
	DB	038H
	DB	034H
	DB	038H
	DB	0b2H
	DB	030H
	DB	030H
	DB	030H
	DB	0b2H
	DB	030H
	DB	030H
	DB	030H
	DB	0b2H
	DB	030H
	DB	030H
	DB	030H
	DB	0b2H
	DB	030H
	DB	034H
	DB	030H
	DB	0b6H
	DB	030H
	DB	030H
	DB	030H
	DB	0b2H
	DB	030H
	DB	034H
	DB	030H
	DB	0b2H
	DB	030H
	DB	030H
	DB	030H
	DB	0b2H
	DB	030H
	DB	034H
	DB	030H
	DB	0b6H
	DB	038H
	DB	030H
	DB	038H
	DB	0b2H
	DB	030H
	DB	034H
	DB	030H
	DB	0b2H
	DB	030H
	DB	034H
	DB	030H
	DB	0b2H
	DB	030H
	DB	030H
	DB	030H
	DB	0b2H
	DB	030H
	DB	030H
	DB	030H
	DB	0b2H
	DB	030H
	DB	030H
	DB	030H
	DB	0b2H
	DB	030H
	DB	030H
	DB	030H
	DB	0b2H
	DB	030H
	DB	030H
	DB	030H
	DB	0b2H
	DB	030H
	DB	030H
	DB	030H
	DB	0b2H
	DB	038H
	DB	030H
	DB	038H
	DB	0b6H
	DB	030H
	DB	034H
	DB	030H
	DB	0b2H
	DB	030H
	DB	030H
	DB	030H
	DB	0b2H
	DB	030H
	DB	030H
	DB	030H
	DB	0b2H
	DB	030H
	DB	030H
	DB	030H
	DB	0b2H
	DB	030H
	DB	034H
	DB	030H
	DB	0b2H
	DB	030H
	DB	030H
	DB	030H
	DB	0b2H
	DB	030H
	DB	030H
	DB	030H
	DB	0b2H
	DB	030H
	DB	034H
	DB	030H
	DB	0b2H
	DB	038H
	DB	030H
	DB	038H
	DB	0b2H
	DB	030H
	DB	030H
	DB	030H
	DB	0b2H
	DB	030H
	DB	034H
	DB	030H
	DB	0b6H
	DB	030H
	DB	030H
	DB	030H
	DB	0b2H
	DB	030H
	DB	030H
	DB	030H
	DB	0b2H
	DB	030H
	DB	034H
	DB	030H
	DB	0b6H
	DB	030H
	DB	030H
	DB	030H
	DB	0b2H
	DB	030H
	DB	030H
	DB	030H
	DB	0b2H
	DB	030H
	DB	034H
	DB	030H
	DB	0b2H
	DB	030H
	DB	030H
	DB	030H
	DB	0b6H
	DB	030H
	DB	030H
	DB	030H
	DB	0b2H
	DB	030H
	DB	034H
	DB	030H
	DB	0b2H
	DB	030H
	DB	030H
	DB	030H
	DB	0b6H
	DB	030H
	DB	030H
	DB	030H
	DB	0b2H
	DB	030H
	DB	030H
	DB	030H
	DB	0b2H
	DB	030H
	DB	030H
	DB	030H
	DB	0b2H
	DB	030H
	DB	030H
	DB	030H
	DB	0b2H
	DB	038H
	DB	034H
	DB	038H
	DB	0b2H
	DB	030H
	DB	030H
	DB	030H
	DB	0b2H
	DB	030H
	DB	030H
	DB	030H
	DB	0b6H
	DB	038H
	DB	034H
	DB	038H
	DB	0b2H
	DB	030H
	DB	030H
	DB	030H
	DB	0b2H
	DB	030H
	DB	030H
	DB	030H
	DB	096H
	DB	030H
	DB	030H
	DB	030H
	DB	065H
	DB	030H
	DB	030H
	DB	030H
	DB	0b2H
	DB	038H
	DB	030H
	DB	038H
	DB	0b2H
	DB	030H
	DB	030H
	DB	030H
	DB	0b2H
	DB	030H
	DB	030H
	DB	030H
	DB	0b6H
	DB	030H
	DB	030H
	DB	030H
	DB	0b2H
	DB	030H
	DB	034H
	DB	030H
	DB	0b2H
	DB	030H
	DB	030H
	DB	030H
	DB	0b6H
	DB	030H
	DB	030H
	DB	030H
	DB	0b2H
	DB	030H
	DB	030H
	DB	030H
	DB	0b6H
	DB	030H
	DB	034H
	DB	030H
	DB	0b2H
	DB	030H
	DB	030H
	DB	030H
	DB	0b6H
	DB	030H
	DB	030H
	DB	030H
	DB	0b2H
	DB	030H
	DB	034H
	DB	030H
	DB	0b6H
	DB	030H
	DB	030H
	DB	030H
	DB	0b2H
	DB	030H
	DB	030H
	DB	030H
	DB	0b6H
	DB	030H
	DB	034H
	DB	030H
	DB	0b2H
	DB	030H
	DB	030H
	DB	030H
	DB	0b6H
	DB	030H
	DB	030H
	DB	030H
	DB	0b2H
	DB	030H
	DB	034H
	DB	030H
	DB	0b2H
	DB	030H
	DB	030H
	DB	030H
	DB	0b2H
	DB	030H
	DB	030H
	DB	030H
	DB	0b2H
	DB	038H
	DB	030H
	DB	038H
	DB	0b6H
	DB	030H
	DB	030H
	DB	030H
	DB	0b2H
	DB	030H
	DB	030H
	DB	030H
	DB	0b6H
	DB	030H
	DB	030H
	DB	030H
	DB	0b2H
	DB	030H
	DB	034H
	DB	030H
	DB	0b6H
	DB	030H
	DB	030H
	DB	030H
	DB	0b2H
	DB	038H
	DB	030H
	DB	038H
	DB	0b6H
	DB	030H
	DB	034H
	DB	030H
	DB	0b6H
	DB	030H
	DB	030H
	DB	030H
	DB	0b2H
	DB	038H
	DB	030H
	DB	038H
	DB	0b2H
	DB	030H
	DB	034H
	DB	030H
	DB	0b6H
	DB	030H
	DB	030H
	DB	030H
	DB	0b2H
	DB	030H
	DB	030H
	DB	030H
	DB	0b2H
	DB	038H
	DB	030H
	DB	038H
	DB	0b6H
	DB	030H
	DB	030H
	DB	030H
	DB	0b2H
	DB	030H
	DB	030H
	DB	030H
	DB	0b2H
	DB	030H
	DB	034H
	DB	030H
	DB	0b6H
	DB	030H
	DB	030H
	DB	030H
	DB	0b6H
	DB	030H
	DB	030H
	DB	030H
	DB	0b2H
	DB	030H
	DB	030H
	DB	030H
	DB	0b2H
	DB	030H
	DB	030H
	DB	030H
	DB	0b2H
	DB	030H
	DB	030H
	DB	030H
	DB	0b6H
	DB	030H
	DB	030H
	DB	030H
	DB	0b2H
	DB	030H
	DB	030H
	DB	030H
	DB	0b2H
	DB	030H
	DB	030H
	DB	030H
	DB	0b6H
	DB	030H
	DB	030H
	DB	030H
	DB	0b2H
	DB	030H
	DB	034H
	DB	030H
	DB	0b2H
	DB	030H
	DB	030H
	DB	030H
	DB	0b2H
	DB	030H
	DB	030H
	DB	030H
	DB	0b2H
	DB	030H
	DB	034H
	DB	030H
	DB	0b2H
	DB	030H
	DB	030H
	DB	030H
	DB	0b6H
	DB	030H
	DB	034H
	DB	030H
	DB	0b2H
	DB	038H
	DB	030H
	DB	038H
	DB	0b6H
	DB	030H
	DB	034H
	DB	030H
	DB	0b2H
	DB	030H
	DB	030H
	DB	030H
	DB	0b6H
	DB	030H
	DB	030H
	DB	030H
	DB	0b2H
	DB	030H
	DB	030H
	DB	030H
	DB	0b2H
	DB	030H
	DB	034H
	DB	030H
	DB	0b6H
	DB	030H
	DB	030H
	DB	030H
	DB	0b2H
	DB	030H
	DB	030H
	DB	030H
	DB	0b2H
	DB	030H
	DB	034H
	DB	030H
	DB	0b6H
	DB	038H
	DB	030H
	DB	038H
	DB	0b2H
	DB	030H
	DB	030H
	DB	030H
	DB	0b2H
	DB	030H
	DB	034H
	DB	030H
	DB	0b6H
	DB	030H
	DB	030H
	DB	030H
	DB	0b2H
	DB	030H
	DB	030H
	DB	030H
	DB	0b2H
	DB	030H
	DB	030H
	DB	030H
	DB	0b6H
	DB	030H
	DB	030H
	DB	030H
	DB	0b2H
	DB	030H
	DB	034H
	DB	030H
	DB	0b2H
	DB	030H
	DB	030H
	DB	030H
	DB	0b6H
	DB	038H
	DB	030H
	DB	038H
	DB	0b2H
	DB	030H
	DB	034H
	DB	030H
	DB	0b2H
	DB	030H
	DB	030H
	DB	030H
	DB	0b2H
	DB	030H
	DB	030H
	DB	030H
	DB	0b2H
	DB	030H
	DB	030H
	DB	030H
	DB	0b6H
	DB	030H
	DB	034H
	DB	030H
	DB	0b2H
	DB	030H
	DB	030H
	DB	030H
	DB	0b2H
	DB	030H
	DB	030H
	DB	030H
	DB	0b2H
	DB	030H
	DB	030H
	DB	030H
	DB	0b6H
	DB	038H
	DB	030H
	DB	038H
	DB	0b6H
	DB	030H
	DB	034H
	DB	030H
	DB	0b2H
	DB	030H
	DB	030H
	DB	030H
	DB	0b6H
	DB	030H
	DB	030H
	DB	030H
	DB	0b2H
	DB	030H
	DB	034H
	DB	030H
	DB	0b6H
	DB	030H
	DB	034H
	DB	030H
	DB	0b2H
	DB	030H
	DB	030H
	DB	030H
	DB	0b2H
	DB	030H
	DB	030H
	DB	030H
	DB	0b2H
	DB	030H
	DB	030H
	DB	030H
	DB	0b2H
	DB	038H
	DB	034H
	DB	038H
	DB	0b6H
	DB	030H
	DB	030H
	DB	030H
	DB	0b2H
	DB	030H
	DB	030H
	DB	030H
	DB	0b6H
	DB	030H
	DB	030H
	DB	030H
	DB	0b6H
	DB	030H
	DB	034H
	DB	030H
	DB	0b2H
	DB	030H
	DB	030H
	DB	030H
	DB	0b6H
	DB	030H
	DB	030H
	DB	030H
	DB	0b6H
	DB	030H
	DB	030H
	DB	030H
	DB	0b2H
	DB	030H
	DB	030H
	DB	030H
	DB	0b2H
	DB	038H
	DB	030H
	DB	038H
	DB	0b2H
	DB	030H
	DB	034H
	DB	030H
	DB	0b6H
	DB	030H
	DB	030H
	DB	030H
	DB	0b2H
	DB	030H
	DB	030H
	DB	030H
	DB	0b2H
	DB	030H
	DB	030H
	DB	030H
	DB	0b2H
	DB	030H
	DB	030H
	DB	030H
	DB	0b2H
	DB	030H
	DB	030H
	DB	030H
	DB	0b6H
	DB	038H
	DB	030H
	DB	038H
	DB	0b2H
	DB	030H
	DB	030H
	DB	030H
	DB	0b2H
	DB	030H
	DB	030H
	DB	030H
	DB	0b2H
	DB	030H
	DB	030H
	DB	030H
	DB	0b2H
	DB	038H
	DB	034H
	DB	038H
	DB	0b2H
	DB	030H
	DB	034H
	DB	030H
	DB	0b6H
	DB	030H
	DB	030H
	DB	030H
	DB	0b2H
	DB	030H
	DB	030H
	DB	030H
	DB	0b6H
	DB	030H
	DB	030H
	DB	030H
	DB	0b2H
	DB	030H
	DB	030H
	DB	030H
	DB	0b2H
	DB	030H
	DB	030H
	DB	030H
	DB	0b2H
	DB	030H
	DB	030H
	DB	030H
	DB	0b2H
	DB	030H
	DB	030H
	DB	030H
	DB	0b2H
	DB	030H
	DB	030H
	DB	030H
	DB	065H
	DB	030H
	DB	030H
	DB	030H
	DB	020H
	DB	030H
	DB	034H
	DB	030H
	DB	0b2H
	DB	030H
	DB	030H
	DB	030H
	DB	0b2H
	DB	030H
	DB	034H
	DB	030H
	DB	0b2H
	DB	030H
	DB	030H
	DB	030H
	DB	0b2H
	DB	038H
	DB	030H
	DB	038H
	DB	0b2H
	DB	030H
	DB	034H
	DB	030H
	DB	0b2H
	DB	030H
	DB	030H
	DB	030H
	DB	0b2H
	DB	038H
	DB	030H
	DB	038H
	DB	0b6H
	DB	030H
	DB	034H
	DB	030H
	DB	0b2H
	DB	030H
	DB	030H
	DB	030H
	DB	0b2H
	DB	030H
	DB	030H
	DB	030H
	DB	0b2H
	DB	030H
	DB	030H
	DB	030H
	DB	0b6H
	DB	038H
	DB	030H
	DB	038H
	DB	0b2H
	DB	030H
	DB	030H
	DB	030H
	DB	0b2H
	DB	030H
	DB	034H
	DB	030H
	DB	0b2H
	DB	038H
	DB	030H
	DB	038H
	DB	0b6H
	DB	030H
	DB	030H
	DB	030H
	DB	0b2H
	DB	030H
	DB	030H
	DB	030H
	DB	0b6H
	DB	030H
	DB	030H
	DB	030H
	DB	0b2H
	DB	030H
	DB	034H
	DB	030H
	DB	0b2H
	DB	030H
	DB	030H
	DB	030H
	DB	0b6H
	DB	030H
	DB	034H
	DB	030H
	DB	0b2H
	DB	030H
	DB	030H
	DB	030H
	DB	0b2H
	DB	030H
	DB	034H
	DB	030H
	DB	0b2H
	DB	030H
	DB	030H
	DB	030H
	DB	0b2H
	DB	030H
	DB	030H
	DB	030H
	DB	0b2H
	DB	030H
	DB	030H
	DB	030H
	DB	0b2H
	DB	030H
	DB	030H
	DB	030H
	DB	0b2H
	DB	030H
	DB	034H
	DB	030H
	DB	0b2H
	DB	030H
	DB	030H
	DB	030H
	DB	0b2H
	DB	030H
	DB	030H
	DB	030H
	DB	0b6H
	DB	030H
	DB	030H
	DB	030H
	DB	0b2H
	DB	030H
	DB	030H
	DB	030H
	DB	0b2H
	DB	030H
	DB	034H
	DB	030H
	DB	0b2H
	DB	030H
	DB	030H
	DB	030H
	DB	0b2H
	DB	030H
	DB	030H
	DB	030H
	DB	0b2H
	DB	030H
	DB	034H
	DB	030H
	DB	0b2H
	DB	038H
	DB	030H
	DB	038H
	DB	0b2H
	DB	030H
	DB	030H
	DB	030H
	DB	0b2H
	DB	030H
	DB	034H
	DB	030H
	DB	0b6H
	DB	038H
	DB	030H
	DB	038H
	DB	0b2H
	DB	030H
	DB	034H
	DB	030H
	DB	0b2H
	DB	030H
	DB	030H
	DB	030H
	DB	0b2H
	DB	038H
	DB	034H
	DB	038H
	DB	0b2H
	DB	030H
	DB	034H
	DB	030H
	DB	0b2H
	DB	030H
	DB	030H
	DB	030H
	DB	0b6H
	DB	038H
	DB	030H
	DB	038H
	DB	0b2H
	DB	030H
	DB	030H
	DB	030H
	DB	0b2H
	DB	030H
	DB	034H
	DB	030H
	DB	0b6H
	DB	038H
	DB	030H
	DB	038H
	DB	0b2H
	DB	030H
	DB	030H
	DB	030H
	DB	0b2H
	DB	030H
	DB	034H
	DB	030H
	DB	0b2H
	DB	030H
	DB	030H
	DB	030H
	DB	0b2H
	DB	030H
	DB	030H
	DB	030H
	DB	0b2H
	DB	030H
	DB	030H
	DB	030H
	DB	0b6H
	DB	030H
	DB	034H
	DB	030H
	DB	0b2H
	DB	038H
	DB	030H
	DB	038H
	DB	0b2H
	DB	030H
	DB	030H
	DB	030H
	DB	0b2H
	DB	030H
	DB	030H
	DB	030H
	DB	0b2H
	DB	038H
	DB	030H
	DB	038H
	DB	0b2H
	DB	030H
	DB	030H
	DB	030H
	DB	0b6H
	DB	030H
	DB	030H
	DB	030H
	DB	0b2H
	DB	030H
	DB	030H
	DB	030H
	DB	0b2H
	DB	030H
	DB	030H
	DB	030H
	DB	0b2H
	DB	030H
	DB	034H
	DB	030H
	DB	0b2H
	DB	038H
	DB	030H
	DB	038H
	DB	0b6H
	DB	030H
	DB	030H
	DB	030H
	DB	0b2H
	DB	030H
	DB	034H
	DB	030H
	DB	0b2H
	DB	038H
	DB	030H
	DB	038H
	DB	0b2H
	DB	030H
	DB	030H
	DB	030H
	DB	0b2H
	DB	030H
	DB	030H
	DB	030H
	DB	0b6H
	DB	030H
	DB	030H
	DB	030H
	DB	0b2H
	DB	030H
	DB	030H
	DB	030H
	DB	0b2H
	DB	030H
	DB	030H
	DB	030H
	DB	0b6H
	DB	038H
	DB	030H
	DB	038H
	DB	0b2H
	DB	030H
	DB	030H
	DB	030H
	DB	0b2H
	DB	030H
	DB	030H
	DB	030H
	DB	0b6H
	DB	038H
	DB	030H
	DB	038H
	DB	0b2H
	DB	030H
	DB	030H
	DB	030H
	DB	0b2H
	DB	030H
	DB	030H
	DB	030H
	DB	0b2H
	DB	030H
	DB	030H
	DB	030H
	DB	0b2H
	DB	030H
	DB	030H
	DB	030H
	DB	0b2H
	DB	030H
	DB	034H
	DB	030H
	DB	0b2H
	DB	038H
	DB	030H
	DB	038H
	DB	0b6H
	DB	030H
	DB	030H
	DB	030H
	DB	0b2H
	DB	030H
	DB	030H
	DB	030H
	DB	0b2H
	DB	038H
	DB	034H
	DB	038H
	DB	0b6H
	DB	030H
	DB	030H
	DB	030H
	DB	0b2H
	DB	030H
	DB	030H
	DB	030H
	DB	0b2H
	DB	030H
	DB	030H
	DB	030H
	DB	0b2H
	DB	030H
	DB	034H
	DB	030H
	DB	0b2H
	DB	030H
	DB	030H
	DB	030H
	DB	0b2H
	DB	038H
	DB	030H
	DB	038H
	DB	0b2H
	DB	030H
	DB	030H
	DB	030H
	DB	0b2H
	DB	030H
	DB	034H
	DB	030H
	DB	0b2H
	DB	038H
	DB	030H
	DB	038H
	DB	0b2H
	DB	030H
	DB	034H
	DB	030H
	DB	0b6H
	DB	030H
	DB	030H
	DB	030H
	DB	0b2H
	DB	030H
	DB	030H
	DB	030H
	DB	0b2H
	DB	030H
	DB	030H
	DB	030H
	DB	0b2H
	DB	030H
	DB	034H
	DB	030H
	DB	0b6H
	DB	038H
	DB	030H
	DB	038H
	DB	0b2H
	DB	030H
	DB	030H
	DB	030H
	DB	0b2H
	DB	030H
	DB	034H
	DB	030H
	DB	0b6H
	DB	030H
	DB	030H
	DB	030H
	DB	0b2H
	DB	030H
	DB	034H
	DB	030H
	DB	0b2H
	DB	030H
	DB	034H
	DB	030H
	DB	0b6H
	DB	030H
	DB	030H
	DB	030H
	DB	0b2H
	DB	030H
	DB	030H
	DB	030H
	DB	0b2H
	DB	030H
	DB	030H
	DB	030H
	DB	0b6H
	DB	030H
	DB	030H
	DB	030H
	DB	0b2H
	DB	030H
	DB	034H
	DB	030H
	DB	0b2H
	DB	030H
	DB	030H
	DB	030H
	DB	0b2H
	DB	030H
	DB	030H
	DB	030H
	DB	0b6H
	DB	030H
	DB	034H
	DB	030H
	DB	0b2H
	DB	030H
	DB	034H
	DB	030H
	DB	0b6H
	DB	030H
	DB	030H
	DB	030H
	DB	0b2H
	DB	030H
	DB	030H
	DB	030H
	DB	0b2H
	DB	030H
	DB	034H
	DB	030H
	DB	020H
	DB	030H
	DB	030H
	DB	030H
	DB	00H
	DB	030H
	DB	030H
	DB	030H
	DB	069H
	DB	030H
	DB	030H
	DB	030H
	DB	0b2H
	DB	030H
	DB	034H
	DB	030H
	DB	0b2H
	DB	030H
	DB	030H
	DB	030H
	DB	0b6H
	DB	030H
	DB	030H
	DB	030H
	DB	0b2H
	DB	030H
	DB	030H
	DB	030H
	DB	0b2H
	DB	030H
	DB	030H
	DB	030H
	DB	0b2H
	DB	030H
	DB	030H
	DB	030H
	DB	0b2H
	DB	030H
	DB	030H
	DB	030H
	DB	0b2H
	DB	038H
	DB	030H
	DB	038H
	DB	0b2H
	DB	030H
	DB	034H
	DB	030H
	DB	0b2H
	DB	030H
	DB	030H
	DB	030H
	DB	0b2H
	DB	030H
	DB	030H
	DB	030H
	DB	0b2H
	DB	030H
	DB	034H
	DB	030H
	DB	0b2H
	DB	030H
	DB	030H
	DB	030H
	DB	0b2H
	DB	030H
	DB	030H
	DB	030H
	DB	0b2H
	DB	030H
	DB	034H
	DB	030H
	DB	0b2H
	DB	038H
	DB	030H
	DB	038H
	DB	0b2H
	DB	030H
	DB	030H
	DB	030H
	DB	0b6H
	DB	030H
	DB	030H
	DB	030H
	DB	0b2H
	DB	038H
	DB	030H
	DB	038H
	DB	0b2H
	DB	030H
	DB	030H
	DB	030H
	DB	0b2H
	DB	030H
	DB	034H
	DB	030H
	DB	0b2H
	DB	030H
	DB	030H
	DB	030H
	DB	0b6H
	DB	038H
	DB	030H
	DB	038H
	DB	0b2H
	DB	030H
	DB	034H
	DB	030H
	DB	0b2H
	DB	030H
	DB	030H
	DB	030H
	DB	0b6H
	DB	030H
	DB	030H
	DB	030H
	DB	0b2H
	DB	030H
	DB	030H
	DB	030H
	DB	0b2H
	DB	030H
	DB	030H
	DB	030H
	DB	0b2H
	DB	030H
	DB	034H
	DB	030H
	DB	0b2H
	DB	030H
	DB	030H
	DB	030H
	DB	0b2H
	DB	038H
	DB	030H
	DB	038H
	DB	0b6H
	DB	030H
	DB	034H
	DB	030H
	DB	0b2H
	DB	030H
	DB	030H
	DB	030H
	DB	0b6H
	DB	030H
	DB	030H
	DB	030H
	DB	0b2H
	DB	030H
	DB	030H
	DB	030H
	DB	0b6H
	DB	030H
	DB	030H
	DB	030H
	DB	0b2H
	DB	030H
	DB	030H
	DB	030H
	DB	0b2H
	DB	030H
	DB	030H
	DB	030H
	DB	0b2H
	DB	030H
	DB	034H
	DB	030H
	DB	0b6H
	DB	030H
	DB	030H
	DB	030H
	DB	0b2H
	DB	030H
	DB	030H
	DB	030H
	DB	0b6H
	DB	030H
	DB	030H
	DB	030H
	DB	0b2H
	DB	030H
	DB	030H
	DB	030H
	DB	0b2H
	DB	030H
	DB	034H
	DB	030H
	DB	0b2H
	DB	030H
	DB	030H
	DB	030H
	DB	0b2H
	DB	030H
	DB	030H
	DB	030H
	DB	0b6H
	DB	030H
	DB	030H
	DB	030H
	DB	0b2H
	DB	030H
	DB	030H
	DB	030H
	DB	0b2H
	DB	030H
	DB	030H
	DB	030H
	DB	0b6H
	DB	030H
	DB	030H
	DB	030H
	DB	0b2H
	DB	030H
	DB	030H
	DB	030H
	DB	0b2H
	DB	030H
	DB	030H
	DB	030H
	DB	0b2H
	DB	030H
	DB	030H
	DB	030H
	DB	0b2H
	DB	030H
	DB	030H
	DB	030H
	DB	0b2H
	DB	030H
	DB	034H
	DB	030H
	DB	0b6H
	DB	030H
	DB	030H
	DB	030H
	DB	0b2H
	DB	030H
	DB	034H
	DB	030H
	DB	0b2H
	DB	030H
	DB	030H
	DB	030H
	DB	0b6H
	DB	030H
	DB	034H
	DB	030H
	DB	0b2H
	DB	030H
	DB	030H
	DB	030H
	DB	0b2H
	DB	030H
	DB	030H
	DB	030H
	DB	0b6H
	DB	030H
	DB	034H
	DB	030H
	DB	0b2H
	DB	030H
	DB	030H
	DB	030H
	DB	0b2H
	DB	030H
	DB	030H
	DB	030H
	DB	0b2H
	DB	030H
	DB	034H
	DB	030H
	DB	0b2H
	DB	030H
	DB	030H
	DB	030H
	DB	0b6H
	DB	030H
	DB	030H
	DB	030H
	DB	0b2H
	DB	030H
	DB	034H
	DB	030H
	DB	0b2H
	DB	030H
	DB	030H
	DB	030H
	DB	0b2H
	DB	030H
	DB	034H
	DB	030H
	DB	0b6H
	DB	030H
	DB	030H
	DB	030H
	DB	0b2H
	DB	030H
	DB	034H
	DB	030H
	DB	0b2H
	DB	030H
	DB	034H
	DB	030H
	DB	0b2H
	DB	030H
	DB	030H
	DB	030H
	DB	0b2H
	DB	030H
	DB	030H
	DB	030H
	DB	0b2H
	DB	030H
	DB	034H
	DB	030H
	DB	0b6H
	DB	030H
	DB	034H
	DB	030H
	DB	0b2H
	DB	030H
	DB	030H
	DB	030H
	DB	0b2H
	DB	030H
	DB	030H
	DB	030H
	DB	0b2H
	DB	030H
	DB	030H
	DB	030H
	DB	0b2H
	DB	030H
	DB	030H
	DB	030H
	DB	0b2H
	DB	030H
	DB	034H
	DB	030H
	DB	0b2H
	DB	030H
	DB	030H
	DB	030H
	DB	0b2H
	DB	030H
	DB	030H
	DB	030H
	DB	0b2H
	DB	030H
	DB	030H
	DB	030H
	DB	0b6H
	DB	030H
	DB	034H
	DB	030H
	DB	0b2H
	DB	030H
	DB	030H
	DB	030H
	DB	0b2H
	DB	030H
	DB	030H
	DB	030H
	DB	0b6H
	DB	030H
	DB	030H
	DB	030H
	DB	0b2H
	DB	030H
	DB	034H
	DB	030H
	DB	0b2H
	DB	030H
	DB	030H
	DB	030H
	DB	0b2H
	DB	030H
	DB	030H
	DB	030H
	DB	0b6H
	DB	030H
	DB	030H
	DB	030H
	DB	0b2H
	DB	030H
	DB	030H
	DB	030H
	DB	0b2H
	DB	030H
	DB	030H
	DB	030H
	DB	0b2H
	DB	030H
	DB	034H
	DB	030H
	DB	0b6H
	DB	030H
	DB	030H
	DB	030H
	DB	0b2H
	DB	030H
	DB	030H
	DB	030H
	DB	0b2H
	DB	030H
	DB	030H
	DB	030H
	DB	0b2H
	DB	030H
	DB	034H
	DB	030H
	DB	0b6H
	DB	030H
	DB	030H
	DB	030H
	DB	0b2H
	DB	038H
	DB	030H
	DB	038H
	DB	0b2H
	DB	030H
	DB	030H
	DB	030H
	DB	0b2H
	DB	030H
	DB	030H
	DB	030H
	DB	0b2H
	DB	030H
	DB	030H
	DB	030H
	DB	0b6H
	DB	038H
	DB	034H
	DB	038H
	DB	0b2H
	DB	030H
	DB	030H
	DB	030H
	DB	0b2H
	DB	030H
	DB	030H
	DB	030H
	DB	0b2H
	DB	030H
	DB	030H
	DB	030H
	DB	0b2H
	DB	038H
	DB	030H
	DB	038H
	DB	0b2H
	DB	030H
	DB	034H
	DB	030H
	DB	0b2H
	DB	030H
	DB	030H
	DB	030H
	DB	0b2H
	DB	038H
	DB	030H
	DB	038H
	DB	0b2H
	DB	030H
	DB	030H
	DB	030H
	DB	0b2H
	DB	030H
	DB	030H
	DB	030H
	DB	0b6H
	DB	038H
	DB	034H
	DB	038H
	DB	069H
	DB	030H
	DB	030H
	DB	030H
	DB	00H
	DB	030H
	DB	030H
	DB	030H
	DB	00H
	DB	030H
	DB	030H
	DB	030H
	DB	04H
	DB	030H
	DB	030H
	DB	030H
	DB	082H
	DB	038H
	DB	030H
	DB	038H
	DB	0b2H
	DB	030H
	DB	034H
	DB	030H
	DB	0b6H
	DB	030H
	DB	030H
	DB	030H
	DB	0b2H
	DB	030H
	DB	030H
	DB	030H
	DB	0b6H
	DB	030H
	DB	034H
	DB	030H
	DB	0b6H
	DB	030H
	DB	034H
	DB	030H
	DB	0b2H
	DB	030H
	DB	030H
	DB	030H
	DB	0b6H
	DB	030H
	DB	030H
	DB	030H
	DB	0b2H
	DB	030H
	DB	034H
	DB	030H
	DB	0b6H
	DB	030H
	DB	030H
	DB	030H
	DB	0b2H
	DB	030H
	DB	030H
	DB	030H
	DB	0b6H
	DB	030H
	DB	030H
	DB	030H
	DB	0b6H
	DB	030H
	DB	030H
	DB	030H
	DB	0b2H
	DB	030H
	DB	030H
	DB	030H
	DB	0b2H
	DB	030H
	DB	034H
	DB	030H
	DB	0b2H
	DB	030H
	DB	030H
	DB	030H
	DB	0b2H
	DB	030H
	DB	030H
	DB	030H
	DB	0b2H
	DB	030H
	DB	034H
	DB	030H
	DB	0b6H
	DB	030H
	DB	030H
	DB	030H
	DB	0b2H
	DB	030H
	DB	030H
	DB	030H
	DB	0b2H
	DB	030H
	DB	030H
	DB	030H
	DB	0b6H
	DB	030H
	DB	030H
	DB	030H
	DB	0b2H
	DB	030H
	DB	030H
	DB	030H
	DB	0b2H
	DB	030H
	DB	034H
	DB	030H
	DB	0b6H
	DB	038H
	DB	030H
	DB	038H
	DB	0b2H
	DB	030H
	DB	030H
	DB	030H
	DB	0b6H
	DB	030H
	DB	034H
	DB	030H
	DB	0b2H
	DB	038H
	DB	030H
	DB	038H
	DB	0b6H
	DB	030H
	DB	030H
	DB	030H
	DB	0b2H
	DB	030H
	DB	030H
	DB	030H
	DB	0b2H
	DB	030H
	DB	030H
	DB	030H
	DB	0b2H
	DB	030H
	DB	030H
	DB	030H
	DB	0b6H
	DB	030H
	DB	034H
	DB	030H
	DB	0b2H
	DB	038H
	DB	030H
	DB	038H
	DB	0b2H
	DB	030H
	DB	030H
	DB	030H
	DB	0b2H
	DB	030H
	DB	034H
	DB	030H
	DB	0b6H
	DB	030H
	DB	030H
	DB	030H
	DB	0b2H
	DB	030H
	DB	030H
	DB	030H
	DB	0b2H
	DB	030H
	DB	030H
	DB	030H
	DB	0b2H
	DB	038H
	DB	030H
	DB	038H
	DB	0b2H
	DB	030H
	DB	030H
	DB	030H
	DB	0b2H
	DB	030H
	DB	030H
	DB	030H
	DB	0b6H
	DB	030H
	DB	030H
	DB	030H
	DB	0b2H
	DB	030H
	DB	030H
	DB	030H
	DB	0b2H
	DB	030H
	DB	034H
	DB	030H
	DB	0b6H
	DB	030H
	DB	030H
	DB	030H
	DB	0b2H
	DB	030H
	DB	030H
	DB	030H
	DB	0b2H
	DB	030H
	DB	034H
	DB	030H
	DB	0b2H
	DB	038H
	DB	034H
	DB	038H
	DB	0b6H
	DB	030H
	DB	030H
	DB	030H
	DB	0b2H
	DB	030H
	DB	034H
	DB	030H
	DB	0b6H
	DB	038H
	DB	034H
	DB	038H
	DB	0b6H
	DB	030H
	DB	030H
	DB	030H
	DB	0b2H
	DB	030H
	DB	030H
	DB	030H
	DB	0b2H
	DB	030H
	DB	030H
	DB	030H
	DB	0b6H
	DB	030H
	DB	030H
	DB	030H
	DB	0b2H
	DB	030H
	DB	030H
	DB	030H
	DB	0b2H
	DB	030H
	DB	034H
	DB	030H
	DB	0b2H
	DB	030H
	DB	030H
	DB	030H
	DB	0b2H
	DB	038H
	DB	030H
	DB	038H
	DB	0b2H
	DB	030H
	DB	034H
	DB	030H
	DB	0b6H
	DB	030H
	DB	030H
	DB	030H
	DB	0b2H
	DB	038H
	DB	030H
	DB	038H
	DB	0b2H
	DB	030H
	DB	030H
	DB	030H
	DB	0b6H
	DB	030H
	DB	030H
	DB	030H
	DB	0b2H
	DB	030H
	DB	030H
	DB	030H
	DB	0b2H
	DB	030H
	DB	030H
	DB	030H
	DB	0b6H
	DB	030H
	DB	030H
	DB	030H
	DB	0b2H
	DB	030H
	DB	034H
	DB	030H
	DB	0b2H
	DB	038H
	DB	030H
	DB	038H
	DB	0b2H
	DB	030H
	DB	030H
	DB	030H
	DB	0b6H
	DB	030H
	DB	030H
	DB	030H
	DB	0b2H
	DB	030H
	DB	030H
	DB	030H
	DB	0b6H
	DB	030H
	DB	030H
	DB	030H
	DB	0b2H
	DB	030H
	DB	030H
	DB	030H
	DB	0b2H
	DB	030H
	DB	030H
	DB	030H
	DB	0b2H
	DB	030H
	DB	030H
	DB	030H
	DB	0b6H
	DB	038H
	DB	034H
	DB	038H
	DB	0b2H
	DB	030H
	DB	034H
	DB	030H
	DB	0b6H
	DB	030H
	DB	030H
	DB	030H
	DB	0b6H
	DB	038H
	DB	030H
	DB	038H
	DB	0b2H
	DB	030H
	DB	030H
	DB	030H
	DB	0b6H
	DB	030H
	DB	034H
	DB	030H
	DB	0b2H
	DB	030H
	DB	030H
	DB	030H
	DB	0b2H
	DB	030H
	DB	030H
	DB	030H
	DB	0b2H
	DB	030H
	DB	030H
	DB	030H
	DB	0b6H
	DB	030H
	DB	034H
	DB	030H
	DB	0b2H
	DB	038H
	DB	030H
	DB	038H
	DB	0b2H
	DB	030H
	DB	030H
	DB	030H
	DB	0b6H
	DB	030H
	DB	030H
	DB	030H
	DB	0b2H
	DB	030H
	DB	034H
	DB	030H
	DB	0b6H
	DB	030H
	DB	030H
	DB	030H
	DB	0b2H
	DB	030H
	DB	030H
	DB	030H
	DB	0b2H
	DB	030H
	DB	034H
	DB	030H
	DB	0b2H
	DB	030H
	DB	030H
	DB	030H
	DB	0b2H
	DB	038H
	DB	030H
	DB	038H
	DB	0b2H
	DB	030H
	DB	034H
	DB	030H
	DB	0b6H
	DB	030H
	DB	030H
	DB	030H
	DB	0b2H
	DB	038H
	DB	030H
	DB	038H
	DB	0b2H
	DB	030H
	DB	030H
	DB	030H
	DB	0b2H
	DB	030H
	DB	034H
	DB	030H
	DB	0b2H
	DB	030H
	DB	030H
	DB	030H
	DB	0b6H
	DB	030H
	DB	030H
	DB	030H
	DB	0b2H
	DB	030H
	DB	030H
	DB	030H
	DB	0b2H
	DB	030H
	DB	030H
	DB	030H
	DB	0b2H
	DB	030H
	DB	030H
	DB	030H
	DB	0b6H
	DB	030H
	DB	034H
	DB	030H
	DB	0b2H
	DB	030H
	DB	030H
	DB	030H
	DB	0b2H
	DB	030H
	DB	030H
	DB	030H
	DB	0b6H
	DB	030H
	DB	030H
	DB	030H
	DB	0b6H
	DB	030H
	DB	030H
	DB	030H
	DB	0b2H
	DB	030H
	DB	034H
	DB	030H
	DB	0b2H
	DB	030H
	DB	030H
	DB	030H
	DB	0b6H
	DB	030H
	DB	030H
	DB	030H
	DB	0b2H
	DB	030H
	DB	030H
	DB	030H
	DB	086H
	DB	030H
	DB	030H
	DB	030H
	DB	04H
	DB	030H
	DB	030H
	DB	030H
	DB	00H
	DB	030H
	DB	030H
	DB	030H
	DB	00H
	DB	030H
	DB	034H
	DB	030H
	DB	00H
	DB	030H
	DB	030H
	DB	030H
	DB	04H
	DB	030H
	DB	030H
	DB	030H
	DB	069H
	DB	030H
	DB	030H
	DB	030H
	DB	0b2H
	DB	030H
	DB	034H
	DB	030H
	DB	0b2H
	DB	038H
	DB	030H
	DB	038H
	DB	0b2H
	DB	030H
	DB	030H
	DB	030H
	DB	0b2H
	DB	030H
	DB	030H
	DB	030H
	DB	0b2H
	DB	038H
	DB	030H
	DB	038H
	DB	0b2H
	DB	030H
	DB	030H
	DB	030H
	DB	0b6H
	DB	030H
	DB	030H
	DB	030H
	DB	0b2H
	DB	030H
	DB	034H
	DB	030H
	DB	0b2H
	DB	038H
	DB	030H
	DB	038H
	DB	0b2H
	DB	030H
	DB	034H
	DB	030H
	DB	0b2H
	DB	030H
	DB	030H
	DB	030H
	DB	0b6H
	DB	038H
	DB	030H
	DB	038H
	DB	0b2H
	DB	030H
	DB	030H
	DB	030H
	DB	0b6H
	DB	030H
	DB	034H
	DB	030H
	DB	0b2H
	DB	030H
	DB	030H
	DB	030H
	DB	0b2H
	DB	030H
	DB	030H
	DB	030H
	DB	0b2H
	DB	030H
	DB	034H
	DB	030H
	DB	0b6H
	DB	030H
	DB	030H
	DB	030H
	DB	0b2H
	DB	038H
	DB	030H
	DB	038H
	DB	0b2H
	DB	030H
	DB	034H
	DB	030H
	DB	0b2H
	DB	030H
	DB	030H
	DB	030H
	DB	0b2H
	DB	030H
	DB	030H
	DB	030H
	DB	0b2H
	DB	030H
	DB	030H
	DB	030H
	DB	0b2H
	DB	030H
	DB	034H
	DB	030H
	DB	0b2H
	DB	030H
	DB	030H
	DB	030H
	DB	0b2H
	DB	030H
	DB	030H
	DB	030H
	DB	0b6H
	DB	030H
	DB	034H
	DB	030H
	DB	0b2H
	DB	030H
	DB	030H
	DB	030H
	DB	0b2H
	DB	030H
	DB	030H
	DB	030H
	DB	0b2H
	DB	030H
	DB	034H
	DB	030H
	DB	0b2H
	DB	030H
	DB	030H
	DB	030H
	DB	0b2H
	DB	030H
	DB	030H
	DB	030H
	DB	0b2H
	DB	030H
	DB	034H
	DB	030H
	DB	0b2H
	DB	038H
	DB	030H
	DB	038H
	DB	0b2H
	DB	030H
	DB	034H
	DB	030H
	DB	0b6H
	DB	030H
	DB	030H
	DB	030H
	DB	0b2H
	DB	030H
	DB	030H
	DB	030H
	DB	0b2H
	DB	030H
	DB	034H
	DB	030H
	DB	0b6H
	DB	030H
	DB	034H
	DB	030H
	DB	0b2H
	DB	038H
	DB	030H
	DB	038H
	DB	0b2H
	DB	030H
	DB	030H
	DB	030H
	DB	0b6H
	DB	030H
	DB	030H
	DB	030H
	DB	0b2H
	DB	038H
	DB	034H
	DB	038H
	DB	0b2H
	DB	030H
	DB	030H
	DB	030H
	DB	0b2H
	DB	030H
	DB	030H
	DB	030H
	DB	0b2H
	DB	030H
	DB	030H
	DB	030H
	DB	0b6H
	DB	030H
	DB	030H
	DB	030H
	DB	0b2H
	DB	030H
	DB	030H
	DB	030H
	DB	0b2H
	DB	030H
	DB	030H
	DB	030H
	DB	0b2H
	DB	030H
	DB	030H
	DB	030H
	DB	0b2H
	DB	030H
	DB	030H
	DB	030H
	DB	0b2H
	DB	038H
	DB	034H
	DB	038H
	DB	0b2H
	DB	030H
	DB	030H
	DB	030H
	DB	0b2H
	DB	030H
	DB	030H
	DB	030H
	DB	0b6H
	DB	038H
	DB	030H
	DB	038H
	DB	0b2H
	DB	030H
	DB	030H
	DB	030H
	DB	0b6H
	DB	030H
	DB	030H
	DB	030H
	DB	0b2H
	DB	030H
	DB	030H
	DB	030H
	DB	0b2H
	DB	030H
	DB	030H
	DB	030H
	DB	0b2H
	DB	030H
	DB	030H
	DB	030H
	DB	0b2H
	DB	030H
	DB	034H
	DB	030H
	DB	0b6H
	DB	030H
	DB	030H
	DB	030H
	DB	0b2H
	DB	030H
	DB	030H
	DB	030H
	DB	0b2H
	DB	038H
	DB	034H
	DB	038H
	DB	0b2H
	DB	030H
	DB	030H
	DB	030H
	DB	0b2H
	DB	030H
	DB	030H
	DB	030H
	DB	0b6H
	DB	030H
	DB	030H
	DB	030H
	DB	0b2H
	DB	030H
	DB	030H
	DB	030H
	DB	0b2H
	DB	030H
	DB	030H
	DB	030H
	DB	0b2H
	DB	038H
	DB	030H
	DB	038H
	DB	0b2H
	DB	030H
	DB	034H
	DB	030H
	DB	0b2H
	DB	030H
	DB	030H
	DB	030H
	DB	0b6H
	DB	038H
	DB	034H
	DB	038H
	DB	0b2H
	DB	030H
	DB	030H
	DB	030H
	DB	0b2H
	DB	030H
	DB	030H
	DB	030H
	DB	0b2H
	DB	030H
	DB	030H
	DB	030H
	DB	0b2H
	DB	030H
	DB	030H
	DB	030H
	DB	0b2H
	DB	030H
	DB	034H
	DB	030H
	DB	0b2H
	DB	030H
	DB	030H
	DB	030H
	DB	0b2H
	DB	030H
	DB	030H
	DB	030H
	DB	0b2H
	DB	030H
	DB	030H
	DB	030H
	DB	0b6H
	DB	038H
	DB	034H
	DB	038H
	DB	0b2H
	DB	030H
	DB	030H
	DB	030H
	DB	0b2H
	DB	030H
	DB	030H
	DB	030H
	DB	0b2H
	DB	030H
	DB	030H
	DB	030H
	DB	0b2H
	DB	030H
	DB	034H
	DB	030H
	DB	0b2H
	DB	030H
	DB	030H
	DB	030H
	DB	0b2H
	DB	038H
	DB	030H
	DB	038H
	DB	0b2H
	DB	030H
	DB	030H
	DB	030H
	DB	0b2H
	DB	030H
	DB	034H
	DB	030H
	DB	0b2H
	DB	038H
	DB	030H
	DB	038H
	DB	0b6H
	DB	030H
	DB	030H
	DB	030H
	DB	0b6H
	DB	030H
	DB	030H
	DB	030H
	DB	0b2H
	DB	030H
	DB	030H
	DB	030H
	DB	0b2H
	DB	030H
	DB	030H
	DB	030H
	DB	0b2H
	DB	030H
	DB	034H
	DB	030H
	DB	0b6H
	DB	030H
	DB	030H
	DB	030H
	DB	0b2H
	DB	030H
	DB	030H
	DB	030H
	DB	0b2H
	DB	030H
	DB	030H
	DB	030H
	DB	0b6H
	DB	030H
	DB	034H
	DB	030H
	DB	0b2H
	DB	030H
	DB	034H
	DB	030H
	DB	0b2H
	DB	038H
	DB	030H
	DB	038H
	DB	0b6H
	DB	030H
	DB	030H
	DB	030H
	DB	0b2H
	DB	030H
	DB	034H
	DB	030H
	DB	0b2H
	DB	030H
	DB	030H
	DB	030H
	DB	0b2H
	DB	038H
	DB	030H
	DB	038H
	DB	0b2H
	DB	030H
	DB	034H
	DB	030H
	DB	0b6H
	DB	030H
	DB	030H
	DB	030H
	DB	0b2H
	DB	030H
	DB	030H
	DB	030H
	DB	0b2H
	DB	030H
	DB	030H
	DB	030H
	DB	0b6H
	DB	030H
	DB	034H
	DB	030H
	DB	0b2H
	DB	038H
	DB	030H
	DB	038H
	DB	06dH
	DB	030H
	DB	034H
	DB	030H
	DB	04H
	DB	030H
	DB	030H
	DB	030H
	DB	00H
	DB	030H
	DB	030H
	DB	030H
	DB	00H
	DB	030H
	DB	030H
	DB	030H
	DB	00H
	DB	030H
	DB	030H
	DB	030H
	DB	00H
	DB	030H
	DB	034H
	DB	030H
	DB	00H
	DB	030H
	DB	030H
	DB	030H
	DB	00H
	DB	030H
	DB	030H
	DB	030H
	DB	020H
	DB	030H
	DB	030H
	DB	030H
	DB	065H
	DB	030H
	DB	030H
	DB	030H
	DB	09aH
	DB	030H
	DB	030H
	DB	030H
	DB	0aeH
	DB	030H
	DB	034H
	DB	030H
	DB	0b2H
	DB	030H
	DB	030H
	DB	030H
	DB	0b2H
	DB	030H
	DB	030H
	DB	030H
	DB	0b2H
	DB	030H
	DB	034H
	DB	030H
	DB	0b2H
	DB	030H
	DB	030H
	DB	030H
	DB	0b2H
	DB	030H
	DB	030H
	DB	030H
	DB	0b2H
	DB	030H
	DB	030H
	DB	030H
	DB	0b2H
	DB	030H
	DB	034H
	DB	030H
	DB	0b2H
	DB	030H
	DB	030H
	DB	030H
	DB	0b2H
	DB	030H
	DB	030H
	DB	030H
	DB	0b6H
	DB	030H
	DB	030H
	DB	030H
	DB	0b2H
	DB	038H
	DB	030H
	DB	038H
	DB	0b2H
	DB	030H
	DB	030H
	DB	030H
	DB	0b6H
	DB	030H
	DB	034H
	DB	030H
	DB	0b2H
	DB	030H
	DB	030H
	DB	030H
	DB	0b2H
	DB	030H
	DB	030H
	DB	030H
	DB	0b6H
	DB	030H
	DB	034H
	DB	030H
	DB	0b2H
	DB	030H
	DB	030H
	DB	030H
	DB	0b6H
	DB	030H
	DB	030H
	DB	030H
	DB	0b2H
	DB	030H
	DB	030H
	DB	030H
	DB	0b2H
	DB	030H
	DB	030H
	DB	030H
	DB	0b6H
	DB	030H
	DB	030H
	DB	030H
	DB	0b2H
	DB	030H
	DB	030H
	DB	030H
	DB	0b2H
	DB	038H
	DB	034H
	DB	038H
	DB	0b6H
	DB	030H
	DB	030H
	DB	030H
	DB	0b2H
	DB	030H
	DB	030H
	DB	030H
	DB	0b6H
	DB	038H
	DB	030H
	DB	038H
	DB	0b2H
	DB	030H
	DB	030H
	DB	030H
	DB	0b6H
	DB	030H
	DB	030H
	DB	030H
	DB	0b6H
	DB	030H
	DB	030H
	DB	030H
	DB	0b2H
	DB	030H
	DB	030H
	DB	030H
	DB	0b2H
	DB	030H
	DB	030H
	DB	030H
	DB	0b2H
	DB	030H
	DB	034H
	DB	030H
	DB	0b6H
	DB	038H
	DB	030H
	DB	038H
	DB	0b2H
	DB	030H
	DB	030H
	DB	030H
	DB	0b2H
	DB	030H
	DB	030H
	DB	030H
	DB	0b2H
	DB	030H
	DB	034H
	DB	030H
	DB	0b2H
	DB	030H
	DB	030H
	DB	030H
	DB	0b2H
	DB	030H
	DB	030H
	DB	030H
	DB	0b6H
	DB	030H
	DB	030H
	DB	030H
	DB	0b2H
	DB	030H
	DB	034H
	DB	030H
	DB	0b2H
	DB	038H
	DB	030H
	DB	038H
	DB	0b6H
	DB	030H
	DB	030H
	DB	030H
	DB	0b2H
	DB	030H
	DB	030H
	DB	030H
	DB	0b2H
	DB	030H
	DB	034H
	DB	030H
	DB	0b2H
	DB	030H
	DB	030H
	DB	030H
	DB	0b2H
	DB	030H
	DB	030H
	DB	030H
	DB	0b6H
	DB	030H
	DB	030H
	DB	030H
	DB	0b2H
	DB	030H
	DB	034H
	DB	030H
	DB	0b2H
	DB	030H
	DB	030H
	DB	030H
	DB	0b6H
	DB	030H
	DB	034H
	DB	030H
	DB	0b2H
	DB	030H
	DB	034H
	DB	030H
	DB	0b2H
	DB	030H
	DB	030H
	DB	030H
	DB	0b2H
	DB	030H
	DB	034H
	DB	030H
	DB	0b6H
	DB	030H
	DB	030H
	DB	030H
	DB	0b2H
	DB	030H
	DB	030H
	DB	030H
	DB	0b2H
	DB	030H
	DB	034H
	DB	030H
	DB	0b6H
	DB	030H
	DB	030H
	DB	030H
	DB	0b2H
	DB	030H
	DB	030H
	DB	030H
	DB	0b2H
	DB	030H
	DB	034H
	DB	030H
	DB	0b6H
	DB	030H
	DB	030H
	DB	030H
	DB	0b2H
	DB	030H
	DB	030H
	DB	030H
	DB	0b2H
	DB	030H
	DB	034H
	DB	030H
	DB	0b2H
	DB	038H
	DB	030H
	DB	038H
	DB	0b6H
	DB	030H
	DB	034H
	DB	030H
	DB	0b2H
	DB	030H
	DB	030H
	DB	030H
	DB	0b2H
	DB	030H
	DB	034H
	DB	030H
	DB	0b6H
	DB	030H
	DB	030H
	DB	030H
	DB	0b2H
	DB	030H
	DB	030H
	DB	030H
	DB	0b2H
	DB	030H
	DB	030H
	DB	030H
	DB	0b6H
	DB	030H
	DB	034H
	DB	030H
	DB	0b2H
	DB	030H
	DB	030H
	DB	030H
	DB	0b2H
	DB	030H
	DB	030H
	DB	030H
	DB	0b6H
	DB	030H
	DB	030H
	DB	030H
	DB	0b2H
	DB	030H
	DB	030H
	DB	030H
	DB	0b2H
	DB	030H
	DB	034H
	DB	030H
	DB	0b6H
	DB	030H
	DB	030H
	DB	030H
	DB	0b2H
	DB	030H
	DB	030H
	DB	030H
	DB	0b2H
	DB	030H
	DB	030H
	DB	030H
	DB	0b6H
	DB	030H
	DB	034H
	DB	030H
	DB	0b2H
	DB	030H
	DB	030H
	DB	030H
	DB	0b6H
	DB	038H
	DB	030H
	DB	038H
	DB	0b2H
	DB	030H
	DB	030H
	DB	030H
	DB	0b6H
	DB	030H
	DB	034H
	DB	030H
	DB	0b2H
	DB	030H
	DB	030H
	DB	030H
	DB	0b6H
	DB	030H
	DB	030H
	DB	030H
	DB	0b2H
	DB	030H
	DB	030H
	DB	030H
	DB	0b2H
	DB	030H
	DB	034H
	DB	030H
	DB	0b2H
	DB	030H
	DB	030H
	DB	030H
	DB	0b2H
	DB	030H
	DB	034H
	DB	030H
	DB	0b6H
	DB	030H
	DB	030H
	DB	030H
	DB	0b2H
	DB	030H
	DB	030H
	DB	030H
	DB	0b2H
	DB	030H
	DB	030H
	DB	030H
	DB	0b2H
	DB	030H
	DB	034H
	DB	030H
	DB	0b6H
	DB	030H
	DB	030H
	DB	030H
	DB	0b2H
	DB	038H
	DB	030H
	DB	038H
	DB	0b2H
	DB	030H
	DB	030H
	DB	030H
	DB	0b2H
	DB	030H
	DB	030H
	DB	030H
	DB	0b2H
	DB	030H
	DB	030H
	DB	030H
	DB	0b2H
	DB	030H
	DB	034H
	DB	030H
	DB	0b6H
	DB	030H
	DB	030H
	DB	030H
	DB	0b2H
	DB	030H
	DB	030H
	DB	030H
	DB	0b2H
	DB	030H
	DB	030H
	DB	030H
	DB	0b6H
	DB	030H
	DB	034H
	DB	030H
	DB	0b2H
	DB	030H
	DB	030H
	DB	030H
	DB	0aaH
	DB	038H
	DB	030H
	DB	038H
	DB	096H
	DB	030H
	DB	034H
	DB	030H
	DB	065H
	DB	030H
	DB	030H
	DB	030H
	DB	020H
	DB	030H
	DB	030H
	DB	030H
	DB	00H
	DB	030H
	DB	030H
	DB	030H
	DB	00H
	DB	030H
	DB	034H
	DB	030H
	DB	00H
	DB	030H
	DB	030H
	DB	030H
	DB	00H
CONST	ENDS
END
