; Listing generated by Microsoft (R) Optimizing Compiler Version 19.31.31104.0 

	TITLE	F:\MyProject\STM32F769_Keyboard\TouchGFX\build\Debug\obj\image_pinyin_table.obj
	.686P
	.XMM
	include listing.inc
	.model	flat

INCLUDELIB MSVCRTD
INCLUDELIB OLDNAMES

PUBLIC	?image_pinyin_table@@3QBEB			; image_pinyin_table
msvcjmc	SEGMENT
__4DF99823_Config@hpp DB 01H
__5FEEE1E9_image_pinyin_table@cpp DB 01H
msvcjmc	ENDS
CONST	SEGMENT
?image_pinyin_table@@3QBEB DB 018H			; image_pinyin_table
	DB	01cH
	DB	018H
	DB	00H
	DB	018H
	DB	01cH
	DB	018H
	DB	00H
	DB	018H
	DB	01cH
	DB	018H
	DB	00H
	DB	018H
	DB	01cH
	DB	018H
	DB	00H
	DB	018H
	DB	01cH
	DB	018H
	DB	028H
	DB	018H
	DB	01cH
	DB	018H
	DB	08eH
	DB	018H
	DB	01cH
	DB	018H
	DB	0d7H
	DB	018H
	DB	01cH
	DB	018H
	DB	0f7H
	DB	018H
	DB	01cH
	DB	018H
	DB	0ffH
	DB	018H
	DB	01cH
	DB	018H
	DB	0ffH
	DB	018H
	DB	01cH
	DB	018H
	DB	0ffH
	DB	018H
	DB	01cH
	DB	018H
	DB	0ffH
	DB	018H
	DB	01cH
	DB	018H
	DB	0ffH
	DB	018H
	DB	01cH
	DB	018H
	DB	0ffH
	DB	018H
	DB	01cH
	DB	018H
	DB	0ffH
	DB	018H
	DB	01cH
	DB	018H
	DB	0ffH
	DB	018H
	DB	01cH
	DB	018H
	DB	0ffH
	DB	018H
	DB	01cH
	DB	018H
	DB	0ffH
	DB	018H
	DB	01cH
	DB	018H
	DB	0ffH
	DB	018H
	DB	01cH
	DB	018H
	DB	0ffH
	DB	018H
	DB	01cH
	DB	018H
	DB	0ffH
	DB	018H
	DB	01cH
	DB	018H
	DB	0ffH
	DB	018H
	DB	01cH
	DB	018H
	DB	0ffH
	DB	018H
	DB	01cH
	DB	018H
	DB	0ffH
	DB	018H
	DB	01cH
	DB	018H
	DB	0ffH
	DB	018H
	DB	01cH
	DB	018H
	DB	0ffH
	DB	018H
	DB	01cH
	DB	018H
	DB	0ffH
	DB	018H
	DB	01cH
	DB	018H
	DB	0ffH
	DB	018H
	DB	01cH
	DB	018H
	DB	0ffH
	DB	018H
	DB	01cH
	DB	018H
	DB	0ffH
	DB	018H
	DB	01cH
	DB	018H
	DB	0ffH
	DB	018H
	DB	01cH
	DB	018H
	DB	0ffH
	DB	018H
	DB	01cH
	DB	018H
	DB	0ffH
	DB	018H
	DB	01cH
	DB	018H
	DB	0ffH
	DB	018H
	DB	01cH
	DB	018H
	DB	0ffH
	DB	018H
	DB	01cH
	DB	018H
	DB	0ffH
	DB	018H
	DB	01cH
	DB	018H
	DB	0ffH
	DB	018H
	DB	01cH
	DB	018H
	DB	0ffH
	DB	018H
	DB	01cH
	DB	018H
	DB	0ffH
	DB	018H
	DB	01cH
	DB	018H
	DB	0ffH
	DB	018H
	DB	01cH
	DB	018H
	DB	0ffH
	DB	018H
	DB	01cH
	DB	018H
	DB	0ffH
	DB	018H
	DB	01cH
	DB	018H
	DB	0ffH
	DB	018H
	DB	01cH
	DB	018H
	DB	0ffH
	DB	018H
	DB	01cH
	DB	018H
	DB	0ffH
	DB	018H
	DB	01cH
	DB	018H
	DB	0ffH
	DB	018H
	DB	01cH
	DB	018H
	DB	0ffH
	DB	018H
	DB	01cH
	DB	018H
	DB	0ffH
	DB	018H
	DB	01cH
	DB	018H
	DB	0ffH
	DB	018H
	DB	01cH
	DB	018H
	DB	0ffH
	DB	018H
	DB	01cH
	DB	018H
	DB	0ffH
	DB	018H
	DB	01cH
	DB	018H
	DB	0ffH
	DB	018H
	DB	01cH
	DB	018H
	DB	0ffH
	DB	018H
	DB	01cH
	DB	018H
	DB	0ffH
	DB	018H
	DB	01cH
	DB	018H
	DB	0ffH
	DB	018H
	DB	01cH
	DB	018H
	DB	0ffH
	DB	018H
	DB	01cH
	DB	018H
	DB	0ffH
	DB	018H
	DB	01cH
	DB	018H
	DB	0ffH
	DB	018H
	DB	01cH
	DB	018H
	DB	0ffH
	DB	018H
	DB	01cH
	DB	018H
	DB	0ffH
	DB	018H
	DB	01cH
	DB	018H
	DB	0ffH
	DB	018H
	DB	01cH
	DB	018H
	DB	0ffH
	DB	018H
	DB	01cH
	DB	018H
	DB	0ffH
	DB	018H
	DB	01cH
	DB	018H
	DB	0ffH
	DB	018H
	DB	01cH
	DB	018H
	DB	0ffH
	DB	018H
	DB	01cH
	DB	018H
	DB	0ffH
	DB	018H
	DB	01cH
	DB	018H
	DB	0ffH
	DB	018H
	DB	01cH
	DB	018H
	DB	0ffH
	DB	018H
	DB	01cH
	DB	018H
	DB	0ffH
	DB	018H
	DB	01cH
	DB	018H
	DB	0ffH
	DB	018H
	DB	01cH
	DB	018H
	DB	0ffH
	DB	018H
	DB	01cH
	DB	018H
	DB	0ffH
	DB	018H
	DB	01cH
	DB	018H
	DB	0ffH
	DB	018H
	DB	01cH
	DB	018H
	DB	0ffH
	DB	018H
	DB	01cH
	DB	018H
	DB	0ffH
	DB	018H
	DB	01cH
	DB	018H
	DB	0ffH
	DB	018H
	DB	01cH
	DB	018H
	DB	0ffH
	DB	018H
	DB	01cH
	DB	018H
	DB	0ffH
	DB	018H
	DB	01cH
	DB	018H
	DB	0ffH
	DB	018H
	DB	01cH
	DB	018H
	DB	0ffH
	DB	018H
	DB	01cH
	DB	018H
	DB	0ffH
	DB	018H
	DB	01cH
	DB	018H
	DB	0ffH
	DB	018H
	DB	01cH
	DB	018H
	DB	0ffH
	DB	018H
	DB	01cH
	DB	018H
	DB	0ffH
	DB	018H
	DB	01cH
	DB	018H
	DB	0ffH
	DB	018H
	DB	01cH
	DB	018H
	DB	0ffH
	DB	018H
	DB	01cH
	DB	018H
	DB	0ffH
	DB	018H
	DB	01cH
	DB	018H
	DB	0ffH
	DB	018H
	DB	01cH
	DB	018H
	DB	0ffH
	DB	018H
	DB	01cH
	DB	018H
	DB	0ffH
	DB	018H
	DB	01cH
	DB	018H
	DB	0ffH
	DB	018H
	DB	01cH
	DB	018H
	DB	0ffH
	DB	018H
	DB	01cH
	DB	018H
	DB	0ffH
	DB	018H
	DB	01cH
	DB	018H
	DB	0ffH
	DB	018H
	DB	01cH
	DB	018H
	DB	0ffH
	DB	018H
	DB	01cH
	DB	018H
	DB	0ffH
	DB	018H
	DB	01cH
	DB	018H
	DB	0ffH
	DB	018H
	DB	01cH
	DB	018H
	DB	0ffH
	DB	018H
	DB	01cH
	DB	018H
	DB	0ffH
	DB	018H
	DB	01cH
	DB	018H
	DB	0ffH
	DB	018H
	DB	01cH
	DB	018H
	DB	0ffH
	DB	018H
	DB	01cH
	DB	018H
	DB	0ffH
	DB	018H
	DB	01cH
	DB	018H
	DB	0ffH
	DB	018H
	DB	01cH
	DB	018H
	DB	0ffH
	DB	018H
	DB	01cH
	DB	018H
	DB	0ffH
	DB	018H
	DB	01cH
	DB	018H
	DB	0ffH
	DB	018H
	DB	01cH
	DB	018H
	DB	0ffH
	DB	018H
	DB	01cH
	DB	018H
	DB	0ffH
	DB	018H
	DB	01cH
	DB	018H
	DB	0ffH
	DB	018H
	DB	01cH
	DB	018H
	DB	0ffH
	DB	018H
	DB	01cH
	DB	018H
	DB	0ffH
	DB	018H
	DB	01cH
	DB	018H
	DB	0ffH
	DB	018H
	DB	01cH
	DB	018H
	DB	0ffH
	DB	018H
	DB	01cH
	DB	018H
	DB	0ffH
	DB	018H
	DB	01cH
	DB	018H
	DB	0ffH
	DB	018H
	DB	01cH
	DB	018H
	DB	0ffH
	DB	018H
	DB	01cH
	DB	018H
	DB	0ffH
	DB	018H
	DB	01cH
	DB	018H
	DB	0ffH
	DB	018H
	DB	01cH
	DB	018H
	DB	0ffH
	DB	018H
	DB	01cH
	DB	018H
	DB	0ffH
	DB	018H
	DB	01cH
	DB	018H
	DB	0ffH
	DB	018H
	DB	01cH
	DB	018H
	DB	0ffH
	DB	018H
	DB	01cH
	DB	018H
	DB	0f7H
	DB	018H
	DB	01cH
	DB	018H
	DB	0d7H
	DB	018H
	DB	01cH
	DB	018H
	DB	08eH
	DB	018H
	DB	01cH
	DB	018H
	DB	028H
	DB	018H
	DB	01cH
	DB	018H
	DB	00H
	DB	018H
	DB	01cH
	DB	018H
	DB	00H
	DB	0f8H
	DB	0fcH
	DB	0f8H
	DB	00H
	DB	0f8H
	DB	0fcH
	DB	0f8H
	DB	00H
	DB	018H
	DB	01cH
	DB	018H
	DB	00H
	DB	020H
	DB	018H
	DB	018H
	DB	00H
	DB	020H
	DB	01cH
	DB	018H
	DB	04H
	DB	018H
	DB	018H
	DB	018H
	DB	096H
	DB	020H
	DB	01cH
	DB	018H
	DB	0fbH
	DB	020H
	DB	018H
	DB	018H
	DB	0ffH
	DB	018H
	DB	01cH
	DB	018H
	DB	0ffH
	DB	020H
	DB	018H
	DB	018H
	DB	0ffH
	DB	020H
	DB	01cH
	DB	018H
	DB	0ffH
	DB	018H
	DB	018H
	DB	018H
	DB	0ffH
	DB	020H
	DB	01cH
	DB	018H
	DB	0ffH
	DB	020H
	DB	018H
	DB	018H
	DB	0ffH
	DB	018H
	DB	01cH
	DB	018H
	DB	0ffH
	DB	020H
	DB	018H
	DB	018H
	DB	0ffH
	DB	020H
	DB	01cH
	DB	018H
	DB	0ffH
	DB	018H
	DB	018H
	DB	018H
	DB	0ffH
	DB	020H
	DB	01cH
	DB	018H
	DB	0ffH
	DB	020H
	DB	018H
	DB	018H
	DB	0ffH
	DB	018H
	DB	01cH
	DB	018H
	DB	0ffH
	DB	020H
	DB	018H
	DB	018H
	DB	0ffH
	DB	020H
	DB	01cH
	DB	018H
	DB	0ffH
	DB	018H
	DB	018H
	DB	018H
	DB	0ffH
	DB	020H
	DB	01cH
	DB	018H
	DB	0ffH
	DB	020H
	DB	018H
	DB	018H
	DB	0ffH
	DB	018H
	DB	01cH
	DB	018H
	DB	0ffH
	DB	020H
	DB	018H
	DB	018H
	DB	0ffH
	DB	020H
	DB	01cH
	DB	018H
	DB	0ffH
	DB	018H
	DB	018H
	DB	018H
	DB	0ffH
	DB	020H
	DB	01cH
	DB	018H
	DB	0ffH
	DB	020H
	DB	018H
	DB	018H
	DB	0ffH
	DB	018H
	DB	01cH
	DB	018H
	DB	0ffH
	DB	020H
	DB	018H
	DB	018H
	DB	0ffH
	DB	020H
	DB	01cH
	DB	018H
	DB	0ffH
	DB	018H
	DB	018H
	DB	018H
	DB	0ffH
	DB	020H
	DB	01cH
	DB	018H
	DB	0ffH
	DB	020H
	DB	018H
	DB	018H
	DB	0ffH
	DB	018H
	DB	01cH
	DB	018H
	DB	0ffH
	DB	020H
	DB	018H
	DB	018H
	DB	0ffH
	DB	020H
	DB	01cH
	DB	018H
	DB	0ffH
	DB	018H
	DB	018H
	DB	018H
	DB	0ffH
	DB	020H
	DB	01cH
	DB	018H
	DB	0ffH
	DB	020H
	DB	018H
	DB	018H
	DB	0ffH
	DB	018H
	DB	01cH
	DB	018H
	DB	0ffH
	DB	020H
	DB	018H
	DB	018H
	DB	0ffH
	DB	020H
	DB	01cH
	DB	018H
	DB	0ffH
	DB	018H
	DB	018H
	DB	018H
	DB	0ffH
	DB	020H
	DB	01cH
	DB	018H
	DB	0ffH
	DB	020H
	DB	018H
	DB	018H
	DB	0ffH
	DB	018H
	DB	01cH
	DB	018H
	DB	0ffH
	DB	020H
	DB	018H
	DB	018H
	DB	0ffH
	DB	020H
	DB	01cH
	DB	018H
	DB	0ffH
	DB	018H
	DB	018H
	DB	018H
	DB	0ffH
	DB	020H
	DB	01cH
	DB	018H
	DB	0ffH
	DB	020H
	DB	018H
	DB	018H
	DB	0ffH
	DB	018H
	DB	01cH
	DB	018H
	DB	0ffH
	DB	020H
	DB	018H
	DB	018H
	DB	0ffH
	DB	020H
	DB	01cH
	DB	018H
	DB	0ffH
	DB	018H
	DB	018H
	DB	018H
	DB	0ffH
	DB	020H
	DB	01cH
	DB	018H
	DB	0ffH
	DB	020H
	DB	018H
	DB	018H
	DB	0ffH
	DB	018H
	DB	01cH
	DB	018H
	DB	0ffH
	DB	020H
	DB	018H
	DB	018H
	DB	0ffH
	DB	020H
	DB	01cH
	DB	018H
	DB	0ffH
	DB	018H
	DB	018H
	DB	018H
	DB	0ffH
	DB	020H
	DB	01cH
	DB	018H
	DB	0ffH
	DB	020H
	DB	018H
	DB	018H
	DB	0ffH
	DB	018H
	DB	01cH
	DB	018H
	DB	0ffH
	DB	020H
	DB	018H
	DB	018H
	DB	0ffH
	DB	020H
	DB	01cH
	DB	018H
	DB	0ffH
	DB	018H
	DB	018H
	DB	018H
	DB	0ffH
	DB	020H
	DB	01cH
	DB	018H
	DB	0ffH
	DB	020H
	DB	018H
	DB	018H
	DB	0ffH
	DB	018H
	DB	01cH
	DB	018H
	DB	0ffH
	DB	020H
	DB	018H
	DB	018H
	DB	0ffH
	DB	020H
	DB	01cH
	DB	018H
	DB	0ffH
	DB	018H
	DB	018H
	DB	018H
	DB	0ffH
	DB	020H
	DB	01cH
	DB	018H
	DB	0ffH
	DB	020H
	DB	018H
	DB	018H
	DB	0ffH
	DB	018H
	DB	01cH
	DB	018H
	DB	0ffH
	DB	020H
	DB	018H
	DB	018H
	DB	0ffH
	DB	020H
	DB	01cH
	DB	018H
	DB	0ffH
	DB	018H
	DB	018H
	DB	018H
	DB	0ffH
	DB	020H
	DB	01cH
	DB	018H
	DB	0ffH
	DB	020H
	DB	018H
	DB	018H
	DB	0ffH
	DB	018H
	DB	01cH
	DB	018H
	DB	0ffH
	DB	020H
	DB	018H
	DB	018H
	DB	0ffH
	DB	020H
	DB	01cH
	DB	018H
	DB	0ffH
	DB	018H
	DB	018H
	DB	018H
	DB	0ffH
	DB	020H
	DB	01cH
	DB	018H
	DB	0ffH
	DB	020H
	DB	018H
	DB	018H
	DB	0ffH
	DB	018H
	DB	01cH
	DB	018H
	DB	0ffH
	DB	020H
	DB	018H
	DB	018H
	DB	0ffH
	DB	020H
	DB	01cH
	DB	018H
	DB	0ffH
	DB	018H
	DB	018H
	DB	018H
	DB	0ffH
	DB	020H
	DB	01cH
	DB	018H
	DB	0ffH
	DB	020H
	DB	018H
	DB	018H
	DB	0ffH
	DB	018H
	DB	01cH
	DB	018H
	DB	0ffH
	DB	020H
	DB	018H
	DB	018H
	DB	0ffH
	DB	020H
	DB	01cH
	DB	018H
	DB	0ffH
	DB	018H
	DB	018H
	DB	018H
	DB	0ffH
	DB	020H
	DB	01cH
	DB	018H
	DB	0ffH
	DB	020H
	DB	018H
	DB	018H
	DB	0ffH
	DB	018H
	DB	01cH
	DB	018H
	DB	0ffH
	DB	020H
	DB	018H
	DB	018H
	DB	0ffH
	DB	020H
	DB	01cH
	DB	018H
	DB	0ffH
	DB	018H
	DB	018H
	DB	018H
	DB	0ffH
	DB	020H
	DB	01cH
	DB	018H
	DB	0ffH
	DB	020H
	DB	018H
	DB	018H
	DB	0ffH
	DB	018H
	DB	01cH
	DB	018H
	DB	0ffH
	DB	020H
	DB	018H
	DB	018H
	DB	0ffH
	DB	020H
	DB	01cH
	DB	018H
	DB	0ffH
	DB	018H
	DB	018H
	DB	018H
	DB	0ffH
	DB	020H
	DB	01cH
	DB	018H
	DB	0ffH
	DB	020H
	DB	018H
	DB	018H
	DB	0ffH
	DB	018H
	DB	01cH
	DB	018H
	DB	0ffH
	DB	020H
	DB	018H
	DB	018H
	DB	0ffH
	DB	020H
	DB	01cH
	DB	018H
	DB	0ffH
	DB	018H
	DB	018H
	DB	018H
	DB	0ffH
	DB	020H
	DB	01cH
	DB	018H
	DB	0ffH
	DB	020H
	DB	018H
	DB	018H
	DB	0ffH
	DB	018H
	DB	01cH
	DB	018H
	DB	0ffH
	DB	020H
	DB	018H
	DB	018H
	DB	0ffH
	DB	020H
	DB	01cH
	DB	018H
	DB	0ffH
	DB	018H
	DB	018H
	DB	018H
	DB	0ffH
	DB	020H
	DB	01cH
	DB	018H
	DB	0ffH
	DB	020H
	DB	018H
	DB	018H
	DB	0fbH
	DB	018H
	DB	01cH
	DB	018H
	DB	09aH
	DB	020H
	DB	01cH
	DB	018H
	DB	08H
	DB	0f8H
	DB	0fcH
	DB	0f8H
	DB	00H
	DB	0f8H
	DB	0fcH
	DB	0f8H
	DB	00H
	DB	018H
	DB	01cH
	DB	018H
	DB	00H
	DB	018H
	DB	01cH
	DB	020H
	DB	04H
	DB	020H
	DB	018H
	DB	018H
	DB	0baH
	DB	018H
	DB	01cH
	DB	020H
	DB	0ffH
	DB	018H
	DB	01cH
	DB	020H
	DB	0ffH
	DB	020H
	DB	01cH
	DB	018H
	DB	0ffH
	DB	018H
	DB	018H
	DB	020H
	DB	0ffH
	DB	018H
	DB	01cH
	DB	020H
	DB	0ffH
	DB	020H
	DB	01cH
	DB	018H
	DB	0ffH
	DB	018H
	DB	01cH
	DB	020H
	DB	0ffH
	DB	018H
	DB	018H
	DB	020H
	DB	0ffH
	DB	020H
	DB	01cH
	DB	018H
	DB	0ffH
	DB	018H
	DB	01cH
	DB	020H
	DB	0ffH
	DB	018H
	DB	01cH
	DB	020H
	DB	0ffH
	DB	020H
	DB	018H
	DB	018H
	DB	0ffH
	DB	018H
	DB	01cH
	DB	020H
	DB	0ffH
	DB	018H
	DB	01cH
	DB	020H
	DB	0ffH
	DB	020H
	DB	01cH
	DB	018H
	DB	0ffH
	DB	018H
	DB	018H
	DB	020H
	DB	0ffH
	DB	018H
	DB	01cH
	DB	020H
	DB	0ffH
	DB	020H
	DB	01cH
	DB	018H
	DB	0ffH
	DB	018H
	DB	01cH
	DB	020H
	DB	0ffH
	DB	018H
	DB	018H
	DB	020H
	DB	0ffH
	DB	020H
	DB	01cH
	DB	018H
	DB	0ffH
	DB	018H
	DB	01cH
	DB	020H
	DB	0ffH
	DB	018H
	DB	01cH
	DB	020H
	DB	0ffH
	DB	020H
	DB	018H
	DB	018H
	DB	0ffH
	DB	018H
	DB	01cH
	DB	020H
	DB	0ffH
	DB	018H
	DB	01cH
	DB	020H
	DB	0ffH
	DB	020H
	DB	01cH
	DB	018H
	DB	0ffH
	DB	018H
	DB	018H
	DB	020H
	DB	0ffH
	DB	018H
	DB	01cH
	DB	020H
	DB	0ffH
	DB	020H
	DB	01cH
	DB	018H
	DB	0ffH
	DB	018H
	DB	01cH
	DB	020H
	DB	0ffH
	DB	018H
	DB	018H
	DB	020H
	DB	0ffH
	DB	020H
	DB	01cH
	DB	018H
	DB	0ffH
	DB	018H
	DB	01cH
	DB	020H
	DB	0ffH
	DB	018H
	DB	01cH
	DB	020H
	DB	0ffH
	DB	020H
	DB	018H
	DB	018H
	DB	0ffH
	DB	018H
	DB	01cH
	DB	020H
	DB	0ffH
	DB	018H
	DB	01cH
	DB	020H
	DB	0ffH
	DB	020H
	DB	01cH
	DB	018H
	DB	0ffH
	DB	018H
	DB	018H
	DB	020H
	DB	0ffH
	DB	018H
	DB	01cH
	DB	020H
	DB	0ffH
	DB	020H
	DB	01cH
	DB	018H
	DB	0ffH
	DB	018H
	DB	01cH
	DB	020H
	DB	0ffH
	DB	018H
	DB	018H
	DB	020H
	DB	0ffH
	DB	020H
	DB	01cH
	DB	018H
	DB	0ffH
	DB	018H
	DB	01cH
	DB	020H
	DB	0ffH
	DB	018H
	DB	01cH
	DB	020H
	DB	0ffH
	DB	020H
	DB	018H
	DB	018H
	DB	0ffH
	DB	018H
	DB	01cH
	DB	020H
	DB	0ffH
	DB	018H
	DB	01cH
	DB	020H
	DB	0ffH
	DB	020H
	DB	01cH
	DB	018H
	DB	0ffH
	DB	018H
	DB	018H
	DB	020H
	DB	0ffH
	DB	018H
	DB	01cH
	DB	020H
	DB	0ffH
	DB	020H
	DB	01cH
	DB	018H
	DB	0ffH
	DB	018H
	DB	01cH
	DB	020H
	DB	0ffH
	DB	018H
	DB	018H
	DB	020H
	DB	0ffH
	DB	020H
	DB	01cH
	DB	018H
	DB	0ffH
	DB	018H
	DB	01cH
	DB	020H
	DB	0ffH
	DB	018H
	DB	01cH
	DB	020H
	DB	0ffH
	DB	020H
	DB	018H
	DB	018H
	DB	0ffH
	DB	018H
	DB	01cH
	DB	020H
	DB	0ffH
	DB	018H
	DB	01cH
	DB	020H
	DB	0ffH
	DB	020H
	DB	01cH
	DB	018H
	DB	0ffH
	DB	018H
	DB	018H
	DB	020H
	DB	0ffH
	DB	018H
	DB	01cH
	DB	020H
	DB	0ffH
	DB	020H
	DB	01cH
	DB	018H
	DB	0ffH
	DB	018H
	DB	01cH
	DB	020H
	DB	0ffH
	DB	018H
	DB	018H
	DB	020H
	DB	0ffH
	DB	020H
	DB	01cH
	DB	018H
	DB	0ffH
	DB	018H
	DB	01cH
	DB	020H
	DB	0ffH
	DB	018H
	DB	01cH
	DB	020H
	DB	0ffH
	DB	020H
	DB	018H
	DB	018H
	DB	0ffH
	DB	018H
	DB	01cH
	DB	020H
	DB	0ffH
	DB	018H
	DB	01cH
	DB	020H
	DB	0ffH
	DB	020H
	DB	01cH
	DB	018H
	DB	0ffH
	DB	018H
	DB	018H
	DB	020H
	DB	0ffH
	DB	018H
	DB	01cH
	DB	020H
	DB	0ffH
	DB	020H
	DB	01cH
	DB	018H
	DB	0ffH
	DB	018H
	DB	01cH
	DB	020H
	DB	0ffH
	DB	018H
	DB	018H
	DB	020H
	DB	0ffH
	DB	020H
	DB	01cH
	DB	018H
	DB	0ffH
	DB	018H
	DB	01cH
	DB	020H
	DB	0ffH
	DB	018H
	DB	01cH
	DB	020H
	DB	0ffH
	DB	020H
	DB	018H
	DB	018H
	DB	0ffH
	DB	018H
	DB	01cH
	DB	020H
	DB	0ffH
	DB	018H
	DB	01cH
	DB	020H
	DB	0ffH
	DB	020H
	DB	01cH
	DB	018H
	DB	0ffH
	DB	018H
	DB	018H
	DB	020H
	DB	0ffH
	DB	018H
	DB	01cH
	DB	020H
	DB	0ffH
	DB	020H
	DB	01cH
	DB	018H
	DB	0ffH
	DB	018H
	DB	01cH
	DB	020H
	DB	0ffH
	DB	018H
	DB	018H
	DB	020H
	DB	0ffH
	DB	020H
	DB	01cH
	DB	018H
	DB	0ffH
	DB	018H
	DB	01cH
	DB	020H
	DB	0ffH
	DB	018H
	DB	01cH
	DB	020H
	DB	0ffH
	DB	020H
	DB	018H
	DB	018H
	DB	0ffH
	DB	018H
	DB	01cH
	DB	020H
	DB	0ffH
	DB	018H
	DB	01cH
	DB	020H
	DB	0ffH
	DB	020H
	DB	01cH
	DB	018H
	DB	0ffH
	DB	018H
	DB	018H
	DB	020H
	DB	0ffH
	DB	018H
	DB	01cH
	DB	020H
	DB	0ffH
	DB	020H
	DB	01cH
	DB	018H
	DB	0ffH
	DB	018H
	DB	01cH
	DB	020H
	DB	0ffH
	DB	018H
	DB	018H
	DB	020H
	DB	0ffH
	DB	020H
	DB	01cH
	DB	018H
	DB	0ffH
	DB	018H
	DB	01cH
	DB	020H
	DB	0ffH
	DB	018H
	DB	01cH
	DB	020H
	DB	0ffH
	DB	020H
	DB	018H
	DB	018H
	DB	0ffH
	DB	018H
	DB	01cH
	DB	020H
	DB	0ffH
	DB	018H
	DB	01cH
	DB	020H
	DB	0ffH
	DB	020H
	DB	01cH
	DB	018H
	DB	0ffH
	DB	018H
	DB	018H
	DB	020H
	DB	0ffH
	DB	018H
	DB	01cH
	DB	020H
	DB	0ffH
	DB	020H
	DB	01cH
	DB	018H
	DB	0ffH
	DB	018H
	DB	01cH
	DB	020H
	DB	0ffH
	DB	018H
	DB	018H
	DB	020H
	DB	0ffH
	DB	020H
	DB	01cH
	DB	018H
	DB	0ffH
	DB	018H
	DB	01cH
	DB	020H
	DB	0ffH
	DB	018H
	DB	01cH
	DB	020H
	DB	0ffH
	DB	020H
	DB	018H
	DB	018H
	DB	0ffH
	DB	018H
	DB	01cH
	DB	020H
	DB	0ffH
	DB	018H
	DB	01cH
	DB	020H
	DB	0ffH
	DB	020H
	DB	01cH
	DB	018H
	DB	0ffH
	DB	018H
	DB	018H
	DB	020H
	DB	0ffH
	DB	018H
	DB	01cH
	DB	018H
	DB	0beH
	DB	018H
	DB	018H
	DB	018H
	DB	04H
	DB	0f8H
	DB	0fcH
	DB	0f8H
	DB	00H
	DB	018H
	DB	01cH
	DB	018H
	DB	00H
	DB	018H
	DB	01cH
	DB	018H
	DB	096H
	DB	020H
	DB	01cH
	DB	018H
	DB	0ffH
	DB	018H
	DB	01cH
	DB	018H
	DB	0ffH
	DB	018H
	DB	01cH
	DB	018H
	DB	0ffH
	DB	018H
	DB	01cH
	DB	018H
	DB	0ffH
	DB	020H
	DB	01cH
	DB	018H
	DB	0ffH
	DB	018H
	DB	01cH
	DB	018H
	DB	0ffH
	DB	018H
	DB	01cH
	DB	018H
	DB	0ffH
	DB	020H
	DB	01cH
	DB	018H
	DB	0ffH
	DB	018H
	DB	01cH
	DB	018H
	DB	0ffH
	DB	018H
	DB	01cH
	DB	018H
	DB	0ffH
	DB	020H
	DB	01cH
	DB	018H
	DB	0ffH
	DB	018H
	DB	01cH
	DB	018H
	DB	0ffH
	DB	018H
	DB	01cH
	DB	018H
	DB	0ffH
	DB	020H
	DB	01cH
	DB	018H
	DB	0ffH
	DB	018H
	DB	01cH
	DB	018H
	DB	0ffH
	DB	018H
	DB	01cH
	DB	018H
	DB	0ffH
	DB	020H
	DB	01cH
	DB	018H
	DB	0ffH
	DB	018H
	DB	01cH
	DB	018H
	DB	0ffH
	DB	018H
	DB	01cH
	DB	018H
	DB	0ffH
	DB	020H
	DB	01cH
	DB	018H
	DB	0ffH
	DB	018H
	DB	01cH
	DB	018H
	DB	0ffH
	DB	018H
	DB	01cH
	DB	018H
	DB	0ffH
	DB	020H
	DB	01cH
	DB	018H
	DB	0ffH
	DB	018H
	DB	01cH
	DB	018H
	DB	0ffH
	DB	018H
	DB	01cH
	DB	018H
	DB	0ffH
	DB	020H
	DB	01cH
	DB	018H
	DB	0ffH
	DB	018H
	DB	01cH
	DB	018H
	DB	0ffH
	DB	018H
	DB	01cH
	DB	018H
	DB	0ffH
	DB	020H
	DB	01cH
	DB	018H
	DB	0ffH
	DB	018H
	DB	01cH
	DB	018H
	DB	0ffH
	DB	018H
	DB	01cH
	DB	018H
	DB	0ffH
	DB	020H
	DB	01cH
	DB	018H
	DB	0ffH
	DB	018H
	DB	01cH
	DB	018H
	DB	0ffH
	DB	018H
	DB	01cH
	DB	018H
	DB	0ffH
	DB	020H
	DB	01cH
	DB	018H
	DB	0ffH
	DB	018H
	DB	01cH
	DB	018H
	DB	0ffH
	DB	018H
	DB	01cH
	DB	018H
	DB	0ffH
	DB	020H
	DB	01cH
	DB	018H
	DB	0ffH
	DB	018H
	DB	01cH
	DB	018H
	DB	0ffH
	DB	018H
	DB	01cH
	DB	018H
	DB	0ffH
	DB	020H
	DB	01cH
	DB	018H
	DB	0ffH
	DB	018H
	DB	01cH
	DB	018H
	DB	0ffH
	DB	018H
	DB	01cH
	DB	018H
	DB	0ffH
	DB	020H
	DB	01cH
	DB	018H
	DB	0ffH
	DB	018H
	DB	01cH
	DB	018H
	DB	0ffH
	DB	018H
	DB	01cH
	DB	018H
	DB	0ffH
	DB	020H
	DB	01cH
	DB	018H
	DB	0ffH
	DB	018H
	DB	01cH
	DB	018H
	DB	0ffH
	DB	018H
	DB	01cH
	DB	018H
	DB	0ffH
	DB	020H
	DB	01cH
	DB	018H
	DB	0ffH
	DB	018H
	DB	01cH
	DB	018H
	DB	0ffH
	DB	018H
	DB	01cH
	DB	018H
	DB	0ffH
	DB	020H
	DB	01cH
	DB	018H
	DB	0ffH
	DB	018H
	DB	01cH
	DB	018H
	DB	0ffH
	DB	018H
	DB	01cH
	DB	018H
	DB	0ffH
	DB	020H
	DB	01cH
	DB	018H
	DB	0ffH
	DB	018H
	DB	01cH
	DB	018H
	DB	0ffH
	DB	018H
	DB	01cH
	DB	018H
	DB	0ffH
	DB	020H
	DB	01cH
	DB	018H
	DB	0ffH
	DB	018H
	DB	01cH
	DB	018H
	DB	0ffH
	DB	018H
	DB	01cH
	DB	018H
	DB	0ffH
	DB	020H
	DB	01cH
	DB	018H
	DB	0ffH
	DB	018H
	DB	01cH
	DB	018H
	DB	0ffH
	DB	018H
	DB	01cH
	DB	018H
	DB	0ffH
	DB	020H
	DB	01cH
	DB	018H
	DB	0ffH
	DB	018H
	DB	01cH
	DB	018H
	DB	0ffH
	DB	018H
	DB	01cH
	DB	018H
	DB	0ffH
	DB	020H
	DB	01cH
	DB	018H
	DB	0ffH
	DB	018H
	DB	01cH
	DB	018H
	DB	0ffH
	DB	018H
	DB	01cH
	DB	018H
	DB	0ffH
	DB	020H
	DB	01cH
	DB	018H
	DB	0ffH
	DB	018H
	DB	01cH
	DB	018H
	DB	0ffH
	DB	018H
	DB	01cH
	DB	018H
	DB	0ffH
	DB	020H
	DB	01cH
	DB	018H
	DB	0ffH
	DB	018H
	DB	01cH
	DB	018H
	DB	0ffH
	DB	018H
	DB	01cH
	DB	018H
	DB	0ffH
	DB	020H
	DB	01cH
	DB	018H
	DB	0ffH
	DB	018H
	DB	01cH
	DB	018H
	DB	0ffH
	DB	018H
	DB	01cH
	DB	018H
	DB	0ffH
	DB	020H
	DB	01cH
	DB	018H
	DB	0ffH
	DB	018H
	DB	01cH
	DB	018H
	DB	0ffH
	DB	018H
	DB	01cH
	DB	018H
	DB	0ffH
	DB	020H
	DB	01cH
	DB	018H
	DB	0ffH
	DB	018H
	DB	01cH
	DB	018H
	DB	0ffH
	DB	018H
	DB	01cH
	DB	018H
	DB	0ffH
	DB	020H
	DB	01cH
	DB	018H
	DB	0ffH
	DB	018H
	DB	01cH
	DB	018H
	DB	0ffH
	DB	018H
	DB	01cH
	DB	018H
	DB	0ffH
	DB	020H
	DB	01cH
	DB	018H
	DB	0ffH
	DB	018H
	DB	01cH
	DB	018H
	DB	0ffH
	DB	018H
	DB	01cH
	DB	018H
	DB	0ffH
	DB	020H
	DB	01cH
	DB	018H
	DB	0ffH
	DB	018H
	DB	01cH
	DB	018H
	DB	0ffH
	DB	018H
	DB	01cH
	DB	018H
	DB	0ffH
	DB	020H
	DB	01cH
	DB	018H
	DB	0ffH
	DB	018H
	DB	01cH
	DB	018H
	DB	0ffH
	DB	018H
	DB	01cH
	DB	018H
	DB	0ffH
	DB	020H
	DB	01cH
	DB	018H
	DB	0ffH
	DB	018H
	DB	01cH
	DB	018H
	DB	0ffH
	DB	018H
	DB	01cH
	DB	018H
	DB	0ffH
	DB	020H
	DB	01cH
	DB	018H
	DB	0ffH
	DB	018H
	DB	01cH
	DB	018H
	DB	0ffH
	DB	018H
	DB	01cH
	DB	018H
	DB	0ffH
	DB	020H
	DB	01cH
	DB	018H
	DB	0ffH
	DB	018H
	DB	01cH
	DB	018H
	DB	0ffH
	DB	018H
	DB	01cH
	DB	018H
	DB	0ffH
	DB	020H
	DB	01cH
	DB	018H
	DB	0ffH
	DB	018H
	DB	01cH
	DB	018H
	DB	0ffH
	DB	018H
	DB	01cH
	DB	018H
	DB	0ffH
	DB	020H
	DB	01cH
	DB	018H
	DB	0ffH
	DB	018H
	DB	01cH
	DB	018H
	DB	0ffH
	DB	018H
	DB	01cH
	DB	018H
	DB	0ffH
	DB	020H
	DB	01cH
	DB	018H
	DB	0ffH
	DB	018H
	DB	01cH
	DB	018H
	DB	0ffH
	DB	018H
	DB	01cH
	DB	018H
	DB	0ffH
	DB	020H
	DB	01cH
	DB	018H
	DB	0ffH
	DB	018H
	DB	01cH
	DB	018H
	DB	0ffH
	DB	018H
	DB	01cH
	DB	018H
	DB	0ffH
	DB	020H
	DB	01cH
	DB	018H
	DB	0ffH
	DB	018H
	DB	01cH
	DB	018H
	DB	0ffH
	DB	018H
	DB	01cH
	DB	018H
	DB	0ffH
	DB	020H
	DB	01cH
	DB	018H
	DB	0ffH
	DB	018H
	DB	01cH
	DB	018H
	DB	0ffH
	DB	018H
	DB	01cH
	DB	018H
	DB	0ffH
	DB	020H
	DB	01cH
	DB	018H
	DB	0ffH
	DB	018H
	DB	01cH
	DB	020H
	DB	0ffH
	DB	020H
	DB	01cH
	DB	018H
	DB	092H
	DB	0f8H
	DB	0fcH
	DB	0f8H
	DB	00H
	DB	018H
	DB	018H
	DB	018H
	DB	02cH
	DB	020H
	DB	01cH
	DB	018H
	DB	0fbH
	DB	018H
	DB	01cH
	DB	020H
	DB	0ffH
	DB	020H
	DB	018H
	DB	018H
	DB	0ffH
	DB	018H
	DB	018H
	DB	018H
	DB	0ffH
	DB	020H
	DB	01cH
	DB	020H
	DB	0ffH
	DB	018H
	DB	01cH
	DB	018H
	DB	0ffH
	DB	018H
	DB	018H
	DB	018H
	DB	0ffH
	DB	020H
	DB	018H
	DB	020H
	DB	0ffH
	DB	018H
	DB	01cH
	DB	018H
	DB	0ffH
	DB	018H
	DB	01cH
	DB	018H
	DB	0ffH
	DB	020H
	DB	018H
	DB	020H
	DB	0ffH
	DB	018H
	DB	018H
	DB	018H
	DB	0ffH
	DB	018H
	DB	01cH
	DB	018H
	DB	0ffH
	DB	020H
	DB	01cH
	DB	020H
	DB	0ffH
	DB	018H
	DB	018H
	DB	018H
	DB	0ffH
	DB	018H
	DB	018H
	DB	018H
	DB	0ffH
	DB	020H
	DB	01cH
	DB	020H
	DB	0ffH
	DB	018H
	DB	01cH
	DB	018H
	DB	0ffH
	DB	018H
	DB	018H
	DB	018H
	DB	0ffH
	DB	020H
	DB	018H
	DB	020H
	DB	0ffH
	DB	018H
	DB	01cH
	DB	018H
	DB	0ffH
	DB	018H
	DB	01cH
	DB	018H
	DB	0ffH
	DB	020H
	DB	018H
	DB	020H
	DB	0ffH
	DB	018H
	DB	018H
	DB	018H
	DB	0ffH
	DB	018H
	DB	01cH
	DB	018H
	DB	0ffH
	DB	020H
	DB	01cH
	DB	020H
	DB	0ffH
	DB	018H
	DB	018H
	DB	018H
	DB	0ffH
	DB	018H
	DB	018H
	DB	018H
	DB	0ffH
	DB	020H
	DB	01cH
	DB	020H
	DB	0ffH
	DB	018H
	DB	01cH
	DB	018H
	DB	0ffH
	DB	018H
	DB	018H
	DB	018H
	DB	0ffH
	DB	020H
	DB	018H
	DB	020H
	DB	0ffH
	DB	018H
	DB	01cH
	DB	018H
	DB	0ffH
	DB	018H
	DB	01cH
	DB	018H
	DB	0ffH
	DB	020H
	DB	018H
	DB	020H
	DB	0ffH
	DB	018H
	DB	018H
	DB	018H
	DB	0ffH
	DB	018H
	DB	01cH
	DB	018H
	DB	0ffH
	DB	020H
	DB	01cH
	DB	020H
	DB	0ffH
	DB	018H
	DB	018H
	DB	018H
	DB	0ffH
	DB	018H
	DB	018H
	DB	018H
	DB	0ffH
	DB	020H
	DB	01cH
	DB	020H
	DB	0ffH
	DB	018H
	DB	01cH
	DB	018H
	DB	0ffH
	DB	018H
	DB	018H
	DB	018H
	DB	0ffH
	DB	020H
	DB	018H
	DB	020H
	DB	0ffH
	DB	018H
	DB	01cH
	DB	018H
	DB	0ffH
	DB	018H
	DB	01cH
	DB	018H
	DB	0ffH
	DB	020H
	DB	018H
	DB	020H
	DB	0ffH
	DB	018H
	DB	018H
	DB	018H
	DB	0ffH
	DB	018H
	DB	01cH
	DB	018H
	DB	0ffH
	DB	020H
	DB	01cH
	DB	020H
	DB	0ffH
	DB	018H
	DB	018H
	DB	018H
	DB	0ffH
	DB	018H
	DB	018H
	DB	018H
	DB	0ffH
	DB	020H
	DB	01cH
	DB	020H
	DB	0ffH
	DB	018H
	DB	01cH
	DB	018H
	DB	0ffH
	DB	018H
	DB	018H
	DB	018H
	DB	0ffH
	DB	020H
	DB	018H
	DB	020H
	DB	0ffH
	DB	018H
	DB	01cH
	DB	018H
	DB	0ffH
	DB	018H
	DB	01cH
	DB	018H
	DB	0ffH
	DB	020H
	DB	018H
	DB	020H
	DB	0ffH
	DB	018H
	DB	018H
	DB	018H
	DB	0ffH
	DB	018H
	DB	01cH
	DB	018H
	DB	0ffH
	DB	020H
	DB	01cH
	DB	020H
	DB	0ffH
	DB	018H
	DB	018H
	DB	018H
	DB	0ffH
	DB	018H
	DB	018H
	DB	018H
	DB	0ffH
	DB	020H
	DB	01cH
	DB	020H
	DB	0ffH
	DB	018H
	DB	01cH
	DB	018H
	DB	0ffH
	DB	018H
	DB	018H
	DB	018H
	DB	0ffH
	DB	020H
	DB	018H
	DB	020H
	DB	0ffH
	DB	018H
	DB	01cH
	DB	018H
	DB	0ffH
	DB	018H
	DB	01cH
	DB	018H
	DB	0ffH
	DB	020H
	DB	018H
	DB	020H
	DB	0ffH
	DB	018H
	DB	018H
	DB	018H
	DB	0ffH
	DB	018H
	DB	01cH
	DB	018H
	DB	0ffH
	DB	020H
	DB	01cH
	DB	020H
	DB	0ffH
	DB	018H
	DB	018H
	DB	018H
	DB	0ffH
	DB	018H
	DB	018H
	DB	018H
	DB	0ffH
	DB	020H
	DB	01cH
	DB	020H
	DB	0ffH
	DB	018H
	DB	01cH
	DB	018H
	DB	0ffH
	DB	018H
	DB	018H
	DB	018H
	DB	0ffH
	DB	020H
	DB	018H
	DB	020H
	DB	0ffH
	DB	018H
	DB	01cH
	DB	018H
	DB	0ffH
	DB	018H
	DB	01cH
	DB	018H
	DB	0ffH
	DB	020H
	DB	018H
	DB	020H
	DB	0ffH
	DB	018H
	DB	018H
	DB	018H
	DB	0ffH
	DB	018H
	DB	01cH
	DB	018H
	DB	0ffH
	DB	020H
	DB	01cH
	DB	020H
	DB	0ffH
	DB	018H
	DB	018H
	DB	018H
	DB	0ffH
	DB	018H
	DB	018H
	DB	018H
	DB	0ffH
	DB	020H
	DB	01cH
	DB	020H
	DB	0ffH
	DB	018H
	DB	01cH
	DB	018H
	DB	0ffH
	DB	018H
	DB	018H
	DB	018H
	DB	0ffH
	DB	020H
	DB	018H
	DB	020H
	DB	0ffH
	DB	018H
	DB	01cH
	DB	018H
	DB	0ffH
	DB	018H
	DB	01cH
	DB	018H
	DB	0ffH
	DB	020H
	DB	018H
	DB	020H
	DB	0ffH
	DB	018H
	DB	018H
	DB	018H
	DB	0ffH
	DB	018H
	DB	01cH
	DB	018H
	DB	0ffH
	DB	020H
	DB	01cH
	DB	020H
	DB	0ffH
	DB	018H
	DB	018H
	DB	018H
	DB	0ffH
	DB	018H
	DB	018H
	DB	018H
	DB	0ffH
	DB	020H
	DB	01cH
	DB	020H
	DB	0ffH
	DB	018H
	DB	01cH
	DB	018H
	DB	0ffH
	DB	018H
	DB	018H
	DB	018H
	DB	0ffH
	DB	020H
	DB	018H
	DB	020H
	DB	0ffH
	DB	018H
	DB	01cH
	DB	018H
	DB	0ffH
	DB	018H
	DB	01cH
	DB	018H
	DB	0ffH
	DB	020H
	DB	018H
	DB	020H
	DB	0ffH
	DB	018H
	DB	018H
	DB	018H
	DB	0ffH
	DB	018H
	DB	01cH
	DB	018H
	DB	0ffH
	DB	020H
	DB	01cH
	DB	020H
	DB	0ffH
	DB	018H
	DB	018H
	DB	018H
	DB	0ffH
	DB	018H
	DB	018H
	DB	018H
	DB	0ffH
	DB	020H
	DB	01cH
	DB	020H
	DB	0ffH
	DB	018H
	DB	01cH
	DB	018H
	DB	0ffH
	DB	018H
	DB	018H
	DB	018H
	DB	0ffH
	DB	020H
	DB	018H
	DB	020H
	DB	0ffH
	DB	018H
	DB	01cH
	DB	018H
	DB	0ffH
	DB	018H
	DB	01cH
	DB	018H
	DB	0ffH
	DB	020H
	DB	018H
	DB	020H
	DB	0ffH
	DB	018H
	DB	018H
	DB	018H
	DB	0ffH
	DB	018H
	DB	01cH
	DB	018H
	DB	0ffH
	DB	020H
	DB	01cH
	DB	020H
	DB	0ffH
	DB	018H
	DB	018H
	DB	018H
	DB	0ffH
	DB	018H
	DB	018H
	DB	018H
	DB	0ffH
	DB	020H
	DB	01cH
	DB	018H
	DB	0ffH
	DB	018H
	DB	018H
	DB	018H
	DB	0ffH
	DB	018H
	DB	01cH
	DB	018H
	DB	0ffH
	DB	020H
	DB	01cH
	DB	018H
	DB	0fbH
	DB	018H
	DB	01cH
	DB	018H
	DB	02cH
	DB	020H
	DB	01cH
	DB	018H
	DB	08eH
	DB	018H
	DB	01cH
	DB	018H
	DB	0ffH
	DB	018H
	DB	01cH
	DB	020H
	DB	0ffH
	DB	020H
	DB	01cH
	DB	018H
	DB	0ffH
	DB	018H
	DB	01cH
	DB	018H
	DB	0ffH
	DB	018H
	DB	01cH
	DB	020H
	DB	0ffH
	DB	020H
	DB	018H
	DB	018H
	DB	0ffH
	DB	018H
	DB	01cH
	DB	018H
	DB	0ffH
	DB	020H
	DB	01cH
	DB	020H
	DB	0ffH
	DB	018H
	DB	01cH
	DB	018H
	DB	0ffH
	DB	018H
	DB	01cH
	DB	018H
	DB	0ffH
	DB	020H
	DB	01cH
	DB	020H
	DB	0ffH
	DB	018H
	DB	01cH
	DB	018H
	DB	0ffH
	DB	020H
	DB	018H
	DB	018H
	DB	0ffH
	DB	018H
	DB	01cH
	DB	020H
	DB	0ffH
	DB	018H
	DB	01cH
	DB	018H
	DB	0ffH
	DB	020H
	DB	01cH
	DB	018H
	DB	0ffH
	DB	018H
	DB	01cH
	DB	020H
	DB	0ffH
	DB	018H
	DB	018H
	DB	018H
	DB	0ffH
	DB	020H
	DB	01cH
	DB	018H
	DB	0ffH
	DB	018H
	DB	01cH
	DB	020H
	DB	0ffH
	DB	018H
	DB	01cH
	DB	018H
	DB	0ffH
	DB	020H
	DB	01cH
	DB	018H
	DB	0ffH
	DB	018H
	DB	01cH
	DB	020H
	DB	0ffH
	DB	018H
	DB	01cH
	DB	018H
	DB	0ffH
	DB	020H
	DB	018H
	DB	018H
	DB	0ffH
	DB	018H
	DB	01cH
	DB	020H
	DB	0ffH
	DB	018H
	DB	01cH
	DB	018H
	DB	0ffH
	DB	020H
	DB	01cH
	DB	018H
	DB	0ffH
	DB	018H
	DB	01cH
	DB	020H
	DB	0ffH
	DB	018H
	DB	018H
	DB	018H
	DB	0ffH
	DB	020H
	DB	01cH
	DB	018H
	DB	0ffH
	DB	018H
	DB	01cH
	DB	020H
	DB	0ffH
	DB	018H
	DB	01cH
	DB	018H
	DB	0ffH
	DB	020H
	DB	01cH
	DB	018H
	DB	0ffH
	DB	018H
	DB	01cH
	DB	020H
	DB	0ffH
	DB	018H
	DB	01cH
	DB	018H
	DB	0ffH
	DB	020H
	DB	018H
	DB	018H
	DB	0ffH
	DB	018H
	DB	01cH
	DB	020H
	DB	0ffH
	DB	018H
	DB	01cH
	DB	018H
	DB	0ffH
	DB	020H
	DB	01cH
	DB	018H
	DB	0ffH
	DB	018H
	DB	01cH
	DB	020H
	DB	0ffH
	DB	018H
	DB	018H
	DB	018H
	DB	0ffH
	DB	020H
	DB	01cH
	DB	018H
	DB	0ffH
	DB	018H
	DB	01cH
	DB	020H
	DB	0ffH
	DB	018H
	DB	01cH
	DB	018H
	DB	0ffH
	DB	020H
	DB	01cH
	DB	018H
	DB	0ffH
	DB	018H
	DB	01cH
	DB	020H
	DB	0ffH
	DB	018H
	DB	01cH
	DB	018H
	DB	0ffH
	DB	020H
	DB	018H
	DB	018H
	DB	0ffH
	DB	018H
	DB	01cH
	DB	020H
	DB	0ffH
	DB	018H
	DB	01cH
	DB	018H
	DB	0ffH
	DB	020H
	DB	01cH
	DB	018H
	DB	0ffH
	DB	018H
	DB	01cH
	DB	020H
	DB	0ffH
	DB	018H
	DB	018H
	DB	018H
	DB	0ffH
	DB	020H
	DB	01cH
	DB	018H
	DB	0ffH
	DB	018H
	DB	01cH
	DB	020H
	DB	0ffH
	DB	018H
	DB	01cH
	DB	018H
	DB	0ffH
	DB	020H
	DB	01cH
	DB	018H
	DB	0ffH
	DB	018H
	DB	01cH
	DB	020H
	DB	0ffH
	DB	018H
	DB	01cH
	DB	018H
	DB	0ffH
	DB	020H
	DB	018H
	DB	018H
	DB	0ffH
	DB	018H
	DB	01cH
	DB	020H
	DB	0ffH
	DB	018H
	DB	01cH
	DB	018H
	DB	0ffH
	DB	020H
	DB	01cH
	DB	018H
	DB	0ffH
	DB	018H
	DB	01cH
	DB	020H
	DB	0ffH
	DB	018H
	DB	018H
	DB	018H
	DB	0ffH
	DB	020H
	DB	01cH
	DB	018H
	DB	0ffH
	DB	018H
	DB	01cH
	DB	020H
	DB	0ffH
	DB	018H
	DB	01cH
	DB	018H
	DB	0ffH
	DB	020H
	DB	01cH
	DB	018H
	DB	0ffH
	DB	018H
	DB	01cH
	DB	020H
	DB	0ffH
	DB	018H
	DB	01cH
	DB	018H
	DB	0ffH
	DB	020H
	DB	018H
	DB	018H
	DB	0ffH
	DB	018H
	DB	01cH
	DB	020H
	DB	0ffH
	DB	018H
	DB	01cH
	DB	018H
	DB	0ffH
	DB	020H
	DB	01cH
	DB	018H
	DB	0ffH
	DB	018H
	DB	01cH
	DB	020H
	DB	0ffH
	DB	018H
	DB	018H
	DB	018H
	DB	0ffH
	DB	020H
	DB	01cH
	DB	018H
	DB	0ffH
	DB	018H
	DB	01cH
	DB	020H
	DB	0ffH
	DB	018H
	DB	01cH
	DB	018H
	DB	0ffH
	DB	020H
	DB	01cH
	DB	018H
	DB	0ffH
	DB	018H
	DB	01cH
	DB	020H
	DB	0ffH
	DB	018H
	DB	01cH
	DB	018H
	DB	0ffH
	DB	020H
	DB	018H
	DB	018H
	DB	0ffH
	DB	018H
	DB	01cH
	DB	020H
	DB	0ffH
	DB	018H
	DB	01cH
	DB	018H
	DB	0ffH
	DB	020H
	DB	01cH
	DB	018H
	DB	0ffH
	DB	018H
	DB	01cH
	DB	020H
	DB	0ffH
	DB	018H
	DB	018H
	DB	018H
	DB	0ffH
	DB	020H
	DB	01cH
	DB	018H
	DB	0ffH
	DB	018H
	DB	01cH
	DB	020H
	DB	0ffH
	DB	018H
	DB	01cH
	DB	018H
	DB	0ffH
	DB	020H
	DB	01cH
	DB	018H
	DB	0ffH
	DB	018H
	DB	01cH
	DB	020H
	DB	0ffH
	DB	018H
	DB	01cH
	DB	018H
	DB	0ffH
	DB	020H
	DB	018H
	DB	018H
	DB	0ffH
	DB	018H
	DB	01cH
	DB	020H
	DB	0ffH
	DB	018H
	DB	01cH
	DB	018H
	DB	0ffH
	DB	020H
	DB	01cH
	DB	018H
	DB	0ffH
	DB	018H
	DB	01cH
	DB	020H
	DB	0ffH
	DB	018H
	DB	018H
	DB	018H
	DB	0ffH
	DB	020H
	DB	01cH
	DB	018H
	DB	0ffH
	DB	018H
	DB	01cH
	DB	020H
	DB	0ffH
	DB	018H
	DB	01cH
	DB	018H
	DB	0ffH
	DB	020H
	DB	01cH
	DB	018H
	DB	0ffH
	DB	018H
	DB	01cH
	DB	020H
	DB	0ffH
	DB	018H
	DB	01cH
	DB	018H
	DB	0ffH
	DB	020H
	DB	018H
	DB	018H
	DB	0ffH
	DB	018H
	DB	01cH
	DB	020H
	DB	0ffH
	DB	018H
	DB	01cH
	DB	018H
	DB	0ffH
	DB	020H
	DB	01cH
	DB	018H
	DB	0ffH
	DB	018H
	DB	01cH
	DB	020H
	DB	0ffH
	DB	018H
	DB	018H
	DB	018H
	DB	0ffH
	DB	020H
	DB	01cH
	DB	018H
	DB	0ffH
	DB	018H
	DB	01cH
	DB	020H
	DB	0ffH
	DB	018H
	DB	01cH
	DB	018H
	DB	0ffH
	DB	020H
	DB	01cH
	DB	018H
	DB	0ffH
	DB	018H
	DB	01cH
	DB	020H
	DB	0ffH
	DB	018H
	DB	01cH
	DB	018H
	DB	0ffH
	DB	020H
	DB	018H
	DB	018H
	DB	0ffH
	DB	018H
	DB	01cH
	DB	020H
	DB	0ffH
	DB	018H
	DB	01cH
	DB	018H
	DB	0ffH
	DB	020H
	DB	01cH
	DB	020H
	DB	0ffH
	DB	018H
	DB	01cH
	DB	020H
	DB	0ffH
	DB	018H
	DB	018H
	DB	018H
	DB	0ffH
	DB	020H
	DB	01cH
	DB	020H
	DB	0ffH
	DB	018H
	DB	01cH
	DB	018H
	DB	0ffH
	DB	020H
	DB	01cH
	DB	020H
	DB	08eH
	DB	020H
	DB	020H
	DB	020H
	DB	0d7H
	DB	020H
	DB	01cH
	DB	018H
	DB	0ffH
	DB	018H
	DB	018H
	DB	018H
	DB	0ffH
	DB	018H
	DB	01cH
	DB	018H
	DB	0ffH
	DB	020H
	DB	01cH
	DB	018H
	DB	0ffH
	DB	018H
	DB	018H
	DB	018H
	DB	0ffH
	DB	018H
	DB	01cH
	DB	018H
	DB	0ffH
	DB	020H
	DB	01cH
	DB	018H
	DB	0ffH
	DB	018H
	DB	01cH
	DB	018H
	DB	0ffH
	DB	020H
	DB	018H
	DB	018H
	DB	0ffH
	DB	018H
	DB	01cH
	DB	018H
	DB	0ffH
	DB	018H
	DB	01cH
	DB	018H
	DB	0ffH
	DB	020H
	DB	01cH
	DB	018H
	DB	0ffH
	DB	018H
	DB	01cH
	DB	018H
	DB	0ffH
	DB	018H
	DB	01cH
	DB	018H
	DB	0ffH
	DB	020H
	DB	01cH
	DB	018H
	DB	0ffH
	DB	020H
	DB	01cH
	DB	018H
	DB	0ffH
	DB	018H
	DB	018H
	DB	018H
	DB	0ffH
	DB	020H
	DB	01cH
	DB	018H
	DB	0ffH
	DB	018H
	DB	01cH
	DB	018H
	DB	0ffH
	DB	020H
	DB	01cH
	DB	018H
	DB	0ffH
	DB	018H
	DB	018H
	DB	018H
	DB	0ffH
	DB	020H
	DB	01cH
	DB	018H
	DB	0ffH
	DB	018H
	DB	01cH
	DB	018H
	DB	0ffH
	DB	020H
	DB	01cH
	DB	018H
	DB	0ffH
	DB	020H
	DB	01cH
	DB	018H
	DB	0ffH
	DB	018H
	DB	01cH
	DB	018H
	DB	0ffH
	DB	020H
	DB	01cH
	DB	018H
	DB	0ffH
	DB	018H
	DB	01cH
	DB	018H
	DB	0ffH
	DB	020H
	DB	018H
	DB	018H
	DB	0ffH
	DB	018H
	DB	01cH
	DB	018H
	DB	0ffH
	DB	020H
	DB	01cH
	DB	018H
	DB	0ffH
	DB	018H
	DB	01cH
	DB	018H
	DB	0ffH
	DB	020H
	DB	018H
	DB	018H
	DB	0ffH
	DB	020H
	DB	01cH
	DB	018H
	DB	0ffH
	DB	018H
	DB	01cH
	DB	018H
	DB	0ffH
	DB	020H
	DB	01cH
	DB	018H
	DB	0ffH
	DB	018H
	DB	01cH
	DB	018H
	DB	0ffH
	DB	020H
	DB	01cH
	DB	018H
	DB	0ffH
	DB	018H
	DB	01cH
	DB	018H
	DB	0ffH
	DB	020H
	DB	01cH
	DB	018H
	DB	0ffH
	DB	018H
	DB	018H
	DB	018H
	DB	0ffH
	DB	020H
	DB	01cH
	DB	018H
	DB	0ffH
	DB	020H
	DB	01cH
	DB	018H
	DB	0ffH
	DB	018H
	DB	01cH
	DB	018H
	DB	0ffH
	DB	020H
	DB	018H
	DB	018H
	DB	0ffH
	DB	018H
	DB	01cH
	DB	018H
	DB	0ffH
	DB	020H
	DB	01cH
	DB	018H
	DB	0ffH
	DB	018H
	DB	01cH
	DB	018H
	DB	0ffH
	DB	020H
	DB	01cH
	DB	018H
	DB	0ffH
	DB	018H
	DB	01cH
	DB	018H
	DB	0ffH
	DB	020H
	DB	01cH
	DB	018H
	DB	0ffH
	DB	020H
	DB	01cH
	DB	018H
	DB	0ffH
	DB	018H
	DB	018H
	DB	018H
	DB	0ffH
	DB	020H
	DB	01cH
	DB	018H
	DB	0ffH
	DB	018H
	DB	01cH
	DB	018H
	DB	0ffH
	DB	020H
	DB	01cH
	DB	018H
	DB	0ffH
	DB	018H
	DB	018H
	DB	018H
	DB	0ffH
	DB	020H
	DB	01cH
	DB	018H
	DB	0ffH
	DB	018H
	DB	01cH
	DB	018H
	DB	0ffH
	DB	020H
	DB	01cH
	DB	018H
	DB	0ffH
	DB	020H
	DB	01cH
	DB	018H
	DB	0ffH
	DB	018H
	DB	01cH
	DB	018H
	DB	0ffH
	DB	020H
	DB	01cH
	DB	018H
	DB	0ffH
	DB	018H
	DB	01cH
	DB	018H
	DB	0ffH
	DB	020H
	DB	018H
	DB	018H
	DB	0ffH
	DB	018H
	DB	01cH
	DB	018H
	DB	0ffH
	DB	020H
	DB	01cH
	DB	018H
	DB	0ffH
	DB	018H
	DB	01cH
	DB	018H
	DB	0ffH
	DB	020H
	DB	018H
	DB	018H
	DB	0ffH
	DB	020H
	DB	01cH
	DB	018H
	DB	0ffH
	DB	018H
	DB	01cH
	DB	018H
	DB	0ffH
	DB	020H
	DB	01cH
	DB	018H
	DB	0ffH
	DB	018H
	DB	01cH
	DB	018H
	DB	0ffH
	DB	020H
	DB	01cH
	DB	018H
	DB	0ffH
	DB	018H
	DB	01cH
	DB	018H
	DB	0ffH
	DB	020H
	DB	01cH
	DB	018H
	DB	0ffH
	DB	018H
	DB	018H
	DB	018H
	DB	0ffH
	DB	020H
	DB	01cH
	DB	018H
	DB	0ffH
	DB	020H
	DB	01cH
	DB	018H
	DB	0ffH
	DB	018H
	DB	01cH
	DB	018H
	DB	0ffH
	DB	020H
	DB	018H
	DB	018H
	DB	0ffH
	DB	018H
	DB	01cH
	DB	018H
	DB	0ffH
	DB	020H
	DB	01cH
	DB	018H
	DB	0ffH
	DB	018H
	DB	01cH
	DB	018H
	DB	0ffH
	DB	020H
	DB	01cH
	DB	018H
	DB	0ffH
	DB	018H
	DB	01cH
	DB	018H
	DB	0ffH
	DB	020H
	DB	01cH
	DB	018H
	DB	0ffH
	DB	020H
	DB	01cH
	DB	018H
	DB	0ffH
	DB	018H
	DB	018H
	DB	018H
	DB	0ffH
	DB	020H
	DB	01cH
	DB	018H
	DB	0ffH
	DB	018H
	DB	01cH
	DB	018H
	DB	0ffH
	DB	020H
	DB	01cH
	DB	018H
	DB	0ffH
	DB	018H
	DB	018H
	DB	018H
	DB	0ffH
	DB	020H
	DB	01cH
	DB	018H
	DB	0ffH
	DB	018H
	DB	01cH
	DB	018H
	DB	0ffH
	DB	020H
	DB	01cH
	DB	018H
	DB	0ffH
	DB	020H
	DB	01cH
	DB	018H
	DB	0ffH
	DB	018H
	DB	01cH
	DB	018H
	DB	0ffH
	DB	020H
	DB	01cH
	DB	018H
	DB	0ffH
	DB	018H
	DB	01cH
	DB	018H
	DB	0ffH
	DB	020H
	DB	018H
	DB	018H
	DB	0ffH
	DB	018H
	DB	01cH
	DB	018H
	DB	0ffH
	DB	020H
	DB	01cH
	DB	018H
	DB	0ffH
	DB	018H
	DB	01cH
	DB	018H
	DB	0ffH
	DB	020H
	DB	018H
	DB	018H
	DB	0ffH
	DB	020H
	DB	01cH
	DB	018H
	DB	0ffH
	DB	018H
	DB	01cH
	DB	018H
	DB	0ffH
	DB	020H
	DB	01cH
	DB	018H
	DB	0ffH
	DB	018H
	DB	01cH
	DB	018H
	DB	0ffH
	DB	020H
	DB	01cH
	DB	018H
	DB	0ffH
	DB	018H
	DB	01cH
	DB	018H
	DB	0ffH
	DB	020H
	DB	01cH
	DB	018H
	DB	0ffH
	DB	018H
	DB	018H
	DB	018H
	DB	0ffH
	DB	020H
	DB	01cH
	DB	018H
	DB	0ffH
	DB	020H
	DB	01cH
	DB	018H
	DB	0ffH
	DB	018H
	DB	01cH
	DB	018H
	DB	0ffH
	DB	020H
	DB	018H
	DB	018H
	DB	0ffH
	DB	018H
	DB	01cH
	DB	018H
	DB	0ffH
	DB	020H
	DB	01cH
	DB	018H
	DB	0ffH
	DB	018H
	DB	01cH
	DB	018H
	DB	0ffH
	DB	020H
	DB	01cH
	DB	018H
	DB	0ffH
	DB	018H
	DB	01cH
	DB	018H
	DB	0ffH
	DB	020H
	DB	01cH
	DB	018H
	DB	0ffH
	DB	020H
	DB	01cH
	DB	018H
	DB	0ffH
	DB	018H
	DB	01cH
	DB	018H
	DB	0ffH
	DB	020H
	DB	01cH
	DB	018H
	DB	0ffH
	DB	018H
	DB	018H
	DB	018H
	DB	0ffH
	DB	020H
	DB	01cH
	DB	020H
	DB	0ffH
	DB	020H
	DB	020H
	DB	020H
	DB	0d7H
	DB	020H
	DB	020H
	DB	020H
	DB	0f7H
	DB	020H
	DB	020H
	DB	020H
	DB	0ffH
	DB	020H
	DB	01cH
	DB	020H
	DB	0ffH
	DB	020H
	DB	01cH
	DB	020H
	DB	0ffH
	DB	020H
	DB	01cH
	DB	020H
	DB	0ffH
	DB	020H
	DB	01cH
	DB	020H
	DB	0ffH
	DB	018H
	DB	01cH
	DB	018H
	DB	0ffH
	DB	018H
	DB	01cH
	DB	018H
	DB	0ffH
	DB	020H
	DB	018H
	DB	020H
	DB	0ffH
	DB	018H
	DB	01cH
	DB	018H
	DB	0ffH
	DB	020H
	DB	018H
	DB	020H
	DB	0ffH
	DB	018H
	DB	018H
	DB	018H
	DB	0ffH
	DB	020H
	DB	01cH
	DB	020H
	DB	0ffH
	DB	020H
	DB	01cH
	DB	020H
	DB	0ffH
	DB	018H
	DB	01cH
	DB	020H
	DB	0ffH
	DB	020H
	DB	01cH
	DB	020H
	DB	0ffH
	DB	018H
	DB	01cH
	DB	018H
	DB	0ffH
	DB	020H
	DB	01cH
	DB	020H
	DB	0ffH
	DB	018H
	DB	01cH
	DB	020H
	DB	0ffH
	DB	020H
	DB	01cH
	DB	020H
	DB	0ffH
	DB	020H
	DB	01cH
	DB	018H
	DB	0ffH
	DB	018H
	DB	01cH
	DB	020H
	DB	0ffH
	DB	020H
	DB	01cH
	DB	020H
	DB	0ffH
	DB	020H
	DB	01cH
	DB	020H
	DB	0ffH
	DB	018H
	DB	01cH
	DB	020H
	DB	0ffH
	DB	018H
	DB	01cH
	DB	018H
	DB	0ffH
	DB	020H
	DB	01cH
	DB	020H
	DB	0ffH
	DB	020H
	DB	01cH
	DB	020H
	DB	0ffH
	DB	018H
	DB	01cH
	DB	020H
	DB	0ffH
	DB	020H
	DB	01cH
	DB	018H
	DB	0ffH
	DB	020H
	DB	01cH
	DB	020H
	DB	0ffH
	DB	018H
	DB	01cH
	DB	020H
	DB	0ffH
	DB	020H
	DB	01cH
	DB	020H
	DB	0ffH
	DB	018H
	DB	01cH
	DB	020H
	DB	0ffH
	DB	018H
	DB	01cH
	DB	018H
	DB	0ffH
	DB	020H
	DB	01cH
	DB	020H
	DB	0ffH
	DB	020H
	DB	01cH
	DB	020H
	DB	0ffH
	DB	018H
	DB	01cH
	DB	020H
	DB	0ffH
	DB	020H
	DB	01cH
	DB	018H
	DB	0ffH
	DB	020H
	DB	01cH
	DB	020H
	DB	0ffH
	DB	018H
	DB	01cH
	DB	020H
	DB	0ffH
	DB	020H
	DB	01cH
	DB	020H
	DB	0ffH
	DB	018H
	DB	01cH
	DB	020H
	DB	0ffH
	DB	018H
	DB	01cH
	DB	018H
	DB	0ffH
	DB	020H
	DB	01cH
	DB	020H
	DB	0ffH
	DB	020H
	DB	01cH
	DB	020H
	DB	0ffH
	DB	018H
	DB	01cH
	DB	020H
	DB	0ffH
	DB	020H
	DB	01cH
	DB	018H
	DB	0ffH
	DB	020H
	DB	01cH
	DB	020H
	DB	0ffH
	DB	018H
	DB	01cH
	DB	020H
	DB	0ffH
	DB	020H
	DB	01cH
	DB	020H
	DB	0ffH
	DB	018H
	DB	01cH
	DB	020H
	DB	0ffH
	DB	018H
	DB	01cH
	DB	018H
	DB	0ffH
	DB	020H
	DB	01cH
	DB	020H
	DB	0ffH
	DB	020H
	DB	01cH
	DB	020H
	DB	0ffH
	DB	018H
	DB	01cH
	DB	020H
	DB	0ffH
	DB	020H
	DB	01cH
	DB	018H
	DB	0ffH
	DB	020H
	DB	01cH
	DB	020H
	DB	0ffH
	DB	018H
	DB	01cH
	DB	020H
	DB	0ffH
	DB	020H
	DB	01cH
	DB	020H
	DB	0ffH
	DB	018H
	DB	01cH
	DB	020H
	DB	0ffH
	DB	018H
	DB	01cH
	DB	018H
	DB	0ffH
	DB	020H
	DB	01cH
	DB	020H
	DB	0ffH
	DB	020H
	DB	01cH
	DB	020H
	DB	0ffH
	DB	018H
	DB	01cH
	DB	020H
	DB	0ffH
	DB	020H
	DB	01cH
	DB	018H
	DB	0ffH
	DB	020H
	DB	01cH
	DB	020H
	DB	0ffH
	DB	018H
	DB	01cH
	DB	020H
	DB	0ffH
	DB	020H
	DB	01cH
	DB	020H
	DB	0ffH
	DB	018H
	DB	01cH
	DB	020H
	DB	0ffH
	DB	018H
	DB	01cH
	DB	018H
	DB	0ffH
	DB	020H
	DB	01cH
	DB	020H
	DB	0ffH
	DB	020H
	DB	01cH
	DB	020H
	DB	0ffH
	DB	018H
	DB	01cH
	DB	020H
	DB	0ffH
	DB	020H
	DB	01cH
	DB	018H
	DB	0ffH
	DB	020H
	DB	01cH
	DB	020H
	DB	0ffH
	DB	018H
	DB	01cH
	DB	020H
	DB	0ffH
	DB	020H
	DB	01cH
	DB	020H
	DB	0ffH
	DB	018H
	DB	01cH
	DB	020H
	DB	0ffH
	DB	018H
	DB	01cH
	DB	018H
	DB	0ffH
	DB	020H
	DB	01cH
	DB	020H
	DB	0ffH
	DB	020H
	DB	01cH
	DB	020H
	DB	0ffH
	DB	018H
	DB	01cH
	DB	020H
	DB	0ffH
	DB	020H
	DB	01cH
	DB	018H
	DB	0ffH
	DB	020H
	DB	01cH
	DB	020H
	DB	0ffH
	DB	018H
	DB	01cH
	DB	020H
	DB	0ffH
	DB	020H
	DB	01cH
	DB	020H
	DB	0ffH
	DB	018H
	DB	01cH
	DB	020H
	DB	0ffH
	DB	018H
	DB	01cH
	DB	018H
	DB	0ffH
	DB	020H
	DB	01cH
	DB	020H
	DB	0ffH
	DB	020H
	DB	01cH
	DB	020H
	DB	0ffH
	DB	018H
	DB	01cH
	DB	020H
	DB	0ffH
	DB	020H
	DB	01cH
	DB	018H
	DB	0ffH
	DB	020H
	DB	01cH
	DB	020H
	DB	0ffH
	DB	018H
	DB	01cH
	DB	020H
	DB	0ffH
	DB	020H
	DB	01cH
	DB	020H
	DB	0ffH
	DB	018H
	DB	01cH
	DB	020H
	DB	0ffH
	DB	018H
	DB	01cH
	DB	018H
	DB	0ffH
	DB	020H
	DB	01cH
	DB	020H
	DB	0ffH
	DB	020H
	DB	01cH
	DB	020H
	DB	0ffH
	DB	018H
	DB	01cH
	DB	020H
	DB	0ffH
	DB	020H
	DB	01cH
	DB	018H
	DB	0ffH
	DB	020H
	DB	01cH
	DB	020H
	DB	0ffH
	DB	018H
	DB	01cH
	DB	020H
	DB	0ffH
	DB	020H
	DB	01cH
	DB	020H
	DB	0ffH
	DB	018H
	DB	01cH
	DB	020H
	DB	0ffH
	DB	018H
	DB	01cH
	DB	018H
	DB	0ffH
	DB	020H
	DB	01cH
	DB	020H
	DB	0ffH
	DB	020H
	DB	01cH
	DB	020H
	DB	0ffH
	DB	018H
	DB	01cH
	DB	020H
	DB	0ffH
	DB	020H
	DB	01cH
	DB	018H
	DB	0ffH
	DB	020H
	DB	01cH
	DB	020H
	DB	0ffH
	DB	018H
	DB	01cH
	DB	020H
	DB	0ffH
	DB	020H
	DB	01cH
	DB	020H
	DB	0ffH
	DB	018H
	DB	01cH
	DB	020H
	DB	0ffH
	DB	018H
	DB	01cH
	DB	018H
	DB	0ffH
	DB	020H
	DB	01cH
	DB	020H
	DB	0ffH
	DB	020H
	DB	01cH
	DB	020H
	DB	0ffH
	DB	018H
	DB	018H
	DB	018H
	DB	0ffH
	DB	018H
	DB	01cH
	DB	018H
	DB	0ffH
	DB	020H
	DB	018H
	DB	020H
	DB	0ffH
	DB	018H
	DB	01cH
	DB	018H
	DB	0ffH
	DB	018H
	DB	018H
	DB	018H
	DB	0ffH
	DB	018H
	DB	018H
	DB	020H
	DB	0ffH
	DB	020H
	DB	01cH
	DB	018H
	DB	0ffH
	DB	018H
	DB	01cH
	DB	020H
	DB	0ffH
	DB	020H
	DB	01cH
	DB	020H
	DB	0ffH
	DB	020H
	DB	01cH
	DB	020H
	DB	0ffH
	DB	020H
	DB	020H
	DB	020H
	DB	0ffH
	DB	020H
	DB	020H
	DB	020H
	DB	0fbH
	DB	020H
	DB	024H
	DB	020H
	DB	0ffH
	DB	020H
	DB	024H
	DB	020H
	DB	0ffH
	DB	020H
	DB	024H
	DB	020H
	DB	0ffH
	DB	020H
	DB	020H
	DB	020H
	DB	0ffH
	DB	020H
	DB	020H
	DB	020H
	DB	0ffH
	DB	020H
	DB	020H
	DB	020H
	DB	0ffH
	DB	020H
	DB	020H
	DB	020H
	DB	0ffH
	DB	020H
	DB	020H
	DB	020H
	DB	0ffH
	DB	020H
	DB	020H
	DB	020H
	DB	0ffH
	DB	020H
	DB	020H
	DB	020H
	DB	0ffH
	DB	020H
	DB	024H
	DB	020H
	DB	0ffH
	DB	020H
	DB	024H
	DB	020H
	DB	0ffH
	DB	028H
	DB	024H
	DB	020H
	DB	0ffH
	DB	020H
	DB	024H
	DB	020H
	DB	0ffH
	DB	028H
	DB	024H
	DB	020H
	DB	0ffH
	DB	028H
	DB	024H
	DB	028H
	DB	0ffH
	DB	020H
	DB	024H
	DB	028H
	DB	0ffH
	DB	028H
	DB	024H
	DB	020H
	DB	0ffH
	DB	028H
	DB	024H
	DB	028H
	DB	0ffH
	DB	020H
	DB	024H
	DB	020H
	DB	0ffH
	DB	028H
	DB	024H
	DB	028H
	DB	0ffH
	DB	028H
	DB	024H
	DB	028H
	DB	0ffH
	DB	020H
	DB	024H
	DB	020H
	DB	0ffH
	DB	028H
	DB	024H
	DB	020H
	DB	0ffH
	DB	028H
	DB	024H
	DB	028H
	DB	0ffH
	DB	020H
	DB	024H
	DB	028H
	DB	0ffH
	DB	028H
	DB	024H
	DB	020H
	DB	0ffH
	DB	028H
	DB	024H
	DB	028H
	DB	0ffH
	DB	020H
	DB	024H
	DB	020H
	DB	0ffH
	DB	028H
	DB	024H
	DB	028H
	DB	0ffH
	DB	028H
	DB	024H
	DB	028H
	DB	0ffH
	DB	020H
	DB	024H
	DB	020H
	DB	0ffH
	DB	028H
	DB	024H
	DB	020H
	DB	0ffH
	DB	028H
	DB	024H
	DB	028H
	DB	0ffH
	DB	028H
	DB	024H
	DB	028H
	DB	0ffH
	DB	020H
	DB	024H
	DB	020H
	DB	0ffH
	DB	028H
	DB	024H
	DB	028H
	DB	0ffH
	DB	028H
	DB	024H
	DB	020H
	DB	0ffH
	DB	020H
	DB	024H
	DB	028H
	DB	0ffH
	DB	028H
	DB	024H
	DB	028H
	DB	0ffH
	DB	028H
	DB	024H
	DB	020H
	DB	0ffH
	DB	028H
	DB	024H
	DB	020H
	DB	0ffH
	DB	028H
	DB	024H
	DB	028H
	DB	0ffH
	DB	020H
	DB	024H
	DB	028H
	DB	0ffH
	DB	028H
	DB	024H
	DB	020H
	DB	0ffH
	DB	028H
	DB	024H
	DB	028H
	DB	0ffH
	DB	020H
	DB	024H
	DB	020H
	DB	0ffH
	DB	028H
	DB	024H
	DB	028H
	DB	0ffH
	DB	028H
	DB	024H
	DB	028H
	DB	0ffH
	DB	020H
	DB	024H
	DB	020H
	DB	0ffH
	DB	028H
	DB	024H
	DB	020H
	DB	0ffH
	DB	028H
	DB	024H
	DB	028H
	DB	0ffH
	DB	028H
	DB	024H
	DB	028H
	DB	0ffH
	DB	020H
	DB	024H
	DB	020H
	DB	0ffH
	DB	028H
	DB	024H
	DB	028H
	DB	0ffH
	DB	028H
	DB	024H
	DB	020H
	DB	0ffH
	DB	020H
	DB	024H
	DB	028H
	DB	0ffH
	DB	028H
	DB	024H
	DB	028H
	DB	0ffH
	DB	028H
	DB	024H
	DB	020H
	DB	0ffH
	DB	028H
	DB	024H
	DB	020H
	DB	0ffH
	DB	028H
	DB	024H
	DB	028H
	DB	0ffH
	DB	020H
	DB	024H
	DB	028H
	DB	0ffH
	DB	028H
	DB	024H
	DB	020H
	DB	0ffH
	DB	028H
	DB	024H
	DB	028H
	DB	0ffH
	DB	020H
	DB	024H
	DB	020H
	DB	0ffH
	DB	028H
	DB	024H
	DB	028H
	DB	0ffH
	DB	028H
	DB	024H
	DB	028H
	DB	0ffH
	DB	020H
	DB	024H
	DB	020H
	DB	0ffH
	DB	028H
	DB	024H
	DB	020H
	DB	0ffH
	DB	028H
	DB	024H
	DB	028H
	DB	0ffH
	DB	028H
	DB	024H
	DB	028H
	DB	0ffH
	DB	020H
	DB	024H
	DB	020H
	DB	0ffH
	DB	028H
	DB	024H
	DB	028H
	DB	0ffH
	DB	028H
	DB	024H
	DB	020H
	DB	0ffH
	DB	020H
	DB	024H
	DB	028H
	DB	0ffH
	DB	028H
	DB	024H
	DB	028H
	DB	0ffH
	DB	028H
	DB	024H
	DB	020H
	DB	0ffH
	DB	028H
	DB	024H
	DB	020H
	DB	0ffH
	DB	028H
	DB	024H
	DB	028H
	DB	0ffH
	DB	020H
	DB	024H
	DB	028H
	DB	0ffH
	DB	028H
	DB	024H
	DB	020H
	DB	0ffH
	DB	028H
	DB	024H
	DB	028H
	DB	0ffH
	DB	020H
	DB	024H
	DB	020H
	DB	0ffH
	DB	028H
	DB	024H
	DB	028H
	DB	0ffH
	DB	028H
	DB	024H
	DB	028H
	DB	0ffH
	DB	020H
	DB	024H
	DB	020H
	DB	0ffH
	DB	028H
	DB	024H
	DB	020H
	DB	0ffH
	DB	028H
	DB	024H
	DB	028H
	DB	0ffH
	DB	028H
	DB	024H
	DB	028H
	DB	0ffH
	DB	020H
	DB	024H
	DB	020H
	DB	0ffH
	DB	028H
	DB	024H
	DB	028H
	DB	0ffH
	DB	028H
	DB	024H
	DB	020H
	DB	0ffH
	DB	020H
	DB	024H
	DB	028H
	DB	0ffH
	DB	028H
	DB	024H
	DB	028H
	DB	0ffH
	DB	028H
	DB	024H
	DB	020H
	DB	0ffH
	DB	028H
	DB	024H
	DB	020H
	DB	0ffH
	DB	028H
	DB	024H
	DB	028H
	DB	0ffH
	DB	020H
	DB	024H
	DB	028H
	DB	0ffH
	DB	028H
	DB	024H
	DB	020H
	DB	0ffH
	DB	028H
	DB	024H
	DB	028H
	DB	0ffH
	DB	020H
	DB	024H
	DB	020H
	DB	0ffH
	DB	028H
	DB	024H
	DB	028H
	DB	0ffH
	DB	028H
	DB	024H
	DB	028H
	DB	0ffH
	DB	020H
	DB	024H
	DB	020H
	DB	0ffH
	DB	028H
	DB	024H
	DB	020H
	DB	0ffH
	DB	028H
	DB	024H
	DB	028H
	DB	0ffH
	DB	028H
	DB	024H
	DB	028H
	DB	0ffH
	DB	020H
	DB	024H
	DB	020H
	DB	0ffH
	DB	028H
	DB	024H
	DB	028H
	DB	0ffH
	DB	028H
	DB	024H
	DB	020H
	DB	0ffH
	DB	020H
	DB	024H
	DB	028H
	DB	0ffH
	DB	028H
	DB	024H
	DB	028H
	DB	0ffH
	DB	028H
	DB	024H
	DB	020H
	DB	0ffH
	DB	028H
	DB	024H
	DB	020H
	DB	0ffH
	DB	028H
	DB	024H
	DB	028H
	DB	0ffH
	DB	020H
	DB	024H
	DB	020H
	DB	0ffH
	DB	020H
	DB	024H
	DB	020H
	DB	0ffH
	DB	028H
	DB	024H
	DB	028H
	DB	0ffH
	DB	020H
	DB	024H
	DB	020H
	DB	0ffH
	DB	020H
	DB	020H
	DB	020H
	DB	0ffH
	DB	020H
	DB	020H
	DB	020H
	DB	0ffH
	DB	020H
	DB	020H
	DB	020H
	DB	0ffH
	DB	020H
	DB	020H
	DB	020H
	DB	0ffH
	DB	020H
	DB	020H
	DB	020H
	DB	0ffH
	DB	020H
	DB	020H
	DB	020H
	DB	0ffH
	DB	020H
	DB	020H
	DB	020H
	DB	0ffH
	DB	020H
	DB	020H
	DB	020H
	DB	0ffH
	DB	020H
	DB	024H
	DB	020H
	DB	0ffH
	DB	020H
	DB	024H
	DB	020H
	DB	0ffH
	DB	020H
	DB	024H
	DB	020H
	DB	0ffH
	DB	028H
	DB	028H
	DB	028H
	DB	0ffH
	DB	028H
	DB	024H
	DB	028H
	DB	0ffH
	DB	028H
	DB	024H
	DB	028H
	DB	0ffH
	DB	028H
	DB	028H
	DB	028H
	DB	0ffH
	DB	028H
	DB	028H
	DB	020H
	DB	0ffH
	DB	028H
	DB	024H
	DB	028H
	DB	0ffH
	DB	028H
	DB	028H
	DB	028H
	DB	0ffH
	DB	028H
	DB	028H
	DB	028H
	DB	0ffH
	DB	028H
	DB	028H
	DB	028H
	DB	0ffH
	DB	028H
	DB	028H
	DB	028H
	DB	0ffH
	DB	028H
	DB	02cH
	DB	028H
	DB	0ffH
	DB	030H
	DB	02cH
	DB	028H
	DB	0ffH
	DB	028H
	DB	02cH
	DB	030H
	DB	0ffH
	DB	030H
	DB	02cH
	DB	030H
	DB	0ffH
	DB	030H
	DB	02cH
	DB	028H
	DB	0ffH
	DB	028H
	DB	02cH
	DB	028H
	DB	0ffH
	DB	030H
	DB	02cH
	DB	030H
	DB	0ffH
	DB	030H
	DB	02cH
	DB	028H
	DB	0ffH
	DB	028H
	DB	02cH
	DB	028H
	DB	0ffH
	DB	030H
	DB	02cH
	DB	030H
	DB	0ffH
	DB	030H
	DB	02cH
	DB	028H
	DB	0ffH
	DB	028H
	DB	02cH
	DB	028H
	DB	0ffH
	DB	030H
	DB	02cH
	DB	030H
	DB	0ffH
	DB	030H
	DB	02cH
	DB	028H
	DB	0ffH
	DB	028H
	DB	02cH
	DB	028H
	DB	0ffH
	DB	030H
	DB	02cH
	DB	030H
	DB	0ffH
	DB	030H
	DB	02cH
	DB	028H
	DB	0ffH
	DB	028H
	DB	02cH
	DB	028H
	DB	0ffH
	DB	030H
	DB	02cH
	DB	030H
	DB	0ffH
	DB	028H
	DB	02cH
	DB	028H
	DB	0ffH
	DB	030H
	DB	02cH
	DB	028H
	DB	0ffH
	DB	030H
	DB	02cH
	DB	030H
	DB	0ffH
	DB	028H
	DB	02cH
	DB	028H
	DB	0ffH
	DB	030H
	DB	02cH
	DB	028H
	DB	0ffH
	DB	030H
	DB	02cH
	DB	030H
	DB	0ffH
	DB	028H
	DB	02cH
	DB	028H
	DB	0ffH
	DB	030H
	DB	02cH
	DB	028H
	DB	0ffH
	DB	030H
	DB	02cH
	DB	030H
	DB	0ffH
	DB	028H
	DB	02cH
	DB	028H
	DB	0ffH
	DB	028H
	DB	02cH
	DB	028H
	DB	0ffH
	DB	030H
	DB	02cH
	DB	030H
	DB	0ffH
	DB	028H
	DB	02cH
	DB	028H
	DB	0ffH
	DB	030H
	DB	02cH
	DB	028H
	DB	0ffH
	DB	030H
	DB	02cH
	DB	030H
	DB	0ffH
	DB	028H
	DB	02cH
	DB	028H
	DB	0ffH
	DB	030H
	DB	02cH
	DB	028H
	DB	0ffH
	DB	028H
	DB	02cH
	DB	030H
	DB	0ffH
	DB	030H
	DB	02cH
	DB	028H
	DB	0ffH
	DB	030H
	DB	02cH
	DB	028H
	DB	0ffH
	DB	028H
	DB	02cH
	DB	030H
	DB	0ffH
	DB	030H
	DB	02cH
	DB	028H
	DB	0ffH
	DB	030H
	DB	02cH
	DB	028H
	DB	0ffH
	DB	028H
	DB	02cH
	DB	030H
	DB	0ffH
	DB	030H
	DB	02cH
	DB	028H
	DB	0ffH
	DB	028H
	DB	02cH
	DB	028H
	DB	0ffH
	DB	030H
	DB	02cH
	DB	030H
	DB	0ffH
	DB	028H
	DB	02cH
	DB	028H
	DB	0ffH
	DB	028H
	DB	02cH
	DB	028H
	DB	0ffH
	DB	030H
	DB	02cH
	DB	030H
	DB	0ffH
	DB	028H
	DB	02cH
	DB	028H
	DB	0ffH
	DB	030H
	DB	02cH
	DB	028H
	DB	0ffH
	DB	030H
	DB	02cH
	DB	030H
	DB	0ffH
	DB	028H
	DB	02cH
	DB	028H
	DB	0ffH
	DB	030H
	DB	02cH
	DB	028H
	DB	0ffH
	DB	028H
	DB	02cH
	DB	030H
	DB	0ffH
	DB	030H
	DB	02cH
	DB	028H
	DB	0ffH
	DB	030H
	DB	02cH
	DB	028H
	DB	0ffH
	DB	028H
	DB	02cH
	DB	030H
	DB	0ffH
	DB	030H
	DB	02cH
	DB	028H
	DB	0ffH
	DB	030H
	DB	02cH
	DB	028H
	DB	0ffH
	DB	028H
	DB	02cH
	DB	030H
	DB	0ffH
	DB	030H
	DB	02cH
	DB	028H
	DB	0ffH
	DB	028H
	DB	02cH
	DB	028H
	DB	0ffH
	DB	030H
	DB	02cH
	DB	030H
	DB	0ffH
	DB	028H
	DB	02cH
	DB	028H
	DB	0ffH
	DB	028H
	DB	02cH
	DB	028H
	DB	0ffH
	DB	030H
	DB	02cH
	DB	030H
	DB	0ffH
	DB	028H
	DB	02cH
	DB	028H
	DB	0ffH
	DB	030H
	DB	02cH
	DB	028H
	DB	0ffH
	DB	030H
	DB	02cH
	DB	030H
	DB	0ffH
	DB	028H
	DB	02cH
	DB	028H
	DB	0ffH
	DB	030H
	DB	02cH
	DB	028H
	DB	0ffH
	DB	028H
	DB	02cH
	DB	030H
	DB	0ffH
	DB	030H
	DB	02cH
	DB	028H
	DB	0ffH
	DB	030H
	DB	02cH
	DB	028H
	DB	0ffH
	DB	028H
	DB	02cH
	DB	030H
	DB	0ffH
	DB	030H
	DB	02cH
	DB	028H
	DB	0ffH
	DB	030H
	DB	02cH
	DB	028H
	DB	0ffH
	DB	028H
	DB	02cH
	DB	030H
	DB	0ffH
	DB	030H
	DB	02cH
	DB	028H
	DB	0ffH
	DB	028H
	DB	02cH
	DB	028H
	DB	0ffH
	DB	030H
	DB	02cH
	DB	030H
	DB	0ffH
	DB	028H
	DB	02cH
	DB	028H
	DB	0ffH
	DB	028H
	DB	02cH
	DB	028H
	DB	0ffH
	DB	030H
	DB	02cH
	DB	030H
	DB	0ffH
	DB	028H
	DB	02cH
	DB	028H
	DB	0ffH
	DB	030H
	DB	02cH
	DB	028H
	DB	0ffH
	DB	030H
	DB	02cH
	DB	030H
	DB	0ffH
	DB	028H
	DB	02cH
	DB	028H
	DB	0ffH
	DB	030H
	DB	02cH
	DB	028H
	DB	0ffH
	DB	028H
	DB	02cH
	DB	030H
	DB	0ffH
	DB	030H
	DB	02cH
	DB	028H
	DB	0ffH
	DB	030H
	DB	02cH
	DB	028H
	DB	0ffH
	DB	028H
	DB	02cH
	DB	030H
	DB	0ffH
	DB	030H
	DB	02cH
	DB	028H
	DB	0ffH
	DB	030H
	DB	02cH
	DB	028H
	DB	0ffH
	DB	028H
	DB	02cH
	DB	030H
	DB	0ffH
	DB	030H
	DB	02cH
	DB	028H
	DB	0ffH
	DB	028H
	DB	02cH
	DB	028H
	DB	0ffH
	DB	030H
	DB	02cH
	DB	030H
	DB	0ffH
	DB	028H
	DB	02cH
	DB	028H
	DB	0ffH
	DB	028H
	DB	02cH
	DB	028H
	DB	0ffH
	DB	030H
	DB	02cH
	DB	030H
	DB	0ffH
	DB	028H
	DB	02cH
	DB	028H
	DB	0ffH
	DB	030H
	DB	02cH
	DB	030H
	DB	0ffH
	DB	030H
	DB	02cH
	DB	030H
	DB	0ffH
	DB	030H
	DB	02cH
	DB	028H
	DB	0ffH
	DB	028H
	DB	02cH
	DB	028H
	DB	0ffH
	DB	028H
	DB	02cH
	DB	028H
	DB	0ffH
	DB	028H
	DB	028H
	DB	028H
	DB	0ffH
	DB	028H
	DB	028H
	DB	028H
	DB	0ffH
	DB	028H
	DB	028H
	DB	028H
	DB	0ffH
	DB	028H
	DB	028H
	DB	028H
	DB	0ffH
	DB	028H
	DB	028H
	DB	028H
	DB	0ffH
	DB	028H
	DB	028H
	DB	028H
	DB	0ffH
	DB	028H
	DB	024H
	DB	028H
	DB	0ffH
	DB	028H
	DB	028H
	DB	020H
	DB	0ffH
	DB	028H
	DB	024H
	DB	028H
	DB	0ffH
	DB	028H
	DB	024H
	DB	028H
	DB	0ffH
	DB	028H
	DB	028H
	DB	028H
	DB	0ffH
	DB	028H
	DB	028H
	DB	028H
	DB	0ffH
	DB	028H
	DB	028H
	DB	028H
	DB	0ffH
	DB	028H
	DB	02cH
	DB	028H
	DB	0ffH
	DB	028H
	DB	028H
	DB	028H
	DB	0ffH
	DB	028H
	DB	02cH
	DB	028H
	DB	0ffH
	DB	028H
	DB	02cH
	DB	028H
	DB	0ffH
	DB	030H
	DB	02cH
	DB	030H
	DB	0ffH
	DB	030H
	DB	030H
	DB	030H
	DB	0ffH
	DB	030H
	DB	030H
	DB	030H
	DB	0ffH
	DB	030H
	DB	030H
	DB	030H
	DB	0ffH
	DB	038H
	DB	034H
	DB	030H
	DB	0ffH
	DB	038H
	DB	034H
	DB	038H
	DB	0ffH
	DB	030H
	DB	034H
	DB	038H
	DB	0ffH
	DB	038H
	DB	034H
	DB	038H
	DB	0ffH
	DB	038H
	DB	038H
	DB	038H
	DB	0ffH
	DB	038H
	DB	038H
	DB	038H
	DB	0ffH
	DB	038H
	DB	034H
	DB	038H
	DB	0ffH
	DB	038H
	DB	038H
	DB	038H
	DB	0ffH
	DB	038H
	DB	038H
	DB	038H
	DB	0ffH
	DB	038H
	DB	038H
	DB	038H
	DB	0ffH
	DB	038H
	DB	038H
	DB	038H
	DB	0ffH
	DB	038H
	DB	038H
	DB	038H
	DB	0ffH
	DB	038H
	DB	038H
	DB	038H
	DB	0ffH
	DB	038H
	DB	038H
	DB	038H
	DB	0ffH
	DB	038H
	DB	038H
	DB	038H
	DB	0ffH
	DB	038H
	DB	038H
	DB	038H
	DB	0ffH
	DB	038H
	DB	038H
	DB	038H
	DB	0ffH
	DB	038H
	DB	038H
	DB	038H
	DB	0ffH
	DB	038H
	DB	038H
	DB	038H
	DB	0ffH
	DB	038H
	DB	038H
	DB	038H
	DB	0ffH
	DB	038H
	DB	038H
	DB	038H
	DB	0ffH
	DB	038H
	DB	038H
	DB	038H
	DB	0ffH
	DB	038H
	DB	038H
	DB	038H
	DB	0ffH
	DB	038H
	DB	038H
	DB	038H
	DB	0ffH
	DB	038H
	DB	038H
	DB	038H
	DB	0ffH
	DB	038H
	DB	038H
	DB	038H
	DB	0ffH
	DB	038H
	DB	038H
	DB	038H
	DB	0ffH
	DB	038H
	DB	038H
	DB	038H
	DB	0ffH
	DB	038H
	DB	038H
	DB	038H
	DB	0ffH
	DB	038H
	DB	038H
	DB	038H
	DB	0ffH
	DB	038H
	DB	038H
	DB	038H
	DB	0ffH
	DB	038H
	DB	038H
	DB	038H
	DB	0ffH
	DB	038H
	DB	038H
	DB	038H
	DB	0ffH
	DB	038H
	DB	038H
	DB	038H
	DB	0ffH
	DB	038H
	DB	038H
	DB	038H
	DB	0ffH
	DB	038H
	DB	038H
	DB	038H
	DB	0ffH
	DB	038H
	DB	038H
	DB	038H
	DB	0ffH
	DB	038H
	DB	038H
	DB	038H
	DB	0ffH
	DB	038H
	DB	038H
	DB	038H
	DB	0ffH
	DB	038H
	DB	038H
	DB	038H
	DB	0ffH
	DB	038H
	DB	038H
	DB	038H
	DB	0ffH
	DB	038H
	DB	038H
	DB	038H
	DB	0ffH
	DB	038H
	DB	038H
	DB	038H
	DB	0ffH
	DB	038H
	DB	038H
	DB	038H
	DB	0ffH
	DB	038H
	DB	038H
	DB	038H
	DB	0ffH
	DB	038H
	DB	038H
	DB	038H
	DB	0ffH
	DB	038H
	DB	038H
	DB	038H
	DB	0ffH
	DB	038H
	DB	038H
	DB	038H
	DB	0ffH
	DB	038H
	DB	038H
	DB	038H
	DB	0ffH
	DB	038H
	DB	038H
	DB	038H
	DB	0ffH
	DB	038H
	DB	038H
	DB	038H
	DB	0ffH
	DB	038H
	DB	038H
	DB	038H
	DB	0ffH
	DB	038H
	DB	038H
	DB	038H
	DB	0ffH
	DB	038H
	DB	038H
	DB	038H
	DB	0ffH
	DB	038H
	DB	038H
	DB	038H
	DB	0ffH
	DB	038H
	DB	038H
	DB	038H
	DB	0ffH
	DB	038H
	DB	038H
	DB	038H
	DB	0ffH
	DB	038H
	DB	038H
	DB	038H
	DB	0ffH
	DB	038H
	DB	038H
	DB	038H
	DB	0ffH
	DB	038H
	DB	038H
	DB	038H
	DB	0ffH
	DB	038H
	DB	038H
	DB	038H
	DB	0ffH
	DB	038H
	DB	038H
	DB	038H
	DB	0ffH
	DB	038H
	DB	038H
	DB	038H
	DB	0ffH
	DB	038H
	DB	038H
	DB	038H
	DB	0ffH
	DB	038H
	DB	038H
	DB	038H
	DB	0ffH
	DB	038H
	DB	038H
	DB	038H
	DB	0ffH
	DB	038H
	DB	038H
	DB	038H
	DB	0ffH
	DB	038H
	DB	038H
	DB	038H
	DB	0ffH
	DB	038H
	DB	038H
	DB	038H
	DB	0ffH
	DB	038H
	DB	038H
	DB	038H
	DB	0ffH
	DB	038H
	DB	038H
	DB	038H
	DB	0ffH
	DB	038H
	DB	038H
	DB	038H
	DB	0ffH
	DB	038H
	DB	038H
	DB	038H
	DB	0ffH
	DB	038H
	DB	038H
	DB	038H
	DB	0ffH
	DB	038H
	DB	038H
	DB	038H
	DB	0ffH
	DB	038H
	DB	038H
	DB	038H
	DB	0ffH
	DB	038H
	DB	038H
	DB	038H
	DB	0ffH
	DB	038H
	DB	038H
	DB	038H
	DB	0ffH
	DB	038H
	DB	038H
	DB	038H
	DB	0ffH
	DB	038H
	DB	038H
	DB	038H
	DB	0ffH
	DB	038H
	DB	038H
	DB	038H
	DB	0ffH
	DB	038H
	DB	038H
	DB	038H
	DB	0ffH
	DB	038H
	DB	038H
	DB	038H
	DB	0ffH
	DB	038H
	DB	038H
	DB	038H
	DB	0ffH
	DB	038H
	DB	038H
	DB	038H
	DB	0ffH
	DB	038H
	DB	038H
	DB	038H
	DB	0ffH
	DB	038H
	DB	038H
	DB	038H
	DB	0ffH
	DB	038H
	DB	038H
	DB	038H
	DB	0ffH
	DB	038H
	DB	038H
	DB	038H
	DB	0ffH
	DB	038H
	DB	038H
	DB	038H
	DB	0ffH
	DB	038H
	DB	038H
	DB	038H
	DB	0ffH
	DB	038H
	DB	038H
	DB	038H
	DB	0ffH
	DB	038H
	DB	038H
	DB	038H
	DB	0ffH
	DB	038H
	DB	038H
	DB	038H
	DB	0ffH
	DB	038H
	DB	038H
	DB	038H
	DB	0ffH
	DB	038H
	DB	038H
	DB	038H
	DB	0ffH
	DB	038H
	DB	038H
	DB	038H
	DB	0ffH
	DB	038H
	DB	038H
	DB	038H
	DB	0ffH
	DB	038H
	DB	038H
	DB	038H
	DB	0ffH
	DB	038H
	DB	038H
	DB	038H
	DB	0ffH
	DB	038H
	DB	038H
	DB	038H
	DB	0ffH
	DB	038H
	DB	038H
	DB	038H
	DB	0ffH
	DB	038H
	DB	038H
	DB	038H
	DB	0ffH
	DB	038H
	DB	038H
	DB	038H
	DB	0ffH
	DB	038H
	DB	038H
	DB	030H
	DB	0ffH
	DB	038H
	DB	034H
	DB	038H
	DB	0ffH
	DB	038H
	DB	038H
	DB	038H
	DB	0ffH
	DB	038H
	DB	034H
	DB	038H
	DB	0ffH
	DB	038H
	DB	034H
	DB	038H
	DB	0ffH
	DB	038H
	DB	034H
	DB	030H
	DB	0ffH
	DB	030H
	DB	034H
	DB	030H
	DB	0ffH
	DB	030H
	DB	030H
	DB	030H
	DB	0ffH
	DB	030H
	DB	030H
	DB	030H
	DB	0ffH
	DB	030H
	DB	02cH
	DB	028H
	DB	0ffH
	DB	030H
	DB	02cH
	DB	028H
	DB	0ffH
	DB	028H
	DB	02cH
	DB	028H
	DB	0ffH
	DB	028H
	DB	02cH
	DB	028H
	DB	0ffH
	DB	028H
	DB	028H
	DB	028H
	DB	0ffH
	DB	028H
	DB	028H
	DB	028H
	DB	0ffH
	DB	028H
	DB	02cH
	DB	028H
	DB	0ffH
	DB	030H
	DB	02cH
	DB	028H
	DB	0ffH
	DB	030H
	DB	02cH
	DB	028H
	DB	0ffH
	DB	030H
	DB	030H
	DB	030H
	DB	0ffH
	DB	030H
	DB	030H
	DB	030H
	DB	0ffH
	DB	030H
	DB	030H
	DB	030H
	DB	0ffH
	DB	030H
	DB	034H
	DB	030H
	DB	0ffH
	DB	038H
	DB	034H
	DB	030H
	DB	0ffH
	DB	038H
	DB	034H
	DB	038H
	DB	0ffH
	DB	038H
	DB	038H
	DB	038H
	DB	0ffH
	DB	038H
	DB	03cH
	DB	038H
	DB	0ffH
	DB	040H
	DB	03cH
	DB	038H
	DB	0ffH
	DB	040H
	DB	03cH
	DB	040H
	DB	0ffH
	DB	040H
	DB	03cH
	DB	038H
	DB	0ffH
	DB	040H
	DB	040H
	DB	040H
	DB	0ffH
	DB	040H
	DB	040H
	DB	040H
	DB	0ffH
	DB	040H
	DB	040H
	DB	038H
	DB	0ffH
	DB	040H
	DB	040H
	DB	040H
	DB	0ffH
	DB	040H
	DB	040H
	DB	040H
	DB	0ffH
	DB	040H
	DB	040H
	DB	040H
	DB	0ffH
	DB	040H
	DB	040H
	DB	040H
	DB	0ffH
	DB	040H
	DB	040H
	DB	040H
	DB	0ffH
	DB	040H
	DB	040H
	DB	040H
	DB	0ffH
	DB	040H
	DB	040H
	DB	040H
	DB	0ffH
	DB	040H
	DB	040H
	DB	040H
	DB	0ffH
	DB	040H
	DB	040H
	DB	040H
	DB	0ffH
	DB	040H
	DB	040H
	DB	040H
	DB	0ffH
	DB	040H
	DB	040H
	DB	040H
	DB	0ffH
	DB	040H
	DB	040H
	DB	040H
	DB	0ffH
	DB	040H
	DB	040H
	DB	040H
	DB	0ffH
	DB	040H
	DB	040H
	DB	040H
	DB	0ffH
	DB	040H
	DB	040H
	DB	040H
	DB	0ffH
	DB	040H
	DB	040H
	DB	040H
	DB	0ffH
	DB	040H
	DB	040H
	DB	040H
	DB	0ffH
	DB	040H
	DB	040H
	DB	040H
	DB	0ffH
	DB	040H
	DB	040H
	DB	040H
	DB	0ffH
	DB	040H
	DB	040H
	DB	040H
	DB	0ffH
	DB	040H
	DB	040H
	DB	040H
	DB	0ffH
	DB	040H
	DB	040H
	DB	040H
	DB	0ffH
	DB	040H
	DB	040H
	DB	040H
	DB	0ffH
	DB	040H
	DB	040H
	DB	040H
	DB	0ffH
	DB	040H
	DB	040H
	DB	040H
	DB	0ffH
	DB	040H
	DB	040H
	DB	040H
	DB	0ffH
	DB	040H
	DB	040H
	DB	040H
	DB	0ffH
	DB	040H
	DB	040H
	DB	040H
	DB	0ffH
	DB	040H
	DB	040H
	DB	040H
	DB	0ffH
	DB	040H
	DB	040H
	DB	040H
	DB	0ffH
	DB	040H
	DB	040H
	DB	040H
	DB	0ffH
	DB	040H
	DB	040H
	DB	040H
	DB	0ffH
	DB	040H
	DB	040H
	DB	040H
	DB	0ffH
	DB	040H
	DB	040H
	DB	040H
	DB	0ffH
	DB	040H
	DB	040H
	DB	040H
	DB	0ffH
	DB	040H
	DB	040H
	DB	040H
	DB	0ffH
	DB	040H
	DB	040H
	DB	040H
	DB	0ffH
	DB	040H
	DB	040H
	DB	040H
	DB	0ffH
	DB	040H
	DB	040H
	DB	040H
	DB	0ffH
	DB	040H
	DB	040H
	DB	040H
	DB	0ffH
	DB	040H
	DB	040H
	DB	040H
	DB	0ffH
	DB	040H
	DB	040H
	DB	040H
	DB	0ffH
	DB	040H
	DB	040H
	DB	040H
	DB	0ffH
	DB	040H
	DB	040H
	DB	040H
	DB	0ffH
	DB	040H
	DB	040H
	DB	040H
	DB	0ffH
	DB	040H
	DB	040H
	DB	040H
	DB	0ffH
	DB	040H
	DB	040H
	DB	040H
	DB	0ffH
	DB	040H
	DB	040H
	DB	040H
	DB	0ffH
	DB	040H
	DB	040H
	DB	040H
	DB	0ffH
	DB	040H
	DB	040H
	DB	040H
	DB	0ffH
	DB	040H
	DB	040H
	DB	040H
	DB	0ffH
	DB	040H
	DB	040H
	DB	040H
	DB	0ffH
	DB	040H
	DB	040H
	DB	040H
	DB	0ffH
	DB	040H
	DB	040H
	DB	040H
	DB	0ffH
	DB	040H
	DB	040H
	DB	040H
	DB	0ffH
	DB	040H
	DB	040H
	DB	040H
	DB	0ffH
	DB	040H
	DB	040H
	DB	040H
	DB	0ffH
	DB	040H
	DB	040H
	DB	040H
	DB	0ffH
	DB	040H
	DB	040H
	DB	040H
	DB	0ffH
	DB	040H
	DB	040H
	DB	040H
	DB	0ffH
	DB	040H
	DB	040H
	DB	040H
	DB	0ffH
	DB	040H
	DB	040H
	DB	040H
	DB	0ffH
	DB	040H
	DB	040H
	DB	040H
	DB	0ffH
	DB	040H
	DB	040H
	DB	040H
	DB	0ffH
	DB	040H
	DB	040H
	DB	040H
	DB	0ffH
	DB	040H
	DB	040H
	DB	040H
	DB	0ffH
	DB	040H
	DB	040H
	DB	040H
	DB	0ffH
	DB	040H
	DB	040H
	DB	040H
	DB	0ffH
	DB	040H
	DB	040H
	DB	040H
	DB	0ffH
	DB	040H
	DB	040H
	DB	040H
	DB	0ffH
	DB	040H
	DB	040H
	DB	040H
	DB	0ffH
	DB	040H
	DB	040H
	DB	040H
	DB	0ffH
	DB	040H
	DB	040H
	DB	040H
	DB	0ffH
	DB	040H
	DB	040H
	DB	040H
	DB	0ffH
	DB	040H
	DB	040H
	DB	040H
	DB	0ffH
	DB	040H
	DB	040H
	DB	040H
	DB	0ffH
	DB	040H
	DB	040H
	DB	040H
	DB	0ffH
	DB	040H
	DB	040H
	DB	040H
	DB	0ffH
	DB	040H
	DB	040H
	DB	040H
	DB	0ffH
	DB	040H
	DB	040H
	DB	040H
	DB	0ffH
	DB	040H
	DB	040H
	DB	040H
	DB	0ffH
	DB	040H
	DB	040H
	DB	040H
	DB	0ffH
	DB	040H
	DB	040H
	DB	040H
	DB	0ffH
	DB	040H
	DB	040H
	DB	040H
	DB	0ffH
	DB	040H
	DB	040H
	DB	040H
	DB	0ffH
	DB	040H
	DB	040H
	DB	040H
	DB	0ffH
	DB	040H
	DB	040H
	DB	040H
	DB	0ffH
	DB	040H
	DB	040H
	DB	040H
	DB	0ffH
	DB	040H
	DB	040H
	DB	040H
	DB	0ffH
	DB	040H
	DB	040H
	DB	040H
	DB	0ffH
	DB	040H
	DB	040H
	DB	040H
	DB	0ffH
	DB	040H
	DB	040H
	DB	040H
	DB	0ffH
	DB	040H
	DB	040H
	DB	040H
	DB	0ffH
	DB	040H
	DB	040H
	DB	040H
	DB	0ffH
	DB	040H
	DB	040H
	DB	040H
	DB	0ffH
	DB	040H
	DB	040H
	DB	040H
	DB	0ffH
	DB	040H
	DB	040H
	DB	040H
	DB	0ffH
	DB	040H
	DB	040H
	DB	040H
	DB	0ffH
	DB	040H
	DB	040H
	DB	040H
	DB	0ffH
	DB	040H
	DB	040H
	DB	040H
	DB	0ffH
	DB	040H
	DB	040H
	DB	040H
	DB	0ffH
	DB	038H
	DB	03cH
	DB	038H
	DB	0ffH
	DB	040H
	DB	03cH
	DB	040H
	DB	0ffH
	DB	040H
	DB	03cH
	DB	038H
	DB	0ffH
	DB	038H
	DB	03cH
	DB	038H
	DB	0ffH
	DB	038H
	DB	038H
	DB	038H
	DB	0ffH
	DB	038H
	DB	034H
	DB	038H
	DB	0ffH
	DB	030H
	DB	034H
	DB	030H
	DB	0ffH
	DB	030H
	DB	034H
	DB	030H
	DB	0ffH
	DB	030H
	DB	030H
	DB	030H
	DB	0ffH
	DB	030H
	DB	030H
	DB	030H
	DB	0ffH
	DB	030H
	DB	030H
	DB	030H
	DB	0ffH
	DB	030H
	DB	02cH
	DB	028H
	DB	0ffH
	DB	028H
	DB	02cH
	DB	028H
	DB	0ffH
	DB	030H
	DB	02cH
	DB	030H
	DB	0ffH
	DB	030H
	DB	030H
	DB	030H
	DB	0ffH
	DB	030H
	DB	030H
	DB	030H
	DB	0ffH
	DB	030H
	DB	030H
	DB	030H
	DB	0ffH
	DB	038H
	DB	034H
	DB	030H
	DB	0ffH
	DB	038H
	DB	038H
	DB	038H
	DB	0ffH
	DB	038H
	DB	038H
	DB	038H
	DB	0ffH
	DB	038H
	DB	03cH
	DB	038H
	DB	0ffH
	DB	040H
	DB	03cH
	DB	038H
	DB	0ffH
	DB	040H
	DB	040H
	DB	040H
	DB	0ffH
	DB	040H
	DB	040H
	DB	040H
	DB	0ffH
	DB	040H
	DB	044H
	DB	040H
	DB	0ffH
	DB	040H
	DB	044H
	DB	040H
	DB	0ffH
	DB	040H
	DB	044H
	DB	040H
	DB	0ffH
	DB	040H
	DB	044H
	DB	040H
	DB	0ffH
	DB	040H
	DB	044H
	DB	040H
	DB	0ffH
	DB	040H
	DB	044H
	DB	040H
	DB	0ffH
	DB	040H
	DB	044H
	DB	040H
	DB	0ffH
	DB	040H
	DB	044H
	DB	040H
	DB	0ffH
	DB	040H
	DB	044H
	DB	040H
	DB	0ffH
	DB	040H
	DB	044H
	DB	040H
	DB	0ffH
	DB	040H
	DB	044H
	DB	040H
	DB	0ffH
	DB	040H
	DB	044H
	DB	040H
	DB	0ffH
	DB	040H
	DB	044H
	DB	040H
	DB	0ffH
	DB	040H
	DB	044H
	DB	040H
	DB	0ffH
	DB	040H
	DB	044H
	DB	040H
	DB	0ffH
	DB	040H
	DB	044H
	DB	040H
	DB	0ffH
	DB	040H
	DB	044H
	DB	040H
	DB	0ffH
	DB	040H
	DB	044H
	DB	040H
	DB	0ffH
	DB	040H
	DB	044H
	DB	040H
	DB	0ffH
	DB	040H
	DB	044H
	DB	040H
	DB	0ffH
	DB	040H
	DB	044H
	DB	040H
	DB	0ffH
	DB	040H
	DB	044H
	DB	040H
	DB	0ffH
	DB	040H
	DB	044H
	DB	040H
	DB	0ffH
	DB	040H
	DB	044H
	DB	040H
	DB	0ffH
	DB	040H
	DB	044H
	DB	040H
	DB	0ffH
	DB	040H
	DB	044H
	DB	040H
	DB	0ffH
	DB	040H
	DB	044H
	DB	040H
	DB	0ffH
	DB	040H
	DB	044H
	DB	040H
	DB	0ffH
	DB	040H
	DB	044H
	DB	040H
	DB	0ffH
	DB	040H
	DB	044H
	DB	040H
	DB	0ffH
	DB	040H
	DB	044H
	DB	040H
	DB	0ffH
	DB	040H
	DB	044H
	DB	040H
	DB	0ffH
	DB	040H
	DB	044H
	DB	040H
	DB	0ffH
	DB	040H
	DB	044H
	DB	040H
	DB	0ffH
	DB	040H
	DB	044H
	DB	040H
	DB	0ffH
	DB	040H
	DB	044H
	DB	040H
	DB	0ffH
	DB	040H
	DB	044H
	DB	040H
	DB	0ffH
	DB	040H
	DB	044H
	DB	040H
	DB	0ffH
	DB	040H
	DB	044H
	DB	040H
	DB	0ffH
	DB	040H
	DB	044H
	DB	040H
	DB	0ffH
	DB	040H
	DB	044H
	DB	040H
	DB	0ffH
	DB	040H
	DB	044H
	DB	040H
	DB	0ffH
	DB	040H
	DB	044H
	DB	040H
	DB	0ffH
	DB	040H
	DB	044H
	DB	040H
	DB	0ffH
	DB	048H
	DB	044H
	DB	040H
	DB	0ffH
	DB	040H
	DB	044H
	DB	040H
	DB	0ffH
	DB	040H
	DB	044H
	DB	040H
	DB	0ffH
	DB	040H
	DB	044H
	DB	040H
	DB	0ffH
	DB	040H
	DB	044H
	DB	040H
	DB	0ffH
	DB	040H
	DB	044H
	DB	040H
	DB	0ffH
	DB	040H
	DB	044H
	DB	040H
	DB	0ffH
	DB	040H
	DB	044H
	DB	040H
	DB	0ffH
	DB	040H
	DB	044H
	DB	040H
	DB	0ffH
	DB	040H
	DB	044H
	DB	040H
	DB	0ffH
	DB	040H
	DB	044H
	DB	040H
	DB	0ffH
	DB	040H
	DB	044H
	DB	040H
	DB	0ffH
	DB	040H
	DB	044H
	DB	040H
	DB	0ffH
	DB	040H
	DB	044H
	DB	040H
	DB	0ffH
	DB	040H
	DB	044H
	DB	040H
	DB	0ffH
	DB	040H
	DB	044H
	DB	040H
	DB	0ffH
	DB	040H
	DB	044H
	DB	040H
	DB	0ffH
	DB	040H
	DB	044H
	DB	040H
	DB	0ffH
	DB	048H
	DB	044H
	DB	040H
	DB	0ffH
	DB	040H
	DB	044H
	DB	040H
	DB	0ffH
	DB	040H
	DB	044H
	DB	040H
	DB	0ffH
	DB	040H
	DB	044H
	DB	040H
	DB	0ffH
	DB	040H
	DB	044H
	DB	040H
	DB	0ffH
	DB	040H
	DB	044H
	DB	040H
	DB	0ffH
	DB	040H
	DB	044H
	DB	040H
	DB	0ffH
	DB	040H
	DB	044H
	DB	040H
	DB	0ffH
	DB	040H
	DB	044H
	DB	040H
	DB	0ffH
	DB	040H
	DB	044H
	DB	040H
	DB	0ffH
	DB	040H
	DB	044H
	DB	040H
	DB	0ffH
	DB	040H
	DB	044H
	DB	040H
	DB	0ffH
	DB	040H
	DB	044H
	DB	040H
	DB	0ffH
	DB	040H
	DB	044H
	DB	040H
	DB	0ffH
	DB	040H
	DB	044H
	DB	040H
	DB	0ffH
	DB	040H
	DB	044H
	DB	040H
	DB	0ffH
	DB	040H
	DB	044H
	DB	040H
	DB	0ffH
	DB	040H
	DB	044H
	DB	040H
	DB	0ffH
	DB	048H
	DB	044H
	DB	040H
	DB	0ffH
	DB	040H
	DB	044H
	DB	040H
	DB	0ffH
	DB	040H
	DB	044H
	DB	040H
	DB	0ffH
	DB	040H
	DB	044H
	DB	040H
	DB	0ffH
	DB	040H
	DB	044H
	DB	040H
	DB	0ffH
	DB	040H
	DB	044H
	DB	040H
	DB	0ffH
	DB	040H
	DB	044H
	DB	040H
	DB	0ffH
	DB	040H
	DB	044H
	DB	040H
	DB	0ffH
	DB	040H
	DB	044H
	DB	040H
	DB	0ffH
	DB	040H
	DB	044H
	DB	040H
	DB	0ffH
	DB	040H
	DB	044H
	DB	040H
	DB	0ffH
	DB	040H
	DB	044H
	DB	040H
	DB	0ffH
	DB	040H
	DB	044H
	DB	040H
	DB	0ffH
	DB	040H
	DB	044H
	DB	040H
	DB	0ffH
	DB	040H
	DB	044H
	DB	040H
	DB	0ffH
	DB	040H
	DB	044H
	DB	040H
	DB	0ffH
	DB	040H
	DB	044H
	DB	040H
	DB	0ffH
	DB	040H
	DB	044H
	DB	040H
	DB	0ffH
	DB	048H
	DB	044H
	DB	040H
	DB	0ffH
	DB	040H
	DB	044H
	DB	040H
	DB	0ffH
	DB	040H
	DB	044H
	DB	040H
	DB	0ffH
	DB	040H
	DB	044H
	DB	040H
	DB	0ffH
	DB	040H
	DB	044H
	DB	040H
	DB	0ffH
	DB	040H
	DB	044H
	DB	040H
	DB	0ffH
	DB	040H
	DB	044H
	DB	040H
	DB	0ffH
	DB	040H
	DB	044H
	DB	040H
	DB	0ffH
	DB	040H
	DB	044H
	DB	040H
	DB	0ffH
	DB	040H
	DB	040H
	DB	040H
	DB	0ffH
	DB	040H
	DB	040H
	DB	040H
	DB	0ffH
	DB	040H
	DB	040H
	DB	040H
	DB	0ffH
	DB	040H
	DB	03cH
	DB	040H
	DB	0ffH
	DB	038H
	DB	03cH
	DB	038H
	DB	0ffH
	DB	038H
	DB	038H
	DB	038H
	DB	0ffH
	DB	038H
	DB	038H
	DB	038H
	DB	0ffH
	DB	038H
	DB	034H
	DB	038H
	DB	0ffH
	DB	030H
	DB	030H
	DB	030H
	DB	0ffH
	DB	030H
	DB	030H
	DB	030H
	DB	0ffH
	DB	030H
	DB	030H
	DB	030H
	DB	0ffH
	DB	030H
	DB	02cH
	DB	030H
	DB	0ffH
	DB	030H
	DB	030H
	DB	030H
	DB	0ffH
	DB	030H
	DB	030H
	DB	030H
	DB	0ffH
	DB	030H
	DB	034H
	DB	030H
	DB	0ffH
	DB	030H
	DB	034H
	DB	030H
	DB	0ffH
	DB	038H
	DB	034H
	DB	038H
	DB	0ffH
	DB	038H
	DB	038H
	DB	038H
	DB	0ffH
	DB	038H
	DB	03cH
	DB	038H
	DB	0ffH
	DB	040H
	DB	03cH
	DB	040H
	DB	0ffH
	DB	040H
	DB	040H
	DB	040H
	DB	0ffH
	DB	040H
	DB	040H
	DB	040H
	DB	0ffH
	DB	040H
	DB	040H
	DB	040H
	DB	0ffH
	DB	040H
	DB	044H
	DB	040H
	DB	0ffH
	DB	048H
	DB	044H
	DB	048H
	DB	0ffH
	DB	040H
	DB	044H
	DB	040H
	DB	0ffH
	DB	048H
	DB	044H
	DB	040H
	DB	0ffH
	DB	048H
	DB	044H
	DB	048H
	DB	0ffH
	DB	040H
	DB	044H
	DB	040H
	DB	0ffH
	DB	048H
	DB	044H
	DB	040H
	DB	0ffH
	DB	048H
	DB	044H
	DB	040H
	DB	0ffH
	DB	040H
	DB	044H
	DB	040H
	DB	0ffH
	DB	048H
	DB	044H
	DB	048H
	DB	0ffH
	DB	048H
	DB	044H
	DB	040H
	DB	0ffH
	DB	048H
	DB	044H
	DB	040H
	DB	0ffH
	DB	040H
	DB	044H
	DB	040H
	DB	0ffH
	DB	048H
	DB	044H
	DB	040H
	DB	0ffH
	DB	048H
	DB	044H
	DB	048H
	DB	0ffH
	DB	048H
	DB	044H
	DB	040H
	DB	0ffH
	DB	048H
	DB	044H
	DB	040H
	DB	0ffH
	DB	048H
	DB	044H
	DB	040H
	DB	0ffH
	DB	048H
	DB	044H
	DB	040H
	DB	0ffH
	DB	048H
	DB	044H
	DB	048H
	DB	0ffH
	DB	048H
	DB	044H
	DB	040H
	DB	0ffH
	DB	048H
	DB	044H
	DB	040H
	DB	0ffH
	DB	040H
	DB	044H
	DB	040H
	DB	0ffH
	DB	048H
	DB	044H
	DB	040H
	DB	0ffH
	DB	048H
	DB	044H
	DB	048H
	DB	0ffH
	DB	048H
	DB	044H
	DB	040H
	DB	0ffH
	DB	048H
	DB	044H
	DB	040H
	DB	0ffH
	DB	048H
	DB	044H
	DB	040H
	DB	0ffH
	DB	048H
	DB	044H
	DB	040H
	DB	0ffH
	DB	048H
	DB	044H
	DB	048H
	DB	0ffH
	DB	048H
	DB	044H
	DB	040H
	DB	0ffH
	DB	048H
	DB	044H
	DB	040H
	DB	0ffH
	DB	048H
	DB	044H
	DB	040H
	DB	0ffH
	DB	048H
	DB	044H
	DB	040H
	DB	0ffH
	DB	048H
	DB	044H
	DB	048H
	DB	0ffH
	DB	048H
	DB	044H
	DB	040H
	DB	0ffH
	DB	048H
	DB	044H
	DB	040H
	DB	0ffH
	DB	048H
	DB	044H
	DB	040H
	DB	0ffH
	DB	048H
	DB	044H
	DB	040H
	DB	0ffH
	DB	048H
	DB	044H
	DB	048H
	DB	0ffH
	DB	048H
	DB	044H
	DB	040H
	DB	0ffH
	DB	048H
	DB	044H
	DB	040H
	DB	0ffH
	DB	040H
	DB	044H
	DB	040H
	DB	0ffH
	DB	048H
	DB	044H
	DB	040H
	DB	0ffH
	DB	048H
	DB	044H
	DB	048H
	DB	0ffH
	DB	040H
	DB	044H
	DB	040H
	DB	0ffH
	DB	048H
	DB	044H
	DB	040H
	DB	0ffH
	DB	048H
	DB	044H
	DB	040H
	DB	0ffH
	DB	048H
	DB	044H
	DB	040H
	DB	0ffH
	DB	048H
	DB	044H
	DB	048H
	DB	0ffH
	DB	048H
	DB	044H
	DB	040H
	DB	0ffH
	DB	048H
	DB	044H
	DB	040H
	DB	0ffH
	DB	048H
	DB	044H
	DB	040H
	DB	0ffH
	DB	048H
	DB	044H
	DB	040H
	DB	0ffH
	DB	048H
	DB	044H
	DB	048H
	DB	0ffH
	DB	048H
	DB	044H
	DB	040H
	DB	0ffH
	DB	048H
	DB	044H
	DB	040H
	DB	0ffH
	DB	048H
	DB	044H
	DB	040H
	DB	0ffH
	DB	048H
	DB	044H
	DB	040H
	DB	0ffH
	DB	048H
	DB	044H
	DB	048H
	DB	0ffH
	DB	040H
	DB	044H
	DB	040H
	DB	0ffH
	DB	048H
	DB	044H
	DB	040H
	DB	0ffH
	DB	048H
	DB	044H
	DB	040H
	DB	0ffH
	DB	040H
	DB	044H
	DB	040H
	DB	0ffH
	DB	048H
	DB	044H
	DB	048H
	DB	0ffH
	DB	048H
	DB	044H
	DB	040H
	DB	0ffH
	DB	048H
	DB	044H
	DB	040H
	DB	0ffH
	DB	048H
	DB	044H
	DB	040H
	DB	0ffH
	DB	048H
	DB	044H
	DB	040H
	DB	0ffH
	DB	048H
	DB	044H
	DB	048H
	DB	0ffH
	DB	048H
	DB	044H
	DB	040H
	DB	0ffH
	DB	048H
	DB	044H
	DB	040H
	DB	0ffH
	DB	048H
	DB	044H
	DB	040H
	DB	0ffH
	DB	048H
	DB	044H
	DB	040H
	DB	0ffH
	DB	048H
	DB	044H
	DB	048H
	DB	0ffH
	DB	048H
	DB	044H
	DB	040H
	DB	0ffH
	DB	048H
	DB	044H
	DB	040H
	DB	0ffH
	DB	048H
	DB	044H
	DB	040H
	DB	0ffH
	DB	040H
	DB	044H
	DB	040H
	DB	0ffH
	DB	048H
	DB	044H
	DB	048H
	DB	0ffH
	DB	048H
	DB	044H
	DB	040H
	DB	0ffH
	DB	040H
	DB	044H
	DB	040H
	DB	0ffH
	DB	048H
	DB	044H
	DB	040H
	DB	0ffH
	DB	048H
	DB	044H
	DB	040H
	DB	0ffH
	DB	048H
	DB	044H
	DB	048H
	DB	0ffH
	DB	048H
	DB	044H
	DB	040H
	DB	0ffH
	DB	048H
	DB	044H
	DB	040H
	DB	0ffH
	DB	048H
	DB	044H
	DB	040H
	DB	0ffH
	DB	048H
	DB	044H
	DB	040H
	DB	0ffH
	DB	048H
	DB	044H
	DB	048H
	DB	0ffH
	DB	048H
	DB	044H
	DB	040H
	DB	0ffH
	DB	048H
	DB	044H
	DB	040H
	DB	0ffH
	DB	048H
	DB	044H
	DB	040H
	DB	0ffH
	DB	048H
	DB	044H
	DB	040H
	DB	0ffH
	DB	048H
	DB	044H
	DB	048H
	DB	0ffH
	DB	048H
	DB	044H
	DB	040H
	DB	0ffH
	DB	040H
	DB	044H
	DB	040H
	DB	0ffH
	DB	048H
	DB	044H
	DB	040H
	DB	0ffH
	DB	048H
	DB	044H
	DB	040H
	DB	0ffH
	DB	040H
	DB	044H
	DB	040H
	DB	0ffH
	DB	048H
	DB	044H
	DB	040H
	DB	0ffH
	DB	048H
	DB	044H
	DB	040H
	DB	0ffH
	DB	048H
	DB	044H
	DB	040H
	DB	0ffH
	DB	040H
	DB	044H
	DB	040H
	DB	0ffH
	DB	048H
	DB	044H
	DB	040H
	DB	0ffH
	DB	048H
	DB	044H
	DB	048H
	DB	0ffH
	DB	040H
	DB	044H
	DB	040H
	DB	0ffH
	DB	040H
	DB	044H
	DB	040H
	DB	0ffH
	DB	040H
	DB	044H
	DB	040H
	DB	0ffH
	DB	040H
	DB	040H
	DB	040H
	DB	0ffH
	DB	040H
	DB	040H
	DB	040H
	DB	0ffH
	DB	040H
	DB	03cH
	DB	040H
	DB	0ffH
	DB	038H
	DB	03cH
	DB	038H
	DB	0ffH
	DB	038H
	DB	038H
	DB	038H
	DB	0ffH
	DB	038H
	DB	034H
	DB	038H
	DB	0ffH
	DB	030H
	DB	034H
	DB	030H
	DB	0ffH
	DB	030H
	DB	034H
	DB	030H
	DB	0ffH
	DB	030H
	DB	030H
	DB	030H
	DB	0ffH
	DB	030H
	DB	030H
	DB	030H
	DB	0ffH
	DB	030H
	DB	030H
	DB	030H
	DB	0ffH
	DB	030H
	DB	034H
	DB	030H
	DB	0ffH
	DB	038H
	DB	034H
	DB	030H
	DB	0ffH
	DB	038H
	DB	038H
	DB	038H
	DB	0ffH
	DB	038H
	DB	038H
	DB	038H
	DB	0ffH
	DB	038H
	DB	03cH
	DB	038H
	DB	0ffH
	DB	038H
	DB	03cH
	DB	038H
	DB	0ffH
	DB	040H
	DB	03cH
	DB	040H
	DB	0ffH
	DB	040H
	DB	040H
	DB	040H
	DB	0ffH
	DB	040H
	DB	040H
	DB	040H
	DB	0ffH
	DB	040H
	DB	044H
	DB	040H
	DB	0ffH
	DB	048H
	DB	044H
	DB	040H
	DB	0ffH
	DB	040H
	DB	044H
	DB	048H
	DB	0ffH
	DB	048H
	DB	044H
	DB	040H
	DB	0ffH
	DB	040H
	DB	044H
	DB	048H
	DB	0ffH
	DB	048H
	DB	044H
	DB	040H
	DB	0ffH
	DB	040H
	DB	044H
	DB	048H
	DB	0ffH
	DB	048H
	DB	044H
	DB	048H
	DB	0ffH
	DB	048H
	DB	044H
	DB	040H
	DB	0ffH
	DB	040H
	DB	044H
	DB	048H
	DB	0ffH
	DB	048H
	DB	044H
	DB	040H
	DB	0ffH
	DB	040H
	DB	044H
	DB	048H
	DB	0ffH
	DB	048H
	DB	044H
	DB	048H
	DB	0ffH
	DB	048H
	DB	044H
	DB	040H
	DB	0ffH
	DB	040H
	DB	044H
	DB	048H
	DB	0ffH
	DB	040H
	DB	044H
	DB	040H
	DB	0ffH
	DB	048H
	DB	044H
	DB	048H
	DB	0ffH
	DB	040H
	DB	044H
	DB	048H
	DB	0ffH
	DB	040H
	DB	044H
	DB	040H
	DB	0ffH
	DB	040H
	DB	044H
	DB	048H
	DB	0ffH
	DB	040H
	DB	044H
	DB	040H
	DB	0ffH
	DB	048H
	DB	044H
	DB	048H
	DB	0ffH
	DB	040H
	DB	044H
	DB	048H
	DB	0ffH
	DB	048H
	DB	044H
	DB	040H
	DB	0ffH
	DB	040H
	DB	044H
	DB	048H
	DB	0ffH
	DB	040H
	DB	044H
	DB	040H
	DB	0ffH
	DB	048H
	DB	044H
	DB	048H
	DB	0ffH
	DB	040H
	DB	044H
	DB	048H
	DB	0ffH
	DB	040H
	DB	044H
	DB	040H
	DB	0ffH
	DB	048H
	DB	044H
	DB	048H
	DB	0ffH
	DB	040H
	DB	044H
	DB	040H
	DB	0ffH
	DB	040H
	DB	044H
	DB	048H
	DB	0ffH
	DB	048H
	DB	044H
	DB	048H
	DB	0ffH
	DB	040H
	DB	044H
	DB	040H
	DB	0ffH
	DB	040H
	DB	044H
	DB	048H
	DB	0ffH
	DB	040H
	DB	044H
	DB	040H
	DB	0ffH
	DB	048H
	DB	044H
	DB	048H
	DB	0ffH
	DB	040H
	DB	044H
	DB	048H
	DB	0ffH
	DB	040H
	DB	044H
	DB	040H
	DB	0ffH
	DB	040H
	DB	044H
	DB	048H
	DB	0ffH
	DB	040H
	DB	044H
	DB	040H
	DB	0ffH
	DB	048H
	DB	044H
	DB	048H
	DB	0ffH
	DB	040H
	DB	044H
	DB	048H
	DB	0ffH
	DB	048H
	DB	044H
	DB	040H
	DB	0ffH
	DB	040H
	DB	044H
	DB	048H
	DB	0ffH
	DB	048H
	DB	044H
	DB	040H
	DB	0ffH
	DB	040H
	DB	044H
	DB	048H
	DB	0ffH
	DB	048H
	DB	044H
	DB	048H
	DB	0ffH
	DB	040H
	DB	044H
	DB	040H
	DB	0ffH
	DB	040H
	DB	044H
	DB	048H
	DB	0ffH
	DB	048H
	DB	044H
	DB	040H
	DB	0ffH
	DB	040H
	DB	044H
	DB	048H
	DB	0ffH
	DB	040H
	DB	044H
	DB	048H
	DB	0ffH
	DB	048H
	DB	044H
	DB	040H
	DB	0ffH
	DB	040H
	DB	044H
	DB	048H
	DB	0ffH
	DB	040H
	DB	044H
	DB	040H
	DB	0ffH
	DB	040H
	DB	044H
	DB	048H
	DB	0ffH
	DB	040H
	DB	044H
	DB	048H
	DB	0ffH
	DB	040H
	DB	044H
	DB	040H
	DB	0ffH
	DB	048H
	DB	044H
	DB	048H
	DB	0ffH
	DB	040H
	DB	044H
	DB	040H
	DB	0ffH
	DB	048H
	DB	044H
	DB	048H
	DB	0ffH
	DB	040H
	DB	044H
	DB	048H
	DB	0ffH
	DB	048H
	DB	044H
	DB	040H
	DB	0ffH
	DB	040H
	DB	044H
	DB	048H
	DB	0ffH
	DB	048H
	DB	044H
	DB	040H
	DB	0ffH
	DB	040H
	DB	044H
	DB	048H
	DB	0ffH
	DB	040H
	DB	044H
	DB	048H
	DB	0ffH
	DB	048H
	DB	044H
	DB	040H
	DB	0ffH
	DB	040H
	DB	044H
	DB	048H
	DB	0ffH
	DB	040H
	DB	044H
	DB	040H
	DB	0ffH
	DB	048H
	DB	044H
	DB	048H
	DB	0ffH
	DB	040H
	DB	044H
	DB	048H
	DB	0ffH
	DB	040H
	DB	044H
	DB	040H
	DB	0ffH
	DB	040H
	DB	044H
	DB	048H
	DB	0ffH
	DB	040H
	DB	044H
	DB	040H
	DB	0ffH
	DB	040H
	DB	044H
	DB	048H
	DB	0ffH
	DB	048H
	DB	044H
	DB	048H
	DB	0ffH
	DB	040H
	DB	044H
	DB	040H
	DB	0ffH
	DB	048H
	DB	044H
	DB	048H
	DB	0ffH
	DB	040H
	DB	044H
	DB	040H
	DB	0ffH
	DB	048H
	DB	044H
	DB	048H
	DB	0ffH
	DB	040H
	DB	044H
	DB	048H
	DB	0ffH
	DB	048H
	DB	044H
	DB	040H
	DB	0ffH
	DB	040H
	DB	044H
	DB	048H
	DB	0ffH
	DB	040H
	DB	044H
	DB	040H
	DB	0ffH
	DB	048H
	DB	044H
	DB	048H
	DB	0ffH
	DB	040H
	DB	044H
	DB	048H
	DB	0ffH
	DB	040H
	DB	044H
	DB	040H
	DB	0ffH
	DB	048H
	DB	044H
	DB	048H
	DB	0ffH
	DB	040H
	DB	044H
	DB	040H
	DB	0ffH
	DB	040H
	DB	044H
	DB	048H
	DB	0ffH
	DB	040H
	DB	044H
	DB	048H
	DB	0ffH
	DB	040H
	DB	044H
	DB	040H
	DB	0ffH
	DB	040H
	DB	044H
	DB	048H
	DB	0ffH
	DB	048H
	DB	044H
	DB	040H
	DB	0ffH
	DB	040H
	DB	044H
	DB	048H
	DB	0ffH
	DB	048H
	DB	044H
	DB	048H
	DB	0ffH
	DB	040H
	DB	044H
	DB	048H
	DB	0ffH
	DB	040H
	DB	044H
	DB	048H
	DB	0ffH
	DB	048H
	DB	044H
	DB	048H
	DB	0ffH
	DB	040H
	DB	044H
	DB	048H
	DB	0ffH
	DB	048H
	DB	044H
	DB	048H
	DB	0ffH
	DB	040H
	DB	044H
	DB	048H
	DB	0ffH
	DB	048H
	DB	044H
	DB	040H
	DB	0ffH
	DB	048H
	DB	044H
	DB	048H
	DB	0ffH
	DB	040H
	DB	044H
	DB	048H
	DB	0ffH
	DB	048H
	DB	044H
	DB	040H
	DB	0ffH
	DB	048H
	DB	044H
	DB	048H
	DB	0ffH
	DB	040H
	DB	044H
	DB	040H
	DB	0ffH
	DB	040H
	DB	040H
	DB	040H
	DB	0ffH
	DB	040H
	DB	040H
	DB	040H
	DB	0ffH
	DB	040H
	DB	040H
	DB	040H
	DB	0ffH
	DB	040H
	DB	03cH
	DB	038H
	DB	0ffH
	DB	038H
	DB	038H
	DB	038H
	DB	0ffH
	DB	038H
	DB	038H
	DB	038H
	DB	0ffH
	DB	038H
	DB	038H
	DB	038H
	DB	0ffH
	DB	038H
	DB	034H
	DB	030H
	DB	0ffH
	DB	030H
	DB	034H
	DB	030H
	DB	0ffH
	DB	030H
	DB	030H
	DB	030H
	DB	0ffH
	DB	030H
	DB	030H
	DB	030H
	DB	0ffH
	DB	030H
	DB	034H
	DB	030H
	DB	0ffH
	DB	038H
	DB	034H
	DB	038H
	DB	0ffH
	DB	038H
	DB	038H
	DB	038H
	DB	0ffH
	DB	038H
	DB	038H
	DB	038H
	DB	0ffH
	DB	038H
	DB	038H
	DB	038H
	DB	0ffH
	DB	040H
	DB	03cH
	DB	038H
	DB	0ffH
	DB	040H
	DB	040H
	DB	040H
	DB	0ffH
	DB	040H
	DB	040H
	DB	040H
	DB	0ffH
	DB	040H
	DB	044H
	DB	040H
	DB	0ffH
	DB	040H
	DB	044H
	DB	040H
	DB	0ffH
	DB	048H
	DB	044H
	DB	048H
	DB	0ffH
	DB	048H
	DB	044H
	DB	040H
	DB	0ffH
	DB	040H
	DB	044H
	DB	040H
	DB	0ffH
	DB	040H
	DB	044H
	DB	040H
	DB	0ffH
	DB	048H
	DB	044H
	DB	040H
	DB	0ffH
	DB	040H
	DB	044H
	DB	048H
	DB	0ffH
	DB	040H
	DB	044H
	DB	040H
	DB	0ffH
	DB	040H
	DB	044H
	DB	040H
	DB	0ffH
	DB	048H
	DB	044H
	DB	048H
	DB	0ffH
	DB	040H
	DB	044H
	DB	040H
	DB	0ffH
	DB	040H
	DB	044H
	DB	040H
	DB	0ffH
	DB	040H
	DB	044H
	DB	048H
	DB	0ffH
	DB	048H
	DB	044H
	DB	040H
	DB	0ffH
	DB	040H
	DB	044H
	DB	040H
	DB	0ffH
	DB	040H
	DB	044H
	DB	040H
	DB	0ffH
	DB	048H
	DB	044H
	DB	040H
	DB	0ffH
	DB	040H
	DB	044H
	DB	048H
	DB	0ffH
	DB	048H
	DB	044H
	DB	040H
	DB	0ffH
	DB	048H
	DB	044H
	DB	040H
	DB	0ffH
	DB	040H
	DB	044H
	DB	040H
	DB	0ffH
	DB	040H
	DB	044H
	DB	040H
	DB	0ffH
	DB	048H
	DB	044H
	DB	048H
	DB	0ffH
	DB	048H
	DB	044H
	DB	040H
	DB	0ffH
	DB	040H
	DB	044H
	DB	040H
	DB	0ffH
	DB	040H
	DB	044H
	DB	040H
	DB	0ffH
	DB	048H
	DB	044H
	DB	040H
	DB	0ffH
	DB	040H
	DB	044H
	DB	048H
	DB	0ffH
	DB	040H
	DB	044H
	DB	040H
	DB	0ffH
	DB	048H
	DB	044H
	DB	040H
	DB	0ffH
	DB	040H
	DB	044H
	DB	040H
	DB	0ffH
	DB	040H
	DB	044H
	DB	040H
	DB	0ffH
	DB	048H
	DB	044H
	DB	048H
	DB	0ffH
	DB	040H
	DB	044H
	DB	040H
	DB	0ffH
	DB	040H
	DB	044H
	DB	040H
	DB	0ffH
	DB	048H
	DB	044H
	DB	040H
	DB	0ffH
	DB	040H
	DB	044H
	DB	040H
	DB	0ffH
	DB	040H
	DB	044H
	DB	048H
	DB	0ffH
	DB	048H
	DB	044H
	DB	040H
	DB	0ffH
	DB	048H
	DB	044H
	DB	040H
	DB	0ffH
	DB	040H
	DB	044H
	DB	040H
	DB	0ffH
	DB	040H
	DB	044H
	DB	040H
	DB	0ffH
	DB	048H
	DB	044H
	DB	048H
	DB	0ffH
	DB	040H
	DB	044H
	DB	040H
	DB	0ffH
	DB	048H
	DB	044H
	DB	040H
	DB	0ffH
	DB	040H
	DB	044H
	DB	040H
	DB	0ffH
	DB	048H
	DB	044H
	DB	040H
	DB	0ffH
	DB	040H
	DB	044H
	DB	048H
	DB	0ffH
	DB	048H
	DB	044H
	DB	040H
	DB	0ffH
	DB	040H
	DB	044H
	DB	040H
	DB	0ffH
	DB	040H
	DB	044H
	DB	040H
	DB	0ffH
	DB	048H
	DB	044H
	DB	040H
	DB	0ffH
	DB	040H
	DB	044H
	DB	048H
	DB	0ffH
	DB	040H
	DB	044H
	DB	040H
	DB	0ffH
	DB	048H
	DB	044H
	DB	040H
	DB	0ffH
	DB	048H
	DB	044H
	DB	040H
	DB	0ffH
	DB	040H
	DB	044H
	DB	040H
	DB	0ffH
	DB	048H
	DB	044H
	DB	048H
	DB	0ffH
	DB	040H
	DB	044H
	DB	040H
	DB	0ffH
	DB	040H
	DB	044H
	DB	040H
	DB	0ffH
	DB	048H
	DB	044H
	DB	040H
	DB	0ffH
	DB	040H
	DB	044H
	DB	040H
	DB	0ffH
	DB	048H
	DB	044H
	DB	048H
	DB	0ffH
	DB	040H
	DB	044H
	DB	040H
	DB	0ffH
	DB	048H
	DB	044H
	DB	040H
	DB	0ffH
	DB	040H
	DB	044H
	DB	040H
	DB	0ffH
	DB	048H
	DB	044H
	DB	040H
	DB	0ffH
	DB	040H
	DB	044H
	DB	048H
	DB	0ffH
	DB	040H
	DB	044H
	DB	040H
	DB	0ffH
	DB	048H
	DB	044H
	DB	040H
	DB	0ffH
	DB	040H
	DB	044H
	DB	040H
	DB	0ffH
	DB	040H
	DB	044H
	DB	040H
	DB	0ffH
	DB	048H
	DB	044H
	DB	048H
	DB	0ffH
	DB	048H
	DB	044H
	DB	040H
	DB	0ffH
	DB	040H
	DB	044H
	DB	040H
	DB	0ffH
	DB	048H
	DB	044H
	DB	040H
	DB	0ffH
	DB	040H
	DB	044H
	DB	040H
	DB	0ffH
	DB	040H
	DB	044H
	DB	048H
	DB	0ffH
	DB	048H
	DB	044H
	DB	040H
	DB	0ffH
	DB	040H
	DB	044H
	DB	040H
	DB	0ffH
	DB	048H
	DB	044H
	DB	040H
	DB	0ffH
	DB	040H
	DB	044H
	DB	040H
	DB	0ffH
	DB	048H
	DB	044H
	DB	048H
	DB	0ffH
	DB	040H
	DB	044H
	DB	040H
	DB	0ffH
	DB	048H
	DB	044H
	DB	040H
	DB	0ffH
	DB	040H
	DB	044H
	DB	040H
	DB	0ffH
	DB	040H
	DB	044H
	DB	040H
	DB	0ffH
	DB	048H
	DB	044H
	DB	048H
	DB	0ffH
	DB	040H
	DB	044H
	DB	040H
	DB	0ffH
	DB	040H
	DB	044H
	DB	040H
	DB	0ffH
	DB	048H
	DB	044H
	DB	040H
	DB	0ffH
	DB	048H
	DB	044H
	DB	040H
	DB	0ffH
	DB	040H
	DB	044H
	DB	048H
	DB	0ffH
	DB	048H
	DB	044H
	DB	040H
	DB	0ffH
	DB	040H
	DB	044H
	DB	040H
	DB	0ffH
	DB	040H
	DB	044H
	DB	040H
	DB	0ffH
	DB	048H
	DB	044H
	DB	040H
	DB	0ffH
	DB	048H
	DB	044H
	DB	040H
	DB	0ffH
	DB	040H
	DB	044H
	DB	040H
	DB	0ffH
	DB	048H
	DB	044H
	DB	040H
	DB	0ffH
	DB	048H
	DB	044H
	DB	040H
	DB	0ffH
	DB	040H
	DB	044H
	DB	040H
	DB	0ffH
	DB	040H
	DB	044H
	DB	040H
	DB	0ffH
	DB	048H
	DB	044H
	DB	040H
	DB	0ffH
	DB	040H
	DB	044H
	DB	048H
	DB	0ffH
	DB	040H
	DB	044H
	DB	040H
	DB	0ffH
	DB	048H
	DB	044H
	DB	040H
	DB	0ffH
	DB	040H
	DB	044H
	DB	040H
	DB	0ffH
	DB	048H
	DB	044H
	DB	048H
	DB	0ffH
	DB	040H
	DB	044H
	DB	040H
	DB	0ffH
	DB	040H
	DB	040H
	DB	040H
	DB	0ffH
	DB	040H
	DB	040H
	DB	040H
	DB	0ffH
	DB	040H
	DB	040H
	DB	040H
	DB	0ffH
	DB	038H
	DB	03cH
	DB	038H
	DB	0ffH
	DB	038H
	DB	038H
	DB	038H
	DB	0ffH
	DB	038H
	DB	038H
	DB	038H
	DB	0ffH
	DB	038H
	DB	038H
	DB	038H
	DB	0ffH
	DB	038H
	DB	034H
	DB	030H
	DB	0ffH
	DB	030H
	DB	034H
	DB	030H
	DB	0ffH
	DB	030H
	DB	030H
	DB	030H
	DB	0ffH
	DB	030H
	DB	030H
	DB	030H
	DB	0ffH
	DB	038H
	DB	034H
	DB	030H
	DB	0ffH
	DB	038H
	DB	034H
	DB	038H
	DB	0ffH
	DB	038H
	DB	038H
	DB	038H
	DB	0ffH
	DB	038H
	DB	038H
	DB	038H
	DB	0ffH
	DB	038H
	DB	03cH
	DB	038H
	DB	0ffH
	DB	040H
	DB	03cH
	DB	040H
	DB	0ffH
	DB	040H
	DB	040H
	DB	040H
	DB	0ffH
	DB	040H
	DB	040H
	DB	040H
	DB	0ffH
	DB	040H
	DB	040H
	DB	040H
	DB	0ffH
	DB	040H
	DB	044H
	DB	040H
	DB	0ffH
	DB	048H
	DB	044H
	DB	040H
	DB	0ffH
	DB	040H
	DB	044H
	DB	048H
	DB	0ffH
	DB	048H
	DB	044H
	DB	048H
	DB	0ffH
	DB	048H
	DB	044H
	DB	040H
	DB	0ffH
	DB	040H
	DB	044H
	DB	048H
	DB	0ffH
	DB	048H
	DB	044H
	DB	040H
	DB	0ffH
	DB	048H
	DB	044H
	DB	040H
	DB	0ffH
	DB	040H
	DB	044H
	DB	048H
	DB	0ffH
	DB	048H
	DB	044H
	DB	040H
	DB	0ffH
	DB	048H
	DB	044H
	DB	040H
	DB	0ffH
	DB	040H
	DB	044H
	DB	040H
	DB	0ffH
	DB	048H
	DB	044H
	DB	048H
	DB	0ffH
	DB	048H
	DB	044H
	DB	040H
	DB	0ffH
	DB	040H
	DB	044H
	DB	048H
	DB	0ffH
	DB	048H
	DB	044H
	DB	048H
	DB	0ffH
	DB	048H
	DB	044H
	DB	040H
	DB	0ffH
	DB	040H
	DB	044H
	DB	040H
	DB	0ffH
	DB	048H
	DB	044H
	DB	048H
	DB	0ffH
	DB	048H
	DB	044H
	DB	048H
	DB	0ffH
	DB	040H
	DB	044H
	DB	040H
	DB	0ffH
	DB	048H
	DB	044H
	DB	040H
	DB	0ffH
	DB	040H
	DB	044H
	DB	048H
	DB	0ffH
	DB	048H
	DB	044H
	DB	040H
	DB	0ffH
	DB	048H
	DB	044H
	DB	048H
	DB	0ffH
	DB	040H
	DB	044H
	DB	048H
	DB	0ffH
	DB	048H
	DB	044H
	DB	040H
	DB	0ffH
	DB	048H
	DB	044H
	DB	040H
	DB	0ffH
	DB	040H
	DB	044H
	DB	048H
	DB	0ffH
	DB	048H
	DB	044H
	DB	048H
	DB	0ffH
	DB	048H
	DB	044H
	DB	040H
	DB	0ffH
	DB	040H
	DB	044H
	DB	040H
	DB	0ffH
	DB	048H
	DB	044H
	DB	048H
	DB	0ffH
	DB	048H
	DB	044H
	DB	040H
	DB	0ffH
	DB	048H
	DB	044H
	DB	048H
	DB	0ffH
	DB	048H
	DB	044H
	DB	048H
	DB	0ffH
	DB	040H
	DB	044H
	DB	040H
	DB	0ffH
	DB	048H
	DB	044H
	DB	040H
	DB	0ffH
	DB	048H
	DB	044H
	DB	048H
	DB	0ffH
	DB	040H
	DB	044H
	DB	048H
	DB	0ffH
	DB	048H
	DB	044H
	DB	040H
	DB	0ffH
	DB	048H
	DB	044H
	DB	040H
	DB	0ffH
	DB	040H
	DB	044H
	DB	048H
	DB	0ffH
	DB	048H
	DB	044H
	DB	040H
	DB	0ffH
	DB	040H
	DB	044H
	DB	048H
	DB	0ffH
	DB	048H
	DB	044H
	DB	048H
	DB	0ffH
	DB	040H
	DB	044H
	DB	040H
	DB	0ffH
	DB	048H
	DB	044H
	DB	040H
	DB	0ffH
	DB	048H
	DB	044H
	DB	048H
	DB	0ffH
	DB	048H
	DB	044H
	DB	048H
	DB	0ffH
	DB	040H
	DB	044H
	DB	040H
	DB	0ffH
	DB	048H
	DB	044H
	DB	040H
	DB	0ffH
	DB	048H
	DB	044H
	DB	048H
	DB	0ffH
	DB	040H
	DB	044H
	DB	040H
	DB	0ffH
	DB	048H
	DB	044H
	DB	048H
	DB	0ffH
	DB	048H
	DB	044H
	DB	048H
	DB	0ffH
	DB	040H
	DB	044H
	DB	040H
	DB	0ffH
	DB	048H
	DB	044H
	DB	040H
	DB	0ffH
	DB	048H
	DB	044H
	DB	048H
	DB	0ffH
	DB	048H
	DB	044H
	DB	048H
	DB	0ffH
	DB	040H
	DB	044H
	DB	040H
	DB	0ffH
	DB	048H
	DB	044H
	DB	040H
	DB	0ffH
	DB	040H
	DB	044H
	DB	048H
	DB	0ffH
	DB	048H
	DB	044H
	DB	040H
	DB	0ffH
	DB	040H
	DB	044H
	DB	048H
	DB	0ffH
	DB	048H
	DB	044H
	DB	048H
	DB	0ffH
	DB	048H
	DB	044H
	DB	040H
	DB	0ffH
	DB	048H
	DB	044H
	DB	040H
	DB	0ffH
	DB	040H
	DB	044H
	DB	048H
	DB	0ffH
	DB	048H
	DB	044H
	DB	048H
	DB	0ffH
	DB	048H
	DB	044H
	DB	040H
	DB	0ffH
	DB	040H
	DB	044H
	DB	040H
	DB	0ffH
	DB	048H
	DB	044H
	DB	048H
	DB	0ffH
	DB	048H
	DB	044H
	DB	040H
	DB	0ffH
	DB	040H
	DB	044H
	DB	048H
	DB	0ffH
	DB	048H
	DB	044H
	DB	048H
	DB	0ffH
	DB	048H
	DB	044H
	DB	040H
	DB	0ffH
	DB	048H
	DB	044H
	DB	040H
	DB	0ffH
	DB	040H
	DB	044H
	DB	048H
	DB	0ffH
	DB	048H
	DB	044H
	DB	048H
	DB	0ffH
	DB	040H
	DB	044H
	DB	040H
	DB	0ffH
	DB	048H
	DB	044H
	DB	040H
	DB	0ffH
	DB	040H
	DB	044H
	DB	048H
	DB	0ffH
	DB	048H
	DB	044H
	DB	040H
	DB	0ffH
	DB	048H
	DB	044H
	DB	048H
	DB	0ffH
	DB	048H
	DB	044H
	DB	048H
	DB	0ffH
	DB	040H
	DB	044H
	DB	040H
	DB	0ffH
	DB	048H
	DB	044H
	DB	040H
	DB	0ffH
	DB	048H
	DB	044H
	DB	048H
	DB	0ffH
	DB	040H
	DB	044H
	DB	048H
	DB	0ffH
	DB	048H
	DB	044H
	DB	040H
	DB	0ffH
	DB	048H
	DB	044H
	DB	040H
	DB	0ffH
	DB	040H
	DB	044H
	DB	048H
	DB	0ffH
	DB	048H
	DB	044H
	DB	040H
	DB	0ffH
	DB	048H
	DB	044H
	DB	048H
	DB	0ffH
	DB	040H
	DB	044H
	DB	048H
	DB	0ffH
	DB	048H
	DB	044H
	DB	040H
	DB	0ffH
	DB	040H
	DB	044H
	DB	040H
	DB	0ffH
	DB	040H
	DB	044H
	DB	048H
	DB	0ffH
	DB	048H
	DB	044H
	DB	040H
	DB	0ffH
	DB	040H
	DB	044H
	DB	040H
	DB	0ffH
	DB	048H
	DB	044H
	DB	048H
	DB	0ffH
	DB	048H
	DB	044H
	DB	040H
	DB	0ffH
	DB	040H
	DB	044H
	DB	040H
	DB	0ffH
	DB	048H
	DB	044H
	DB	048H
	DB	0ffH
	DB	040H
	DB	044H
	DB	040H
	DB	0ffH
	DB	048H
	DB	044H
	DB	040H
	DB	0ffH
	DB	040H
	DB	044H
	DB	048H
	DB	0ffH
	DB	048H
	DB	044H
	DB	040H
	DB	0ffH
	DB	048H
	DB	044H
	DB	040H
	DB	0ffH
	DB	040H
	DB	040H
	DB	040H
	DB	0ffH
	DB	040H
	DB	040H
	DB	040H
	DB	0ffH
	DB	040H
	DB	040H
	DB	040H
	DB	0ffH
	DB	040H
	DB	03cH
	DB	038H
	DB	0ffH
	DB	038H
	DB	03cH
	DB	038H
	DB	0ffH
	DB	038H
	DB	038H
	DB	038H
	DB	0ffH
	DB	038H
	DB	038H
	DB	038H
	DB	0ffH
	DB	038H
	DB	034H
	DB	038H
	DB	0ffH
	DB	038H
	DB	034H
	DB	030H
	DB	0ffH
	DB	030H
	DB	034H
	DB	030H
	DB	0ffH
	DB	030H
	DB	034H
	DB	030H
	DB	0ffH
	DB	030H
	DB	034H
	DB	030H
	DB	0ffH
	DB	038H
	DB	038H
	DB	038H
	DB	0ffH
	DB	038H
	DB	038H
	DB	038H
	DB	0ffH
	DB	038H
	DB	038H
	DB	038H
	DB	0ffH
	DB	038H
	DB	03cH
	DB	038H
	DB	0ffH
	DB	040H
	DB	03cH
	DB	038H
	DB	0ffH
	DB	040H
	DB	040H
	DB	040H
	DB	0ffH
	DB	040H
	DB	040H
	DB	040H
	DB	0ffH
	DB	040H
	DB	040H
	DB	040H
	DB	0ffH
	DB	048H
	DB	044H
	DB	040H
	DB	0ffH
	DB	040H
	DB	044H
	DB	040H
	DB	0ffH
	DB	040H
	DB	044H
	DB	048H
	DB	0ffH
	DB	048H
	DB	044H
	DB	040H
	DB	0ffH
	DB	040H
	DB	044H
	DB	040H
	DB	0ffH
	DB	040H
	DB	044H
	DB	048H
	DB	0ffH
	DB	048H
	DB	044H
	DB	040H
	DB	0ffH
	DB	048H
	DB	044H
	DB	040H
	DB	0ffH
	DB	040H
	DB	044H
	DB	048H
	DB	0ffH
	DB	040H
	DB	044H
	DB	040H
	DB	0ffH
	DB	048H
	DB	044H
	DB	048H
	DB	0ffH
	DB	040H
	DB	044H
	DB	048H
	DB	0ffH
	DB	048H
	DB	044H
	DB	040H
	DB	0ffH
	DB	040H
	DB	044H
	DB	040H
	DB	0ffH
	DB	040H
	DB	044H
	DB	040H
	DB	0ffH
	DB	048H
	DB	044H
	DB	048H
	DB	0ffH
	DB	040H
	DB	044H
	DB	040H
	DB	0ffH
	DB	040H
	DB	044H
	DB	040H
	DB	0ffH
	DB	040H
	DB	044H
	DB	048H
	DB	0ffH
	DB	048H
	DB	044H
	DB	040H
	DB	0ffH
	DB	040H
	DB	044H
	DB	048H
	DB	0ffH
	DB	048H
	DB	044H
	DB	040H
	DB	0ffH
	DB	040H
	DB	044H
	DB	040H
	DB	0ffH
	DB	040H
	DB	044H
	DB	048H
	DB	0ffH
	DB	048H
	DB	044H
	DB	040H
	DB	0ffH
	DB	040H
	DB	044H
	DB	040H
	DB	0ffH
	DB	048H
	DB	044H
	DB	048H
	DB	0ffH
	DB	040H
	DB	044H
	DB	040H
	DB	0ffH
	DB	048H
	DB	044H
	DB	040H
	DB	0ffH
	DB	040H
	DB	044H
	DB	048H
	DB	0ffH
	DB	048H
	DB	044H
	DB	040H
	DB	0ffH
	DB	040H
	DB	044H
	DB	048H
	DB	0ffH
	DB	040H
	DB	044H
	DB	040H
	DB	0ffH
	DB	048H
	DB	044H
	DB	040H
	DB	0ffH
	DB	040H
	DB	044H
	DB	048H
	DB	0ffH
	DB	040H
	DB	044H
	DB	040H
	DB	0ffH
	DB	048H
	DB	044H
	DB	040H
	DB	0ffH
	DB	040H
	DB	044H
	DB	048H
	DB	0ffH
	DB	040H
	DB	044H
	DB	040H
	DB	0ffH
	DB	048H
	DB	044H
	DB	040H
	DB	0ffH
	DB	040H
	DB	044H
	DB	048H
	DB	0ffH
	DB	040H
	DB	044H
	DB	040H
	DB	0ffH
	DB	048H
	DB	044H
	DB	040H
	DB	0ffH
	DB	040H
	DB	044H
	DB	048H
	DB	0ffH
	DB	048H
	DB	044H
	DB	040H
	DB	0ffH
	DB	040H
	DB	044H
	DB	040H
	DB	0ffH
	DB	040H
	DB	044H
	DB	048H
	DB	0ffH
	DB	040H
	DB	044H
	DB	040H
	DB	0ffH
	DB	048H
	DB	044H
	DB	040H
	DB	0ffH
	DB	040H
	DB	044H
	DB	048H
	DB	0ffH
	DB	040H
	DB	044H
	DB	040H
	DB	0ffH
	DB	048H
	DB	044H
	DB	048H
	DB	0ffH
	DB	040H
	DB	044H
	DB	040H
	DB	0ffH
	DB	040H
	DB	044H
	DB	040H
	DB	0ffH
	DB	048H
	DB	044H
	DB	048H
	DB	0ffH
	DB	040H
	DB	044H
	DB	040H
	DB	0ffH
	DB	040H
	DB	044H
	DB	040H
	DB	0ffH
	DB	048H
	DB	044H
	DB	048H
	DB	0ffH
	DB	040H
	DB	044H
	DB	040H
	DB	0ffH
	DB	040H
	DB	044H
	DB	040H
	DB	0ffH
	DB	048H
	DB	044H
	DB	048H
	DB	0ffH
	DB	040H
	DB	044H
	DB	040H
	DB	0ffH
	DB	048H
	DB	044H
	DB	040H
	DB	0ffH
	DB	040H
	DB	044H
	DB	048H
	DB	0ffH
	DB	040H
	DB	044H
	DB	040H
	DB	0ffH
	DB	040H
	DB	044H
	DB	040H
	DB	0ffH
	DB	048H
	DB	044H
	DB	048H
	DB	0ffH
	DB	040H
	DB	044H
	DB	040H
	DB	0ffH
	DB	040H
	DB	044H
	DB	040H
	DB	0ffH
	DB	048H
	DB	044H
	DB	048H
	DB	0ffH
	DB	040H
	DB	044H
	DB	040H
	DB	0ffH
	DB	040H
	DB	044H
	DB	048H
	DB	0ffH
	DB	048H
	DB	044H
	DB	040H
	DB	0ffH
	DB	040H
	DB	044H
	DB	040H
	DB	0ffH
	DB	040H
	DB	044H
	DB	048H
	DB	0ffH
	DB	048H
	DB	044H
	DB	040H
	DB	0ffH
	DB	040H
	DB	044H
	DB	040H
	DB	0ffH
	DB	040H
	DB	044H
	DB	048H
	DB	0ffH
	DB	048H
	DB	044H
	DB	040H
	DB	0ffH
	DB	040H
	DB	044H
	DB	040H
	DB	0ffH
	DB	048H
	DB	044H
	DB	048H
	DB	0ffH
	DB	040H
	DB	044H
	DB	040H
	DB	0ffH
	DB	040H
	DB	044H
	DB	040H
	DB	0ffH
	DB	040H
	DB	044H
	DB	048H
	DB	0ffH
	DB	048H
	DB	044H
	DB	040H
	DB	0ffH
	DB	040H
	DB	044H
	DB	040H
	DB	0ffH
	DB	040H
	DB	044H
	DB	048H
	DB	0ffH
	DB	048H
	DB	044H
	DB	040H
	DB	0ffH
	DB	040H
	DB	044H
	DB	040H
	DB	0ffH
	DB	040H
	DB	044H
	DB	048H
	DB	0ffH
	DB	048H
	DB	044H
	DB	040H
	DB	0ffH
	DB	040H
	DB	044H
	DB	048H
	DB	0ffH
	DB	040H
	DB	044H
	DB	040H
	DB	0ffH
	DB	048H
	DB	044H
	DB	040H
	DB	0ffH
	DB	040H
	DB	044H
	DB	048H
	DB	0ffH
	DB	048H
	DB	044H
	DB	040H
	DB	0ffH
	DB	040H
	DB	044H
	DB	048H
	DB	0ffH
	DB	048H
	DB	044H
	DB	048H
	DB	0ffH
	DB	048H
	DB	044H
	DB	040H
	DB	0ffH
	DB	040H
	DB	044H
	DB	048H
	DB	0ffH
	DB	040H
	DB	044H
	DB	048H
	DB	0ffH
	DB	048H
	DB	044H
	DB	040H
	DB	0ffH
	DB	040H
	DB	044H
	DB	048H
	DB	0ffH
	DB	040H
	DB	044H
	DB	040H
	DB	0ffH
	DB	048H
	DB	044H
	DB	040H
	DB	0ffH
	DB	048H
	DB	044H
	DB	048H
	DB	0ffH
	DB	040H
	DB	044H
	DB	040H
	DB	0ffH
	DB	040H
	DB	044H
	DB	048H
	DB	0ffH
	DB	048H
	DB	044H
	DB	040H
	DB	0ffH
	DB	040H
	DB	044H
	DB	040H
	DB	0ffH
	DB	040H
	DB	040H
	DB	040H
	DB	0ffH
	DB	040H
	DB	040H
	DB	040H
	DB	0ffH
	DB	040H
	DB	040H
	DB	040H
	DB	0ffH
	DB	040H
	DB	03cH
	DB	040H
	DB	0ffH
	DB	038H
	DB	03cH
	DB	038H
	DB	0ffH
	DB	038H
	DB	038H
	DB	038H
	DB	0ffH
	DB	038H
	DB	038H
	DB	038H
	DB	0ffH
	DB	038H
	DB	038H
	DB	038H
	DB	0ffH
	DB	030H
	DB	034H
	DB	030H
	DB	0ffH
	DB	030H
	DB	030H
	DB	030H
	DB	0ffH
	DB	030H
	DB	034H
	DB	030H
	DB	0ffH
	DB	038H
	DB	034H
	DB	030H
	DB	0ffH
	DB	038H
	DB	034H
	DB	038H
	DB	0ffH
	DB	038H
	DB	038H
	DB	038H
	DB	0ffH
	DB	038H
	DB	038H
	DB	038H
	DB	0ffH
	DB	038H
	DB	03cH
	DB	038H
	DB	0ffH
	DB	040H
	DB	03cH
	DB	038H
	DB	0ffH
	DB	040H
	DB	040H
	DB	040H
	DB	0ffH
	DB	040H
	DB	040H
	DB	040H
	DB	0ffH
	DB	040H
	DB	044H
	DB	040H
	DB	0ffH
	DB	048H
	DB	044H
	DB	040H
	DB	0ffH
	DB	048H
	DB	044H
	DB	048H
	DB	0ffH
	DB	040H
	DB	044H
	DB	040H
	DB	0ffH
	DB	048H
	DB	044H
	DB	040H
	DB	0ffH
	DB	048H
	DB	044H
	DB	048H
	DB	0ffH
	DB	040H
	DB	044H
	DB	040H
	DB	0ffH
	DB	040H
	DB	044H
	DB	040H
	DB	0ffH
	DB	048H
	DB	044H
	DB	048H
	DB	0ffH
	DB	040H
	DB	044H
	DB	040H
	DB	0ffH
	DB	048H
	DB	044H
	DB	040H
	DB	0ffH
	DB	040H
	DB	044H
	DB	040H
	DB	0ffH
	DB	048H
	DB	044H
	DB	048H
	DB	0ffH
	DB	040H
	DB	044H
	DB	040H
	DB	0ffH
	DB	048H
	DB	044H
	DB	040H
	DB	0ffH
	DB	048H
	DB	044H
	DB	048H
	DB	0ffH
	DB	040H
	DB	044H
	DB	040H
	DB	0ffH
	DB	048H
	DB	044H
	DB	040H
	DB	0ffH
	DB	048H
	DB	044H
	DB	048H
	DB	0ffH
	DB	040H
	DB	044H
	DB	040H
	DB	0ffH
	DB	040H
	DB	044H
	DB	040H
	DB	0ffH
	DB	048H
	DB	044H
	DB	048H
	DB	0ffH
	DB	048H
	DB	044H
	DB	040H
	DB	0ffH
	DB	040H
	DB	044H
	DB	040H
	DB	0ffH
	DB	048H
	DB	044H
	DB	048H
	DB	0ffH
	DB	040H
	DB	044H
	DB	040H
	DB	0ffH
	DB	048H
	DB	044H
	DB	040H
	DB	0ffH
	DB	040H
	DB	044H
	DB	048H
	DB	0ffH
	DB	048H
	DB	044H
	DB	040H
	DB	0ffH
	DB	040H
	DB	044H
	DB	040H
	DB	0ffH
	DB	048H
	DB	044H
	DB	040H
	DB	0ffH
	DB	040H
	DB	044H
	DB	048H
	DB	0ffH
	DB	048H
	DB	044H
	DB	040H
	DB	0ffH
	DB	040H
	DB	044H
	DB	040H
	DB	0ffH
	DB	048H
	DB	044H
	DB	048H
	DB	0ffH
	DB	040H
	DB	044H
	DB	040H
	DB	0ffH
	DB	048H
	DB	044H
	DB	040H
	DB	0ffH
	DB	048H
	DB	044H
	DB	048H
	DB	0ffH
	DB	040H
	DB	044H
	DB	040H
	DB	0ffH
	DB	048H
	DB	044H
	DB	040H
	DB	0ffH
	DB	048H
	DB	044H
	DB	048H
	DB	0ffH
	DB	040H
	DB	044H
	DB	040H
	DB	0ffH
	DB	048H
	DB	044H
	DB	048H
	DB	0ffH
	DB	048H
	DB	044H
	DB	040H
	DB	0ffH
	DB	040H
	DB	044H
	DB	040H
	DB	0ffH
	DB	048H
	DB	044H
	DB	040H
	DB	0ffH
	DB	048H
	DB	044H
	DB	048H
	DB	0ffH
	DB	040H
	DB	044H
	DB	040H
	DB	0ffH
	DB	048H
	DB	044H
	DB	040H
	DB	0ffH
	DB	040H
	DB	044H
	DB	048H
	DB	0ffH
	DB	048H
	DB	044H
	DB	040H
	DB	0ffH
	DB	048H
	DB	044H
	DB	040H
	DB	0ffH
	DB	040H
	DB	044H
	DB	048H
	DB	0ffH
	DB	048H
	DB	044H
	DB	040H
	DB	0ffH
	DB	048H
	DB	044H
	DB	040H
	DB	0ffH
	DB	040H
	DB	044H
	DB	048H
	DB	0ffH
	DB	048H
	DB	044H
	DB	040H
	DB	0ffH
	DB	048H
	DB	044H
	DB	040H
	DB	0ffH
	DB	040H
	DB	044H
	DB	048H
	DB	0ffH
	DB	048H
	DB	044H
	DB	040H
	DB	0ffH
	DB	040H
	DB	044H
	DB	040H
	DB	0ffH
	DB	048H
	DB	044H
	DB	048H
	DB	0ffH
	DB	048H
	DB	044H
	DB	040H
	DB	0ffH
	DB	040H
	DB	044H
	DB	040H
	DB	0ffH
	DB	048H
	DB	044H
	DB	048H
	DB	0ffH
	DB	048H
	DB	044H
	DB	040H
	DB	0ffH
	DB	040H
	DB	044H
	DB	040H
	DB	0ffH
	DB	048H
	DB	044H
	DB	048H
	DB	0ffH
	DB	040H
	DB	044H
	DB	040H
	DB	0ffH
	DB	048H
	DB	044H
	DB	040H
	DB	0ffH
	DB	048H
	DB	044H
	DB	040H
	DB	0ffH
	DB	040H
	DB	044H
	DB	048H
	DB	0ffH
	DB	048H
	DB	044H
	DB	040H
	DB	0ffH
	DB	048H
	DB	044H
	DB	040H
	DB	0ffH
	DB	040H
	DB	044H
	DB	048H
	DB	0ffH
	DB	048H
	DB	044H
	DB	040H
	DB	0ffH
	DB	040H
	DB	044H
	DB	040H
	DB	0ffH
	DB	048H
	DB	044H
	DB	048H
	DB	0ffH
	DB	040H
	DB	044H
	DB	040H
	DB	0ffH
	DB	048H
	DB	044H
	DB	040H
	DB	0ffH
	DB	048H
	DB	044H
	DB	048H
	DB	0ffH
	DB	040H
	DB	044H
	DB	040H
	DB	0ffH
	DB	048H
	DB	044H
	DB	048H
	DB	0ffH
	DB	048H
	DB	044H
	DB	040H
	DB	0ffH
	DB	040H
	DB	044H
	DB	040H
	DB	0ffH
	DB	048H
	DB	044H
	DB	040H
	DB	0ffH
	DB	040H
	DB	044H
	DB	048H
	DB	0ffH
	DB	048H
	DB	044H
	DB	040H
	DB	0ffH
	DB	048H
	DB	044H
	DB	040H
	DB	0ffH
	DB	040H
	DB	044H
	DB	048H
	DB	0ffH
	DB	048H
	DB	044H
	DB	040H
	DB	0ffH
	DB	048H
	DB	044H
	DB	040H
	DB	0ffH
	DB	040H
	DB	044H
	DB	048H
	DB	0ffH
	DB	048H
	DB	044H
	DB	040H
	DB	0ffH
	DB	040H
	DB	044H
	DB	040H
	DB	0ffH
	DB	048H
	DB	044H
	DB	040H
	DB	0ffH
	DB	040H
	DB	044H
	DB	040H
	DB	0ffH
	DB	048H
	DB	044H
	DB	040H
	DB	0ffH
	DB	040H
	DB	044H
	DB	040H
	DB	0ffH
	DB	048H
	DB	044H
	DB	040H
	DB	0ffH
	DB	040H
	DB	044H
	DB	040H
	DB	0ffH
	DB	048H
	DB	044H
	DB	040H
	DB	0ffH
	DB	048H
	DB	044H
	DB	040H
	DB	0ffH
	DB	040H
	DB	044H
	DB	048H
	DB	0ffH
	DB	048H
	DB	044H
	DB	040H
	DB	0ffH
	DB	040H
	DB	044H
	DB	048H
	DB	0ffH
	DB	048H
	DB	044H
	DB	040H
	DB	0ffH
	DB	040H
	DB	044H
	DB	040H
	DB	0ffH
	DB	048H
	DB	044H
	DB	048H
	DB	0ffH
	DB	048H
	DB	044H
	DB	048H
	DB	0ffH
	DB	040H
	DB	044H
	DB	040H
	DB	0ffH
	DB	040H
	DB	044H
	DB	040H
	DB	0ffH
	DB	040H
	DB	040H
	DB	040H
	DB	0ffH
	DB	040H
	DB	040H
	DB	040H
	DB	0ffH
	DB	040H
	DB	03cH
	DB	038H
	DB	0ffH
	DB	038H
	DB	03cH
	DB	038H
	DB	0ffH
	DB	038H
	DB	038H
	DB	038H
	DB	0ffH
	DB	038H
	DB	038H
	DB	038H
	DB	0ffH
	DB	038H
	DB	034H
	DB	038H
	DB	0ffH
	DB	030H
	DB	034H
	DB	030H
	DB	0ffH
	DB	030H
	DB	034H
	DB	030H
	DB	0ffH
	DB	030H
	DB	034H
	DB	030H
	DB	0ffH
	DB	030H
	DB	034H
	DB	030H
	DB	0ffH
	DB	038H
	DB	034H
	DB	038H
	DB	0ffH
	DB	038H
	DB	038H
	DB	038H
	DB	0ffH
	DB	038H
	DB	038H
	DB	038H
	DB	0ffH
	DB	038H
	DB	03cH
	DB	038H
	DB	0ffH
	DB	040H
	DB	03cH
	DB	040H
	DB	0ffH
	DB	040H
	DB	040H
	DB	040H
	DB	0ffH
	DB	040H
	DB	040H
	DB	040H
	DB	0ffH
	DB	040H
	DB	040H
	DB	040H
	DB	0ffH
	DB	040H
	DB	044H
	DB	040H
	DB	0ffH
	DB	048H
	DB	044H
	DB	048H
	DB	0ffH
	DB	040H
	DB	044H
	DB	040H
	DB	0ffH
	DB	040H
	DB	044H
	DB	040H
	DB	0ffH
	DB	048H
	DB	044H
	DB	048H
	DB	0ffH
	DB	048H
	DB	044H
	DB	040H
	DB	0ffH
	DB	040H
	DB	044H
	DB	048H
	DB	0ffH
	DB	048H
	DB	044H
	DB	040H
	DB	0ffH
	DB	048H
	DB	044H
	DB	048H
	DB	0ffH
	DB	040H
	DB	044H
	DB	040H
	DB	0ffH
	DB	048H
	DB	044H
	DB	040H
	DB	0ffH
	DB	040H
	DB	044H
	DB	048H
	DB	0ffH
	DB	048H
	DB	044H
	DB	040H
	DB	0ffH
	DB	040H
	DB	044H
	DB	048H
	DB	0ffH
	DB	048H
	DB	044H
	DB	040H
	DB	0ffH
	DB	040H
	DB	044H
	DB	040H
	DB	0ffH
	DB	048H
	DB	044H
	DB	048H
	DB	0ffH
	DB	048H
	DB	044H
	DB	040H
	DB	0ffH
	DB	040H
	DB	044H
	DB	040H
	DB	0ffH
	DB	048H
	DB	044H
	DB	048H
	DB	0ffH
	DB	040H
	DB	044H
	DB	040H
	DB	0ffH
	DB	040H
	DB	044H
	DB	040H
	DB	0ffH
	DB	048H
	DB	044H
	DB	048H
	DB	0ffH
	DB	040H
	DB	044H
	DB	040H
	DB	0ffH
	DB	048H
	DB	044H
	DB	040H
	DB	0ffH
	DB	040H
	DB	044H
	DB	048H
	DB	0ffH
	DB	048H
	DB	044H
	DB	040H
	DB	0ffH
	DB	040H
	DB	044H
	DB	048H
	DB	0ffH
	DB	048H
	DB	044H
	DB	040H
	DB	0ffH
	DB	040H
	DB	044H
	DB	048H
	DB	0ffH
	DB	048H
	DB	044H
	DB	040H
	DB	0ffH
	DB	048H
	DB	044H
	DB	040H
	DB	0ffH
	DB	040H
	DB	044H
	DB	048H
	DB	0ffH
	DB	048H
	DB	044H
	DB	040H
	DB	0ffH
	DB	040H
	DB	044H
	DB	040H
	DB	0ffH
	DB	040H
	DB	044H
	DB	048H
	DB	0ffH
	DB	048H
	DB	044H
	DB	040H
	DB	0ffH
	DB	040H
	DB	044H
	DB	040H
	DB	0ffH
	DB	040H
	DB	044H
	DB	048H
	DB	0ffH
	DB	048H
	DB	044H
	DB	040H
	DB	0ffH
	DB	040H
	DB	044H
	DB	040H
	DB	0ffH
	DB	040H
	DB	044H
	DB	048H
	DB	0ffH
	DB	048H
	DB	044H
	DB	048H
	DB	0ffH
	DB	040H
	DB	044H
	DB	040H
	DB	0ffH
	DB	040H
	DB	044H
	DB	048H
	DB	0ffH
	DB	048H
	DB	044H
	DB	040H
	DB	0ffH
	DB	048H
	DB	044H
	DB	040H
	DB	0ffH
	DB	040H
	DB	044H
	DB	048H
	DB	0ffH
	DB	048H
	DB	044H
	DB	040H
	DB	0ffH
	DB	040H
	DB	044H
	DB	040H
	DB	0ffH
	DB	040H
	DB	044H
	DB	048H
	DB	0ffH
	DB	048H
	DB	044H
	DB	040H
	DB	0ffH
	DB	040H
	DB	044H
	DB	040H
	DB	0ffH
	DB	040H
	DB	044H
	DB	048H
	DB	0ffH
	DB	048H
	DB	044H
	DB	040H
	DB	0ffH
	DB	040H
	DB	044H
	DB	040H
	DB	0ffH
	DB	040H
	DB	044H
	DB	048H
	DB	0ffH
	DB	048H
	DB	044H
	DB	040H
	DB	0ffH
	DB	040H
	DB	044H
	DB	040H
	DB	0ffH
	DB	048H
	DB	044H
	DB	048H
	DB	0ffH
	DB	040H
	DB	044H
	DB	040H
	DB	0ffH
	DB	040H
	DB	044H
	DB	048H
	DB	0ffH
	DB	048H
	DB	044H
	DB	040H
	DB	0ffH
	DB	040H
	DB	044H
	DB	048H
	DB	0ffH
	DB	048H
	DB	044H
	DB	040H
	DB	0ffH
	DB	048H
	DB	044H
	DB	040H
	DB	0ffH
	DB	040H
	DB	044H
	DB	048H
	DB	0ffH
	DB	048H
	DB	044H
	DB	048H
	DB	0ffH
	DB	040H
	DB	044H
	DB	040H
	DB	0ffH
	DB	040H
	DB	044H
	DB	048H
	DB	0ffH
	DB	048H
	DB	044H
	DB	040H
	DB	0ffH
	DB	040H
	DB	044H
	DB	040H
	DB	0ffH
	DB	040H
	DB	044H
	DB	048H
	DB	0ffH
	DB	048H
	DB	044H
	DB	040H
	DB	0ffH
	DB	040H
	DB	044H
	DB	040H
	DB	0ffH
	DB	048H
	DB	044H
	DB	048H
	DB	0ffH
	DB	048H
	DB	044H
	DB	040H
	DB	0ffH
	DB	040H
	DB	044H
	DB	040H
	DB	0ffH
	DB	040H
	DB	044H
	DB	048H
	DB	0ffH
	DB	048H
	DB	044H
	DB	040H
	DB	0ffH
	DB	040H
	DB	044H
	DB	040H
	DB	0ffH
	DB	048H
	DB	044H
	DB	048H
	DB	0ffH
	DB	048H
	DB	044H
	DB	048H
	DB	0ffH
	DB	040H
	DB	044H
	DB	040H
	DB	0ffH
	DB	048H
	DB	044H
	DB	048H
	DB	0ffH
	DB	040H
	DB	044H
	DB	040H
	DB	0ffH
	DB	048H
	DB	044H
	DB	040H
	DB	0ffH
	DB	040H
	DB	044H
	DB	048H
	DB	0ffH
	DB	040H
	DB	044H
	DB	040H
	DB	0ffH
	DB	048H
	DB	044H
	DB	040H
	DB	0ffH
	DB	040H
	DB	044H
	DB	048H
	DB	0ffH
	DB	048H
	DB	044H
	DB	040H
	DB	0ffH
	DB	040H
	DB	044H
	DB	048H
	DB	0ffH
	DB	048H
	DB	044H
	DB	048H
	DB	0ffH
	DB	040H
	DB	044H
	DB	040H
	DB	0ffH
	DB	048H
	DB	044H
	DB	048H
	DB	0ffH
	DB	040H
	DB	044H
	DB	048H
	DB	0ffH
	DB	040H
	DB	044H
	DB	040H
	DB	0ffH
	DB	048H
	DB	044H
	DB	048H
	DB	0ffH
	DB	040H
	DB	044H
	DB	048H
	DB	0ffH
	DB	048H
	DB	044H
	DB	040H
	DB	0ffH
	DB	040H
	DB	044H
	DB	048H
	DB	0ffH
	DB	048H
	DB	044H
	DB	040H
	DB	0ffH
	DB	040H
	DB	044H
	DB	040H
	DB	0ffH
	DB	048H
	DB	044H
	DB	048H
	DB	0ffH
	DB	040H
	DB	044H
	DB	040H
	DB	0ffH
	DB	048H
	DB	044H
	DB	040H
	DB	0ffH
	DB	040H
	DB	044H
	DB	040H
	DB	0ffH
	DB	040H
	DB	044H
	DB	040H
	DB	0ffH
	DB	048H
	DB	044H
	DB	040H
	DB	0ffH
	DB	040H
	DB	040H
	DB	040H
	DB	0ffH
	DB	040H
	DB	040H
	DB	040H
	DB	0ffH
	DB	040H
	DB	040H
	DB	040H
	DB	0ffH
	DB	040H
	DB	03cH
	DB	040H
	DB	0ffH
	DB	038H
	DB	03cH
	DB	038H
	DB	0ffH
	DB	038H
	DB	038H
	DB	038H
	DB	0ffH
	DB	038H
	DB	038H
	DB	038H
	DB	0ffH
	DB	038H
	DB	034H
	DB	030H
	DB	0ffH
	DB	038H
	DB	034H
	DB	030H
	DB	0ffH
	DB	030H
	DB	034H
	DB	030H
	DB	0ffH
	DB	030H
	DB	034H
	DB	030H
	DB	0ffH
	DB	038H
	DB	034H
	DB	030H
	DB	0ffH
	DB	038H
	DB	034H
	DB	038H
	DB	0ffH
	DB	038H
	DB	038H
	DB	038H
	DB	0ffH
	DB	038H
	DB	038H
	DB	038H
	DB	0ffH
	DB	038H
	DB	03cH
	DB	038H
	DB	0ffH
	DB	040H
	DB	03cH
	DB	038H
	DB	0ffH
	DB	040H
	DB	040H
	DB	040H
	DB	0ffH
	DB	040H
	DB	040H
	DB	040H
	DB	0ffH
	DB	040H
	DB	044H
	DB	040H
	DB	0ffH
	DB	040H
	DB	044H
	DB	040H
	DB	0ffH
	DB	048H
	DB	044H
	DB	048H
	DB	0ffH
	DB	048H
	DB	044H
	DB	040H
	DB	0ffH
	DB	040H
	DB	044H
	DB	040H
	DB	0ffH
	DB	040H
	DB	044H
	DB	048H
	DB	0ffH
	DB	048H
	DB	044H
	DB	040H
	DB	0ffH
	DB	040H
	DB	044H
	DB	040H
	DB	0ffH
	DB	040H
	DB	044H
	DB	048H
	DB	0ffH
	DB	048H
	DB	044H
	DB	040H
	DB	0ffH
	DB	040H
	DB	044H
	DB	048H
	DB	0ffH
	DB	040H
	DB	044H
	DB	040H
	DB	0ffH
	DB	048H
	DB	044H
	DB	040H
	DB	0ffH
	DB	040H
	DB	044H
	DB	048H
	DB	0ffH
	DB	048H
	DB	044H
	DB	040H
	DB	0ffH
	DB	040H
	DB	044H
	DB	040H
	DB	0ffH
	DB	040H
	DB	044H
	DB	048H
	DB	0ffH
	DB	040H
	DB	044H
	DB	048H
	DB	0ffH
	DB	048H
	DB	044H
	DB	040H
	DB	0ffH
	DB	048H
	DB	044H
	DB	040H
	DB	0ffH
	DB	040H
	DB	044H
	DB	048H
	DB	0ffH
	DB	048H
	DB	044H
	DB	040H
	DB	0ffH
	DB	048H
	DB	044H
	DB	048H
	DB	0ffH
	DB	040H
	DB	044H
	DB	040H
	DB	0ffH
	DB	048H
	DB	044H
	DB	040H
	DB	0ffH
	DB	040H
	DB	044H
	DB	048H
	DB	0ffH
	DB	048H
	DB	044H
	DB	040H
	DB	0ffH
	DB	040H
	DB	044H
	DB	040H
	DB	0ffH
	DB	048H
	DB	044H
	DB	048H
	DB	0ffH
	DB	040H
	DB	044H
	DB	040H
	DB	0ffH
	DB	040H
	DB	044H
	DB	040H
	DB	0ffH
	DB	048H
	DB	044H
	DB	048H
	DB	0ffH
	DB	040H
	DB	044H
	DB	040H
	DB	0ffH
	DB	040H
	DB	044H
	DB	048H
	DB	0ffH
	DB	048H
	DB	044H
	DB	040H
	DB	0ffH
	DB	048H
	DB	044H
	DB	048H
	DB	0ffH
	DB	040H
	DB	044H
	DB	040H
	DB	0ffH
	DB	048H
	DB	044H
	DB	040H
	DB	0ffH
	DB	048H
	DB	044H
	DB	048H
	DB	0ffH
	DB	040H
	DB	044H
	DB	048H
	DB	0ffH
	DB	048H
	DB	044H
	DB	040H
	DB	0ffH
	DB	048H
	DB	044H
	DB	040H
	DB	0ffH
	DB	040H
	DB	044H
	DB	040H
	DB	0ffH
	DB	048H
	DB	044H
	DB	040H
	DB	0ffH
	DB	048H
	DB	044H
	DB	048H
	DB	0ffH
	DB	040H
	DB	044H
	DB	040H
	DB	0ffH
	DB	040H
	DB	044H
	DB	040H
	DB	0ffH
	DB	048H
	DB	044H
	DB	048H
	DB	0ffH
	DB	040H
	DB	044H
	DB	048H
	DB	0ffH
	DB	048H
	DB	044H
	DB	040H
	DB	0ffH
	DB	048H
	DB	044H
	DB	040H
	DB	0ffH
	DB	040H
	DB	044H
	DB	048H
	DB	0ffH
	DB	048H
	DB	044H
	DB	040H
	DB	0ffH
	DB	048H
	DB	044H
	DB	048H
	DB	0ffH
	DB	040H
	DB	044H
	DB	040H
	DB	0ffH
	DB	048H
	DB	044H
	DB	040H
	DB	0ffH
	DB	040H
	DB	044H
	DB	048H
	DB	0ffH
	DB	048H
	DB	044H
	DB	048H
	DB	0ffH
	DB	048H
	DB	044H
	DB	040H
	DB	0ffH
	DB	040H
	DB	044H
	DB	048H
	DB	0ffH
	DB	048H
	DB	044H
	DB	040H
	DB	0ffH
	DB	040H
	DB	044H
	DB	040H
	DB	0ffH
	DB	048H
	DB	044H
	DB	048H
	DB	0ffH
	DB	040H
	DB	044H
	DB	040H
	DB	0ffH
	DB	040H
	DB	044H
	DB	040H
	DB	0ffH
	DB	048H
	DB	044H
	DB	048H
	DB	0ffH
	DB	040H
	DB	044H
	DB	040H
	DB	0ffH
	DB	040H
	DB	044H
	DB	040H
	DB	0ffH
	DB	048H
	DB	044H
	DB	040H
	DB	0ffH
	DB	048H
	DB	044H
	DB	048H
	DB	0ffH
	DB	040H
	DB	044H
	DB	040H
	DB	0ffH
	DB	048H
	DB	044H
	DB	040H
	DB	0ffH
	DB	048H
	DB	044H
	DB	048H
	DB	0ffH
	DB	040H
	DB	044H
	DB	040H
	DB	0ffH
	DB	048H
	DB	044H
	DB	048H
	DB	0ffH
	DB	040H
	DB	044H
	DB	040H
	DB	0ffH
	DB	040H
	DB	044H
	DB	048H
	DB	0ffH
	DB	048H
	DB	044H
	DB	040H
	DB	0ffH
	DB	040H
	DB	044H
	DB	048H
	DB	0ffH
	DB	048H
	DB	044H
	DB	040H
	DB	0ffH
	DB	040H
	DB	044H
	DB	040H
	DB	0ffH
	DB	040H
	DB	044H
	DB	048H
	DB	0ffH
	DB	040H
	DB	044H
	DB	040H
	DB	0ffH
	DB	040H
	DB	044H
	DB	040H
	DB	0ffH
	DB	048H
	DB	044H
	DB	048H
	DB	0ffH
	DB	040H
	DB	044H
	DB	040H
	DB	0ffH
	DB	048H
	DB	044H
	DB	040H
	DB	0ffH
	DB	040H
	DB	044H
	DB	048H
	DB	0ffH
	DB	048H
	DB	044H
	DB	048H
	DB	0ffH
	DB	048H
	DB	044H
	DB	040H
	DB	0ffH
	DB	040H
	DB	044H
	DB	040H
	DB	0ffH
	DB	040H
	DB	044H
	DB	048H
	DB	0ffH
	DB	048H
	DB	044H
	DB	040H
	DB	0ffH
	DB	048H
	DB	044H
	DB	040H
	DB	0ffH
	DB	040H
	DB	044H
	DB	048H
	DB	0ffH
	DB	048H
	DB	044H
	DB	040H
	DB	0ffH
	DB	048H
	DB	044H
	DB	040H
	DB	0ffH
	DB	040H
	DB	044H
	DB	048H
	DB	0ffH
	DB	048H
	DB	044H
	DB	040H
	DB	0ffH
	DB	048H
	DB	044H
	DB	040H
	DB	0ffH
	DB	040H
	DB	044H
	DB	048H
	DB	0ffH
	DB	040H
	DB	044H
	DB	040H
	DB	0ffH
	DB	048H
	DB	044H
	DB	040H
	DB	0ffH
	DB	040H
	DB	044H
	DB	048H
	DB	0ffH
	DB	048H
	DB	044H
	DB	040H
	DB	0ffH
	DB	040H
	DB	044H
	DB	040H
	DB	0ffH
	DB	048H
	DB	044H
	DB	048H
	DB	0ffH
	DB	040H
	DB	044H
	DB	048H
	DB	0ffH
	DB	048H
	DB	044H
	DB	040H
	DB	0ffH
	DB	048H
	DB	044H
	DB	048H
	DB	0ffH
	DB	040H
	DB	044H
	DB	040H
	DB	0ffH
	DB	040H
	DB	040H
	DB	040H
	DB	0ffH
	DB	040H
	DB	040H
	DB	040H
	DB	0ffH
	DB	040H
	DB	040H
	DB	040H
	DB	0ffH
	DB	040H
	DB	03cH
	DB	038H
	DB	0ffH
	DB	038H
	DB	03cH
	DB	038H
	DB	0ffH
	DB	038H
	DB	038H
	DB	038H
	DB	0ffH
	DB	038H
	DB	038H
	DB	038H
	DB	0ffH
	DB	038H
	DB	038H
	DB	038H
	DB	0ffH
	DB	030H
	DB	034H
	DB	030H
	DB	0ffH
	DB	030H
	DB	034H
	DB	030H
	DB	0ffH
	DB	030H
	DB	034H
	DB	030H
	DB	0ffH
	DB	038H
	DB	034H
	DB	030H
	DB	0ffH
	DB	038H
	DB	034H
	DB	038H
	DB	0ffH
	DB	038H
	DB	038H
	DB	038H
	DB	0ffH
	DB	038H
	DB	038H
	DB	038H
	DB	0ffH
	DB	038H
	DB	03cH
	DB	038H
	DB	0ffH
	DB	040H
	DB	03cH
	DB	038H
	DB	0ffH
	DB	040H
	DB	040H
	DB	040H
	DB	0ffH
	DB	040H
	DB	040H
	DB	040H
	DB	0ffH
	DB	040H
	DB	040H
	DB	040H
	DB	0ffH
	DB	040H
	DB	044H
	DB	040H
	DB	0ffH
	DB	048H
	DB	044H
	DB	048H
	DB	0ffH
	DB	048H
	DB	044H
	DB	040H
	DB	0ffH
	DB	040H
	DB	044H
	DB	048H
	DB	0ffH
	DB	048H
	DB	044H
	DB	040H
	DB	0ffH
	DB	048H
	DB	044H
	DB	040H
	DB	0ffH
	DB	040H
	DB	044H
	DB	048H
	DB	0ffH
	DB	048H
	DB	044H
	DB	040H
	DB	0ffH
	DB	040H
	DB	044H
	DB	040H
	DB	0ffH
	DB	048H
	DB	044H
	DB	048H
	DB	0ffH
	DB	048H
	DB	044H
	DB	040H
	DB	0ffH
	DB	040H
	DB	044H
	DB	040H
	DB	0ffH
	DB	048H
	DB	044H
	DB	048H
	DB	0ffH
	DB	048H
	DB	044H
	DB	040H
	DB	0ffH
	DB	040H
	DB	044H
	DB	040H
	DB	0ffH
	DB	048H
	DB	044H
	DB	048H
	DB	0ffH
	DB	048H
	DB	044H
	DB	040H
	DB	0ffH
	DB	040H
	DB	044H
	DB	040H
	DB	0ffH
	DB	040H
	DB	044H
	DB	048H
	DB	0ffH
	DB	048H
	DB	044H
	DB	040H
	DB	0ffH
	DB	040H
	DB	044H
	DB	040H
	DB	0ffH
	DB	048H
	DB	044H
	DB	048H
	DB	0ffH
	DB	040H
	DB	044H
	DB	040H
	DB	0ffH
	DB	048H
	DB	044H
	DB	048H
	DB	0ffH
	DB	040H
	DB	044H
	DB	048H
	DB	0ffH
	DB	040H
	DB	044H
	DB	040H
	DB	0ffH
	DB	048H
	DB	044H
	DB	040H
	DB	0ffH
	DB	048H
	DB	044H
	DB	048H
	DB	0ffH
	DB	040H
	DB	044H
	DB	040H
	DB	0ffH
	DB	048H
	DB	044H
	DB	040H
	DB	0ffH
	DB	048H
	DB	044H
	DB	048H
	DB	0ffH
	DB	040H
	DB	044H
	DB	040H
	DB	0ffH
	DB	048H
	DB	044H
	DB	040H
	DB	0ffH
	DB	040H
	DB	044H
	DB	048H
	DB	0ffH
	DB	048H
	DB	044H
	DB	040H
	DB	0ffH
	DB	040H
	DB	044H
	DB	040H
	DB	0ffH
	DB	040H
	DB	044H
	DB	048H
	DB	0ffH
	DB	048H
	DB	044H
	DB	040H
	DB	0ffH
	DB	040H
	DB	044H
	DB	040H
	DB	0ffH
	DB	040H
	DB	044H
	DB	048H
	DB	0ffH
	DB	048H
	DB	044H
	DB	048H
	DB	0ffH
	DB	040H
	DB	044H
	DB	040H
	DB	0ffH
	DB	040H
	DB	044H
	DB	040H
	DB	0ffH
	DB	048H
	DB	044H
	DB	048H
	DB	0ffH
	DB	048H
	DB	044H
	DB	040H
	DB	0ffH
	DB	040H
	DB	044H
	DB	040H
	DB	0ffH
	DB	040H
	DB	044H
	DB	048H
	DB	0ffH
	DB	048H
	DB	044H
	DB	040H
	DB	0ffH
	DB	040H
	DB	044H
	DB	040H
	DB	0ffH
	DB	040H
	DB	044H
	DB	048H
	DB	0ffH
	DB	048H
	DB	044H
	DB	040H
	DB	0ffH
	DB	040H
	DB	044H
	DB	040H
	DB	0ffH
	DB	040H
	DB	044H
	DB	048H
	DB	0ffH
	DB	048H
	DB	044H
	DB	040H
	DB	0ffH
	DB	040H
	DB	044H
	DB	040H
	DB	0ffH
	DB	048H
	DB	044H
	DB	048H
	DB	0ffH
	DB	040H
	DB	044H
	DB	040H
	DB	0ffH
	DB	040H
	DB	044H
	DB	040H
	DB	0ffH
	DB	048H
	DB	044H
	DB	048H
	DB	0ffH
	DB	040H
	DB	044H
	DB	040H
	DB	0ffH
	DB	048H
	DB	044H
	DB	040H
	DB	0ffH
	DB	048H
	DB	044H
	DB	048H
	DB	0ffH
	DB	040H
	DB	044H
	DB	040H
	DB	0ffH
	DB	048H
	DB	044H
	DB	040H
	DB	0ffH
	DB	048H
	DB	044H
	DB	048H
	DB	0ffH
	DB	040H
	DB	044H
	DB	048H
	DB	0ffH
	DB	040H
	DB	044H
	DB	040H
	DB	0ffH
	DB	048H
	DB	044H
	DB	040H
	DB	0ffH
	DB	040H
	DB	044H
	DB	048H
	DB	0ffH
	DB	040H
	DB	044H
	DB	040H
	DB	0ffH
	DB	048H
	DB	044H
	DB	048H
	DB	0ffH
	DB	040H
	DB	044H
	DB	040H
	DB	0ffH
	DB	048H
	DB	044H
	DB	040H
	DB	0ffH
	DB	048H
	DB	044H
	DB	048H
	DB	0ffH
	DB	040H
	DB	044H
	DB	040H
	DB	0ffH
	DB	048H
	DB	044H
	DB	040H
	DB	0ffH
	DB	040H
	DB	044H
	DB	048H
	DB	0ffH
	DB	048H
	DB	044H
	DB	040H
	DB	0ffH
	DB	048H
	DB	044H
	DB	040H
	DB	0ffH
	DB	048H
	DB	044H
	DB	048H
	DB	0ffH
	DB	048H
	DB	044H
	DB	040H
	DB	0ffH
	DB	040H
	DB	044H
	DB	040H
	DB	0ffH
	DB	048H
	DB	044H
	DB	040H
	DB	0ffH
	DB	048H
	DB	044H
	DB	048H
	DB	0ffH
	DB	040H
	DB	044H
	DB	040H
	DB	0ffH
	DB	040H
	DB	044H
	DB	040H
	DB	0ffH
	DB	048H
	DB	044H
	DB	048H
	DB	0ffH
	DB	040H
	DB	044H
	DB	040H
	DB	0ffH
	DB	048H
	DB	044H
	DB	040H
	DB	0ffH
	DB	040H
	DB	044H
	DB	048H
	DB	0ffH
	DB	048H
	DB	044H
	DB	040H
	DB	0ffH
	DB	040H
	DB	044H
	DB	040H
	DB	0ffH
	DB	040H
	DB	044H
	DB	040H
	DB	0ffH
	DB	048H
	DB	044H
	DB	040H
	DB	0ffH
	DB	040H
	DB	044H
	DB	048H
	DB	0ffH
	DB	040H
	DB	044H
	DB	040H
	DB	0ffH
	DB	048H
	DB	044H
	DB	040H
	DB	0ffH
	DB	040H
	DB	044H
	DB	040H
	DB	0ffH
	DB	048H
	DB	044H
	DB	040H
	DB	0ffH
	DB	040H
	DB	044H
	DB	048H
	DB	0ffH
	DB	048H
	DB	044H
	DB	040H
	DB	0ffH
	DB	048H
	DB	044H
	DB	040H
	DB	0ffH
	DB	040H
	DB	044H
	DB	048H
	DB	0ffH
	DB	040H
	DB	044H
	DB	040H
	DB	0ffH
	DB	048H
	DB	044H
	DB	040H
	DB	0ffH
	DB	040H
	DB	044H
	DB	048H
	DB	0ffH
	DB	040H
	DB	044H
	DB	040H
	DB	0ffH
	DB	048H
	DB	044H
	DB	040H
	DB	0ffH
	DB	048H
	DB	044H
	DB	048H
	DB	0ffH
	DB	040H
	DB	044H
	DB	040H
	DB	0ffH
	DB	040H
	DB	040H
	DB	040H
	DB	0ffH
	DB	040H
	DB	040H
	DB	040H
	DB	0ffH
	DB	040H
	DB	040H
	DB	040H
	DB	0ffH
	DB	040H
	DB	03cH
	DB	040H
	DB	0ffH
	DB	038H
	DB	03cH
	DB	038H
	DB	0ffH
	DB	038H
	DB	038H
	DB	038H
	DB	0ffH
	DB	038H
	DB	038H
	DB	038H
	DB	0ffH
	DB	038H
	DB	034H
	DB	038H
	DB	0ffH
	DB	038H
	DB	034H
	DB	030H
	DB	0ffH
	DB	030H
	DB	034H
	DB	030H
	DB	0ffH
	DB	030H
	DB	034H
	DB	030H
	DB	0ffH
	DB	030H
	DB	034H
	DB	038H
	DB	0ffH
	DB	038H
	DB	034H
	DB	038H
	DB	0ffH
	DB	038H
	DB	038H
	DB	030H
	DB	0ffH
	DB	038H
	DB	038H
	DB	038H
	DB	0ffH
	DB	038H
	DB	03cH
	DB	038H
	DB	0ffH
	DB	040H
	DB	03cH
	DB	040H
	DB	0ffH
	DB	040H
	DB	040H
	DB	040H
	DB	0ffH
	DB	040H
	DB	040H
	DB	040H
	DB	0ffH
	DB	040H
	DB	044H
	DB	040H
	DB	0ffH
	DB	040H
	DB	044H
	DB	040H
	DB	0ffH
	DB	048H
	DB	044H
	DB	040H
	DB	0ffH
	DB	040H
	DB	044H
	DB	048H
	DB	0ffH
	DB	040H
	DB	044H
	DB	040H
	DB	0ffH
	DB	048H
	DB	044H
	DB	040H
	DB	0ffH
	DB	040H
	DB	044H
	DB	048H
	DB	0ffH
	DB	048H
	DB	044H
	DB	040H
	DB	0ffH
	DB	040H
	DB	044H
	DB	040H
	DB	0ffH
	DB	048H
	DB	044H
	DB	048H
	DB	0ffH
	DB	040H
	DB	044H
	DB	040H
	DB	0ffH
	DB	048H
	DB	044H
	DB	048H
	DB	0ffH
	DB	040H
	DB	044H
	DB	040H
	DB	0ffH
	DB	040H
	DB	044H
	DB	048H
	DB	0ffH
	DB	048H
	DB	044H
	DB	040H
	DB	0ffH
	DB	040H
	DB	044H
	DB	040H
	DB	0ffH
	DB	048H
	DB	044H
	DB	048H
	DB	0ffH
	DB	048H
	DB	044H
	DB	040H
	DB	0ffH
	DB	040H
	DB	044H
	DB	040H
	DB	0ffH
	DB	040H
	DB	044H
	DB	048H
	DB	0ffH
	DB	048H
	DB	044H
	DB	040H
	DB	0ffH
	DB	040H
	DB	044H
	DB	040H
	DB	0ffH
	DB	040H
	DB	044H
	DB	048H
	DB	0ffH
	DB	048H
	DB	044H
	DB	040H
	DB	0ffH
	DB	048H
	DB	044H
	DB	040H
	DB	0ffH
	DB	040H
	DB	044H
	DB	040H
	DB	0ffH
	DB	048H
	DB	044H
	DB	048H
	DB	0ffH
	DB	040H
	DB	044H
	DB	040H
	DB	0ffH
	DB	040H
	DB	044H
	DB	048H
	DB	0ffH
	DB	048H
	DB	044H
	DB	040H
	DB	0ffH
	DB	040H
	DB	044H
	DB	048H
	DB	0ffH
	DB	040H
	DB	044H
	DB	040H
	DB	0ffH
	DB	048H
	DB	044H
	DB	040H
	DB	0ffH
	DB	040H
	DB	044H
	DB	048H
	DB	0ffH
	DB	048H
	DB	044H
	DB	040H
	DB	0ffH
	DB	040H
	DB	044H
	DB	040H
	DB	0ffH
	DB	048H
	DB	044H
	DB	048H
	DB	0ffH
	DB	048H
	DB	044H
	DB	040H
	DB	0ffH
	DB	040H
	DB	044H
	DB	040H
	DB	0ffH
	DB	048H
	DB	044H
	DB	040H
	DB	0ffH
	DB	048H
	DB	044H
	DB	040H
	DB	0ffH
	DB	040H
	DB	044H
	DB	048H
	DB	0ffH
	DB	048H
	DB	044H
	DB	040H
	DB	0ffH
	DB	040H
	DB	044H
	DB	048H
	DB	0ffH
	DB	040H
	DB	044H
	DB	040H
	DB	0ffH
	DB	048H
	DB	044H
	DB	048H
	DB	0ffH
	DB	048H
	DB	044H
	DB	040H
	DB	0ffH
	DB	040H
	DB	044H
	DB	040H
	DB	0ffH
	DB	048H
	DB	044H
	DB	048H
	DB	0ffH
	DB	048H
	DB	044H
	DB	040H
	DB	0ffH
	DB	040H
	DB	044H
	DB	048H
	DB	0ffH
	DB	048H
	DB	044H
	DB	040H
	DB	0ffH
	DB	048H
	DB	044H
	DB	040H
	DB	0ffH
	DB	040H
	DB	044H
	DB	048H
	DB	0ffH
	DB	048H
	DB	044H
	DB	040H
	DB	0ffH
	DB	048H
	DB	044H
	DB	048H
	DB	0ffH
	DB	040H
	DB	044H
	DB	040H
	DB	0ffH
	DB	048H
	DB	044H
	DB	040H
	DB	0ffH
	DB	040H
	DB	044H
	DB	040H
	DB	0ffH
	DB	048H
	DB	044H
	DB	048H
	DB	0ffH
	DB	040H
	DB	044H
	DB	040H
	DB	0ffH
	DB	040H
	DB	044H
	DB	048H
	DB	0ffH
	DB	048H
	DB	044H
	DB	040H
	DB	0ffH
	DB	040H
	DB	044H
	DB	048H
	DB	0ffH
	DB	048H
	DB	044H
	DB	040H
	DB	0ffH
	DB	040H
	DB	044H
	DB	040H
	DB	0ffH
	DB	048H
	DB	044H
	DB	048H
	DB	0ffH
	DB	048H
	DB	044H
	DB	040H
	DB	0ffH
	DB	040H
	DB	044H
	DB	040H
	DB	0ffH
	DB	048H
	DB	044H
	DB	048H
	DB	0ffH
	DB	048H
	DB	044H
	DB	040H
	DB	0ffH
	DB	040H
	DB	044H
	DB	040H
	DB	0ffH
	DB	040H
	DB	044H
	DB	048H
	DB	0ffH
	DB	048H
	DB	044H
	DB	040H
	DB	0ffH
	DB	040H
	DB	044H
	DB	040H
	DB	0ffH
	DB	048H
	DB	044H
	DB	048H
	DB	0ffH
	DB	048H
	DB	044H
	DB	040H
	DB	0ffH
	DB	040H
	DB	044H
	DB	040H
	DB	0ffH
	DB	040H
	DB	044H
	DB	048H
	DB	0ffH
	DB	040H
	DB	044H
	DB	040H
	DB	0ffH
	DB	048H
	DB	044H
	DB	048H
	DB	0ffH
	DB	040H
	DB	044H
	DB	048H
	DB	0ffH
	DB	048H
	DB	044H
	DB	040H
	DB	0ffH
	DB	040H
	DB	044H
	DB	048H
	DB	0ffH
	DB	048H
	DB	044H
	DB	040H
	DB	0ffH
	DB	048H
	DB	044H
	DB	040H
	DB	0ffH
	DB	040H
	DB	044H
	DB	048H
	DB	0ffH
	DB	048H
	DB	044H
	DB	040H
	DB	0ffH
	DB	040H
	DB	044H
	DB	040H
	DB	0ffH
	DB	040H
	DB	044H
	DB	048H
	DB	0ffH
	DB	048H
	DB	044H
	DB	040H
	DB	0ffH
	DB	048H
	DB	044H
	DB	048H
	DB	0ffH
	DB	040H
	DB	044H
	DB	048H
	DB	0ffH
	DB	048H
	DB	044H
	DB	040H
	DB	0ffH
	DB	048H
	DB	044H
	DB	048H
	DB	0ffH
	DB	040H
	DB	044H
	DB	040H
	DB	0ffH
	DB	048H
	DB	044H
	DB	048H
	DB	0ffH
	DB	040H
	DB	044H
	DB	048H
	DB	0ffH
	DB	040H
	DB	044H
	DB	040H
	DB	0ffH
	DB	048H
	DB	044H
	DB	048H
	DB	0ffH
	DB	040H
	DB	044H
	DB	040H
	DB	0ffH
	DB	048H
	DB	044H
	DB	040H
	DB	0ffH
	DB	040H
	DB	044H
	DB	048H
	DB	0ffH
	DB	048H
	DB	044H
	DB	040H
	DB	0ffH
	DB	048H
	DB	044H
	DB	048H
	DB	0ffH
	DB	040H
	DB	044H
	DB	040H
	DB	0ffH
	DB	048H
	DB	044H
	DB	040H
	DB	0ffH
	DB	048H
	DB	044H
	DB	048H
	DB	0ffH
	DB	040H
	DB	044H
	DB	040H
	DB	0ffH
	DB	040H
	DB	044H
	DB	040H
	DB	0ffH
	DB	048H
	DB	044H
	DB	048H
	DB	0ffH
	DB	040H
	DB	044H
	DB	040H
	DB	0ffH
	DB	040H
	DB	040H
	DB	040H
	DB	0ffH
	DB	040H
	DB	040H
	DB	040H
	DB	0ffH
	DB	040H
	DB	03cH
	DB	038H
	DB	0ffH
	DB	038H
	DB	03cH
	DB	038H
	DB	0ffH
	DB	038H
	DB	038H
	DB	038H
	DB	0ffH
	DB	038H
	DB	038H
	DB	038H
	DB	0ffH
	DB	038H
	DB	034H
	DB	038H
	DB	0ffH
	DB	030H
	DB	034H
	DB	030H
	DB	0ffH
	DB	030H
	DB	034H
	DB	030H
	DB	0ffH
	DB	030H
	DB	034H
	DB	030H
	DB	0ffH
	DB	038H
	DB	034H
	DB	030H
	DB	0ffH
	DB	038H
	DB	034H
	DB	038H
	DB	0ffH
	DB	038H
	DB	038H
	DB	038H
	DB	0ffH
	DB	038H
	DB	038H
	DB	038H
	DB	0ffH
	DB	038H
	DB	03cH
	DB	038H
	DB	0ffH
	DB	040H
	DB	03cH
	DB	040H
	DB	0ffH
	DB	040H
	DB	040H
	DB	040H
	DB	0ffH
	DB	040H
	DB	040H
	DB	040H
	DB	0ffH
	DB	040H
	DB	040H
	DB	040H
	DB	0ffH
	DB	048H
	DB	044H
	DB	040H
	DB	0ffH
	DB	048H
	DB	044H
	DB	048H
	DB	0ffH
	DB	040H
	DB	044H
	DB	040H
	DB	0ffH
	DB	048H
	DB	044H
	DB	040H
	DB	0ffH
	DB	040H
	DB	044H
	DB	048H
	DB	0ffH
	DB	040H
	DB	044H
	DB	048H
	DB	0ffH
	DB	048H
	DB	044H
	DB	040H
	DB	0ffH
	DB	048H
	DB	044H
	DB	040H
	DB	0ffH
	DB	040H
	DB	044H
	DB	048H
	DB	0ffH
	DB	040H
	DB	044H
	DB	040H
	DB	0ffH
	DB	048H
	DB	044H
	DB	040H
	DB	0ffH
	DB	048H
	DB	044H
	DB	048H
	DB	0ffH
	DB	040H
	DB	044H
	DB	040H
	DB	0ffH
	DB	040H
	DB	044H
	DB	048H
	DB	0ffH
	DB	048H
	DB	044H
	DB	040H
	DB	0ffH
	DB	040H
	DB	044H
	DB	040H
	DB	0ffH
	DB	040H
	DB	044H
	DB	048H
	DB	0ffH
	DB	048H
	DB	044H
	DB	040H
	DB	0ffH
	DB	048H
	DB	044H
	DB	048H
	DB	0ffH
	DB	040H
	DB	044H
	DB	040H
	DB	0ffH
	DB	048H
	DB	044H
	DB	048H
	DB	0ffH
	DB	040H
	DB	044H
	DB	040H
	DB	0ffH
	DB	048H
	DB	044H
	DB	040H
	DB	0ffH
	DB	040H
	DB	044H
	DB	048H
	DB	0ffH
	DB	048H
	DB	044H
	DB	040H
	DB	0ffH
	DB	048H
	DB	044H
	DB	040H
	DB	0ffH
	DB	040H
	DB	044H
	DB	048H
	DB	0ffH
	DB	048H
	DB	044H
	DB	040H
	DB	0ffH
	DB	048H
	DB	044H
	DB	040H
	DB	0ffH
	DB	040H
	DB	044H
	DB	048H
	DB	0ffH
	DB	048H
	DB	044H
	DB	040H
	DB	0ffH
	DB	048H
	DB	044H
	DB	048H
	DB	0ffH
	DB	040H
	DB	044H
	DB	040H
	DB	0ffH
	DB	040H
	DB	044H
	DB	040H
	DB	0ffH
	DB	048H
	DB	044H
	DB	048H
	DB	0ffH
	DB	040H
	DB	044H
	DB	048H
	DB	0ffH
	DB	048H
	DB	044H
	DB	040H
	DB	0ffH
	DB	040H
	DB	044H
	DB	048H
	DB	0ffH
	DB	040H
	DB	044H
	DB	048H
	DB	0ffH
	DB	048H
	DB	044H
	DB	040H
	DB	0ffH
	DB	040H
	DB	044H
	DB	040H
	DB	0ffH
	DB	048H
	DB	044H
	DB	048H
	DB	0ffH
	DB	048H
	DB	044H
	DB	040H
	DB	0ffH
	DB	040H
	DB	044H
	DB	040H
	DB	0ffH
	DB	040H
	DB	044H
	DB	048H
	DB	0ffH
	DB	048H
	DB	044H
	DB	040H
	DB	0ffH
	DB	040H
	DB	044H
	DB	040H
	DB	0ffH
	DB	040H
	DB	044H
	DB	048H
	DB	0ffH
	DB	048H
	DB	044H
	DB	040H
	DB	0ffH
	DB	040H
	DB	044H
	DB	040H
	DB	0ffH
	DB	040H
	DB	044H
	DB	048H
	DB	0ffH
	DB	048H
	DB	044H
	DB	040H
	DB	0ffH
	DB	040H
	DB	044H
	DB	040H
	DB	0ffH
	DB	040H
	DB	044H
	DB	048H
	DB	0ffH
	DB	048H
	DB	044H
	DB	040H
	DB	0ffH
	DB	040H
	DB	044H
	DB	048H
	DB	0ffH
	DB	048H
	DB	044H
	DB	040H
	DB	0ffH
	DB	048H
	DB	044H
	DB	048H
	DB	0ffH
	DB	040H
	DB	044H
	DB	040H
	DB	0ffH
	DB	048H
	DB	044H
	DB	040H
	DB	0ffH
	DB	048H
	DB	044H
	DB	040H
	DB	0ffH
	DB	040H
	DB	044H
	DB	048H
	DB	0ffH
	DB	048H
	DB	044H
	DB	040H
	DB	0ffH
	DB	040H
	DB	044H
	DB	040H
	DB	0ffH
	DB	040H
	DB	044H
	DB	048H
	DB	0ffH
	DB	048H
	DB	044H
	DB	040H
	DB	0ffH
	DB	040H
	DB	044H
	DB	040H
	DB	0ffH
	DB	040H
	DB	044H
	DB	048H
	DB	0ffH
	DB	048H
	DB	044H
	DB	040H
	DB	0ffH
	DB	048H
	DB	044H
	DB	040H
	DB	0ffH
	DB	040H
	DB	044H
	DB	048H
	DB	0ffH
	DB	048H
	DB	044H
	DB	040H
	DB	0ffH
	DB	040H
	DB	044H
	DB	048H
	DB	0ffH
	DB	040H
	DB	044H
	DB	040H
	DB	0ffH
	DB	048H
	DB	044H
	DB	048H
	DB	0ffH
	DB	040H
	DB	044H
	DB	040H
	DB	0ffH
	DB	048H
	DB	044H
	DB	040H
	DB	0ffH
	DB	048H
	DB	044H
	DB	048H
	DB	0ffH
	DB	040H
	DB	044H
	DB	040H
	DB	0ffH
	DB	040H
	DB	044H
	DB	040H
	DB	0ffH
	DB	048H
	DB	044H
	DB	040H
	DB	0ffH
	DB	040H
	DB	044H
	DB	048H
	DB	0ffH
	DB	040H
	DB	044H
	DB	040H
	DB	0ffH
	DB	048H
	DB	044H
	DB	040H
	DB	0ffH
	DB	040H
	DB	044H
	DB	048H
	DB	0ffH
	DB	048H
	DB	044H
	DB	040H
	DB	0ffH
	DB	048H
	DB	044H
	DB	040H
	DB	0ffH
	DB	040H
	DB	044H
	DB	048H
	DB	0ffH
	DB	048H
	DB	044H
	DB	040H
	DB	0ffH
	DB	048H
	DB	044H
	DB	040H
	DB	0ffH
	DB	040H
	DB	044H
	DB	040H
	DB	0ffH
	DB	040H
	DB	044H
	DB	048H
	DB	0ffH
	DB	048H
	DB	044H
	DB	040H
	DB	0ffH
	DB	040H
	DB	044H
	DB	040H
	DB	0ffH
	DB	048H
	DB	044H
	DB	040H
	DB	0ffH
	DB	048H
	DB	044H
	DB	040H
	DB	0ffH
	DB	040H
	DB	044H
	DB	048H
	DB	0ffH
	DB	048H
	DB	044H
	DB	040H
	DB	0ffH
	DB	048H
	DB	044H
	DB	040H
	DB	0ffH
	DB	040H
	DB	044H
	DB	048H
	DB	0ffH
	DB	040H
	DB	044H
	DB	040H
	DB	0ffH
	DB	048H
	DB	044H
	DB	040H
	DB	0ffH
	DB	040H
	DB	044H
	DB	048H
	DB	0ffH
	DB	048H
	DB	044H
	DB	040H
	DB	0ffH
	DB	040H
	DB	044H
	DB	048H
	DB	0ffH
	DB	048H
	DB	044H
	DB	040H
	DB	0ffH
	DB	040H
	DB	044H
	DB	048H
	DB	0ffH
	DB	040H
	DB	044H
	DB	040H
	DB	0ffH
	DB	048H
	DB	044H
	DB	040H
	DB	0ffH
	DB	040H
	DB	044H
	DB	040H
	DB	0ffH
	DB	040H
	DB	040H
	DB	040H
	DB	0ffH
	DB	040H
	DB	040H
	DB	040H
	DB	0ffH
	DB	040H
	DB	040H
	DB	040H
	DB	0ffH
	DB	040H
	DB	03cH
	DB	040H
	DB	0ffH
	DB	038H
	DB	03cH
	DB	038H
	DB	0ffH
	DB	038H
	DB	038H
	DB	038H
	DB	0ffH
	DB	038H
	DB	038H
	DB	038H
	DB	0ffH
	DB	038H
	DB	038H
	DB	038H
	DB	0ffH
	DB	038H
	DB	034H
	DB	030H
	DB	0ffH
	DB	030H
	DB	034H
	DB	030H
	DB	0ffH
	DB	030H
	DB	034H
	DB	030H
	DB	0ffH
	DB	030H
	DB	034H
	DB	030H
	DB	0ffH
	DB	038H
	DB	038H
	DB	038H
	DB	0ffH
	DB	038H
	DB	038H
	DB	038H
	DB	0ffH
	DB	038H
	DB	038H
	DB	038H
	DB	0ffH
	DB	038H
	DB	03cH
	DB	038H
	DB	0ffH
	DB	040H
	DB	03cH
	DB	038H
	DB	0ffH
	DB	040H
	DB	040H
	DB	040H
	DB	0ffH
	DB	040H
	DB	040H
	DB	040H
	DB	0ffH
	DB	040H
	DB	040H
	DB	040H
	DB	0ffH
	DB	040H
	DB	044H
	DB	040H
	DB	0ffH
	DB	048H
	DB	044H
	DB	048H
	DB	0ffH
	DB	040H
	DB	044H
	DB	040H
	DB	0ffH
	DB	048H
	DB	044H
	DB	040H
	DB	0ffH
	DB	048H
	DB	044H
	DB	048H
	DB	0ffH
	DB	040H
	DB	044H
	DB	040H
	DB	0ffH
	DB	040H
	DB	044H
	DB	040H
	DB	0ffH
	DB	048H
	DB	044H
	DB	048H
	DB	0ffH
	DB	040H
	DB	044H
	DB	040H
	DB	0ffH
	DB	048H
	DB	044H
	DB	040H
	DB	0ffH
	DB	040H
	DB	044H
	DB	048H
	DB	0ffH
	DB	048H
	DB	044H
	DB	040H
	DB	0ffH
	DB	048H
	DB	044H
	DB	040H
	DB	0ffH
	DB	040H
	DB	044H
	DB	048H
	DB	0ffH
	DB	048H
	DB	044H
	DB	040H
	DB	0ffH
	DB	040H
	DB	044H
	DB	040H
	DB	0ffH
	DB	040H
	DB	044H
	DB	048H
	DB	0ffH
	DB	048H
	DB	044H
	DB	040H
	DB	0ffH
	DB	040H
	DB	044H
	DB	040H
	DB	0ffH
	DB	048H
	DB	044H
	DB	048H
	DB	0ffH
	DB	048H
	DB	044H
	DB	040H
	DB	0ffH
	DB	040H
	DB	044H
	DB	040H
	DB	0ffH
	DB	040H
	DB	044H
	DB	048H
	DB	0ffH
	DB	048H
	DB	044H
	DB	048H
	DB	0ffH
	DB	040H
	DB	044H
	DB	040H
	DB	0ffH
	DB	040H
	DB	044H
	DB	040H
	DB	0ffH
	DB	048H
	DB	044H
	DB	048H
	DB	0ffH
	DB	040H
	DB	044H
	DB	040H
	DB	0ffH
	DB	040H
	DB	044H
	DB	040H
	DB	0ffH
	DB	048H
	DB	044H
	DB	048H
	DB	0ffH
	DB	040H
	DB	044H
	DB	040H
	DB	0ffH
	DB	048H
	DB	044H
	DB	040H
	DB	0ffH
	DB	048H
	DB	044H
	DB	048H
	DB	0ffH
	DB	040H
	DB	044H
	DB	040H
	DB	0ffH
	DB	048H
	DB	044H
	DB	040H
	DB	0ffH
	DB	040H
	DB	044H
	DB	040H
	DB	0ffH
	DB	040H
	DB	044H
	DB	040H
	DB	0ffH
	DB	048H
	DB	044H
	DB	048H
	DB	0ffH
	DB	048H
	DB	044H
	DB	040H
	DB	0ffH
	DB	040H
	DB	044H
	DB	040H
	DB	0ffH
	DB	040H
	DB	044H
	DB	048H
	DB	0ffH
	DB	048H
	DB	044H
	DB	040H
	DB	0ffH
	DB	048H
	DB	044H
	DB	040H
	DB	0ffH
	DB	040H
	DB	044H
	DB	048H
	DB	0ffH
	DB	048H
	DB	044H
	DB	040H
	DB	0ffH
	DB	048H
	DB	044H
	DB	040H
	DB	0ffH
	DB	040H
	DB	044H
	DB	048H
	DB	0ffH
	DB	048H
	DB	044H
	DB	040H
	DB	0ffH
	DB	048H
	DB	044H
	DB	040H
	DB	0ffH
	DB	040H
	DB	044H
	DB	048H
	DB	0ffH
	DB	048H
	DB	044H
	DB	040H
	DB	0ffH
	DB	048H
	DB	044H
	DB	048H
	DB	0ffH
	DB	040H
	DB	044H
	DB	040H
	DB	0ffH
	DB	048H
	DB	044H
	DB	040H
	DB	0ffH
	DB	040H
	DB	044H
	DB	048H
	DB	0ffH
	DB	040H
	DB	044H
	DB	040H
	DB	0ffH
	DB	048H
	DB	044H
	DB	040H
	DB	0ffH
	DB	040H
	DB	044H
	DB	048H
	DB	0ffH
	DB	040H
	DB	044H
	DB	040H
	DB	0ffH
	DB	048H
	DB	044H
	DB	048H
	DB	0ffH
	DB	040H
	DB	044H
	DB	040H
	DB	0ffH
	DB	040H
	DB	044H
	DB	040H
	DB	0ffH
	DB	048H
	DB	044H
	DB	048H
	DB	0ffH
	DB	048H
	DB	044H
	DB	040H
	DB	0ffH
	DB	040H
	DB	044H
	DB	048H
	DB	0ffH
	DB	048H
	DB	044H
	DB	040H
	DB	0ffH
	DB	048H
	DB	044H
	DB	040H
	DB	0ffH
	DB	040H
	DB	044H
	DB	048H
	DB	0ffH
	DB	040H
	DB	044H
	DB	040H
	DB	0ffH
	DB	048H
	DB	044H
	DB	048H
	DB	0ffH
	DB	040H
	DB	044H
	DB	040H
	DB	0ffH
	DB	048H
	DB	044H
	DB	040H
	DB	0ffH
	DB	048H
	DB	044H
	DB	040H
	DB	0ffH
	DB	040H
	DB	044H
	DB	048H
	DB	0ffH
	DB	040H
	DB	044H
	DB	040H
	DB	0ffH
	DB	048H
	DB	044H
	DB	040H
	DB	0ffH
	DB	040H
	DB	044H
	DB	048H
	DB	0ffH
	DB	048H
	DB	044H
	DB	040H
	DB	0ffH
	DB	048H
	DB	044H
	DB	040H
	DB	0ffH
	DB	040H
	DB	044H
	DB	048H
	DB	0ffH
	DB	048H
	DB	044H
	DB	040H
	DB	0ffH
	DB	048H
	DB	044H
	DB	040H
	DB	0ffH
	DB	040H
	DB	044H
	DB	048H
	DB	0ffH
	DB	040H
	DB	044H
	DB	040H
	DB	0ffH
	DB	048H
	DB	044H
	DB	048H
	DB	0ffH
	DB	040H
	DB	044H
	DB	040H
	DB	0ffH
	DB	040H
	DB	044H
	DB	048H
	DB	0ffH
	DB	048H
	DB	044H
	DB	040H
	DB	0ffH
	DB	040H
	DB	044H
	DB	048H
	DB	0ffH
	DB	040H
	DB	044H
	DB	040H
	DB	0ffH
	DB	048H
	DB	044H
	DB	040H
	DB	0ffH
	DB	048H
	DB	044H
	DB	048H
	DB	0ffH
	DB	040H
	DB	044H
	DB	040H
	DB	0ffH
	DB	040H
	DB	044H
	DB	048H
	DB	0ffH
	DB	040H
	DB	044H
	DB	040H
	DB	0ffH
	DB	048H
	DB	044H
	DB	040H
	DB	0ffH
	DB	040H
	DB	044H
	DB	048H
	DB	0ffH
	DB	048H
	DB	044H
	DB	040H
	DB	0ffH
	DB	040H
	DB	044H
	DB	040H
	DB	0ffH
	DB	048H
	DB	044H
	DB	048H
	DB	0ffH
	DB	048H
	DB	044H
	DB	048H
	DB	0ffH
	DB	040H
	DB	044H
	DB	040H
	DB	0ffH
	DB	040H
	DB	044H
	DB	040H
	DB	0ffH
	DB	048H
	DB	044H
	DB	048H
	DB	0ffH
	DB	040H
	DB	044H
	DB	040H
	DB	0ffH
	DB	040H
	DB	044H
	DB	040H
	DB	0ffH
	DB	048H
	DB	044H
	DB	048H
	DB	0ffH
	DB	048H
	DB	044H
	DB	048H
	DB	0ffH
	DB	048H
	DB	044H
	DB	040H
	DB	0ffH
	DB	040H
	DB	044H
	DB	040H
	DB	0ffH
	DB	040H
	DB	040H
	DB	040H
	DB	0ffH
	DB	040H
	DB	040H
	DB	040H
	DB	0ffH
	DB	040H
	DB	040H
	DB	040H
	DB	0ffH
	DB	040H
	DB	03cH
	DB	040H
	DB	0ffH
	DB	038H
	DB	03cH
	DB	038H
	DB	0ffH
	DB	038H
	DB	038H
	DB	038H
	DB	0ffH
	DB	038H
	DB	038H
	DB	038H
	DB	0ffH
	DB	038H
	DB	034H
	DB	038H
	DB	0ffH
	DB	030H
	DB	034H
	DB	030H
	DB	0ffH
	DB	030H
	DB	034H
	DB	030H
	DB	0ffH
	DB	030H
	DB	034H
	DB	030H
	DB	0ffH
	DB	038H
	DB	034H
	DB	030H
	DB	0ffH
	DB	038H
	DB	034H
	DB	038H
	DB	0ffH
	DB	038H
	DB	038H
	DB	038H
	DB	0ffH
	DB	038H
	DB	038H
	DB	038H
	DB	0ffH
	DB	038H
	DB	03cH
	DB	038H
	DB	0ffH
	DB	040H
	DB	03cH
	DB	038H
	DB	0ffH
	DB	040H
	DB	040H
	DB	040H
	DB	0ffH
	DB	040H
	DB	040H
	DB	040H
	DB	0ffH
	DB	040H
	DB	044H
	DB	040H
	DB	0ffH
	DB	040H
	DB	044H
	DB	040H
	DB	0ffH
	DB	048H
	DB	044H
	DB	048H
	DB	0ffH
	DB	040H
	DB	044H
	DB	040H
	DB	0ffH
	DB	040H
	DB	044H
	DB	040H
	DB	0ffH
	DB	048H
	DB	044H
	DB	048H
	DB	0ffH
	DB	048H
	DB	044H
	DB	040H
	DB	0ffH
	DB	040H
	DB	044H
	DB	040H
	DB	0ffH
	DB	048H
	DB	044H
	DB	048H
	DB	0ffH
	DB	048H
	DB	044H
	DB	040H
	DB	0ffH
	DB	040H
	DB	044H
	DB	048H
	DB	0ffH
	DB	040H
	DB	044H
	DB	040H
	DB	0ffH
	DB	048H
	DB	044H
	DB	040H
	DB	0ffH
	DB	040H
	DB	044H
	DB	048H
	DB	0ffH
	DB	048H
	DB	044H
	DB	040H
	DB	0ffH
	DB	048H
	DB	044H
	DB	048H
	DB	0ffH
	DB	048H
	DB	044H
	DB	040H
	DB	0ffH
	DB	040H
	DB	044H
	DB	048H
	DB	0ffH
	DB	048H
	DB	044H
	DB	040H
	DB	0ffH
	DB	040H
	DB	044H
	DB	040H
	DB	0ffH
	DB	040H
	DB	044H
	DB	048H
	DB	0ffH
	DB	048H
	DB	044H
	DB	040H
	DB	0ffH
	DB	048H
	DB	044H
	DB	040H
	DB	0ffH
	DB	040H
	DB	044H
	DB	048H
	DB	0ffH
	DB	048H
	DB	044H
	DB	040H
	DB	0ffH
	DB	040H
	DB	044H
	DB	040H
	DB	0ffH
	DB	048H
	DB	044H
	DB	048H
	DB	0ffH
	DB	048H
	DB	044H
	DB	040H
	DB	0ffH
	DB	040H
	DB	044H
	DB	040H
	DB	0ffH
	DB	048H
	DB	044H
	DB	048H
	DB	0ffH
	DB	040H
	DB	044H
	DB	040H
	DB	0ffH
	DB	040H
	DB	044H
	DB	040H
	DB	0ffH
	DB	048H
	DB	044H
	DB	048H
	DB	0ffH
	DB	040H
	DB	044H
	DB	048H
	DB	0ffH
	DB	048H
	DB	044H
	DB	040H
	DB	0ffH
	DB	048H
	DB	044H
	DB	048H
	DB	0ffH
	DB	040H
	DB	044H
	DB	040H
	DB	0ffH
	DB	048H
	DB	044H
	DB	040H
	DB	0ffH
	DB	048H
	DB	044H
	DB	048H
	DB	0ffH
	DB	040H
	DB	044H
	DB	040H
	DB	0ffH
	DB	048H
	DB	044H
	DB	040H
	DB	0ffH
	DB	040H
	DB	044H
	DB	048H
	DB	0ffH
	DB	040H
	DB	044H
	DB	040H
	DB	0ffH
	DB	048H
	DB	044H
	DB	040H
	DB	0ffH
	DB	040H
	DB	044H
	DB	048H
	DB	0ffH
	DB	048H
	DB	044H
	DB	040H
	DB	0ffH
	DB	040H
	DB	044H
	DB	048H
	DB	0ffH
	DB	040H
	DB	044H
	DB	040H
	DB	0ffH
	DB	048H
	DB	044H
	DB	040H
	DB	0ffH
	DB	040H
	DB	044H
	DB	048H
	DB	0ffH
	DB	040H
	DB	044H
	DB	040H
	DB	0ffH
	DB	048H
	DB	044H
	DB	040H
	DB	0ffH
	DB	040H
	DB	044H
	DB	048H
	DB	0ffH
	DB	048H
	DB	044H
	DB	040H
	DB	0ffH
	DB	048H
	DB	044H
	DB	040H
	DB	0ffH
	DB	040H
	DB	044H
	DB	048H
	DB	0ffH
	DB	048H
	DB	044H
	DB	040H
	DB	0ffH
	DB	048H
	DB	044H
	DB	040H
	DB	0ffH
	DB	040H
	DB	044H
	DB	048H
	DB	0ffH
	DB	048H
	DB	044H
	DB	040H
	DB	0ffH
	DB	048H
	DB	044H
	DB	048H
	DB	0ffH
	DB	040H
	DB	044H
	DB	040H
	DB	0ffH
	DB	048H
	DB	044H
	DB	040H
	DB	0ffH
	DB	040H
	DB	044H
	DB	048H
	DB	0ffH
	DB	048H
	DB	044H
	DB	040H
	DB	0ffH
	DB	040H
	DB	044H
	DB	040H
	DB	0ffH
	DB	040H
	DB	044H
	DB	048H
	DB	0ffH
	DB	048H
	DB	044H
	DB	040H
	DB	0ffH
	DB	048H
	DB	044H
	DB	040H
	DB	0ffH
	DB	040H
	DB	044H
	DB	048H
	DB	0ffH
	DB	040H
	DB	044H
	DB	040H
	DB	0ffH
	DB	048H
	DB	044H
	DB	048H
	DB	0ffH
	DB	040H
	DB	044H
	DB	040H
	DB	0ffH
	DB	048H
	DB	044H
	DB	048H
	DB	0ffH
	DB	048H
	DB	044H
	DB	040H
	DB	0ffH
	DB	040H
	DB	044H
	DB	040H
	DB	0ffH
	DB	048H
	DB	044H
	DB	048H
	DB	0ffH
	DB	040H
	DB	044H
	DB	048H
	DB	0ffH
	DB	040H
	DB	044H
	DB	040H
	DB	0ffH
	DB	048H
	DB	044H
	DB	048H
	DB	0ffH
	DB	040H
	DB	044H
	DB	040H
	DB	0ffH
	DB	040H
	DB	044H
	DB	048H
	DB	0ffH
	DB	048H
	DB	044H
	DB	040H
	DB	0ffH
	DB	048H
	DB	044H
	DB	040H
	DB	0ffH
	DB	040H
	DB	044H
	DB	048H
	DB	0ffH
	DB	048H
	DB	044H
	DB	040H
	DB	0ffH
	DB	040H
	DB	044H
	DB	040H
	DB	0ffH
	DB	048H
	DB	044H
	DB	048H
	DB	0ffH
	DB	048H
	DB	044H
	DB	040H
	DB	0ffH
	DB	040H
	DB	044H
	DB	040H
	DB	0ffH
	DB	040H
	DB	044H
	DB	048H
	DB	0ffH
	DB	048H
	DB	044H
	DB	040H
	DB	0ffH
	DB	048H
	DB	044H
	DB	040H
	DB	0ffH
	DB	040H
	DB	044H
	DB	048H
	DB	0ffH
	DB	048H
	DB	044H
	DB	040H
	DB	0ffH
	DB	048H
	DB	044H
	DB	048H
	DB	0ffH
	DB	040H
	DB	044H
	DB	040H
	DB	0ffH
	DB	048H
	DB	044H
	DB	048H
	DB	0ffH
	DB	040H
	DB	044H
	DB	040H
	DB	0ffH
	DB	040H
	DB	044H
	DB	040H
	DB	0ffH
	DB	048H
	DB	044H
	DB	048H
	DB	0ffH
	DB	048H
	DB	044H
	DB	040H
	DB	0ffH
	DB	040H
	DB	044H
	DB	040H
	DB	0ffH
	DB	048H
	DB	044H
	DB	048H
	DB	0ffH
	DB	048H
	DB	044H
	DB	040H
	DB	0ffH
	DB	040H
	DB	044H
	DB	040H
	DB	0ffH
	DB	048H
	DB	044H
	DB	040H
	DB	0ffH
	DB	040H
	DB	044H
	DB	040H
	DB	0ffH
	DB	040H
	DB	044H
	DB	048H
	DB	0ffH
	DB	048H
	DB	044H
	DB	048H
	DB	0ffH
	DB	040H
	DB	044H
	DB	040H
	DB	0ffH
	DB	040H
	DB	040H
	DB	040H
	DB	0ffH
	DB	040H
	DB	040H
	DB	040H
	DB	0ffH
	DB	040H
	DB	040H
	DB	040H
	DB	0ffH
	DB	040H
	DB	03cH
	DB	038H
	DB	0ffH
	DB	038H
	DB	03cH
	DB	038H
	DB	0ffH
	DB	038H
	DB	038H
	DB	038H
	DB	0ffH
	DB	038H
	DB	038H
	DB	038H
	DB	0ffH
	DB	038H
	DB	034H
	DB	030H
	DB	0ffH
	DB	038H
	DB	034H
	DB	030H
	DB	0ffH
	DB	030H
	DB	034H
	DB	030H
	DB	0ffH
	DB	030H
	DB	034H
	DB	030H
	DB	0ffH
	DB	038H
	DB	034H
	DB	030H
	DB	0ffH
	DB	038H
	DB	034H
	DB	038H
	DB	0ffH
	DB	038H
	DB	038H
	DB	038H
	DB	0ffH
	DB	038H
	DB	038H
	DB	038H
	DB	0ffH
	DB	038H
	DB	03cH
	DB	038H
	DB	0ffH
	DB	040H
	DB	03cH
	DB	040H
	DB	0ffH
	DB	040H
	DB	040H
	DB	040H
	DB	0ffH
	DB	040H
	DB	040H
	DB	040H
	DB	0ffH
	DB	040H
	DB	044H
	DB	040H
	DB	0ffH
	DB	048H
	DB	044H
	DB	040H
	DB	0ffH
	DB	048H
	DB	044H
	DB	040H
	DB	0ffH
	DB	040H
	DB	044H
	DB	048H
	DB	0ffH
	DB	040H
	DB	044H
	DB	040H
	DB	0ffH
	DB	048H
	DB	044H
	DB	040H
	DB	0ffH
	DB	040H
	DB	044H
	DB	048H
	DB	0ffH
	DB	040H
	DB	044H
	DB	040H
	DB	0ffH
	DB	048H
	DB	044H
	DB	040H
	DB	0ffH
	DB	040H
	DB	044H
	DB	048H
	DB	0ffH
	DB	048H
	DB	044H
	DB	040H
	DB	0ffH
	DB	048H
	DB	044H
	DB	040H
	DB	0ffH
	DB	040H
	DB	044H
	DB	048H
	DB	0ffH
	DB	040H
	DB	044H
	DB	040H
	DB	0ffH
	DB	040H
	DB	044H
	DB	040H
	DB	0ffH
	DB	048H
	DB	044H
	DB	040H
	DB	0ffH
	DB	040H
	DB	044H
	DB	048H
	DB	0ffH
	DB	048H
	DB	044H
	DB	040H
	DB	0ffH
	DB	048H
	DB	044H
	DB	040H
	DB	0ffH
	DB	040H
	DB	044H
	DB	048H
	DB	0ffH
	DB	040H
	DB	044H
	DB	040H
	DB	0ffH
	DB	048H
	DB	044H
	DB	048H
	DB	0ffH
	DB	040H
	DB	044H
	DB	040H
	DB	0ffH
	DB	048H
	DB	044H
	DB	040H
	DB	0ffH
	DB	040H
	DB	044H
	DB	048H
	DB	0ffH
	DB	048H
	DB	044H
	DB	040H
	DB	0ffH
	DB	040H
	DB	044H
	DB	048H
	DB	0ffH
	DB	040H
	DB	044H
	DB	040H
	DB	0ffH
	DB	048H
	DB	044H
	DB	048H
	DB	0ffH
	DB	048H
	DB	044H
	DB	040H
	DB	0ffH
	DB	040H
	DB	044H
	DB	040H
	DB	0ffH
	DB	048H
	DB	044H
	DB	048H
	DB	0ffH
	DB	040H
	DB	044H
	DB	040H
	DB	0ffH
	DB	040H
	DB	044H
	DB	040H
	DB	0ffH
	DB	048H
	DB	044H
	DB	040H
	DB	0ffH
	DB	040H
	DB	044H
	DB	048H
	DB	0ffH
	DB	040H
	DB	044H
	DB	048H
	DB	0ffH
	DB	048H
	DB	044H
	DB	040H
	DB	0ffH
	DB	040H
	DB	044H
	DB	040H
	DB	0ffH
	DB	040H
	DB	044H
	DB	048H
	DB	0ffH
	DB	048H
	DB	044H
	DB	040H
	DB	0ffH
	DB	048H
	DB	044H
	DB	048H
	DB	0ffH
	DB	040H
	DB	044H
	DB	040H
	DB	0ffH
	DB	048H
	DB	044H
	DB	048H
	DB	0ffH
	DB	040H
	DB	044H
	DB	040H
	DB	0ffH
	DB	040H
	DB	044H
	DB	040H
	DB	0ffH
	DB	048H
	DB	044H
	DB	048H
	DB	0ffH
	DB	048H
	DB	044H
	DB	040H
	DB	0ffH
	DB	040H
	DB	044H
	DB	048H
	DB	0ffH
	DB	048H
	DB	044H
	DB	048H
	DB	0ffH
	DB	048H
	DB	044H
	DB	040H
	DB	0ffH
	DB	040H
	DB	044H
	DB	040H
	DB	0ffH
	DB	040H
	DB	044H
	DB	048H
	DB	0ffH
	DB	048H
	DB	044H
	DB	040H
	DB	0ffH
	DB	040H
	DB	044H
	DB	048H
	DB	0ffH
	DB	040H
	DB	044H
	DB	040H
	DB	0ffH
	DB	048H
	DB	044H
	DB	040H
	DB	0ffH
	DB	040H
	DB	044H
	DB	048H
	DB	0ffH
	DB	040H
	DB	044H
	DB	040H
	DB	0ffH
	DB	048H
	DB	044H
	DB	040H
	DB	0ffH
	DB	040H
	DB	044H
	DB	048H
	DB	0ffH
	DB	048H
	DB	044H
	DB	040H
	DB	0ffH
	DB	040H
	DB	044H
	DB	048H
	DB	0ffH
	DB	048H
	DB	044H
	DB	040H
	DB	0ffH
	DB	040H
	DB	044H
	DB	040H
	DB	0ffH
	DB	048H
	DB	044H
	DB	048H
	DB	0ffH
	DB	040H
	DB	044H
	DB	040H
	DB	0ffH
	DB	040H
	DB	044H
	DB	048H
	DB	0ffH
	DB	048H
	DB	044H
	DB	040H
	DB	0ffH
	DB	048H
	DB	044H
	DB	040H
	DB	0ffH
	DB	040H
	DB	044H
	DB	048H
	DB	0ffH
	DB	048H
	DB	044H
	DB	040H
	DB	0ffH
	DB	040H
	DB	044H
	DB	040H
	DB	0ffH
	DB	040H
	DB	044H
	DB	048H
	DB	0ffH
	DB	048H
	DB	044H
	DB	040H
	DB	0ffH
	DB	040H
	DB	044H
	DB	040H
	DB	0ffH
	DB	048H
	DB	044H
	DB	048H
	DB	0ffH
	DB	048H
	DB	044H
	DB	040H
	DB	0ffH
	DB	040H
	DB	044H
	DB	040H
	DB	0ffH
	DB	048H
	DB	044H
	DB	040H
	DB	0ffH
	DB	048H
	DB	044H
	DB	048H
	DB	0ffH
	DB	040H
	DB	044H
	DB	040H
	DB	0ffH
	DB	040H
	DB	044H
	DB	040H
	DB	0ffH
	DB	048H
	DB	044H
	DB	048H
	DB	0ffH
	DB	048H
	DB	044H
	DB	040H
	DB	0ffH
	DB	040H
	DB	044H
	DB	040H
	DB	0ffH
	DB	048H
	DB	044H
	DB	048H
	DB	0ffH
	DB	040H
	DB	044H
	DB	040H
	DB	0ffH
	DB	048H
	DB	044H
	DB	040H
	DB	0ffH
	DB	048H
	DB	044H
	DB	048H
	DB	0ffH
	DB	040H
	DB	044H
	DB	048H
	DB	0ffH
	DB	040H
	DB	044H
	DB	040H
	DB	0ffH
	DB	048H
	DB	044H
	DB	040H
	DB	0ffH
	DB	040H
	DB	044H
	DB	048H
	DB	0ffH
	DB	048H
	DB	044H
	DB	040H
	DB	0ffH
	DB	040H
	DB	044H
	DB	040H
	DB	0ffH
	DB	040H
	DB	044H
	DB	048H
	DB	0ffH
	DB	048H
	DB	044H
	DB	040H
	DB	0ffH
	DB	048H
	DB	044H
	DB	048H
	DB	0ffH
	DB	040H
	DB	044H
	DB	040H
	DB	0ffH
	DB	040H
	DB	044H
	DB	040H
	DB	0ffH
	DB	040H
	DB	044H
	DB	048H
	DB	0ffH
	DB	048H
	DB	044H
	DB	040H
	DB	0ffH
	DB	040H
	DB	044H
	DB	040H
	DB	0ffH
	DB	040H
	DB	044H
	DB	048H
	DB	0ffH
	DB	048H
	DB	044H
	DB	048H
	DB	0ffH
	DB	048H
	DB	044H
	DB	040H
	DB	0ffH
	DB	040H
	DB	044H
	DB	040H
	DB	0ffH
	DB	048H
	DB	044H
	DB	040H
	DB	0ffH
	DB	048H
	DB	044H
	DB	048H
	DB	0ffH
	DB	040H
	DB	044H
	DB	040H
	DB	0ffH
	DB	040H
	DB	044H
	DB	040H
	DB	0ffH
	DB	040H
	DB	040H
	DB	040H
	DB	0ffH
	DB	040H
	DB	040H
	DB	040H
	DB	0ffH
	DB	040H
	DB	03cH
	DB	040H
	DB	0ffH
	DB	038H
	DB	03cH
	DB	038H
	DB	0ffH
	DB	038H
	DB	038H
	DB	038H
	DB	0ffH
	DB	038H
	DB	038H
	DB	038H
	DB	0ffH
	DB	038H
	DB	038H
	DB	038H
	DB	0ffH
	DB	030H
	DB	034H
	DB	030H
	DB	0ffH
	DB	030H
	DB	034H
	DB	030H
	DB	0ffH
	DB	030H
	DB	034H
	DB	030H
	DB	0ffH
	DB	030H
	DB	034H
	DB	038H
	DB	0ffH
	DB	038H
	DB	034H
	DB	038H
	DB	0ffH
	DB	038H
	DB	038H
	DB	038H
	DB	0ffH
	DB	038H
	DB	038H
	DB	038H
	DB	0ffH
	DB	038H
	DB	03cH
	DB	038H
	DB	0ffH
	DB	040H
	DB	03cH
	DB	038H
	DB	0ffH
	DB	040H
	DB	040H
	DB	040H
	DB	0ffH
	DB	040H
	DB	040H
	DB	040H
	DB	0ffH
	DB	040H
	DB	040H
	DB	040H
	DB	0ffH
	DB	040H
	DB	044H
	DB	040H
	DB	0ffH
	DB	048H
	DB	044H
	DB	048H
	DB	0ffH
	DB	048H
	DB	044H
	DB	040H
	DB	0ffH
	DB	040H
	DB	044H
	DB	048H
	DB	0ffH
	DB	048H
	DB	044H
	DB	040H
	DB	0ffH
	DB	048H
	DB	044H
	DB	048H
	DB	0ffH
	DB	040H
	DB	044H
	DB	040H
	DB	0ffH
	DB	040H
	DB	044H
	DB	040H
	DB	0ffH
	DB	048H
	DB	044H
	DB	048H
	DB	0ffH
	DB	040H
	DB	044H
	DB	040H
	DB	0ffH
	DB	048H
	DB	044H
	DB	048H
	DB	0ffH
	DB	048H
	DB	044H
	DB	040H
	DB	0ffH
	DB	040H
	DB	044H
	DB	048H
	DB	0ffH
	DB	048H
	DB	044H
	DB	040H
	DB	0ffH
	DB	040H
	DB	044H
	DB	048H
	DB	0ffH
	DB	040H
	DB	044H
	DB	040H
	DB	0ffH
	DB	048H
	DB	044H
	DB	040H
	DB	0ffH
	DB	040H
	DB	044H
	DB	048H
	DB	0ffH
	DB	048H
	DB	044H
	DB	040H
	DB	0ffH
	DB	048H
	DB	044H
	DB	040H
	DB	0ffH
	DB	040H
	DB	044H
	DB	048H
	DB	0ffH
	DB	048H
	DB	044H
	DB	040H
	DB	0ffH
	DB	040H
	DB	044H
	DB	040H
	DB	0ffH
	DB	048H
	DB	044H
	DB	048H
	DB	0ffH
	DB	048H
	DB	044H
	DB	040H
	DB	0ffH
	DB	040H
	DB	044H
	DB	040H
	DB	0ffH
	DB	040H
	DB	044H
	DB	048H
	DB	0ffH
	DB	048H
	DB	044H
	DB	040H
	DB	0ffH
	DB	040H
	DB	044H
	DB	040H
	DB	0ffH
	DB	048H
	DB	044H
	DB	048H
	DB	0ffH
	DB	048H
	DB	044H
	DB	040H
	DB	0ffH
	DB	040H
	DB	044H
	DB	040H
	DB	0ffH
	DB	048H
	DB	044H
	DB	048H
	DB	0ffH
	DB	048H
	DB	044H
	DB	040H
	DB	0ffH
	DB	040H
	DB	044H
	DB	040H
	DB	0ffH
	DB	048H
	DB	044H
	DB	048H
	DB	0ffH
	DB	048H
	DB	044H
	DB	040H
	DB	0ffH
	DB	040H
	DB	044H
	DB	040H
	DB	0ffH
	DB	048H
	DB	044H
	DB	048H
	DB	0ffH
	DB	040H
	DB	044H
	DB	040H
	DB	0ffH
	DB	048H
	DB	044H
	DB	040H
	DB	0ffH
	DB	048H
	DB	044H
	DB	048H
	DB	0ffH
	DB	040H
	DB	044H
	DB	040H
	DB	0ffH
	DB	048H
	DB	044H
	DB	040H
	DB	0ffH
	DB	048H
	DB	044H
	DB	048H
	DB	0ffH
	DB	040H
	DB	044H
	DB	040H
	DB	0ffH
	DB	048H
	DB	044H
	DB	040H
	DB	0ffH
	DB	040H
	DB	044H
	DB	040H
	DB	0ffH
	DB	040H
	DB	044H
	DB	048H
	DB	0ffH
	DB	048H
	DB	044H
	DB	040H
	DB	0ffH
	DB	048H
	DB	044H
	DB	040H
	DB	0ffH
	DB	040H
	DB	044H
	DB	048H
	DB	0ffH
	DB	048H
	DB	044H
	DB	040H
	DB	0ffH
	DB	040H
	DB	044H
	DB	040H
	DB	0ffH
	DB	048H
	DB	044H
	DB	048H
	DB	0ffH
	DB	048H
	DB	044H
	DB	040H
	DB	0ffH
	DB	040H
	DB	044H
	DB	048H
	DB	0ffH
	DB	048H
	DB	044H
	DB	040H
	DB	0ffH
	DB	040H
	DB	044H
	DB	040H
	DB	0ffH
	DB	048H
	DB	044H
	DB	048H
	DB	0ffH
	DB	040H
	DB	044H
	DB	040H
	DB	0ffH
	DB	048H
	DB	044H
	DB	040H
	DB	0ffH
	DB	040H
	DB	044H
	DB	048H
	DB	0ffH
	DB	048H
	DB	044H
	DB	040H
	DB	0ffH
	DB	048H
	DB	044H
	DB	040H
	DB	0ffH
	DB	048H
	DB	044H
	DB	048H
	DB	0ffH
	DB	040H
	DB	044H
	DB	040H
	DB	0ffH
	DB	040H
	DB	044H
	DB	048H
	DB	0ffH
	DB	048H
	DB	044H
	DB	040H
	DB	0ffH
	DB	048H
	DB	044H
	DB	040H
	DB	0ffH
	DB	040H
	DB	044H
	DB	048H
	DB	0ffH
	DB	048H
	DB	044H
	DB	040H
	DB	0ffH
	DB	040H
	DB	044H
	DB	040H
	DB	0ffH
	DB	048H
	DB	044H
	DB	048H
	DB	0ffH
	DB	040H
	DB	044H
	DB	040H
	DB	0ffH
	DB	040H
	DB	044H
	DB	040H
	DB	0ffH
	DB	048H
	DB	044H
	DB	048H
	DB	0ffH
	DB	040H
	DB	044H
	DB	040H
	DB	0ffH
	DB	040H
	DB	044H
	DB	040H
	DB	0ffH
	DB	048H
	DB	044H
	DB	048H
	DB	0ffH
	DB	048H
	DB	044H
	DB	040H
	DB	0ffH
	DB	040H
	DB	044H
	DB	048H
	DB	0ffH
	DB	040H
	DB	044H
	DB	040H
	DB	0ffH
	DB	048H
	DB	044H
	DB	040H
	DB	0ffH
	DB	040H
	DB	044H
	DB	048H
	DB	0ffH
	DB	040H
	DB	044H
	DB	040H
	DB	0ffH
	DB	048H
	DB	044H
	DB	040H
	DB	0ffH
	DB	040H
	DB	044H
	DB	048H
	DB	0ffH
	DB	048H
	DB	044H
	DB	040H
	DB	0ffH
	DB	048H
	DB	044H
	DB	040H
	DB	0ffH
	DB	040H
	DB	044H
	DB	048H
	DB	0ffH
	DB	040H
	DB	044H
	DB	040H
	DB	0ffH
	DB	048H
	DB	044H
	DB	040H
	DB	0ffH
	DB	040H
	DB	044H
	DB	048H
	DB	0ffH
	DB	048H
	DB	044H
	DB	040H
	DB	0ffH
	DB	040H
	DB	044H
	DB	040H
	DB	0ffH
	DB	048H
	DB	044H
	DB	048H
	DB	0ffH
	DB	048H
	DB	044H
	DB	040H
	DB	0ffH
	DB	040H
	DB	044H
	DB	040H
	DB	0ffH
	DB	048H
	DB	044H
	DB	048H
	DB	0ffH
	DB	048H
	DB	044H
	DB	040H
	DB	0ffH
	DB	040H
	DB	044H
	DB	048H
	DB	0ffH
	DB	048H
	DB	044H
	DB	040H
	DB	0ffH
	DB	040H
	DB	044H
	DB	040H
	DB	0ffH
	DB	048H
	DB	044H
	DB	048H
	DB	0ffH
	DB	040H
	DB	044H
	DB	048H
	DB	0ffH
	DB	040H
	DB	044H
	DB	040H
	DB	0ffH
	DB	048H
	DB	044H
	DB	040H
	DB	0ffH
	DB	048H
	DB	044H
	DB	040H
	DB	0ffH
	DB	040H
	DB	044H
	DB	040H
	DB	0ffH
	DB	048H
	DB	040H
	DB	040H
	DB	0ffH
	DB	040H
	DB	040H
	DB	040H
	DB	0ffH
	DB	040H
	DB	040H
	DB	040H
	DB	0ffH
	DB	040H
	DB	03cH
	DB	038H
	DB	0ffH
	DB	038H
	DB	03cH
	DB	038H
	DB	0ffH
	DB	038H
	DB	038H
	DB	038H
	DB	0ffH
	DB	038H
	DB	038H
	DB	038H
	DB	0ffH
	DB	038H
	DB	034H
	DB	038H
	DB	0ffH
	DB	038H
	DB	034H
	DB	030H
	DB	0ffH
	DB	030H
	DB	034H
	DB	030H
	DB	0ffH
	DB	030H
	DB	034H
	DB	030H
	DB	0ffH
	DB	038H
	DB	034H
	DB	030H
	DB	0ffH
	DB	038H
	DB	034H
	DB	038H
	DB	0ffH
	DB	038H
	DB	038H
	DB	030H
	DB	0ffH
	DB	038H
	DB	038H
	DB	038H
	DB	0ffH
	DB	038H
	DB	03cH
	DB	038H
	DB	0ffH
	DB	040H
	DB	03cH
	DB	040H
	DB	0ffH
	DB	040H
	DB	040H
	DB	040H
	DB	0ffH
	DB	040H
	DB	040H
	DB	040H
	DB	0ffH
	DB	040H
	DB	040H
	DB	040H
	DB	0ffH
	DB	040H
	DB	044H
	DB	040H
	DB	0ffH
	DB	048H
	DB	044H
	DB	048H
	DB	0ffH
	DB	040H
	DB	044H
	DB	040H
	DB	0ffH
	DB	040H
	DB	044H
	DB	040H
	DB	0ffH
	DB	048H
	DB	044H
	DB	048H
	DB	0ffH
	DB	048H
	DB	044H
	DB	040H
	DB	0ffH
	DB	040H
	DB	044H
	DB	048H
	DB	0ffH
	DB	048H
	DB	044H
	DB	040H
	DB	0ffH
	DB	048H
	DB	044H
	DB	040H
	DB	0ffH
	DB	040H
	DB	044H
	DB	048H
	DB	0ffH
	DB	040H
	DB	044H
	DB	040H
	DB	0ffH
	DB	048H
	DB	044H
	DB	040H
	DB	0ffH
	DB	048H
	DB	044H
	DB	048H
	DB	0ffH
	DB	040H
	DB	044H
	DB	040H
	DB	0ffH
	DB	048H
	DB	044H
	DB	040H
	DB	0ffH
	DB	048H
	DB	044H
	DB	048H
	DB	0ffH
	DB	040H
	DB	044H
	DB	040H
	DB	0ffH
	DB	040H
	DB	044H
	DB	048H
	DB	0ffH
	DB	048H
	DB	044H
	DB	040H
	DB	0ffH
	DB	040H
	DB	044H
	DB	040H
	DB	0ffH
	DB	048H
	DB	044H
	DB	048H
	DB	0ffH
	DB	040H
	DB	044H
	DB	040H
	DB	0ffH
	DB	040H
	DB	044H
	DB	048H
	DB	0ffH
	DB	048H
	DB	044H
	DB	040H
	DB	0ffH
	DB	040H
	DB	044H
	DB	040H
	DB	0ffH
	DB	048H
	DB	044H
	DB	048H
	DB	0ffH
	DB	048H
	DB	044H
	DB	040H
	DB	0ffH
	DB	040H
	DB	044H
	DB	040H
	DB	0ffH
	DB	040H
	DB	044H
	DB	048H
	DB	0ffH
	DB	048H
	DB	044H
	DB	048H
	DB	0ffH
	DB	040H
	DB	044H
	DB	040H
	DB	0ffH
	DB	040H
	DB	044H
	DB	048H
	DB	0ffH
	DB	048H
	DB	044H
	DB	040H
	DB	0ffH
	DB	040H
	DB	044H
	DB	040H
	DB	0ffH
	DB	040H
	DB	044H
	DB	048H
	DB	0ffH
	DB	048H
	DB	044H
	DB	040H
	DB	0ffH
	DB	040H
	DB	044H
	DB	040H
	DB	0ffH
	DB	048H
	DB	044H
	DB	048H
	DB	0ffH
	DB	040H
	DB	044H
	DB	040H
	DB	0ffH
	DB	040H
	DB	044H
	DB	040H
	DB	0ffH
	DB	048H
	DB	044H
	DB	048H
	DB	0ffH
	DB	040H
	DB	044H
	DB	040H
	DB	0ffH
	DB	040H
	DB	044H
	DB	040H
	DB	0ffH
	DB	048H
	DB	044H
	DB	048H
	DB	0ffH
	DB	040H
	DB	044H
	DB	040H
	DB	0ffH
	DB	040H
	DB	044H
	DB	048H
	DB	0ffH
	DB	048H
	DB	044H
	DB	040H
	DB	0ffH
	DB	048H
	DB	044H
	DB	040H
	DB	0ffH
	DB	040H
	DB	044H
	DB	048H
	DB	0ffH
	DB	040H
	DB	044H
	DB	040H
	DB	0ffH
	DB	048H
	DB	044H
	DB	040H
	DB	0ffH
	DB	040H
	DB	044H
	DB	048H
	DB	0ffH
	DB	048H
	DB	044H
	DB	040H
	DB	0ffH
	DB	048H
	DB	044H
	DB	040H
	DB	0ffH
	DB	040H
	DB	044H
	DB	048H
	DB	0ffH
	DB	040H
	DB	044H
	DB	040H
	DB	0ffH
	DB	048H
	DB	044H
	DB	040H
	DB	0ffH
	DB	048H
	DB	044H
	DB	048H
	DB	0ffH
	DB	040H
	DB	044H
	DB	040H
	DB	0ffH
	DB	040H
	DB	044H
	DB	040H
	DB	0ffH
	DB	048H
	DB	044H
	DB	048H
	DB	0ffH
	DB	040H
	DB	044H
	DB	040H
	DB	0ffH
	DB	040H
	DB	044H
	DB	048H
	DB	0ffH
	DB	048H
	DB	044H
	DB	040H
	DB	0ffH
	DB	040H
	DB	044H
	DB	040H
	DB	0ffH
	DB	040H
	DB	044H
	DB	048H
	DB	0ffH
	DB	048H
	DB	044H
	DB	040H
	DB	0ffH
	DB	040H
	DB	044H
	DB	040H
	DB	0ffH
	DB	040H
	DB	044H
	DB	048H
	DB	0ffH
	DB	048H
	DB	044H
	DB	040H
	DB	0ffH
	DB	040H
	DB	044H
	DB	048H
	DB	0ffH
	DB	048H
	DB	044H
	DB	040H
	DB	0ffH
	DB	048H
	DB	044H
	DB	040H
	DB	0ffH
	DB	040H
	DB	044H
	DB	048H
	DB	0ffH
	DB	048H
	DB	044H
	DB	040H
	DB	0ffH
	DB	040H
	DB	044H
	DB	040H
	DB	0ffH
	DB	048H
	DB	044H
	DB	048H
	DB	0ffH
	DB	048H
	DB	044H
	DB	040H
	DB	0ffH
	DB	040H
	DB	044H
	DB	048H
	DB	0ffH
	DB	040H
	DB	044H
	DB	040H
	DB	0ffH
	DB	048H
	DB	044H
	DB	040H
	DB	0ffH
	DB	048H
	DB	044H
	DB	048H
	DB	0ffH
	DB	040H
	DB	044H
	DB	040H
	DB	0ffH
	DB	048H
	DB	044H
	DB	048H
	DB	0ffH
	DB	048H
	DB	044H
	DB	048H
	DB	0ffH
	DB	040H
	DB	044H
	DB	040H
	DB	0ffH
	DB	048H
	DB	044H
	DB	040H
	DB	0ffH
	DB	040H
	DB	044H
	DB	048H
	DB	0ffH
	DB	040H
	DB	044H
	DB	040H
	DB	0ffH
	DB	048H
	DB	044H
	DB	040H
	DB	0ffH
	DB	048H
	DB	044H
	DB	048H
	DB	0ffH
	DB	040H
	DB	044H
	DB	040H
	DB	0ffH
	DB	048H
	DB	044H
	DB	040H
	DB	0ffH
	DB	048H
	DB	044H
	DB	048H
	DB	0ffH
	DB	040H
	DB	044H
	DB	040H
	DB	0ffH
	DB	048H
	DB	044H
	DB	040H
	DB	0ffH
	DB	040H
	DB	044H
	DB	048H
	DB	0ffH
	DB	040H
	DB	044H
	DB	040H
	DB	0ffH
	DB	048H
	DB	044H
	DB	040H
	DB	0ffH
	DB	040H
	DB	044H
	DB	048H
	DB	0ffH
	DB	048H
	DB	044H
	DB	040H
	DB	0ffH
	DB	040H
	DB	044H
	DB	040H
	DB	0ffH
	DB	048H
	DB	044H
	DB	048H
	DB	0ffH
	DB	048H
	DB	044H
	DB	040H
	DB	0ffH
	DB	040H
	DB	044H
	DB	040H
	DB	0ffH
	DB	048H
	DB	044H
	DB	040H
	DB	0ffH
	DB	040H
	DB	044H
	DB	048H
	DB	0ffH
	DB	040H
	DB	044H
	DB	048H
	DB	0ffH
	DB	048H
	DB	044H
	DB	048H
	DB	0ffH
	DB	040H
	DB	044H
	DB	040H
	DB	0ffH
	DB	040H
	DB	040H
	DB	040H
	DB	0ffH
	DB	040H
	DB	040H
	DB	040H
	DB	0ffH
	DB	040H
	DB	040H
	DB	040H
	DB	0ffH
	DB	040H
	DB	03cH
	DB	040H
	DB	0ffH
	DB	038H
	DB	03cH
	DB	038H
	DB	0ffH
	DB	038H
	DB	038H
	DB	038H
	DB	0ffH
	DB	038H
	DB	038H
	DB	038H
	DB	0ffH
	DB	038H
	DB	034H
	DB	038H
	DB	0ffH
	DB	030H
	DB	034H
	DB	030H
	DB	0ffH
	DB	030H
	DB	034H
	DB	030H
	DB	0ffH
	DB	030H
	DB	034H
	DB	030H
	DB	0ffH
	DB	030H
	DB	034H
	DB	030H
	DB	0ffH
	DB	038H
	DB	034H
	DB	038H
	DB	0ffH
	DB	038H
	DB	038H
	DB	038H
	DB	0ffH
	DB	038H
	DB	038H
	DB	038H
	DB	0ffH
	DB	038H
	DB	03cH
	DB	038H
	DB	0ffH
	DB	040H
	DB	03cH
	DB	038H
	DB	0ffH
	DB	040H
	DB	040H
	DB	040H
	DB	0ffH
	DB	040H
	DB	040H
	DB	040H
	DB	0ffH
	DB	040H
	DB	044H
	DB	040H
	DB	0ffH
	DB	048H
	DB	044H
	DB	040H
	DB	0ffH
	DB	048H
	DB	044H
	DB	040H
	DB	0ffH
	DB	040H
	DB	044H
	DB	048H
	DB	0ffH
	DB	048H
	DB	044H
	DB	040H
	DB	0ffH
	DB	040H
	DB	044H
	DB	040H
	DB	0ffH
	DB	040H
	DB	044H
	DB	048H
	DB	0ffH
	DB	048H
	DB	044H
	DB	040H
	DB	0ffH
	DB	040H
	DB	044H
	DB	048H
	DB	0ffH
	DB	048H
	DB	044H
	DB	040H
	DB	0ffH
	DB	040H
	DB	044H
	DB	040H
	DB	0ffH
	DB	040H
	DB	044H
	DB	048H
	DB	0ffH
	DB	048H
	DB	044H
	DB	040H
	DB	0ffH
	DB	040H
	DB	044H
	DB	040H
	DB	0ffH
	DB	040H
	DB	044H
	DB	048H
	DB	0ffH
	DB	048H
	DB	044H
	DB	040H
	DB	0ffH
	DB	040H
	DB	044H
	DB	040H
	DB	0ffH
	DB	048H
	DB	044H
	DB	048H
	DB	0ffH
	DB	048H
	DB	044H
	DB	040H
	DB	0ffH
	DB	040H
	DB	044H
	DB	048H
	DB	0ffH
	DB	040H
	DB	044H
	DB	040H
	DB	0ffH
	DB	048H
	DB	044H
	DB	040H
	DB	0ffH
	DB	048H
	DB	044H
	DB	048H
	DB	0ffH
	DB	040H
	DB	044H
	DB	040H
	DB	0ffH
	DB	048H
	DB	044H
	DB	040H
	DB	0ffH
	DB	040H
	DB	044H
	DB	048H
	DB	0ffH
	DB	040H
	DB	044H
	DB	040H
	DB	0ffH
	DB	048H
	DB	044H
	DB	040H
	DB	0ffH
	DB	048H
	DB	044H
	DB	048H
	DB	0ffH
	DB	040H
	DB	044H
	DB	040H
	DB	0ffH
	DB	048H
	DB	044H
	DB	040H
	DB	0ffH
	DB	048H
	DB	044H
	DB	040H
	DB	0ffH
	DB	040H
	DB	044H
	DB	048H
	DB	0ffH
	DB	048H
	DB	044H
	DB	040H
	DB	0ffH
	DB	040H
	DB	044H
	DB	040H
	DB	0ffH
	DB	048H
	DB	044H
	DB	048H
	DB	0ffH
	DB	040H
	DB	044H
	DB	040H
	DB	0ffH
	DB	040H
	DB	044H
	DB	048H
	DB	0ffH
	DB	048H
	DB	044H
	DB	040H
	DB	0ffH
	DB	048H
	DB	044H
	DB	048H
	DB	0ffH
	DB	040H
	DB	044H
	DB	040H
	DB	0ffH
	DB	048H
	DB	044H
	DB	048H
	DB	0ffH
	DB	040H
	DB	044H
	DB	040H
	DB	0ffH
	DB	048H
	DB	044H
	DB	048H
	DB	0ffH
	DB	048H
	DB	044H
	DB	040H
	DB	0ffH
	DB	040H
	DB	044H
	DB	040H
	DB	0ffH
	DB	048H
	DB	044H
	DB	048H
	DB	0ffH
	DB	040H
	DB	044H
	DB	048H
	DB	0ffH
	DB	048H
	DB	044H
	DB	040H
	DB	0ffH
	DB	048H
	DB	044H
	DB	040H
	DB	0ffH
	DB	040H
	DB	044H
	DB	048H
	DB	0ffH
	DB	040H
	DB	044H
	DB	040H
	DB	0ffH
	DB	048H
	DB	044H
	DB	048H
	DB	0ffH
	DB	040H
	DB	044H
	DB	040H
	DB	0ffH
	DB	040H
	DB	044H
	DB	048H
	DB	0ffH
	DB	048H
	DB	044H
	DB	040H
	DB	0ffH
	DB	040H
	DB	044H
	DB	040H
	DB	0ffH
	DB	048H
	DB	044H
	DB	048H
	DB	0ffH
	DB	040H
	DB	044H
	DB	040H
	DB	0ffH
	DB	048H
	DB	044H
	DB	048H
	DB	0ffH
	DB	048H
	DB	044H
	DB	040H
	DB	0ffH
	DB	040H
	DB	044H
	DB	040H
	DB	0ffH
	DB	048H
	DB	044H
	DB	048H
	DB	0ffH
	DB	048H
	DB	044H
	DB	040H
	DB	0ffH
	DB	040H
	DB	044H
	DB	048H
	DB	0ffH
	DB	040H
	DB	044H
	DB	040H
	DB	0ffH
	DB	048H
	DB	044H
	DB	040H
	DB	0ffH
	DB	048H
	DB	044H
	DB	048H
	DB	0ffH
	DB	048H
	DB	044H
	DB	040H
	DB	0ffH
	DB	040H
	DB	044H
	DB	040H
	DB	0ffH
	DB	048H
	DB	044H
	DB	048H
	DB	0ffH
	DB	040H
	DB	044H
	DB	040H
	DB	0ffH
	DB	040H
	DB	044H
	DB	048H
	DB	0ffH
	DB	048H
	DB	044H
	DB	040H
	DB	0ffH
	DB	040H
	DB	044H
	DB	048H
	DB	0ffH
	DB	048H
	DB	044H
	DB	040H
	DB	0ffH
	DB	048H
	DB	044H
	DB	048H
	DB	0ffH
	DB	040H
	DB	044H
	DB	040H
	DB	0ffH
	DB	048H
	DB	044H
	DB	040H
	DB	0ffH
	DB	040H
	DB	044H
	DB	048H
	DB	0ffH
	DB	048H
	DB	044H
	DB	040H
	DB	0ffH
	DB	040H
	DB	044H
	DB	040H
	DB	0ffH
	DB	040H
	DB	044H
	DB	048H
	DB	0ffH
	DB	048H
	DB	044H
	DB	040H
	DB	0ffH
	DB	040H
	DB	044H
	DB	040H
	DB	0ffH
	DB	040H
	DB	044H
	DB	040H
	DB	0ffH
	DB	048H
	DB	044H
	DB	048H
	DB	0ffH
	DB	048H
	DB	044H
	DB	040H
	DB	0ffH
	DB	040H
	DB	044H
	DB	048H
	DB	0ffH
	DB	040H
	DB	044H
	DB	040H
	DB	0ffH
	DB	048H
	DB	044H
	DB	040H
	DB	0ffH
	DB	040H
	DB	044H
	DB	048H
	DB	0ffH
	DB	040H
	DB	044H
	DB	040H
	DB	0ffH
	DB	048H
	DB	044H
	DB	048H
	DB	0ffH
	DB	040H
	DB	044H
	DB	040H
	DB	0ffH
	DB	040H
	DB	044H
	DB	048H
	DB	0ffH
	DB	048H
	DB	044H
	DB	040H
	DB	0ffH
	DB	040H
	DB	044H
	DB	048H
	DB	0ffH
	DB	048H
	DB	044H
	DB	040H
	DB	0ffH
	DB	040H
	DB	044H
	DB	048H
	DB	0ffH
	DB	048H
	DB	044H
	DB	040H
	DB	0ffH
	DB	040H
	DB	044H
	DB	040H
	DB	0ffH
	DB	040H
	DB	044H
	DB	048H
	DB	0ffH
	DB	048H
	DB	044H
	DB	040H
	DB	0ffH
	DB	040H
	DB	044H
	DB	048H
	DB	0ffH
	DB	040H
	DB	044H
	DB	040H
	DB	0ffH
	DB	048H
	DB	044H
	DB	040H
	DB	0ffH
	DB	048H
	DB	044H
	DB	040H
	DB	0ffH
	DB	040H
	DB	044H
	DB	040H
	DB	0ffH
	DB	048H
	DB	044H
	DB	048H
	DB	0ffH
	DB	040H
	DB	044H
	DB	040H
	DB	0ffH
	DB	040H
	DB	044H
	DB	040H
	DB	0ffH
	DB	040H
	DB	040H
	DB	040H
	DB	0ffH
	DB	040H
	DB	040H
	DB	040H
	DB	0ffH
	DB	040H
	DB	03cH
	DB	038H
	DB	0ffH
	DB	038H
	DB	03cH
	DB	038H
	DB	0ffH
	DB	038H
	DB	038H
	DB	038H
	DB	0ffH
	DB	038H
	DB	038H
	DB	038H
	DB	0ffH
	DB	038H
	DB	038H
	DB	038H
	DB	0ffH
	DB	038H
	DB	034H
	DB	030H
	DB	0ffH
	DB	030H
	DB	034H
	DB	030H
	DB	0ffH
	DB	030H
	DB	034H
	DB	030H
	DB	0ffH
	DB	038H
	DB	034H
	DB	030H
	DB	0ffH
	DB	038H
	DB	034H
	DB	038H
	DB	0ffH
	DB	038H
	DB	038H
	DB	038H
	DB	0ffH
	DB	038H
	DB	038H
	DB	038H
	DB	0ffH
	DB	038H
	DB	03cH
	DB	038H
	DB	0ffH
	DB	040H
	DB	03cH
	DB	040H
	DB	0ffH
	DB	040H
	DB	040H
	DB	040H
	DB	0ffH
	DB	040H
	DB	040H
	DB	040H
	DB	0ffH
	DB	040H
	DB	040H
	DB	040H
	DB	0ffH
	DB	040H
	DB	044H
	DB	040H
	DB	0ffH
	DB	048H
	DB	044H
	DB	048H
	DB	0ffH
	DB	040H
	DB	044H
	DB	040H
	DB	0ffH
	DB	048H
	DB	044H
	DB	040H
	DB	0ffH
	DB	048H
	DB	044H
	DB	048H
	DB	0ffH
	DB	040H
	DB	044H
	DB	040H
	DB	0ffH
	DB	048H
	DB	044H
	DB	040H
	DB	0ffH
	DB	040H
	DB	044H
	DB	048H
	DB	0ffH
	DB	040H
	DB	044H
	DB	040H
	DB	0ffH
	DB	048H
	DB	044H
	DB	040H
	DB	0ffH
	DB	048H
	DB	044H
	DB	048H
	DB	0ffH
	DB	040H
	DB	044H
	DB	040H
	DB	0ffH
	DB	048H
	DB	044H
	DB	040H
	DB	0ffH
	DB	048H
	DB	044H
	DB	048H
	DB	0ffH
	DB	040H
	DB	044H
	DB	040H
	DB	0ffH
	DB	040H
	DB	044H
	DB	048H
	DB	0ffH
	DB	048H
	DB	044H
	DB	040H
	DB	0ffH
	DB	048H
	DB	044H
	DB	040H
	DB	0ffH
	DB	040H
	DB	044H
	DB	048H
	DB	0ffH
	DB	048H
	DB	044H
	DB	040H
	DB	0ffH
	DB	040H
	DB	044H
	DB	040H
	DB	0ffH
	DB	048H
	DB	044H
	DB	048H
	DB	0ffH
	DB	040H
	DB	044H
	DB	040H
	DB	0ffH
	DB	048H
	DB	044H
	DB	048H
	DB	0ffH
	DB	048H
	DB	044H
	DB	040H
	DB	0ffH
	DB	040H
	DB	044H
	DB	040H
	DB	0ffH
	DB	040H
	DB	044H
	DB	048H
	DB	0ffH
	DB	048H
	DB	044H
	DB	040H
	DB	0ffH
	DB	040H
	DB	044H
	DB	040H
	DB	0ffH
	DB	040H
	DB	044H
	DB	048H
	DB	0ffH
	DB	048H
	DB	044H
	DB	040H
	DB	0ffH
	DB	048H
	DB	044H
	DB	040H
	DB	0ffH
	DB	040H
	DB	044H
	DB	048H
	DB	0ffH
	DB	048H
	DB	044H
	DB	040H
	DB	0ffH
	DB	048H
	DB	044H
	DB	040H
	DB	0ffH
	DB	040H
	DB	044H
	DB	048H
	DB	0ffH
	DB	048H
	DB	044H
	DB	040H
	DB	0ffH
	DB	040H
	DB	044H
	DB	040H
	DB	0ffH
	DB	048H
	DB	044H
	DB	048H
	DB	0ffH
	DB	048H
	DB	044H
	DB	040H
	DB	0ffH
	DB	040H
	DB	044H
	DB	040H
	DB	0ffH
	DB	048H
	DB	044H
	DB	048H
	DB	0ffH
	DB	040H
	DB	044H
	DB	040H
	DB	0ffH
	DB	040H
	DB	044H
	DB	040H
	DB	0ffH
	DB	048H
	DB	044H
	DB	048H
	DB	0ffH
	DB	040H
	DB	044H
	DB	040H
	DB	0ffH
	DB	040H
	DB	044H
	DB	040H
	DB	0ffH
	DB	048H
	DB	044H
	DB	048H
	DB	0ffH
	DB	040H
	DB	044H
	DB	040H
	DB	0ffH
	DB	048H
	DB	044H
	DB	040H
	DB	0ffH
	DB	048H
	DB	044H
	DB	048H
	DB	0ffH
	DB	040H
	DB	044H
	DB	040H
	DB	0ffH
	DB	048H
	DB	044H
	DB	040H
	DB	0ffH
	DB	048H
	DB	044H
	DB	048H
	DB	0ffH
	DB	040H
	DB	044H
	DB	040H
	DB	0ffH
	DB	048H
	DB	044H
	DB	048H
	DB	0ffH
	DB	040H
	DB	044H
	DB	040H
	DB	0ffH
	DB	040H
	DB	044H
	DB	040H
	DB	0ffH
	DB	048H
	DB	044H
	DB	048H
	DB	0ffH
	DB	040H
	DB	044H
	DB	040H
	DB	0ffH
	DB	040H
	DB	044H
	DB	040H
	DB	0ffH
	DB	048H
	DB	044H
	DB	048H
	DB	0ffH
	DB	048H
	DB	044H
	DB	040H
	DB	0ffH
	DB	040H
	DB	044H
	DB	040H
	DB	0ffH
	DB	048H
	DB	044H
	DB	048H
	DB	0ffH
	DB	040H
	DB	044H
	DB	040H
	DB	0ffH
	DB	040H
	DB	044H
	DB	048H
	DB	0ffH
	DB	048H
	DB	044H
	DB	040H
	DB	0ffH
	DB	048H
	DB	044H
	DB	040H
	DB	0ffH
	DB	040H
	DB	044H
	DB	048H
	DB	0ffH
	DB	048H
	DB	044H
	DB	040H
	DB	0ffH
	DB	040H
	DB	044H
	DB	040H
	DB	0ffH
	DB	048H
	DB	044H
	DB	048H
	DB	0ffH
	DB	040H
	DB	044H
	DB	040H
	DB	0ffH
	DB	040H
	DB	044H
	DB	040H
	DB	0ffH
	DB	048H
	DB	044H
	DB	048H
	DB	0ffH
	DB	040H
	DB	044H
	DB	040H
	DB	0ffH
	DB	040H
	DB	044H
	DB	040H
	DB	0ffH
	DB	048H
	DB	044H
	DB	048H
	DB	0ffH
	DB	048H
	DB	044H
	DB	040H
	DB	0ffH
	DB	040H
	DB	044H
	DB	048H
	DB	0ffH
	DB	048H
	DB	044H
	DB	040H
	DB	0ffH
	DB	048H
	DB	044H
	DB	040H
	DB	0ffH
	DB	040H
	DB	044H
	DB	048H
	DB	0ffH
	DB	040H
	DB	044H
	DB	040H
	DB	0ffH
	DB	048H
	DB	044H
	DB	040H
	DB	0ffH
	DB	040H
	DB	044H
	DB	048H
	DB	0ffH
	DB	048H
	DB	044H
	DB	040H
	DB	0ffH
	DB	048H
	DB	044H
	DB	048H
	DB	0ffH
	DB	040H
	DB	044H
	DB	040H
	DB	0ffH
	DB	048H
	DB	044H
	DB	040H
	DB	0ffH
	DB	048H
	DB	044H
	DB	048H
	DB	0ffH
	DB	040H
	DB	044H
	DB	040H
	DB	0ffH
	DB	048H
	DB	044H
	DB	040H
	DB	0ffH
	DB	048H
	DB	044H
	DB	048H
	DB	0ffH
	DB	040H
	DB	044H
	DB	040H
	DB	0ffH
	DB	048H
	DB	044H
	DB	040H
	DB	0ffH
	DB	040H
	DB	044H
	DB	048H
	DB	0ffH
	DB	048H
	DB	044H
	DB	040H
	DB	0ffH
	DB	048H
	DB	044H
	DB	040H
	DB	0ffH
	DB	040H
	DB	044H
	DB	048H
	DB	0ffH
	DB	048H
	DB	044H
	DB	040H
	DB	0ffH
	DB	048H
	DB	044H
	DB	040H
	DB	0ffH
	DB	040H
	DB	044H
	DB	048H
	DB	0ffH
	DB	048H
	DB	044H
	DB	048H
	DB	0ffH
	DB	040H
	DB	044H
	DB	040H
	DB	0ffH
	DB	048H
	DB	044H
	DB	048H
	DB	0ffH
	DB	048H
	DB	044H
	DB	040H
	DB	0ffH
	DB	040H
	DB	044H
	DB	040H
	DB	0ffH
	DB	048H
	DB	044H
	DB	040H
	DB	0ffH
	DB	040H
	DB	040H
	DB	040H
	DB	0ffH
	DB	040H
	DB	040H
	DB	040H
	DB	0ffH
	DB	040H
	DB	040H
	DB	040H
	DB	0ffH
	DB	040H
	DB	03cH
	DB	040H
	DB	0ffH
	DB	038H
	DB	03cH
	DB	038H
	DB	0ffH
	DB	038H
	DB	038H
	DB	038H
	DB	0ffH
	DB	038H
	DB	038H
	DB	038H
	DB	0ffH
	DB	038H
	DB	034H
	DB	030H
	DB	0ffH
	DB	030H
	DB	034H
	DB	030H
	DB	0ffH
	DB	030H
	DB	034H
	DB	030H
	DB	0ffH
	DB	030H
	DB	034H
	DB	030H
	DB	0ffH
	DB	038H
	DB	034H
	DB	030H
	DB	0ffH
	DB	038H
	DB	038H
	DB	038H
	DB	0ffH
	DB	038H
	DB	038H
	DB	038H
	DB	0ffH
	DB	038H
	DB	038H
	DB	038H
	DB	0ffH
	DB	038H
	DB	03cH
	DB	038H
	DB	0ffH
	DB	040H
	DB	03cH
	DB	038H
	DB	0ffH
	DB	040H
	DB	040H
	DB	040H
	DB	0ffH
	DB	040H
	DB	040H
	DB	040H
	DB	0ffH
	DB	040H
	DB	044H
	DB	040H
	DB	0ffH
	DB	040H
	DB	044H
	DB	040H
	DB	0ffH
	DB	048H
	DB	044H
	DB	048H
	DB	0ffH
	DB	040H
	DB	044H
	DB	040H
	DB	0ffH
	DB	040H
	DB	044H
	DB	040H
	DB	0ffH
	DB	048H
	DB	044H
	DB	048H
	DB	0ffH
	DB	040H
	DB	044H
	DB	040H
	DB	0ffH
	DB	048H
	DB	044H
	DB	040H
	DB	0ffH
	DB	048H
	DB	044H
	DB	048H
	DB	0ffH
	DB	040H
	DB	044H
	DB	040H
	DB	0ffH
	DB	048H
	DB	044H
	DB	048H
	DB	0ffH
	DB	040H
	DB	044H
	DB	040H
	DB	0ffH
	DB	040H
	DB	044H
	DB	048H
	DB	0ffH
	DB	048H
	DB	044H
	DB	040H
	DB	0ffH
	DB	040H
	DB	044H
	DB	040H
	DB	0ffH
	DB	048H
	DB	044H
	DB	048H
	DB	0ffH
	DB	040H
	DB	044H
	DB	040H
	DB	0ffH
	DB	040H
	DB	044H
	DB	040H
	DB	0ffH
	DB	048H
	DB	044H
	DB	048H
	DB	0ffH
	DB	040H
	DB	044H
	DB	040H
	DB	0ffH
	DB	048H
	DB	044H
	DB	048H
	DB	0ffH
	DB	040H
	DB	044H
	DB	040H
	DB	0ffH
	DB	040H
	DB	044H
	DB	040H
	DB	0ffH
	DB	048H
	DB	044H
	DB	048H
	DB	0ffH
	DB	040H
	DB	044H
	DB	040H
	DB	0ffH
	DB	048H
	DB	044H
	DB	048H
	DB	0ffH
	DB	048H
	DB	044H
	DB	040H
	DB	0ffH
	DB	040H
	DB	044H
	DB	048H
	DB	0ffH
	DB	048H
	DB	044H
	DB	040H
	DB	0ffH
	DB	048H
	DB	044H
	DB	048H
	DB	0ffH
	DB	040H
	DB	044H
	DB	048H
	DB	0ffH
	DB	040H
	DB	044H
	DB	040H
	DB	0ffH
	DB	048H
	DB	044H
	DB	040H
	DB	0ffH
	DB	040H
	DB	044H
	DB	048H
	DB	0ffH
	DB	040H
	DB	044H
	DB	048H
	DB	0ffH
	DB	048H
	DB	044H
	DB	040H
	DB	0ffH
	DB	048H
	DB	044H
	DB	040H
	DB	0ffH
	DB	040H
	DB	044H
	DB	048H
	DB	0ffH
	DB	040H
	DB	044H
	DB	040H
	DB	0ffH
	DB	040H
	DB	044H
	DB	040H
	DB	0ffH
	DB	048H
	DB	044H
	DB	048H
	DB	0ffH
	DB	040H
	DB	044H
	DB	040H
	DB	0ffH
	DB	048H
	DB	044H
	DB	040H
	DB	0ffH
	DB	040H
	DB	044H
	DB	048H
	DB	0ffH
	DB	048H
	DB	044H
	DB	040H
	DB	0ffH
	DB	048H
	DB	044H
	DB	040H
	DB	0ffH
	DB	040H
	DB	044H
	DB	048H
	DB	0ffH
	DB	048H
	DB	044H
	DB	040H
	DB	0ffH
	DB	040H
	DB	044H
	DB	040H
	DB	0ffH
	DB	040H
	DB	044H
	DB	048H
	DB	0ffH
	DB	048H
	DB	044H
	DB	040H
	DB	0ffH
	DB	040H
	DB	044H
	DB	040H
	DB	0ffH
	DB	040H
	DB	044H
	DB	048H
	DB	0ffH
	DB	048H
	DB	044H
	DB	040H
	DB	0ffH
	DB	040H
	DB	044H
	DB	040H
	DB	0ffH
	DB	048H
	DB	044H
	DB	048H
	DB	0ffH
	DB	048H
	DB	044H
	DB	040H
	DB	0ffH
	DB	040H
	DB	044H
	DB	040H
	DB	0ffH
	DB	048H
	DB	044H
	DB	048H
	DB	0ffH
	DB	048H
	DB	044H
	DB	040H
	DB	0ffH
	DB	040H
	DB	044H
	DB	048H
	DB	0ffH
	DB	048H
	DB	044H
	DB	040H
	DB	0ffH
	DB	040H
	DB	044H
	DB	040H
	DB	0ffH
	DB	040H
	DB	044H
	DB	048H
	DB	0ffH
	DB	048H
	DB	044H
	DB	040H
	DB	0ffH
	DB	048H
	DB	044H
	DB	040H
	DB	0ffH
	DB	040H
	DB	044H
	DB	048H
	DB	0ffH
	DB	040H
	DB	044H
	DB	040H
	DB	0ffH
	DB	048H
	DB	044H
	DB	048H
	DB	0ffH
	DB	040H
	DB	044H
	DB	040H
	DB	0ffH
	DB	040H
	DB	044H
	DB	040H
	DB	0ffH
	DB	048H
	DB	044H
	DB	048H
	DB	0ffH
	DB	048H
	DB	044H
	DB	040H
	DB	0ffH
	DB	040H
	DB	044H
	DB	040H
	DB	0ffH
	DB	048H
	DB	044H
	DB	048H
	DB	0ffH
	DB	040H
	DB	044H
	DB	040H
	DB	0ffH
	DB	048H
	DB	044H
	DB	040H
	DB	0ffH
	DB	048H
	DB	044H
	DB	048H
	DB	0ffH
	DB	040H
	DB	044H
	DB	040H
	DB	0ffH
	DB	048H
	DB	044H
	DB	040H
	DB	0ffH
	DB	040H
	DB	044H
	DB	048H
	DB	0ffH
	DB	040H
	DB	044H
	DB	040H
	DB	0ffH
	DB	048H
	DB	044H
	DB	040H
	DB	0ffH
	DB	048H
	DB	044H
	DB	048H
	DB	0ffH
	DB	040H
	DB	044H
	DB	048H
	DB	0ffH
	DB	048H
	DB	044H
	DB	040H
	DB	0ffH
	DB	048H
	DB	044H
	DB	040H
	DB	0ffH
	DB	040H
	DB	044H
	DB	048H
	DB	0ffH
	DB	040H
	DB	044H
	DB	040H
	DB	0ffH
	DB	048H
	DB	044H
	DB	040H
	DB	0ffH
	DB	040H
	DB	044H
	DB	048H
	DB	0ffH
	DB	040H
	DB	044H
	DB	040H
	DB	0ffH
	DB	048H
	DB	044H
	DB	048H
	DB	0ffH
	DB	040H
	DB	044H
	DB	040H
	DB	0ffH
	DB	040H
	DB	044H
	DB	040H
	DB	0ffH
	DB	048H
	DB	044H
	DB	048H
	DB	0ffH
	DB	040H
	DB	044H
	DB	040H
	DB	0ffH
	DB	048H
	DB	044H
	DB	040H
	DB	0ffH
	DB	040H
	DB	044H
	DB	048H
	DB	0ffH
	DB	040H
	DB	044H
	DB	040H
	DB	0ffH
	DB	048H
	DB	044H
	DB	048H
	DB	0ffH
	DB	040H
	DB	044H
	DB	040H
	DB	0ffH
	DB	040H
	DB	044H
	DB	040H
	DB	0ffH
	DB	048H
	DB	044H
	DB	048H
	DB	0ffH
	DB	040H
	DB	044H
	DB	040H
	DB	0ffH
	DB	048H
	DB	044H
	DB	040H
	DB	0ffH
	DB	040H
	DB	044H
	DB	048H
	DB	0ffH
	DB	040H
	DB	044H
	DB	040H
	DB	0ffH
	DB	048H
	DB	044H
	DB	048H
	DB	0ffH
	DB	040H
	DB	044H
	DB	048H
	DB	0ffH
	DB	040H
	DB	044H
	DB	040H
	DB	0ffH
	DB	040H
	DB	040H
	DB	040H
	DB	0ffH
	DB	040H
	DB	040H
	DB	040H
	DB	0ffH
	DB	040H
	DB	040H
	DB	040H
	DB	0ffH
	DB	040H
	DB	03cH
	DB	040H
	DB	0ffH
	DB	038H
	DB	03cH
	DB	038H
	DB	0ffH
	DB	038H
	DB	038H
	DB	038H
	DB	0ffH
	DB	038H
	DB	038H
	DB	038H
	DB	0ffH
	DB	038H
	DB	034H
	DB	038H
	DB	0ffH
	DB	038H
	DB	034H
	DB	030H
	DB	0ffH
	DB	030H
	DB	034H
	DB	030H
	DB	0ffH
	DB	030H
	DB	034H
	DB	030H
	DB	0ffH
	DB	030H
	DB	034H
	DB	038H
	DB	0ffH
	DB	038H
	DB	034H
	DB	038H
	DB	0ffH
	DB	038H
	DB	038H
	DB	038H
	DB	0ffH
	DB	038H
	DB	038H
	DB	038H
	DB	0ffH
	DB	038H
	DB	03cH
	DB	038H
	DB	0ffH
	DB	040H
	DB	03cH
	DB	040H
	DB	0ffH
	DB	040H
	DB	040H
	DB	040H
	DB	0ffH
	DB	040H
	DB	040H
	DB	040H
	DB	0ffH
	DB	040H
	DB	040H
	DB	040H
	DB	0ffH
	DB	048H
	DB	044H
	DB	040H
	DB	0ffH
	DB	048H
	DB	044H
	DB	048H
	DB	0ffH
	DB	040H
	DB	044H
	DB	040H
	DB	0ffH
	DB	048H
	DB	044H
	DB	048H
	DB	0ffH
	DB	040H
	DB	044H
	DB	040H
	DB	0ffH
	DB	040H
	DB	044H
	DB	040H
	DB	0ffH
	DB	048H
	DB	044H
	DB	048H
	DB	0ffH
	DB	040H
	DB	044H
	DB	040H
	DB	0ffH
	DB	048H
	DB	044H
	DB	040H
	DB	0ffH
	DB	048H
	DB	044H
	DB	048H
	DB	0ffH
	DB	040H
	DB	044H
	DB	040H
	DB	0ffH
	DB	048H
	DB	044H
	DB	040H
	DB	0ffH
	DB	040H
	DB	044H
	DB	048H
	DB	0ffH
	DB	048H
	DB	044H
	DB	040H
	DB	0ffH
	DB	048H
	DB	044H
	DB	048H
	DB	0ffH
	DB	040H
	DB	044H
	DB	040H
	DB	0ffH
	DB	048H
	DB	044H
	DB	040H
	DB	0ffH
	DB	040H
	DB	044H
	DB	048H
	DB	0ffH
	DB	048H
	DB	044H
	DB	040H
	DB	0ffH
	DB	040H
	DB	044H
	DB	040H
	DB	0ffH
	DB	048H
	DB	044H
	DB	048H
	DB	0ffH
	DB	048H
	DB	044H
	DB	040H
	DB	0ffH
	DB	040H
	DB	044H
	DB	040H
	DB	0ffH
	DB	040H
	DB	044H
	DB	048H
	DB	0ffH
	DB	048H
	DB	044H
	DB	040H
	DB	0ffH
	DB	040H
	DB	044H
	DB	040H
	DB	0ffH
	DB	040H
	DB	044H
	DB	040H
	DB	0ffH
	DB	048H
	DB	044H
	DB	048H
	DB	0ffH
	DB	048H
	DB	044H
	DB	040H
	DB	0ffH
	DB	040H
	DB	044H
	DB	040H
	DB	0ffH
	DB	048H
	DB	044H
	DB	048H
	DB	0ffH
	DB	040H
	DB	044H
	DB	040H
	DB	0ffH
	DB	048H
	DB	044H
	DB	040H
	DB	0ffH
	DB	040H
	DB	044H
	DB	048H
	DB	0ffH
	DB	040H
	DB	044H
	DB	040H
	DB	0ffH
	DB	048H
	DB	044H
	DB	040H
	DB	0ffH
	DB	048H
	DB	044H
	DB	048H
	DB	0ffH
	DB	040H
	DB	044H
	DB	040H
	DB	0ffH
	DB	048H
	DB	044H
	DB	040H
	DB	0ffH
	DB	040H
	DB	044H
	DB	048H
	DB	0ffH
	DB	048H
	DB	044H
	DB	040H
	DB	0ffH
	DB	040H
	DB	044H
	DB	040H
	DB	0ffH
	DB	048H
	DB	044H
	DB	048H
	DB	0ffH
	DB	040H
	DB	044H
	DB	040H
	DB	0ffH
	DB	040H
	DB	044H
	DB	040H
	DB	0ffH
	DB	048H
	DB	044H
	DB	048H
	DB	0ffH
	DB	048H
	DB	044H
	DB	040H
	DB	0ffH
	DB	040H
	DB	044H
	DB	040H
	DB	0ffH
	DB	048H
	DB	044H
	DB	048H
	DB	0ffH
	DB	048H
	DB	044H
	DB	040H
	DB	0ffH
	DB	040H
	DB	044H
	DB	048H
	DB	0ffH
	DB	048H
	DB	044H
	DB	040H
	DB	0ffH
	DB	040H
	DB	044H
	DB	048H
	DB	0ffH
	DB	040H
	DB	044H
	DB	040H
	DB	0ffH
	DB	048H
	DB	044H
	DB	040H
	DB	0ffH
	DB	040H
	DB	044H
	DB	048H
	DB	0ffH
	DB	040H
	DB	044H
	DB	040H
	DB	0ffH
	DB	048H
	DB	044H
	DB	040H
	DB	0ffH
	DB	040H
	DB	044H
	DB	048H
	DB	0ffH
	DB	048H
	DB	044H
	DB	040H
	DB	0ffH
	DB	048H
	DB	044H
	DB	048H
	DB	0ffH
	DB	040H
	DB	044H
	DB	040H
	DB	0ffH
	DB	040H
	DB	044H
	DB	048H
	DB	0ffH
	DB	048H
	DB	044H
	DB	040H
	DB	0ffH
	DB	048H
	DB	044H
	DB	040H
	DB	0ffH
	DB	040H
	DB	044H
	DB	048H
	DB	0ffH
	DB	048H
	DB	044H
	DB	040H
	DB	0ffH
	DB	048H
	DB	044H
	DB	040H
	DB	0ffH
	DB	040H
	DB	044H
	DB	048H
	DB	0ffH
	DB	048H
	DB	044H
	DB	040H
	DB	0ffH
	DB	040H
	DB	044H
	DB	048H
	DB	0ffH
	DB	040H
	DB	044H
	DB	040H
	DB	0ffH
	DB	048H
	DB	044H
	DB	040H
	DB	0ffH
	DB	048H
	DB	044H
	DB	048H
	DB	0ffH
	DB	040H
	DB	044H
	DB	040H
	DB	0ffH
	DB	040H
	DB	044H
	DB	048H
	DB	0ffH
	DB	048H
	DB	044H
	DB	048H
	DB	0ffH
	DB	040H
	DB	044H
	DB	040H
	DB	0ffH
	DB	048H
	DB	044H
	DB	040H
	DB	0ffH
	DB	040H
	DB	044H
	DB	048H
	DB	0ffH
	DB	040H
	DB	044H
	DB	040H
	DB	0ffH
	DB	048H
	DB	044H
	DB	040H
	DB	0ffH
	DB	040H
	DB	044H
	DB	048H
	DB	0ffH
	DB	040H
	DB	044H
	DB	040H
	DB	0ffH
	DB	048H
	DB	044H
	DB	040H
	DB	0ffH
	DB	040H
	DB	044H
	DB	048H
	DB	0ffH
	DB	048H
	DB	044H
	DB	040H
	DB	0ffH
	DB	040H
	DB	044H
	DB	040H
	DB	0ffH
	DB	048H
	DB	044H
	DB	048H
	DB	0ffH
	DB	048H
	DB	044H
	DB	040H
	DB	0ffH
	DB	040H
	DB	044H
	DB	040H
	DB	0ffH
	DB	048H
	DB	044H
	DB	048H
	DB	0ffH
	DB	048H
	DB	044H
	DB	040H
	DB	0ffH
	DB	040H
	DB	044H
	DB	040H
	DB	0ffH
	DB	040H
	DB	044H
	DB	048H
	DB	0ffH
	DB	048H
	DB	044H
	DB	040H
	DB	0ffH
	DB	048H
	DB	044H
	DB	040H
	DB	0ffH
	DB	040H
	DB	044H
	DB	048H
	DB	0ffH
	DB	048H
	DB	044H
	DB	040H
	DB	0ffH
	DB	048H
	DB	044H
	DB	040H
	DB	0ffH
	DB	040H
	DB	044H
	DB	048H
	DB	0ffH
	DB	048H
	DB	044H
	DB	040H
	DB	0ffH
	DB	040H
	DB	044H
	DB	040H
	DB	0ffH
	DB	048H
	DB	044H
	DB	048H
	DB	0ffH
	DB	040H
	DB	044H
	DB	040H
	DB	0ffH
	DB	048H
	DB	044H
	DB	040H
	DB	0ffH
	DB	040H
	DB	044H
	DB	040H
	DB	0ffH
	DB	048H
	DB	044H
	DB	040H
	DB	0ffH
	DB	048H
	DB	044H
	DB	048H
	DB	0ffH
	DB	040H
	DB	044H
	DB	040H
	DB	0ffH
	DB	040H
	DB	040H
	DB	040H
	DB	0ffH
	DB	040H
	DB	040H
	DB	040H
	DB	0ffH
	DB	040H
	DB	040H
	DB	040H
	DB	0ffH
	DB	040H
	DB	03cH
	DB	038H
	DB	0ffH
	DB	038H
	DB	03cH
	DB	038H
	DB	0ffH
	DB	038H
	DB	038H
	DB	038H
	DB	0ffH
	DB	038H
	DB	038H
	DB	038H
	DB	0ffH
	DB	038H
	DB	038H
	DB	038H
	DB	0ffH
	DB	030H
	DB	034H
	DB	030H
	DB	0ffH
	DB	030H
	DB	034H
	DB	030H
	DB	0ffH
	DB	030H
	DB	034H
	DB	030H
	DB	0ffH
	DB	038H
	DB	034H
	DB	030H
	DB	0ffH
	DB	038H
	DB	034H
	DB	038H
	DB	0ffH
	DB	038H
	DB	038H
	DB	038H
	DB	0ffH
	DB	038H
	DB	038H
	DB	038H
	DB	0ffH
	DB	038H
	DB	03cH
	DB	038H
	DB	0ffH
	DB	040H
	DB	03cH
	DB	038H
	DB	0ffH
	DB	040H
	DB	040H
	DB	040H
	DB	0ffH
	DB	040H
	DB	040H
	DB	040H
	DB	0ffH
	DB	040H
	DB	044H
	DB	040H
	DB	0ffH
	DB	040H
	DB	044H
	DB	040H
	DB	0ffH
	DB	048H
	DB	044H
	DB	040H
	DB	0ffH
	DB	040H
	DB	044H
	DB	048H
	DB	0ffH
	DB	048H
	DB	044H
	DB	040H
	DB	0ffH
	DB	048H
	DB	044H
	DB	048H
	DB	0ffH
	DB	040H
	DB	044H
	DB	040H
	DB	0ffH
	DB	048H
	DB	044H
	DB	048H
	DB	0ffH
	DB	040H
	DB	044H
	DB	040H
	DB	0ffH
	DB	040H
	DB	044H
	DB	040H
	DB	0ffH
	DB	048H
	DB	044H
	DB	048H
	DB	0ffH
	DB	040H
	DB	044H
	DB	040H
	DB	0ffH
	DB	048H
	DB	044H
	DB	040H
	DB	0ffH
	DB	040H
	DB	044H
	DB	048H
	DB	0ffH
	DB	040H
	DB	044H
	DB	040H
	DB	0ffH
	DB	048H
	DB	044H
	DB	040H
	DB	0ffH
	DB	048H
	DB	044H
	DB	048H
	DB	0ffH
	DB	040H
	DB	044H
	DB	040H
	DB	0ffH
	DB	048H
	DB	044H
	DB	048H
	DB	0ffH
	DB	040H
	DB	044H
	DB	040H
	DB	0ffH
	DB	048H
	DB	044H
	DB	040H
	DB	0ffH
	DB	040H
	DB	044H
	DB	048H
	DB	0ffH
	DB	048H
	DB	044H
	DB	040H
	DB	0ffH
	DB	048H
	DB	044H
	DB	040H
	DB	0ffH
	DB	040H
	DB	044H
	DB	048H
	DB	0ffH
	DB	048H
	DB	044H
	DB	040H
	DB	0ffH
	DB	040H
	DB	044H
	DB	048H
	DB	0ffH
	DB	048H
	DB	044H
	DB	040H
	DB	0ffH
	DB	040H
	DB	044H
	DB	040H
	DB	0ffH
	DB	040H
	DB	044H
	DB	040H
	DB	0ffH
	DB	048H
	DB	044H
	DB	040H
	DB	0ffH
	DB	040H
	DB	044H
	DB	048H
	DB	0ffH
	DB	048H
	DB	044H
	DB	040H
	DB	0ffH
	DB	048H
	DB	044H
	DB	040H
	DB	0ffH
	DB	040H
	DB	044H
	DB	048H
	DB	0ffH
	DB	048H
	DB	044H
	DB	040H
	DB	0ffH
	DB	040H
	DB	044H
	DB	040H
	DB	0ffH
	DB	048H
	DB	044H
	DB	048H
	DB	0ffH
	DB	048H
	DB	044H
	DB	040H
	DB	0ffH
	DB	040H
	DB	044H
	DB	048H
	DB	0ffH
	DB	048H
	DB	044H
	DB	040H
	DB	0ffH
	DB	040H
	DB	044H
	DB	048H
	DB	0ffH
	DB	048H
	DB	044H
	DB	040H
	DB	0ffH
	DB	040H
	DB	044H
	DB	048H
	DB	0ffH
	DB	048H
	DB	044H
	DB	040H
	DB	0ffH
	DB	040H
	DB	044H
	DB	048H
	DB	0ffH
	DB	048H
	DB	044H
	DB	040H
	DB	0ffH
	DB	040H
	DB	044H
	DB	048H
	DB	0ffH
	DB	048H
	DB	044H
	DB	040H
	DB	0ffH
	DB	040H
	DB	044H
	DB	040H
	DB	0ffH
	DB	040H
	DB	044H
	DB	048H
	DB	0ffH
	DB	048H
	DB	044H
	DB	040H
	DB	0ffH
	DB	048H
	DB	044H
	DB	040H
	DB	0ffH
	DB	040H
	DB	044H
	DB	048H
	DB	0ffH
	DB	048H
	DB	044H
	DB	040H
	DB	0ffH
	DB	048H
	DB	044H
	DB	040H
	DB	0ffH
	DB	040H
	DB	044H
	DB	048H
	DB	0ffH
	DB	048H
	DB	044H
	DB	048H
	DB	0ffH
	DB	040H
	DB	044H
	DB	040H
	DB	0ffH
	DB	040H
	DB	044H
	DB	040H
	DB	0ffH
	DB	048H
	DB	044H
	DB	048H
	DB	0ffH
	DB	040H
	DB	044H
	DB	040H
	DB	0ffH
	DB	048H
	DB	044H
	DB	040H
	DB	0ffH
	DB	048H
	DB	044H
	DB	048H
	DB	0ffH
	DB	040H
	DB	044H
	DB	040H
	DB	0ffH
	DB	040H
	DB	044H
	DB	048H
	DB	0ffH
	DB	048H
	DB	044H
	DB	040H
	DB	0ffH
	DB	040H
	DB	044H
	DB	040H
	DB	0ffH
	DB	040H
	DB	044H
	DB	048H
	DB	0ffH
	DB	048H
	DB	044H
	DB	040H
	DB	0ffH
	DB	048H
	DB	044H
	DB	040H
	DB	0ffH
	DB	040H
	DB	044H
	DB	048H
	DB	0ffH
	DB	040H
	DB	044H
	DB	040H
	DB	0ffH
	DB	048H
	DB	044H
	DB	048H
	DB	0ffH
	DB	040H
	DB	044H
	DB	040H
	DB	0ffH
	DB	048H
	DB	044H
	DB	040H
	DB	0ffH
	DB	040H
	DB	044H
	DB	040H
	DB	0ffH
	DB	040H
	DB	044H
	DB	048H
	DB	0ffH
	DB	048H
	DB	044H
	DB	040H
	DB	0ffH
	DB	048H
	DB	044H
	DB	048H
	DB	0ffH
	DB	048H
	DB	044H
	DB	040H
	DB	0ffH
	DB	040H
	DB	044H
	DB	048H
	DB	0ffH
	DB	048H
	DB	044H
	DB	040H
	DB	0ffH
	DB	048H
	DB	044H
	DB	040H
	DB	0ffH
	DB	040H
	DB	044H
	DB	048H
	DB	0ffH
	DB	040H
	DB	044H
	DB	040H
	DB	0ffH
	DB	048H
	DB	044H
	DB	040H
	DB	0ffH
	DB	040H
	DB	044H
	DB	048H
	DB	0ffH
	DB	048H
	DB	044H
	DB	040H
	DB	0ffH
	DB	040H
	DB	044H
	DB	048H
	DB	0ffH
	DB	048H
	DB	044H
	DB	040H
	DB	0ffH
	DB	040H
	DB	044H
	DB	040H
	DB	0ffH
	DB	040H
	DB	044H
	DB	048H
	DB	0ffH
	DB	048H
	DB	044H
	DB	040H
	DB	0ffH
	DB	048H
	DB	044H
	DB	048H
	DB	0ffH
	DB	040H
	DB	044H
	DB	040H
	DB	0ffH
	DB	048H
	DB	044H
	DB	048H
	DB	0ffH
	DB	040H
	DB	044H
	DB	040H
	DB	0ffH
	DB	040H
	DB	044H
	DB	040H
	DB	0ffH
	DB	048H
	DB	044H
	DB	048H
	DB	0ffH
	DB	040H
	DB	044H
	DB	040H
	DB	0ffH
	DB	048H
	DB	044H
	DB	048H
	DB	0ffH
	DB	040H
	DB	044H
	DB	040H
	DB	0ffH
	DB	048H
	DB	044H
	DB	040H
	DB	0ffH
	DB	040H
	DB	044H
	DB	048H
	DB	0ffH
	DB	048H
	DB	044H
	DB	040H
	DB	0ffH
	DB	048H
	DB	044H
	DB	048H
	DB	0ffH
	DB	040H
	DB	044H
	DB	040H
	DB	0ffH
	DB	040H
	DB	044H
	DB	040H
	DB	0ffH
	DB	048H
	DB	044H
	DB	048H
	DB	0ffH
	DB	048H
	DB	044H
	DB	040H
	DB	0ffH
	DB	040H
	DB	044H
	DB	040H
	DB	0ffH
	DB	040H
	DB	040H
	DB	040H
	DB	0ffH
	DB	040H
	DB	040H
	DB	040H
	DB	0ffH
	DB	040H
	DB	03cH
	DB	040H
	DB	0ffH
	DB	038H
	DB	03cH
	DB	038H
	DB	0ffH
	DB	038H
	DB	038H
	DB	038H
	DB	0ffH
	DB	038H
	DB	038H
	DB	038H
	DB	0ffH
	DB	038H
	DB	034H
	DB	038H
	DB	0ffH
	DB	038H
	DB	034H
	DB	030H
	DB	0ffH
	DB	030H
	DB	034H
	DB	030H
	DB	0ffH
	DB	030H
	DB	034H
	DB	030H
	DB	0ffH
	DB	030H
	DB	034H
	DB	030H
	DB	0ffH
	DB	038H
	DB	034H
	DB	038H
	DB	0ffH
	DB	038H
	DB	038H
	DB	030H
	DB	0ffH
	DB	038H
	DB	038H
	DB	038H
	DB	0ffH
	DB	038H
	DB	03cH
	DB	038H
	DB	0ffH
	DB	040H
	DB	03cH
	DB	038H
	DB	0ffH
	DB	040H
	DB	040H
	DB	040H
	DB	0ffH
	DB	040H
	DB	040H
	DB	040H
	DB	0ffH
	DB	040H
	DB	040H
	DB	040H
	DB	0ffH
	DB	040H
	DB	044H
	DB	040H
	DB	0ffH
	DB	048H
	DB	044H
	DB	048H
	DB	0ffH
	DB	040H
	DB	044H
	DB	040H
	DB	0ffH
	DB	040H
	DB	044H
	DB	040H
	DB	0ffH
	DB	048H
	DB	044H
	DB	040H
	DB	0ffH
	DB	048H
	DB	044H
	DB	048H
	DB	0ffH
	DB	040H
	DB	044H
	DB	040H
	DB	0ffH
	DB	048H
	DB	044H
	DB	048H
	DB	0ffH
	DB	040H
	DB	044H
	DB	040H
	DB	0ffH
	DB	040H
	DB	044H
	DB	048H
	DB	0ffH
	DB	048H
	DB	044H
	DB	040H
	DB	0ffH
	DB	048H
	DB	044H
	DB	048H
	DB	0ffH
	DB	040H
	DB	044H
	DB	040H
	DB	0ffH
	DB	040H
	DB	044H
	DB	040H
	DB	0ffH
	DB	048H
	DB	044H
	DB	048H
	DB	0ffH
	DB	040H
	DB	044H
	DB	040H
	DB	0ffH
	DB	040H
	DB	044H
	DB	040H
	DB	0ffH
	DB	048H
	DB	044H
	DB	048H
	DB	0ffH
	DB	040H
	DB	044H
	DB	040H
	DB	0ffH
	DB	040H
	DB	044H
	DB	048H
	DB	0ffH
	DB	048H
	DB	044H
	DB	040H
	DB	0ffH
	DB	040H
	DB	044H
	DB	048H
	DB	0ffH
	DB	040H
	DB	044H
	DB	040H
	DB	0ffH
	DB	048H
	DB	044H
	DB	040H
	DB	0ffH
	DB	040H
	DB	044H
	DB	048H
	DB	0ffH
	DB	048H
	DB	044H
	DB	040H
	DB	0ffH
	DB	048H
	DB	044H
	DB	048H
	DB	0ffH
	DB	040H
	DB	044H
	DB	048H
	DB	0ffH
	DB	048H
	DB	044H
	DB	040H
	DB	0ffH
	DB	040H
	DB	044H
	DB	048H
	DB	0ffH
	DB	040H
	DB	044H
	DB	040H
	DB	0ffH
	DB	048H
	DB	044H
	DB	048H
	DB	0ffH
	DB	040H
	DB	044H
	DB	040H
	DB	0ffH
	DB	048H
	DB	044H
	DB	040H
	DB	0ffH
	DB	040H
	DB	044H
	DB	048H
	DB	0ffH
	DB	040H
	DB	044H
	DB	040H
	DB	0ffH
	DB	040H
	DB	044H
	DB	040H
	DB	0ffH
	DB	048H
	DB	044H
	DB	048H
	DB	0ffH
	DB	040H
	DB	044H
	DB	040H
	DB	0ffH
	DB	048H
	DB	044H
	DB	040H
	DB	0ffH
	DB	040H
	DB	044H
	DB	048H
	DB	0ffH
	DB	048H
	DB	044H
	DB	040H
	DB	0ffH
	DB	048H
	DB	044H
	DB	040H
	DB	0ffH
	DB	040H
	DB	044H
	DB	048H
	DB	0ffH
	DB	048H
	DB	044H
	DB	040H
	DB	0ffH
	DB	040H
	DB	044H
	DB	040H
	DB	0ffH
	DB	048H
	DB	044H
	DB	048H
	DB	0ffH
	DB	040H
	DB	044H
	DB	040H
	DB	0ffH
	DB	048H
	DB	044H
	DB	040H
	DB	0ffH
	DB	040H
	DB	044H
	DB	048H
	DB	0ffH
	DB	048H
	DB	044H
	DB	040H
	DB	0ffH
	DB	040H
	DB	044H
	DB	040H
	DB	0ffH
	DB	048H
	DB	044H
	DB	048H
	DB	0ffH
	DB	040H
	DB	044H
	DB	040H
	DB	0ffH
	DB	040H
	DB	044H
	DB	040H
	DB	0ffH
	DB	048H
	DB	044H
	DB	048H
	DB	0ffH
	DB	048H
	DB	044H
	DB	040H
	DB	0ffH
	DB	040H
	DB	044H
	DB	040H
	DB	0ffH
	DB	048H
	DB	044H
	DB	048H
	DB	0ffH
	DB	040H
	DB	044H
	DB	040H
	DB	0ffH
	DB	040H
	DB	044H
	DB	040H
	DB	0ffH
	DB	048H
	DB	044H
	DB	048H
	DB	0ffH
	DB	040H
	DB	044H
	DB	040H
	DB	0ffH
	DB	040H
	DB	044H
	DB	040H
	DB	0ffH
	DB	048H
	DB	044H
	DB	048H
	DB	0ffH
	DB	048H
	DB	044H
	DB	040H
	DB	0ffH
	DB	040H
	DB	044H
	DB	040H
	DB	0ffH
	DB	040H
	DB	044H
	DB	048H
	DB	0ffH
	DB	048H
	DB	044H
	DB	040H
	DB	0ffH
	DB	048H
	DB	044H
	DB	040H
	DB	0ffH
	DB	040H
	DB	044H
	DB	048H
	DB	0ffH
	DB	048H
	DB	044H
	DB	040H
	DB	0ffH
	DB	048H
	DB	044H
	DB	040H
	DB	0ffH
	DB	040H
	DB	044H
	DB	048H
	DB	0ffH
	DB	048H
	DB	044H
	DB	040H
	DB	0ffH
	DB	048H
	DB	044H
	DB	040H
	DB	0ffH
	DB	040H
	DB	044H
	DB	040H
	DB	0ffH
	DB	040H
	DB	044H
	DB	048H
	DB	0ffH
	DB	048H
	DB	044H
	DB	040H
	DB	0ffH
	DB	040H
	DB	044H
	DB	040H
	DB	0ffH
	DB	040H
	DB	044H
	DB	048H
	DB	0ffH
	DB	048H
	DB	044H
	DB	040H
	DB	0ffH
	DB	048H
	DB	044H
	DB	040H
	DB	0ffH
	DB	040H
	DB	044H
	DB	048H
	DB	0ffH
	DB	048H
	DB	044H
	DB	040H
	DB	0ffH
	DB	048H
	DB	044H
	DB	040H
	DB	0ffH
	DB	040H
	DB	044H
	DB	048H
	DB	0ffH
	DB	040H
	DB	044H
	DB	040H
	DB	0ffH
	DB	048H
	DB	044H
	DB	040H
	DB	0ffH
	DB	040H
	DB	044H
	DB	048H
	DB	0ffH
	DB	048H
	DB	044H
	DB	040H
	DB	0ffH
	DB	040H
	DB	044H
	DB	040H
	DB	0ffH
	DB	040H
	DB	044H
	DB	048H
	DB	0ffH
	DB	048H
	DB	044H
	DB	040H
	DB	0ffH
	DB	048H
	DB	044H
	DB	040H
	DB	0ffH
	DB	040H
	DB	044H
	DB	048H
	DB	0ffH
	DB	048H
	DB	044H
	DB	040H
	DB	0ffH
	DB	048H
	DB	044H
	DB	040H
	DB	0ffH
	DB	040H
	DB	044H
	DB	048H
	DB	0ffH
	DB	040H
	DB	044H
	DB	040H
	DB	0ffH
	DB	048H
	DB	044H
	DB	040H
	DB	0ffH
	DB	048H
	DB	044H
	DB	048H
	DB	0ffH
	DB	040H
	DB	044H
	DB	040H
	DB	0ffH
	DB	040H
	DB	044H
	DB	040H
	DB	0ffH
	DB	048H
	DB	044H
	DB	048H
	DB	0ffH
	DB	040H
	DB	044H
	DB	040H
	DB	0ffH
	DB	048H
	DB	044H
	DB	048H
	DB	0ffH
	DB	040H
	DB	044H
	DB	040H
	DB	0ffH
	DB	040H
	DB	044H
	DB	040H
	DB	0ffH
	DB	048H
	DB	044H
	DB	040H
	DB	0ffH
	DB	040H
	DB	040H
	DB	040H
	DB	0ffH
	DB	040H
	DB	040H
	DB	040H
	DB	0ffH
	DB	040H
	DB	040H
	DB	040H
	DB	0ffH
	DB	040H
	DB	03cH
	DB	038H
	DB	0ffH
	DB	038H
	DB	03cH
	DB	038H
	DB	0ffH
	DB	038H
	DB	038H
	DB	038H
	DB	0ffH
	DB	038H
	DB	038H
	DB	038H
	DB	0ffH
	DB	038H
	DB	034H
	DB	038H
	DB	0ffH
	DB	030H
	DB	034H
	DB	030H
	DB	0ffH
	DB	030H
	DB	034H
	DB	030H
	DB	0ffH
	DB	030H
	DB	034H
	DB	030H
	DB	0ffH
	DB	038H
	DB	034H
	DB	030H
	DB	0ffH
	DB	038H
	DB	034H
	DB	038H
	DB	0ffH
	DB	038H
	DB	038H
	DB	038H
	DB	0ffH
	DB	038H
	DB	038H
	DB	038H
	DB	0ffH
	DB	038H
	DB	03cH
	DB	038H
	DB	0ffH
	DB	040H
	DB	03cH
	DB	040H
	DB	0ffH
	DB	040H
	DB	040H
	DB	040H
	DB	0ffH
	DB	040H
	DB	040H
	DB	040H
	DB	0ffH
	DB	040H
	DB	044H
	DB	040H
	DB	0ffH
	DB	048H
	DB	044H
	DB	040H
	DB	0ffH
	DB	048H
	DB	044H
	DB	048H
	DB	0ffH
	DB	040H
	DB	044H
	DB	040H
	DB	0ffH
	DB	040H
	DB	044H
	DB	040H
	DB	0ffH
	DB	048H
	DB	044H
	DB	048H
	DB	0ffH
	DB	040H
	DB	044H
	DB	040H
	DB	0ffH
	DB	040H
	DB	044H
	DB	040H
	DB	0ffH
	DB	048H
	DB	044H
	DB	040H
	DB	0ffH
	DB	048H
	DB	044H
	DB	048H
	DB	0ffH
	DB	040H
	DB	044H
	DB	040H
	DB	0ffH
	DB	048H
	DB	044H
	DB	040H
	DB	0ffH
	DB	040H
	DB	044H
	DB	048H
	DB	0ffH
	DB	048H
	DB	044H
	DB	040H
	DB	0ffH
	DB	048H
	DB	044H
	DB	048H
	DB	0ffH
	DB	040H
	DB	044H
	DB	048H
	DB	0ffH
	DB	048H
	DB	044H
	DB	040H
	DB	0ffH
	DB	048H
	DB	044H
	DB	040H
	DB	0ffH
	DB	040H
	DB	044H
	DB	048H
	DB	0ffH
	DB	048H
	DB	044H
	DB	040H
	DB	0ffH
	DB	048H
	DB	044H
	DB	040H
	DB	0ffH
	DB	040H
	DB	044H
	DB	048H
	DB	0ffH
	DB	048H
	DB	044H
	DB	040H
	DB	0ffH
	DB	040H
	DB	044H
	DB	048H
	DB	0ffH
	DB	048H
	DB	044H
	DB	040H
	DB	0ffH
	DB	040H
	DB	044H
	DB	040H
	DB	0ffH
	DB	040H
	DB	044H
	DB	040H
	DB	0ffH
	DB	048H
	DB	044H
	DB	040H
	DB	0ffH
	DB	040H
	DB	044H
	DB	048H
	DB	0ffH
	DB	048H
	DB	044H
	DB	040H
	DB	0ffH
	DB	048H
	DB	044H
	DB	040H
	DB	0ffH
	DB	040H
	DB	044H
	DB	048H
	DB	0ffH
	DB	048H
	DB	044H
	DB	040H
	DB	0ffH
	DB	040H
	DB	044H
	DB	048H
	DB	0ffH
	DB	048H
	DB	044H
	DB	040H
	DB	0ffH
	DB	048H
	DB	044H
	DB	048H
	DB	0ffH
	DB	040H
	DB	044H
	DB	040H
	DB	0ffH
	DB	048H
	DB	044H
	DB	040H
	DB	0ffH
	DB	040H
	DB	044H
	DB	048H
	DB	0ffH
	DB	048H
	DB	044H
	DB	040H
	DB	0ffH
	DB	040H
	DB	044H
	DB	040H
	DB	0ffH
	DB	040H
	DB	044H
	DB	048H
	DB	0ffH
	DB	048H
	DB	044H
	DB	040H
	DB	0ffH
	DB	040H
	DB	044H
	DB	040H
	DB	0ffH
	DB	040H
	DB	044H
	DB	048H
	DB	0ffH
	DB	048H
	DB	044H
	DB	040H
	DB	0ffH
	DB	048H
	DB	044H
	DB	040H
	DB	0ffH
	DB	040H
	DB	044H
	DB	048H
	DB	0ffH
	DB	048H
	DB	044H
	DB	040H
	DB	0ffH
	DB	048H
	DB	044H
	DB	048H
	DB	0ffH
	DB	040H
	DB	044H
	DB	040H
	DB	0ffH
	DB	040H
	DB	044H
	DB	048H
	DB	0ffH
	DB	048H
	DB	044H
	DB	040H
	DB	0ffH
	DB	040H
	DB	044H
	DB	048H
	DB	0ffH
	DB	048H
	DB	044H
	DB	040H
	DB	0ffH
	DB	040H
	DB	044H
	DB	048H
	DB	0ffH
	DB	048H
	DB	044H
	DB	040H
	DB	0ffH
	DB	040H
	DB	044H
	DB	040H
	DB	0ffH
	DB	048H
	DB	044H
	DB	048H
	DB	0ffH
	DB	048H
	DB	044H
	DB	040H
	DB	0ffH
	DB	040H
	DB	044H
	DB	040H
	DB	0ffH
	DB	048H
	DB	044H
	DB	048H
	DB	0ffH
	DB	048H
	DB	044H
	DB	040H
	DB	0ffH
	DB	040H
	DB	044H
	DB	040H
	DB	0ffH
	DB	048H
	DB	044H
	DB	048H
	DB	0ffH
	DB	048H
	DB	044H
	DB	040H
	DB	0ffH
	DB	040H
	DB	044H
	DB	048H
	DB	0ffH
	DB	048H
	DB	044H
	DB	040H
	DB	0ffH
	DB	048H
	DB	044H
	DB	048H
	DB	0ffH
	DB	040H
	DB	044H
	DB	040H
	DB	0ffH
	DB	040H
	DB	044H
	DB	048H
	DB	0ffH
	DB	048H
	DB	044H
	DB	040H
	DB	0ffH
	DB	040H
	DB	044H
	DB	040H
	DB	0ffH
	DB	040H
	DB	044H
	DB	048H
	DB	0ffH
	DB	048H
	DB	044H
	DB	048H
	DB	0ffH
	DB	040H
	DB	044H
	DB	040H
	DB	0ffH
	DB	048H
	DB	044H
	DB	048H
	DB	0ffH
	DB	048H
	DB	044H
	DB	040H
	DB	0ffH
	DB	040H
	DB	044H
	DB	040H
	DB	0ffH
	DB	048H
	DB	044H
	DB	048H
	DB	0ffH
	DB	040H
	DB	044H
	DB	040H
	DB	0ffH
	DB	040H
	DB	044H
	DB	040H
	DB	0ffH
	DB	048H
	DB	044H
	DB	048H
	DB	0ffH
	DB	040H
	DB	044H
	DB	040H
	DB	0ffH
	DB	040H
	DB	044H
	DB	048H
	DB	0ffH
	DB	048H
	DB	044H
	DB	040H
	DB	0ffH
	DB	048H
	DB	044H
	DB	048H
	DB	0ffH
	DB	040H
	DB	044H
	DB	040H
	DB	0ffH
	DB	048H
	DB	044H
	DB	040H
	DB	0ffH
	DB	048H
	DB	044H
	DB	048H
	DB	0ffH
	DB	040H
	DB	044H
	DB	040H
	DB	0ffH
	DB	048H
	DB	044H
	DB	048H
	DB	0ffH
	DB	048H
	DB	044H
	DB	040H
	DB	0ffH
	DB	040H
	DB	044H
	DB	040H
	DB	0ffH
	DB	040H
	DB	044H
	DB	048H
	DB	0ffH
	DB	048H
	DB	044H
	DB	040H
	DB	0ffH
	DB	040H
	DB	044H
	DB	040H
	DB	0ffH
	DB	040H
	DB	044H
	DB	048H
	DB	0ffH
	DB	048H
	DB	044H
	DB	048H
	DB	0ffH
	DB	048H
	DB	044H
	DB	040H
	DB	0ffH
	DB	040H
	DB	044H
	DB	040H
	DB	0ffH
	DB	040H
	DB	044H
	DB	048H
	DB	0ffH
	DB	048H
	DB	044H
	DB	048H
	DB	0ffH
	DB	040H
	DB	044H
	DB	040H
	DB	0ffH
	DB	048H
	DB	044H
	DB	040H
	DB	0ffH
	DB	040H
	DB	044H
	DB	048H
	DB	0ffH
	DB	048H
	DB	044H
	DB	040H
	DB	0ffH
	DB	048H
	DB	044H
	DB	040H
	DB	0ffH
	DB	040H
	DB	044H
	DB	048H
	DB	0ffH
	DB	048H
	DB	044H
	DB	048H
	DB	0ffH
	DB	040H
	DB	044H
	DB	040H
	DB	0ffH
	DB	040H
	DB	040H
	DB	040H
	DB	0ffH
	DB	040H
	DB	040H
	DB	040H
	DB	0ffH
	DB	040H
	DB	040H
	DB	040H
	DB	0ffH
	DB	040H
	DB	03cH
	DB	040H
	DB	0ffH
	DB	038H
	DB	03cH
	DB	038H
	DB	0ffH
	DB	038H
	DB	038H
	DB	038H
	DB	0ffH
	DB	038H
	DB	038H
	DB	038H
	DB	0ffH
	DB	038H
	DB	038H
	DB	030H
	DB	0ffH
	DB	038H
	DB	034H
	DB	030H
	DB	0ffH
	DB	030H
	DB	034H
	DB	030H
	DB	0ffH
	DB	030H
	DB	034H
	DB	030H
	DB	0ffH
	DB	038H
	DB	034H
	DB	030H
	DB	0ffH
	DB	038H
	DB	034H
	DB	038H
	DB	0ffH
	DB	038H
	DB	038H
	DB	038H
	DB	0ffH
	DB	038H
	DB	038H
	DB	038H
	DB	0ffH
	DB	038H
	DB	03cH
	DB	038H
	DB	0ffH
	DB	040H
	DB	03cH
	DB	040H
	DB	0ffH
	DB	040H
	DB	040H
	DB	040H
	DB	0ffH
	DB	040H
	DB	040H
	DB	040H
	DB	0ffH
	DB	040H
	DB	040H
	DB	040H
	DB	0ffH
	DB	040H
	DB	044H
	DB	040H
	DB	0ffH
	DB	048H
	DB	044H
	DB	048H
	DB	0ffH
	DB	048H
	DB	044H
	DB	040H
	DB	0ffH
	DB	040H
	DB	044H
	DB	048H
	DB	0ffH
	DB	048H
	DB	044H
	DB	048H
	DB	0ffH
	DB	048H
	DB	044H
	DB	040H
	DB	0ffH
	DB	040H
	DB	044H
	DB	040H
	DB	0ffH
	DB	048H
	DB	044H
	DB	048H
	DB	0ffH
	DB	040H
	DB	044H
	DB	040H
	DB	0ffH
	DB	048H
	DB	044H
	DB	040H
	DB	0ffH
	DB	040H
	DB	044H
	DB	048H
	DB	0ffH
	DB	040H
	DB	044H
	DB	040H
	DB	0ffH
	DB	048H
	DB	044H
	DB	040H
	DB	0ffH
	DB	040H
	DB	044H
	DB	040H
	DB	0ffH
	DB	040H
	DB	044H
	DB	040H
	DB	0ffH
	DB	048H
	DB	044H
	DB	048H
	DB	0ffH
	DB	040H
	DB	044H
	DB	040H
	DB	0ffH
	DB	040H
	DB	044H
	DB	040H
	DB	0ffH
	DB	048H
	DB	044H
	DB	048H
	DB	0ffH
	DB	040H
	DB	044H
	DB	040H
	DB	0ffH
	DB	048H
	DB	044H
	DB	040H
	DB	0ffH
	DB	048H
	DB	044H
	DB	048H
	DB	0ffH
	DB	040H
	DB	044H
	DB	040H
	DB	0ffH
	DB	048H
	DB	044H
	DB	048H
	DB	0ffH
	DB	048H
	DB	044H
	DB	048H
	DB	0ffH
	DB	040H
	DB	044H
	DB	040H
	DB	0ffH
	DB	048H
	DB	044H
	DB	040H
	DB	0ffH
	DB	040H
	DB	044H
	DB	048H
	DB	0ffH
	DB	040H
	DB	044H
	DB	040H
	DB	0ffH
	DB	048H
	DB	044H
	DB	040H
	DB	0ffH
	DB	048H
	DB	044H
	DB	048H
	DB	0ffH
	DB	040H
	DB	044H
	DB	040H
	DB	0ffH
	DB	040H
	DB	044H
	DB	040H
	DB	0ffH
	DB	048H
	DB	044H
	DB	048H
	DB	0ffH
	DB	048H
	DB	044H
	DB	040H
	DB	0ffH
	DB	040H
	DB	044H
	DB	048H
	DB	0ffH
	DB	048H
	DB	044H
	DB	040H
	DB	0ffH
	DB	048H
	DB	044H
	DB	048H
	DB	0ffH
	DB	040H
	DB	044H
	DB	040H
	DB	0ffH
	DB	048H
	DB	044H
	DB	048H
	DB	0ffH
	DB	048H
	DB	044H
	DB	040H
	DB	0ffH
	DB	040H
	DB	044H
	DB	040H
	DB	0ffH
	DB	048H
	DB	044H
	DB	048H
	DB	0ffH
	DB	040H
	DB	044H
	DB	040H
	DB	0ffH
	DB	040H
	DB	044H
	DB	048H
	DB	0ffH
	DB	048H
	DB	044H
	DB	040H
	DB	0ffH
	DB	040H
	DB	044H
	DB	040H
	DB	0ffH
	DB	040H
	DB	044H
	DB	048H
	DB	0ffH
	DB	048H
	DB	044H
	DB	040H
	DB	0ffH
	DB	048H
	DB	044H
	DB	040H
	DB	0ffH
	DB	040H
	DB	044H
	DB	048H
	DB	0ffH
	DB	048H
	DB	044H
	DB	040H
	DB	0ffH
	DB	048H
	DB	044H
	DB	040H
	DB	0ffH
	DB	040H
	DB	044H
	DB	048H
	DB	0ffH
	DB	048H
	DB	044H
	DB	040H
	DB	0ffH
	DB	040H
	DB	044H
	DB	040H
	DB	0ffH
	DB	040H
	DB	044H
	DB	048H
	DB	0ffH
	DB	048H
	DB	044H
	DB	040H
	DB	0ffH
	DB	040H
	DB	044H
	DB	040H
	DB	0ffH
	DB	040H
	DB	044H
	DB	048H
	DB	0ffH
	DB	048H
	DB	044H
	DB	040H
	DB	0ffH
	DB	040H
	DB	044H
	DB	040H
	DB	0ffH
	DB	048H
	DB	044H
	DB	048H
	DB	0ffH
	DB	040H
	DB	044H
	DB	040H
	DB	0ffH
	DB	040H
	DB	044H
	DB	040H
	DB	0ffH
	DB	040H
	DB	044H
	DB	048H
	DB	0ffH
	DB	048H
	DB	044H
	DB	040H
	DB	0ffH
	DB	048H
	DB	044H
	DB	040H
	DB	0ffH
	DB	040H
	DB	044H
	DB	048H
	DB	0ffH
	DB	048H
	DB	044H
	DB	040H
	DB	0ffH
	DB	048H
	DB	044H
	DB	040H
	DB	0ffH
	DB	040H
	DB	044H
	DB	048H
	DB	0ffH
	DB	048H
	DB	044H
	DB	040H
	DB	0ffH
	DB	040H
	DB	044H
	DB	040H
	DB	0ffH
	DB	040H
	DB	044H
	DB	048H
	DB	0ffH
	DB	048H
	DB	044H
	DB	040H
	DB	0ffH
	DB	040H
	DB	044H
	DB	048H
	DB	0ffH
	DB	048H
	DB	044H
	DB	040H
	DB	0ffH
	DB	048H
	DB	044H
	DB	048H
	DB	0ffH
	DB	040H
	DB	044H
	DB	040H
	DB	0ffH
	DB	048H
	DB	044H
	DB	040H
	DB	0ffH
	DB	048H
	DB	044H
	DB	048H
	DB	0ffH
	DB	040H
	DB	044H
	DB	040H
	DB	0ffH
	DB	040H
	DB	044H
	DB	040H
	DB	0ffH
	DB	048H
	DB	044H
	DB	048H
	DB	0ffH
	DB	040H
	DB	044H
	DB	040H
	DB	0ffH
	DB	040H
	DB	044H
	DB	040H
	DB	0ffH
	DB	048H
	DB	044H
	DB	048H
	DB	0ffH
	DB	040H
	DB	044H
	DB	040H
	DB	0ffH
	DB	040H
	DB	044H
	DB	040H
	DB	0ffH
	DB	048H
	DB	044H
	DB	048H
	DB	0ffH
	DB	048H
	DB	044H
	DB	040H
	DB	0ffH
	DB	040H
	DB	044H
	DB	040H
	DB	0ffH
	DB	048H
	DB	044H
	DB	048H
	DB	0ffH
	DB	048H
	DB	044H
	DB	040H
	DB	0ffH
	DB	040H
	DB	044H
	DB	040H
	DB	0ffH
	DB	040H
	DB	044H
	DB	048H
	DB	0ffH
	DB	048H
	DB	044H
	DB	040H
	DB	0ffH
	DB	040H
	DB	044H
	DB	040H
	DB	0ffH
	DB	048H
	DB	044H
	DB	048H
	DB	0ffH
	DB	048H
	DB	044H
	DB	040H
	DB	0ffH
	DB	040H
	DB	044H
	DB	040H
	DB	0ffH
	DB	048H
	DB	044H
	DB	048H
	DB	0ffH
	DB	048H
	DB	044H
	DB	040H
	DB	0ffH
	DB	040H
	DB	044H
	DB	040H
	DB	0ffH
	DB	040H
	DB	044H
	DB	048H
	DB	0ffH
	DB	048H
	DB	044H
	DB	040H
	DB	0ffH
	DB	048H
	DB	044H
	DB	040H
	DB	0ffH
	DB	040H
	DB	044H
	DB	048H
	DB	0ffH
	DB	048H
	DB	044H
	DB	040H
	DB	0ffH
	DB	040H
	DB	044H
	DB	040H
	DB	0ffH
	DB	040H
	DB	040H
	DB	040H
	DB	0ffH
	DB	040H
	DB	040H
	DB	040H
	DB	0ffH
	DB	040H
	DB	03cH
	DB	038H
	DB	0ffH
	DB	038H
	DB	03cH
	DB	038H
	DB	0ffH
	DB	038H
	DB	038H
	DB	038H
	DB	0ffH
	DB	038H
	DB	038H
	DB	038H
	DB	0ffH
	DB	038H
	DB	034H
	DB	038H
	DB	0ffH
	DB	030H
	DB	034H
	DB	030H
	DB	0ffH
	DB	030H
	DB	034H
	DB	030H
	DB	0ffH
	DB	030H
	DB	034H
	DB	030H
	DB	0ffH
	DB	030H
	DB	034H
	DB	038H
	DB	0ffH
	DB	038H
	DB	034H
	DB	038H
	DB	0ffH
	DB	038H
	DB	038H
	DB	038H
	DB	0ffH
	DB	038H
	DB	038H
	DB	038H
	DB	0ffH
	DB	038H
	DB	03cH
	DB	038H
	DB	0ffH
	DB	040H
	DB	03cH
	DB	038H
	DB	0ffH
	DB	040H
	DB	040H
	DB	040H
	DB	0ffH
	DB	040H
	DB	040H
	DB	040H
	DB	0ffH
	DB	040H
	DB	044H
	DB	040H
	DB	0ffH
	DB	040H
	DB	044H
	DB	040H
	DB	0ffH
	DB	048H
	DB	044H
	DB	040H
	DB	0ffH
	DB	040H
	DB	044H
	DB	040H
	DB	0ffH
	DB	040H
	DB	044H
	DB	040H
	DB	0ffH
	DB	048H
	DB	044H
	DB	048H
	DB	0ffH
	DB	040H
	DB	044H
	DB	040H
	DB	0ffH
	DB	048H
	DB	044H
	DB	048H
	DB	0ffH
	DB	040H
	DB	044H
	DB	048H
	DB	0ffH
	DB	048H
	DB	044H
	DB	040H
	DB	0ffH
	DB	048H
	DB	044H
	DB	040H
	DB	0ffH
	DB	040H
	DB	044H
	DB	048H
	DB	0ffH
	DB	048H
	DB	044H
	DB	040H
	DB	0ffH
	DB	048H
	DB	044H
	DB	048H
	DB	0ffH
	DB	040H
	DB	044H
	DB	040H
	DB	0ffH
	DB	048H
	DB	044H
	DB	040H
	DB	0ffH
	DB	048H
	DB	044H
	DB	048H
	DB	0ffH
	DB	040H
	DB	044H
	DB	040H
	DB	0ffH
	DB	048H
	DB	044H
	DB	040H
	DB	0ffH
	DB	040H
	DB	044H
	DB	048H
	DB	0ffH
	DB	040H
	DB	044H
	DB	040H
	DB	0ffH
	DB	048H
	DB	044H
	DB	040H
	DB	0ffH
	DB	040H
	DB	044H
	DB	048H
	DB	0ffH
	DB	040H
	DB	044H
	DB	040H
	DB	0ffH
	DB	048H
	DB	044H
	DB	040H
	DB	0ffH
	DB	040H
	DB	044H
	DB	048H
	DB	0ffH
	DB	048H
	DB	044H
	DB	040H
	DB	0ffH
	DB	048H
	DB	044H
	DB	048H
	DB	0ffH
	DB	040H
	DB	044H
	DB	040H
	DB	0ffH
	DB	040H
	DB	044H
	DB	040H
	DB	0ffH
	DB	048H
	DB	044H
	DB	048H
	DB	0ffH
	DB	040H
	DB	044H
	DB	040H
	DB	0ffH
	DB	048H
	DB	044H
	DB	040H
	DB	0ffH
	DB	040H
	DB	044H
	DB	048H
	DB	0ffH
	DB	040H
	DB	044H
	DB	040H
	DB	0ffH
	DB	048H
	DB	044H
	DB	040H
	DB	0ffH
	DB	040H
	DB	044H
	DB	040H
	DB	0ffH
	DB	040H
	DB	044H
	DB	048H
	DB	0ffH
	DB	048H
	DB	044H
	DB	040H
	DB	0ffH
	DB	040H
	DB	044H
	DB	040H
	DB	0ffH
	DB	040H
	DB	044H
	DB	048H
	DB	0ffH
	DB	048H
	DB	044H
	DB	040H
	DB	0ffH
	DB	040H
	DB	044H
	DB	048H
	DB	0ffH
	DB	048H
	DB	044H
	DB	040H
	DB	0ffH
	DB	048H
	DB	044H
	DB	040H
	DB	0ffH
	DB	040H
	DB	044H
	DB	048H
	DB	0ffH
	DB	048H
	DB	044H
	DB	040H
	DB	0ffH
	DB	040H
	DB	044H
	DB	040H
	DB	0ffH
	DB	040H
	DB	044H
	DB	048H
	DB	0ffH
	DB	048H
	DB	044H
	DB	040H
	DB	0ffH
	DB	040H
	DB	044H
	DB	040H
	DB	0ffH
	DB	040H
	DB	044H
	DB	048H
	DB	0ffH
	DB	048H
	DB	044H
	DB	040H
	DB	0ffH
	DB	040H
	DB	044H
	DB	040H
	DB	0ffH
	DB	040H
	DB	044H
	DB	048H
	DB	0ffH
	DB	048H
	DB	044H
	DB	040H
	DB	0ffH
	DB	048H
	DB	044H
	DB	040H
	DB	0ffH
	DB	040H
	DB	044H
	DB	048H
	DB	0ffH
	DB	048H
	DB	044H
	DB	040H
	DB	0ffH
	DB	048H
	DB	044H
	DB	048H
	DB	0ffH
	DB	040H
	DB	044H
	DB	048H
	DB	0ffH
	DB	048H
	DB	044H
	DB	040H
	DB	0ffH
	DB	040H
	DB	044H
	DB	048H
	DB	0ffH
	DB	048H
	DB	044H
	DB	040H
	DB	0ffH
	DB	048H
	DB	044H
	DB	040H
	DB	0ffH
	DB	040H
	DB	044H
	DB	048H
	DB	0ffH
	DB	048H
	DB	044H
	DB	040H
	DB	0ffH
	DB	040H
	DB	044H
	DB	040H
	DB	0ffH
	DB	040H
	DB	044H
	DB	048H
	DB	0ffH
	DB	048H
	DB	044H
	DB	040H
	DB	0ffH
	DB	040H
	DB	044H
	DB	040H
	DB	0ffH
	DB	040H
	DB	044H
	DB	048H
	DB	0ffH
	DB	048H
	DB	044H
	DB	040H
	DB	0ffH
	DB	048H
	DB	044H
	DB	040H
	DB	0ffH
	DB	040H
	DB	044H
	DB	040H
	DB	0ffH
	DB	048H
	DB	044H
	DB	040H
	DB	0ffH
	DB	040H
	DB	044H
	DB	048H
	DB	0ffH
	DB	040H
	DB	044H
	DB	040H
	DB	0ffH
	DB	048H
	DB	044H
	DB	040H
	DB	0ffH
	DB	040H
	DB	044H
	DB	048H
	DB	0ffH
	DB	040H
	DB	044H
	DB	040H
	DB	0ffH
	DB	048H
	DB	044H
	DB	048H
	DB	0ffH
	DB	048H
	DB	044H
	DB	040H
	DB	0ffH
	DB	040H
	DB	044H
	DB	040H
	DB	0ffH
	DB	048H
	DB	044H
	DB	048H
	DB	0ffH
	DB	048H
	DB	044H
	DB	040H
	DB	0ffH
	DB	040H
	DB	044H
	DB	040H
	DB	0ffH
	DB	048H
	DB	044H
	DB	048H
	DB	0ffH
	DB	048H
	DB	044H
	DB	048H
	DB	0ffH
	DB	040H
	DB	044H
	DB	040H
	DB	0ffH
	DB	040H
	DB	044H
	DB	040H
	DB	0ffH
	DB	048H
	DB	044H
	DB	048H
	DB	0ffH
	DB	040H
	DB	044H
	DB	040H
	DB	0ffH
	DB	040H
	DB	044H
	DB	048H
	DB	0ffH
	DB	048H
	DB	044H
	DB	040H
	DB	0ffH
	DB	040H
	DB	044H
	DB	048H
	DB	0ffH
	DB	048H
	DB	044H
	DB	040H
	DB	0ffH
	DB	048H
	DB	044H
	DB	040H
	DB	0ffH
	DB	040H
	DB	044H
	DB	048H
	DB	0ffH
	DB	040H
	DB	044H
	DB	040H
	DB	0ffH
	DB	048H
	DB	044H
	DB	040H
	DB	0ffH
	DB	040H
	DB	044H
	DB	048H
	DB	0ffH
	DB	040H
	DB	044H
	DB	040H
	DB	0ffH
	DB	048H
	DB	044H
	DB	040H
	DB	0ffH
	DB	040H
	DB	044H
	DB	048H
	DB	0ffH
	DB	048H
	DB	044H
	DB	040H
	DB	0ffH
	DB	040H
	DB	044H
	DB	048H
	DB	0ffH
	DB	040H
	DB	044H
	DB	040H
	DB	0ffH
	DB	048H
	DB	044H
	DB	040H
	DB	0ffH
	DB	040H
	DB	044H
	DB	048H
	DB	0ffH
	DB	040H
	DB	044H
	DB	040H
	DB	0ffH
	DB	040H
	DB	040H
	DB	040H
	DB	0ffH
	DB	040H
	DB	040H
	DB	040H
	DB	0ffH
	DB	040H
	DB	040H
	DB	040H
	DB	0ffH
	DB	040H
	DB	03cH
	DB	040H
	DB	0ffH
	DB	038H
	DB	03cH
	DB	038H
	DB	0ffH
	DB	038H
	DB	038H
	DB	038H
	DB	0ffH
	DB	038H
	DB	038H
	DB	038H
	DB	0ffH
	DB	038H
	DB	034H
	DB	038H
	DB	0ffH
	DB	038H
	DB	034H
	DB	030H
	DB	0ffH
	DB	030H
	DB	034H
	DB	030H
	DB	0ffH
	DB	030H
	DB	034H
	DB	030H
	DB	0ffH
	DB	038H
	DB	034H
	DB	030H
	DB	0ffH
	DB	038H
	DB	038H
	DB	038H
	DB	0ffH
	DB	038H
	DB	038H
	DB	038H
	DB	0ffH
	DB	038H
	DB	038H
	DB	038H
	DB	0ffH
	DB	038H
	DB	03cH
	DB	038H
	DB	0ffH
	DB	040H
	DB	03cH
	DB	038H
	DB	0ffH
	DB	040H
	DB	040H
	DB	040H
	DB	0ffH
	DB	040H
	DB	040H
	DB	040H
	DB	0ffH
	DB	040H
	DB	040H
	DB	040H
	DB	0ffH
	DB	048H
	DB	044H
	DB	040H
	DB	0ffH
	DB	040H
	DB	044H
	DB	048H
	DB	0ffH
	DB	048H
	DB	044H
	DB	048H
	DB	0ffH
	DB	048H
	DB	044H
	DB	040H
	DB	0ffH
	DB	040H
	DB	044H
	DB	040H
	DB	0ffH
	DB	040H
	DB	044H
	DB	040H
	DB	0ffH
	DB	048H
	DB	044H
	DB	040H
	DB	0ffH
	DB	040H
	DB	044H
	DB	040H
	DB	0ffH
	DB	040H
	DB	044H
	DB	048H
	DB	0ffH
	DB	048H
	DB	044H
	DB	040H
	DB	0ffH
	DB	040H
	DB	044H
	DB	040H
	DB	0ffH
	DB	048H
	DB	044H
	DB	048H
	DB	0ffH
	DB	040H
	DB	044H
	DB	040H
	DB	0ffH
	DB	040H
	DB	044H
	DB	048H
	DB	0ffH
	DB	048H
	DB	044H
	DB	048H
	DB	0ffH
	DB	040H
	DB	044H
	DB	040H
	DB	0ffH
	DB	048H
	DB	044H
	DB	048H
	DB	0ffH
	DB	048H
	DB	044H
	DB	040H
	DB	0ffH
	DB	040H
	DB	044H
	DB	048H
	DB	0ffH
	DB	048H
	DB	044H
	DB	040H
	DB	0ffH
	DB	048H
	DB	044H
	DB	040H
	DB	0ffH
	DB	040H
	DB	044H
	DB	048H
	DB	0ffH
	DB	048H
	DB	044H
	DB	040H
	DB	0ffH
	DB	040H
	DB	044H
	DB	040H
	DB	0ffH
	DB	040H
	DB	044H
	DB	040H
	DB	0ffH
	DB	048H
	DB	044H
	DB	048H
	DB	0ffH
	DB	040H
	DB	044H
	DB	040H
	DB	0ffH
	DB	048H
	DB	044H
	DB	040H
	DB	0ffH
	DB	048H
	DB	044H
	DB	048H
	DB	0ffH
	DB	040H
	DB	044H
	DB	048H
	DB	0ffH
	DB	048H
	DB	044H
	DB	040H
	DB	0ffH
	DB	048H
	DB	044H
	DB	040H
	DB	0ffH
	DB	040H
	DB	044H
	DB	048H
	DB	0ffH
	DB	048H
	DB	044H
	DB	040H
	DB	0ffH
	DB	048H
	DB	044H
	DB	040H
	DB	0ffH
	DB	040H
	DB	044H
	DB	048H
	DB	0ffH
	DB	048H
	DB	044H
	DB	040H
	DB	0ffH
	DB	048H
	DB	044H
	DB	040H
	DB	0ffH
	DB	040H
	DB	044H
	DB	048H
	DB	0ffH
	DB	048H
	DB	044H
	DB	040H
	DB	0ffH
	DB	040H
	DB	044H
	DB	040H
	DB	0ffH
	DB	040H
	DB	044H
	DB	048H
	DB	0ffH
	DB	048H
	DB	044H
	DB	040H
	DB	0ffH
	DB	040H
	DB	044H
	DB	040H
	DB	0ffH
	DB	048H
	DB	044H
	DB	048H
	DB	0ffH
	DB	048H
	DB	044H
	DB	040H
	DB	0ffH
	DB	048H
	DB	044H
	DB	048H
	DB	0ffH
	DB	040H
	DB	044H
	DB	040H
	DB	0ffH
	DB	048H
	DB	044H
	DB	048H
	DB	0ffH
	DB	048H
	DB	044H
	DB	040H
	DB	0ffH
	DB	040H
	DB	044H
	DB	040H
	DB	0ffH
	DB	048H
	DB	044H
	DB	048H
	DB	0ffH
	DB	048H
	DB	044H
	DB	040H
	DB	0ffH
	DB	040H
	DB	044H
	DB	048H
	DB	0ffH
	DB	048H
	DB	044H
	DB	040H
	DB	0ffH
	DB	040H
	DB	044H
	DB	048H
	DB	0ffH
	DB	040H
	DB	044H
	DB	040H
	DB	0ffH
	DB	048H
	DB	044H
	DB	040H
	DB	0ffH
	DB	040H
	DB	044H
	DB	040H
	DB	0ffH
	DB	048H
	DB	044H
	DB	040H
	DB	0ffH
	DB	040H
	DB	044H
	DB	048H
	DB	0ffH
	DB	040H
	DB	044H
	DB	040H
	DB	0ffH
	DB	048H
	DB	044H
	DB	040H
	DB	0ffH
	DB	040H
	DB	044H
	DB	048H
	DB	0ffH
	DB	048H
	DB	044H
	DB	048H
	DB	0ffH
	DB	048H
	DB	044H
	DB	040H
	DB	0ffH
	DB	040H
	DB	044H
	DB	040H
	DB	0ffH
	DB	048H
	DB	044H
	DB	048H
	DB	0ffH
	DB	040H
	DB	044H
	DB	040H
	DB	0ffH
	DB	048H
	DB	044H
	DB	048H
	DB	0ffH
	DB	040H
	DB	044H
	DB	040H
	DB	0ffH
	DB	040H
	DB	044H
	DB	048H
	DB	0ffH
	DB	048H
	DB	044H
	DB	048H
	DB	0ffH
	DB	048H
	DB	044H
	DB	040H
	DB	0ffH
	DB	040H
	DB	044H
	DB	048H
	DB	0ffH
	DB	048H
	DB	044H
	DB	040H
	DB	0ffH
	DB	048H
	DB	044H
	DB	040H
	DB	0ffH
	DB	040H
	DB	044H
	DB	048H
	DB	0ffH
	DB	048H
	DB	044H
	DB	040H
	DB	0ffH
	DB	040H
	DB	044H
	DB	040H
	DB	0ffH
	DB	040H
	DB	044H
	DB	048H
	DB	0ffH
	DB	048H
	DB	044H
	DB	040H
	DB	0ffH
	DB	040H
	DB	044H
	DB	048H
	DB	0ffH
	DB	048H
	DB	044H
	DB	040H
	DB	0ffH
	DB	040H
	DB	044H
	DB	040H
	DB	0ffH
	DB	040H
	DB	044H
	DB	048H
	DB	0ffH
	DB	048H
	DB	044H
	DB	040H
	DB	0ffH
	DB	040H
	DB	044H
	DB	040H
	DB	0ffH
	DB	048H
	DB	044H
	DB	048H
	DB	0ffH
	DB	048H
	DB	044H
	DB	040H
	DB	0ffH
	DB	040H
	DB	044H
	DB	040H
	DB	0ffH
	DB	048H
	DB	044H
	DB	048H
	DB	0ffH
	DB	048H
	DB	044H
	DB	040H
	DB	0ffH
	DB	040H
	DB	044H
	DB	040H
	DB	0ffH
	DB	040H
	DB	044H
	DB	048H
	DB	0ffH
	DB	048H
	DB	044H
	DB	040H
	DB	0ffH
	DB	048H
	DB	044H
	DB	040H
	DB	0ffH
	DB	040H
	DB	044H
	DB	048H
	DB	0ffH
	DB	048H
	DB	044H
	DB	040H
	DB	0ffH
	DB	048H
	DB	044H
	DB	040H
	DB	0ffH
	DB	040H
	DB	044H
	DB	048H
	DB	0ffH
	DB	048H
	DB	044H
	DB	040H
	DB	0ffH
	DB	040H
	DB	044H
	DB	040H
	DB	0ffH
	DB	048H
	DB	044H
	DB	048H
	DB	0ffH
	DB	048H
	DB	044H
	DB	040H
	DB	0ffH
	DB	040H
	DB	044H
	DB	040H
	DB	0ffH
	DB	048H
	DB	044H
	DB	048H
	DB	0ffH
	DB	048H
	DB	044H
	DB	040H
	DB	0ffH
	DB	040H
	DB	044H
	DB	040H
	DB	0ffH
	DB	048H
	DB	044H
	DB	040H
	DB	0ffH
	DB	040H
	DB	040H
	DB	040H
	DB	0ffH
	DB	040H
	DB	040H
	DB	040H
	DB	0ffH
	DB	040H
	DB	040H
	DB	040H
	DB	0ffH
	DB	040H
	DB	03cH
	DB	040H
	DB	0ffH
	DB	038H
	DB	03cH
	DB	038H
	DB	0ffH
	DB	038H
	DB	038H
	DB	038H
	DB	0ffH
	DB	038H
	DB	038H
	DB	038H
	DB	0ffH
	DB	038H
	DB	038H
	DB	038H
	DB	0ffH
	DB	030H
	DB	034H
	DB	030H
	DB	0ffH
	DB	030H
	DB	034H
	DB	030H
	DB	0ffH
	DB	030H
	DB	034H
	DB	030H
	DB	0ffH
	DB	030H
	DB	034H
	DB	030H
	DB	0ffH
	DB	038H
	DB	034H
	DB	038H
	DB	0ffH
	DB	038H
	DB	038H
	DB	038H
	DB	0ffH
	DB	038H
	DB	038H
	DB	038H
	DB	0ffH
	DB	038H
	DB	03cH
	DB	038H
	DB	0ffH
	DB	040H
	DB	03cH
	DB	040H
	DB	0ffH
	DB	040H
	DB	040H
	DB	040H
	DB	0ffH
	DB	040H
	DB	040H
	DB	040H
	DB	0ffH
	DB	040H
	DB	044H
	DB	040H
	DB	0ffH
	DB	040H
	DB	044H
	DB	040H
	DB	0ffH
	DB	048H
	DB	044H
	DB	048H
	DB	0ffH
	DB	040H
	DB	044H
	DB	040H
	DB	0ffH
	DB	048H
	DB	044H
	DB	040H
	DB	0ffH
	DB	040H
	DB	044H
	DB	048H
	DB	0ffH
	DB	048H
	DB	044H
	DB	048H
	DB	0ffH
	DB	048H
	DB	044H
	DB	040H
	DB	0ffH
	DB	040H
	DB	044H
	DB	040H
	DB	0ffH
	DB	048H
	DB	044H
	DB	048H
	DB	0ffH
	DB	040H
	DB	044H
	DB	040H
	DB	0ffH
	DB	048H
	DB	044H
	DB	040H
	DB	0ffH
	DB	040H
	DB	044H
	DB	048H
	DB	0ffH
	DB	048H
	DB	044H
	DB	040H
	DB	0ffH
	DB	048H
	DB	044H
	DB	040H
	DB	0ffH
	DB	040H
	DB	044H
	DB	040H
	DB	0ffH
	DB	040H
	DB	044H
	DB	040H
	DB	0ffH
	DB	048H
	DB	044H
	DB	048H
	DB	0ffH
	DB	040H
	DB	044H
	DB	040H
	DB	0ffH
	DB	040H
	DB	044H
	DB	040H
	DB	0ffH
	DB	048H
	DB	044H
	DB	048H
	DB	0ffH
	DB	040H
	DB	044H
	DB	040H
	DB	0ffH
	DB	048H
	DB	044H
	DB	048H
	DB	0ffH
	DB	048H
	DB	044H
	DB	040H
	DB	0ffH
	DB	040H
	DB	044H
	DB	048H
	DB	0ffH
	DB	048H
	DB	044H
	DB	040H
	DB	0ffH
	DB	040H
	DB	044H
	DB	040H
	DB	0ffH
	DB	040H
	DB	044H
	DB	048H
	DB	0ffH
	DB	048H
	DB	044H
	DB	040H
	DB	0ffH
	DB	040H
	DB	044H
	DB	040H
	DB	0ffH
	DB	040H
	DB	044H
	DB	048H
	DB	0ffH
	DB	048H
	DB	044H
	DB	040H
	DB	0ffH
	DB	040H
	DB	044H
	DB	040H
	DB	0ffH
	DB	040H
	DB	044H
	DB	048H
	DB	0ffH
	DB	048H
	DB	044H
	DB	040H
	DB	0ffH
	DB	040H
	DB	044H
	DB	048H
	DB	0ffH
	DB	040H
	DB	044H
	DB	048H
	DB	0ffH
	DB	048H
	DB	044H
	DB	040H
	DB	0ffH
	DB	040H
	DB	044H
	DB	040H
	DB	0ffH
	DB	048H
	DB	044H
	DB	048H
	DB	0ffH
	DB	048H
	DB	044H
	DB	040H
	DB	0ffH
	DB	040H
	DB	044H
	DB	040H
	DB	0ffH
	DB	048H
	DB	044H
	DB	048H
	DB	0ffH
	DB	040H
	DB	044H
	DB	040H
	DB	0ffH
	DB	040H
	DB	044H
	DB	048H
	DB	0ffH
	DB	040H
	DB	044H
	DB	040H
	DB	0ffH
	DB	048H
	DB	044H
	DB	040H
	DB	0ffH
	DB	040H
	DB	044H
	DB	048H
	DB	0ffH
	DB	040H
	DB	044H
	DB	040H
	DB	0ffH
	DB	048H
	DB	044H
	DB	040H
	DB	0ffH
	DB	040H
	DB	044H
	DB	048H
	DB	0ffH
	DB	040H
	DB	044H
	DB	040H
	DB	0ffH
	DB	048H
	DB	044H
	DB	040H
	DB	0ffH
	DB	040H
	DB	044H
	DB	048H
	DB	0ffH
	DB	048H
	DB	044H
	DB	040H
	DB	0ffH
	DB	040H
	DB	044H
	DB	040H
	DB	0ffH
	DB	048H
	DB	044H
	DB	048H
	DB	0ffH
	DB	048H
	DB	044H
	DB	040H
	DB	0ffH
	DB	040H
	DB	044H
	DB	048H
	DB	0ffH
	DB	040H
	DB	044H
	DB	040H
	DB	0ffH
	DB	048H
	DB	044H
	DB	040H
	DB	0ffH
	DB	048H
	DB	044H
	DB	048H
	DB	0ffH
	DB	040H
	DB	044H
	DB	040H
	DB	0ffH
	DB	048H
	DB	044H
	DB	040H
	DB	0ffH
	DB	040H
	DB	044H
	DB	048H
	DB	0ffH
	DB	040H
	DB	044H
	DB	040H
	DB	0ffH
	DB	048H
	DB	044H
	DB	040H
	DB	0ffH
	DB	040H
	DB	044H
	DB	048H
	DB	0ffH
	DB	048H
	DB	044H
	DB	040H
	DB	0ffH
	DB	048H
	DB	044H
	DB	040H
	DB	0ffH
	DB	040H
	DB	044H
	DB	048H
	DB	0ffH
	DB	048H
	DB	044H
	DB	040H
	DB	0ffH
	DB	040H
	DB	044H
	DB	040H
	DB	0ffH
	DB	040H
	DB	044H
	DB	048H
	DB	0ffH
	DB	048H
	DB	044H
	DB	040H
	DB	0ffH
	DB	040H
	DB	044H
	DB	040H
	DB	0ffH
	DB	040H
	DB	044H
	DB	048H
	DB	0ffH
	DB	048H
	DB	044H
	DB	040H
	DB	0ffH
	DB	040H
	DB	044H
	DB	048H
	DB	0ffH
	DB	048H
	DB	044H
	DB	040H
	DB	0ffH
	DB	048H
	DB	044H
	DB	040H
	DB	0ffH
	DB	040H
	DB	044H
	DB	048H
	DB	0ffH
	DB	048H
	DB	044H
	DB	040H
	DB	0ffH
	DB	040H
	DB	044H
	DB	040H
	DB	0ffH
	DB	040H
	DB	044H
	DB	048H
	DB	0ffH
	DB	048H
	DB	044H
	DB	040H
	DB	0ffH
	DB	048H
	DB	044H
	DB	048H
	DB	0ffH
	DB	040H
	DB	044H
	DB	040H
	DB	0ffH
	DB	040H
	DB	044H
	DB	040H
	DB	0ffH
	DB	048H
	DB	044H
	DB	048H
	DB	0ffH
	DB	040H
	DB	044H
	DB	040H
	DB	0ffH
	DB	040H
	DB	044H
	DB	040H
	DB	0ffH
	DB	048H
	DB	044H
	DB	048H
	DB	0ffH
	DB	048H
	DB	044H
	DB	040H
	DB	0ffH
	DB	040H
	DB	044H
	DB	040H
	DB	0ffH
	DB	048H
	DB	044H
	DB	048H
	DB	0ffH
	DB	040H
	DB	044H
	DB	040H
	DB	0ffH
	DB	040H
	DB	044H
	DB	048H
	DB	0ffH
	DB	048H
	DB	044H
	DB	040H
	DB	0ffH
	DB	040H
	DB	044H
	DB	048H
	DB	0ffH
	DB	040H
	DB	044H
	DB	040H
	DB	0ffH
	DB	048H
	DB	044H
	DB	048H
	DB	0ffH
	DB	048H
	DB	044H
	DB	040H
	DB	0ffH
	DB	040H
	DB	044H
	DB	048H
	DB	0ffH
	DB	040H
	DB	044H
	DB	040H
	DB	0ffH
	DB	048H
	DB	044H
	DB	040H
	DB	0ffH
	DB	040H
	DB	044H
	DB	048H
	DB	0ffH
	DB	040H
	DB	044H
	DB	048H
	DB	0ffH
	DB	048H
	DB	044H
	DB	040H
	DB	0ffH
	DB	048H
	DB	044H
	DB	048H
	DB	0ffH
	DB	040H
	DB	044H
	DB	040H
	DB	0ffH
	DB	040H
	DB	040H
	DB	040H
	DB	0ffH
	DB	040H
	DB	040H
	DB	040H
	DB	0ffH
	DB	040H
	DB	040H
	DB	040H
	DB	0ffH
	DB	040H
	DB	03cH
	DB	038H
	DB	0ffH
	DB	038H
	DB	03cH
	DB	038H
	DB	0ffH
	DB	038H
	DB	038H
	DB	038H
	DB	0ffH
	DB	038H
	DB	038H
	DB	038H
	DB	0ffH
	DB	038H
	DB	034H
	DB	038H
	DB	0ffH
	DB	038H
	DB	034H
	DB	030H
	DB	0ffH
	DB	030H
	DB	034H
	DB	030H
	DB	0ffH
	DB	030H
	DB	034H
	DB	030H
	DB	0ffH
	DB	038H
	DB	034H
	DB	030H
	DB	0ffH
	DB	038H
	DB	034H
	DB	038H
	DB	0ffH
	DB	038H
	DB	038H
	DB	038H
	DB	0ffH
	DB	038H
	DB	038H
	DB	038H
	DB	0ffH
	DB	038H
	DB	03cH
	DB	038H
	DB	0ffH
	DB	040H
	DB	03cH
	DB	038H
	DB	0ffH
	DB	040H
	DB	040H
	DB	040H
	DB	0ffH
	DB	040H
	DB	040H
	DB	040H
	DB	0ffH
	DB	040H
	DB	040H
	DB	040H
	DB	0ffH
	DB	040H
	DB	044H
	DB	040H
	DB	0ffH
	DB	048H
	DB	044H
	DB	040H
	DB	0ffH
	DB	040H
	DB	044H
	DB	048H
	DB	0ffH
	DB	040H
	DB	044H
	DB	040H
	DB	0ffH
	DB	048H
	DB	044H
	DB	040H
	DB	0ffH
	DB	040H
	DB	044H
	DB	048H
	DB	0ffH
	DB	048H
	DB	044H
	DB	040H
	DB	0ffH
	DB	048H
	DB	044H
	DB	048H
	DB	0ffH
	DB	040H
	DB	044H
	DB	040H
	DB	0ffH
	DB	048H
	DB	044H
	DB	048H
	DB	0ffH
	DB	040H
	DB	044H
	DB	040H
	DB	0ffH
	DB	040H
	DB	044H
	DB	040H
	DB	0ffH
	DB	048H
	DB	044H
	DB	048H
	DB	0ffH
	DB	048H
	DB	044H
	DB	040H
	DB	0ffH
	DB	040H
	DB	044H
	DB	040H
	DB	0ffH
	DB	048H
	DB	044H
	DB	048H
	DB	0ffH
	DB	048H
	DB	044H
	DB	040H
	DB	0ffH
	DB	040H
	DB	044H
	DB	040H
	DB	0ffH
	DB	048H
	DB	044H
	DB	048H
	DB	0ffH
	DB	040H
	DB	044H
	DB	040H
	DB	0ffH
	DB	040H
	DB	044H
	DB	040H
	DB	0ffH
	DB	048H
	DB	044H
	DB	040H
	DB	0ffH
	DB	040H
	DB	044H
	DB	048H
	DB	0ffH
	DB	048H
	DB	044H
	DB	040H
	DB	0ffH
	DB	048H
	DB	044H
	DB	048H
	DB	0ffH
	DB	040H
	DB	044H
	DB	040H
	DB	0ffH
	DB	048H
	DB	044H
	DB	048H
	DB	0ffH
	DB	048H
	DB	044H
	DB	040H
	DB	0ffH
	DB	040H
	DB	044H
	DB	040H
	DB	0ffH
	DB	048H
	DB	044H
	DB	048H
	DB	0ffH
	DB	048H
	DB	044H
	DB	040H
	DB	0ffH
	DB	040H
	DB	044H
	DB	040H
	DB	0ffH
	DB	048H
	DB	044H
	DB	048H
	DB	0ffH
	DB	048H
	DB	044H
	DB	040H
	DB	0ffH
	DB	040H
	DB	044H
	DB	040H
	DB	0ffH
	DB	048H
	DB	044H
	DB	040H
	DB	0ffH
	DB	040H
	DB	044H
	DB	048H
	DB	0ffH
	DB	040H
	DB	044H
	DB	040H
	DB	0ffH
	DB	048H
	DB	044H
	DB	048H
	DB	0ffH
	DB	040H
	DB	044H
	DB	040H
	DB	0ffH
	DB	048H
	DB	044H
	DB	048H
	DB	0ffH
	DB	048H
	DB	044H
	DB	040H
	DB	0ffH
	DB	048H
	DB	044H
	DB	040H
	DB	0ffH
	DB	048H
	DB	044H
	DB	048H
	DB	0ffH
	DB	040H
	DB	044H
	DB	040H
	DB	0ffH
	DB	048H
	DB	044H
	DB	040H
	DB	0ffH
	DB	040H
	DB	044H
	DB	048H
	DB	0ffH
	DB	048H
	DB	044H
	DB	040H
	DB	0ffH
	DB	048H
	DB	044H
	DB	040H
	DB	0ffH
	DB	040H
	DB	044H
	DB	048H
	DB	0ffH
	DB	048H
	DB	044H
	DB	048H
	DB	0ffH
	DB	040H
	DB	044H
	DB	040H
	DB	0ffH
	DB	040H
	DB	044H
	DB	040H
	DB	0ffH
	DB	048H
	DB	044H
	DB	048H
	DB	0ffH
	DB	040H
	DB	044H
	DB	040H
	DB	0ffH
	DB	040H
	DB	044H
	DB	040H
	DB	0ffH
	DB	048H
	DB	044H
	DB	048H
	DB	0ffH
	DB	048H
	DB	044H
	DB	040H
	DB	0ffH
	DB	040H
	DB	044H
	DB	048H
	DB	0ffH
	DB	048H
	DB	044H
	DB	040H
	DB	0ffH
	DB	040H
	DB	044H
	DB	048H
	DB	0ffH
	DB	048H
	DB	044H
	DB	040H
	DB	0ffH
	DB	048H
	DB	044H
	DB	040H
	DB	0ffH
	DB	040H
	DB	044H
	DB	048H
	DB	0ffH
	DB	048H
	DB	044H
	DB	040H
	DB	0ffH
	DB	040H
	DB	044H
	DB	040H
	DB	0ffH
	DB	040H
	DB	044H
	DB	048H
	DB	0ffH
	DB	048H
	DB	044H
	DB	040H
	DB	0ffH
	DB	040H
	DB	044H
	DB	040H
	DB	0ffH
	DB	048H
	DB	044H
	DB	048H
	DB	0ffH
	DB	048H
	DB	044H
	DB	040H
	DB	0ffH
	DB	040H
	DB	044H
	DB	040H
	DB	0ffH
	DB	048H
	DB	044H
	DB	040H
	DB	0ffH
	DB	048H
	DB	044H
	DB	048H
	DB	0ffH
	DB	040H
	DB	044H
	DB	040H
	DB	0ffH
	DB	048H
	DB	044H
	DB	040H
	DB	0ffH
	DB	040H
	DB	044H
	DB	048H
	DB	0ffH
	DB	040H
	DB	044H
	DB	040H
	DB	0ffH
	DB	048H
	DB	044H
	DB	040H
	DB	0ffH
	DB	040H
	DB	044H
	DB	048H
	DB	0ffH
	DB	048H
	DB	044H
	DB	040H
	DB	0ffH
	DB	048H
	DB	044H
	DB	040H
	DB	0ffH
	DB	040H
	DB	044H
	DB	048H
	DB	0ffH
	DB	048H
	DB	044H
	DB	040H
	DB	0ffH
	DB	048H
	DB	044H
	DB	040H
	DB	0ffH
	DB	040H
	DB	044H
	DB	048H
	DB	0ffH
	DB	048H
	DB	044H
	DB	040H
	DB	0ffH
	DB	048H
	DB	044H
	DB	040H
	DB	0ffH
	DB	040H
	DB	044H
	DB	048H
	DB	0ffH
	DB	048H
	DB	044H
	DB	040H
	DB	0ffH
	DB	040H
	DB	044H
	DB	048H
	DB	0ffH
	DB	040H
	DB	044H
	DB	040H
	DB	0ffH
	DB	048H
	DB	044H
	DB	048H
	DB	0ffH
	DB	040H
	DB	044H
	DB	040H
	DB	0ffH
	DB	048H
	DB	044H
	DB	040H
	DB	0ffH
	DB	040H
	DB	044H
	DB	048H
	DB	0ffH
	DB	048H
	DB	044H
	DB	040H
	DB	0ffH
	DB	048H
	DB	044H
	DB	040H
	DB	0ffH
	DB	040H
	DB	044H
	DB	048H
	DB	0ffH
	DB	040H
	DB	044H
	DB	040H
	DB	0ffH
	DB	048H
	DB	044H
	DB	040H
	DB	0ffH
	DB	040H
	DB	044H
	DB	048H
	DB	0ffH
	DB	048H
	DB	044H
	DB	040H
	DB	0ffH
	DB	040H
	DB	044H
	DB	040H
	DB	0ffH
	DB	048H
	DB	044H
	DB	048H
	DB	0ffH
	DB	048H
	DB	044H
	DB	040H
	DB	0ffH
	DB	040H
	DB	044H
	DB	040H
	DB	0ffH
	DB	040H
	DB	044H
	DB	048H
	DB	0ffH
	DB	048H
	DB	044H
	DB	040H
	DB	0ffH
	DB	040H
	DB	044H
	DB	040H
	DB	0ffH
	DB	040H
	DB	044H
	DB	040H
	DB	0ffH
	DB	040H
	DB	040H
	DB	040H
	DB	0ffH
	DB	040H
	DB	040H
	DB	040H
	DB	0ffH
	DB	040H
	DB	03cH
	DB	040H
	DB	0ffH
	DB	038H
	DB	03cH
	DB	038H
	DB	0ffH
	DB	038H
	DB	038H
	DB	038H
	DB	0ffH
	DB	038H
	DB	038H
	DB	038H
	DB	0ffH
	DB	038H
	DB	034H
	DB	030H
	DB	0ffH
	DB	030H
	DB	034H
	DB	030H
	DB	0ffH
	DB	030H
	DB	034H
	DB	030H
	DB	0ffH
	DB	030H
	DB	034H
	DB	030H
	DB	0ffH
	DB	038H
	DB	034H
	DB	030H
	DB	0ffH
	DB	038H
	DB	034H
	DB	038H
	DB	0ffH
	DB	038H
	DB	038H
	DB	038H
	DB	0ffH
	DB	038H
	DB	038H
	DB	038H
	DB	0ffH
	DB	038H
	DB	03cH
	DB	038H
	DB	0ffH
	DB	040H
	DB	03cH
	DB	038H
	DB	0ffH
	DB	040H
	DB	040H
	DB	040H
	DB	0ffH
	DB	040H
	DB	040H
	DB	040H
	DB	0ffH
	DB	040H
	DB	040H
	DB	040H
	DB	0ffH
	DB	048H
	DB	044H
	DB	040H
	DB	0ffH
	DB	048H
	DB	044H
	DB	048H
	DB	0ffH
	DB	040H
	DB	044H
	DB	040H
	DB	0ffH
	DB	048H
	DB	044H
	DB	040H
	DB	0ffH
	DB	048H
	DB	044H
	DB	048H
	DB	0ffH
	DB	040H
	DB	044H
	DB	040H
	DB	0ffH
	DB	040H
	DB	044H
	DB	040H
	DB	0ffH
	DB	048H
	DB	044H
	DB	048H
	DB	0ffH
	DB	040H
	DB	044H
	DB	040H
	DB	0ffH
	DB	048H
	DB	044H
	DB	040H
	DB	0ffH
	DB	048H
	DB	044H
	DB	048H
	DB	0ffH
	DB	040H
	DB	044H
	DB	040H
	DB	0ffH
	DB	040H
	DB	044H
	DB	048H
	DB	0ffH
	DB	048H
	DB	044H
	DB	048H
	DB	0ffH
	DB	040H
	DB	044H
	DB	040H
	DB	0ffH
	DB	040H
	DB	044H
	DB	048H
	DB	0ffH
	DB	048H
	DB	044H
	DB	040H
	DB	0ffH
	DB	040H
	DB	044H
	DB	048H
	DB	0ffH
	DB	048H
	DB	044H
	DB	040H
	DB	0ffH
	DB	048H
	DB	044H
	DB	048H
	DB	0ffH
	DB	040H
	DB	044H
	DB	040H
	DB	0ffH
	DB	040H
	DB	044H
	DB	048H
	DB	0ffH
	DB	048H
	DB	044H
	DB	040H
	DB	0ffH
	DB	040H
	DB	044H
	DB	040H
	DB	0ffH
	DB	040H
	DB	044H
	DB	040H
	DB	0ffH
	DB	048H
	DB	044H
	DB	048H
	DB	0ffH
	DB	040H
	DB	044H
	DB	040H
	DB	0ffH
	DB	040H
	DB	044H
	DB	040H
	DB	0ffH
	DB	048H
	DB	044H
	DB	048H
	DB	0ffH
	DB	040H
	DB	044H
	DB	040H
	DB	0ffH
	DB	040H
	DB	044H
	DB	048H
	DB	0ffH
	DB	048H
	DB	044H
	DB	040H
	DB	0ffH
	DB	040H
	DB	044H
	DB	040H
	DB	0ffH
	DB	040H
	DB	044H
	DB	048H
	DB	0ffH
	DB	048H
	DB	044H
	DB	040H
	DB	0ffH
	DB	048H
	DB	044H
	DB	040H
	DB	0ffH
	DB	040H
	DB	044H
	DB	048H
	DB	0ffH
	DB	048H
	DB	044H
	DB	040H
	DB	0ffH
	DB	040H
	DB	044H
	DB	040H
	DB	0ffH
	DB	040H
	DB	044H
	DB	048H
	DB	0ffH
	DB	040H
	DB	044H
	DB	040H
	DB	0ffH
	DB	040H
	DB	044H
	DB	040H
	DB	0ffH
	DB	048H
	DB	044H
	DB	048H
	DB	0ffH
	DB	040H
	DB	044H
	DB	040H
	DB	0ffH
	DB	048H
	DB	044H
	DB	048H
	DB	0ffH
	DB	040H
	DB	044H
	DB	040H
	DB	0ffH
	DB	048H
	DB	044H
	DB	040H
	DB	0ffH
	DB	040H
	DB	044H
	DB	048H
	DB	0ffH
	DB	040H
	DB	044H
	DB	040H
	DB	0ffH
	DB	048H
	DB	044H
	DB	040H
	DB	0ffH
	DB	048H
	DB	044H
	DB	048H
	DB	0ffH
	DB	040H
	DB	044H
	DB	040H
	DB	0ffH
	DB	048H
	DB	044H
	DB	040H
	DB	0ffH
	DB	048H
	DB	044H
	DB	048H
	DB	0ffH
	DB	040H
	DB	044H
	DB	040H
	DB	0ffH
	DB	048H
	DB	044H
	DB	040H
	DB	0ffH
	DB	040H
	DB	044H
	DB	048H
	DB	0ffH
	DB	040H
	DB	044H
	DB	040H
	DB	0ffH
	DB	048H
	DB	044H
	DB	040H
	DB	0ffH
	DB	040H
	DB	044H
	DB	048H
	DB	0ffH
	DB	040H
	DB	044H
	DB	040H
	DB	0ffH
	DB	048H
	DB	044H
	DB	048H
	DB	0ffH
	DB	040H
	DB	044H
	DB	040H
	DB	0ffH
	DB	048H
	DB	044H
	DB	040H
	DB	0ffH
	DB	048H
	DB	044H
	DB	048H
	DB	0ffH
	DB	040H
	DB	044H
	DB	040H
	DB	0ffH
	DB	048H
	DB	044H
	DB	048H
	DB	0ffH
	DB	040H
	DB	044H
	DB	040H
	DB	0ffH
	DB	040H
	DB	044H
	DB	048H
	DB	0ffH
	DB	048H
	DB	044H
	DB	040H
	DB	0ffH
	DB	040H
	DB	044H
	DB	048H
	DB	0ffH
	DB	040H
	DB	044H
	DB	040H
	DB	0ffH
	DB	048H
	DB	044H
	DB	048H
	DB	0ffH
	DB	040H
	DB	044H
	DB	040H
	DB	0ffH
	DB	048H
	DB	044H
	DB	048H
	DB	0ffH
	DB	048H
	DB	044H
	DB	040H
	DB	0ffH
	DB	040H
	DB	044H
	DB	040H
	DB	0ffH
	DB	048H
	DB	044H
	DB	048H
	DB	0ffH
	DB	040H
	DB	044H
	DB	040H
	DB	0ffH
	DB	040H
	DB	044H
	DB	048H
	DB	0ffH
	DB	048H
	DB	044H
	DB	040H
	DB	0ffH
	DB	040H
	DB	044H
	DB	048H
	DB	0ffH
	DB	040H
	DB	044H
	DB	040H
	DB	0ffH
	DB	048H
	DB	044H
	DB	040H
	DB	0ffH
	DB	040H
	DB	044H
	DB	048H
	DB	0ffH
	DB	040H
	DB	044H
	DB	040H
	DB	0ffH
	DB	048H
	DB	044H
	DB	048H
	DB	0ffH
	DB	040H
	DB	044H
	DB	040H
	DB	0ffH
	DB	048H
	DB	044H
	DB	040H
	DB	0ffH
	DB	048H
	DB	044H
	DB	048H
	DB	0ffH
	DB	040H
	DB	044H
	DB	040H
	DB	0ffH
	DB	048H
	DB	044H
	DB	040H
	DB	0ffH
	DB	040H
	DB	044H
	DB	048H
	DB	0ffH
	DB	048H
	DB	044H
	DB	040H
	DB	0ffH
	DB	040H
	DB	044H
	DB	040H
	DB	0ffH
	DB	048H
	DB	044H
	DB	048H
	DB	0ffH
	DB	040H
	DB	044H
	DB	040H
	DB	0ffH
	DB	048H
	DB	044H
	DB	040H
	DB	0ffH
	DB	048H
	DB	044H
	DB	048H
	DB	0ffH
	DB	040H
	DB	044H
	DB	040H
	DB	0ffH
	DB	048H
	DB	044H
	DB	040H
	DB	0ffH
	DB	040H
	DB	044H
	DB	048H
	DB	0ffH
	DB	048H
	DB	044H
	DB	040H
	DB	0ffH
	DB	040H
	DB	044H
	DB	048H
	DB	0ffH
	DB	040H
	DB	044H
	DB	040H
	DB	0ffH
	DB	048H
	DB	044H
	DB	040H
	DB	0ffH
	DB	048H
	DB	044H
	DB	040H
	DB	0ffH
	DB	040H
	DB	044H
	DB	048H
	DB	0ffH
	DB	048H
	DB	044H
	DB	040H
	DB	0ffH
	DB	048H
	DB	044H
	DB	040H
	DB	0ffH
	DB	040H
	DB	040H
	DB	040H
	DB	0ffH
	DB	040H
	DB	040H
	DB	040H
	DB	0ffH
	DB	040H
	DB	040H
	DB	040H
	DB	0ffH
	DB	040H
	DB	03cH
	DB	038H
	DB	0ffH
	DB	038H
	DB	03cH
	DB	038H
	DB	0ffH
	DB	038H
	DB	038H
	DB	038H
	DB	0ffH
	DB	038H
	DB	038H
	DB	038H
	DB	0ffH
	DB	038H
	DB	038H
	DB	038H
	DB	0ffH
	DB	038H
	DB	034H
	DB	030H
	DB	0ffH
	DB	030H
	DB	034H
	DB	030H
	DB	0ffH
	DB	030H
	DB	034H
	DB	030H
	DB	0ffH
	DB	030H
	DB	034H
	DB	030H
	DB	0ffH
	DB	038H
	DB	034H
	DB	038H
	DB	0ffH
	DB	038H
	DB	038H
	DB	038H
	DB	0ffH
	DB	038H
	DB	038H
	DB	038H
	DB	0ffH
	DB	038H
	DB	03cH
	DB	038H
	DB	0ffH
	DB	040H
	DB	03cH
	DB	040H
	DB	0ffH
	DB	040H
	DB	040H
	DB	040H
	DB	0ffH
	DB	040H
	DB	040H
	DB	040H
	DB	0ffH
	DB	040H
	DB	044H
	DB	040H
	DB	0ffH
	DB	040H
	DB	044H
	DB	040H
	DB	0ffH
	DB	048H
	DB	044H
	DB	048H
	DB	0ffH
	DB	040H
	DB	044H
	DB	040H
	DB	0ffH
	DB	048H
	DB	044H
	DB	048H
	DB	0ffH
	DB	040H
	DB	044H
	DB	040H
	DB	0ffH
	DB	048H
	DB	044H
	DB	040H
	DB	0ffH
	DB	040H
	DB	044H
	DB	048H
	DB	0ffH
	DB	040H
	DB	044H
	DB	040H
	DB	0ffH
	DB	048H
	DB	044H
	DB	040H
	DB	0ffH
	DB	040H
	DB	044H
	DB	048H
	DB	0ffH
	DB	048H
	DB	044H
	DB	040H
	DB	0ffH
	DB	048H
	DB	044H
	DB	040H
	DB	0ffH
	DB	040H
	DB	044H
	DB	040H
	DB	0ffH
	DB	048H
	DB	044H
	DB	040H
	DB	0ffH
	DB	040H
	DB	044H
	DB	048H
	DB	0ffH
	DB	048H
	DB	044H
	DB	040H
	DB	0ffH
	DB	040H
	DB	044H
	DB	040H
	DB	0ffH
	DB	040H
	DB	044H
	DB	040H
	DB	0ffH
	DB	048H
	DB	044H
	DB	048H
	DB	0ffH
	DB	048H
	DB	044H
	DB	040H
	DB	0ffH
	DB	040H
	DB	044H
	DB	048H
	DB	0ffH
	DB	048H
	DB	044H
	DB	040H
	DB	0ffH
	DB	048H
	DB	044H
	DB	048H
	DB	0ffH
	DB	040H
	DB	044H
	DB	040H
	DB	0ffH
	DB	048H
	DB	044H
	DB	048H
	DB	0ffH
	DB	048H
	DB	044H
	DB	040H
	DB	0ffH
	DB	040H
	DB	044H
	DB	040H
	DB	0ffH
	DB	048H
	DB	044H
	DB	048H
	DB	0ffH
	DB	048H
	DB	044H
	DB	040H
	DB	0ffH
	DB	040H
	DB	044H
	DB	040H
	DB	0ffH
	DB	048H
	DB	044H
	DB	048H
	DB	0ffH
	DB	048H
	DB	044H
	DB	040H
	DB	0ffH
	DB	040H
	DB	044H
	DB	048H
	DB	0ffH
	DB	040H
	DB	044H
	DB	048H
	DB	0ffH
	DB	048H
	DB	044H
	DB	040H
	DB	0ffH
	DB	040H
	DB	044H
	DB	048H
	DB	0ffH
	DB	048H
	DB	044H
	DB	040H
	DB	0ffH
	DB	048H
	DB	044H
	DB	040H
	DB	0ffH
	DB	048H
	DB	044H
	DB	048H
	DB	0ffH
	DB	048H
	DB	044H
	DB	040H
	DB	0ffH
	DB	040H
	DB	044H
	DB	040H
	DB	0ffH
	DB	048H
	DB	044H
	DB	048H
	DB	0ffH
	DB	040H
	DB	044H
	DB	040H
	DB	0ffH
	DB	040H
	DB	044H
	DB	040H
	DB	0ffH
	DB	048H
	DB	044H
	DB	048H
	DB	0ffH
	DB	048H
	DB	044H
	DB	040H
	DB	0ffH
	DB	040H
	DB	044H
	DB	048H
	DB	0ffH
	DB	048H
	DB	044H
	DB	040H
	DB	0ffH
	DB	040H
	DB	044H
	DB	040H
	DB	0ffH
	DB	048H
	DB	044H
	DB	048H
	DB	0ffH
	DB	040H
	DB	044H
	DB	040H
	DB	0ffH
	DB	048H
	DB	044H
	DB	040H
	DB	0ffH
	DB	040H
	DB	044H
	DB	048H
	DB	0ffH
	DB	048H
	DB	044H
	DB	040H
	DB	0ffH
	DB	048H
	DB	044H
	DB	048H
	DB	0ffH
	DB	040H
	DB	044H
	DB	040H
	DB	0ffH
	DB	048H
	DB	044H
	DB	040H
	DB	0ffH
	DB	048H
	DB	044H
	DB	048H
	DB	0ffH
	DB	040H
	DB	044H
	DB	040H
	DB	0ffH
	DB	048H
	DB	044H
	DB	040H
	DB	0ffH
	DB	048H
	DB	044H
	DB	048H
	DB	0ffH
	DB	040H
	DB	044H
	DB	040H
	DB	0ffH
	DB	040H
	DB	044H
	DB	040H
	DB	0ffH
	DB	048H
	DB	044H
	DB	048H
	DB	0ffH
	DB	040H
	DB	044H
	DB	040H
	DB	0ffH
	DB	048H
	DB	044H
	DB	040H
	DB	0ffH
	DB	048H
	DB	044H
	DB	040H
	DB	0ffH
	DB	040H
	DB	044H
	DB	048H
	DB	0ffH
	DB	048H
	DB	044H
	DB	040H
	DB	0ffH
	DB	048H
	DB	044H
	DB	040H
	DB	0ffH
	DB	040H
	DB	044H
	DB	040H
	DB	0ffH
	DB	048H
	DB	044H
	DB	048H
	DB	0ffH
	DB	040H
	DB	044H
	DB	040H
	DB	0ffH
	DB	040H
	DB	044H
	DB	040H
	DB	0ffH
	DB	048H
	DB	044H
	DB	048H
	DB	0ffH
	DB	040H
	DB	044H
	DB	040H
	DB	0ffH
	DB	048H
	DB	044H
	DB	040H
	DB	0ffH
	DB	048H
	DB	044H
	DB	048H
	DB	0ffH
	DB	040H
	DB	044H
	DB	040H
	DB	0ffH
	DB	048H
	DB	044H
	DB	040H
	DB	0ffH
	DB	048H
	DB	044H
	DB	048H
	DB	0ffH
	DB	040H
	DB	044H
	DB	040H
	DB	0ffH
	DB	048H
	DB	044H
	DB	040H
	DB	0ffH
	DB	048H
	DB	044H
	DB	048H
	DB	0ffH
	DB	040H
	DB	044H
	DB	040H
	DB	0ffH
	DB	048H
	DB	044H
	DB	040H
	DB	0ffH
	DB	040H
	DB	044H
	DB	048H
	DB	0ffH
	DB	040H
	DB	044H
	DB	040H
	DB	0ffH
	DB	048H
	DB	044H
	DB	040H
	DB	0ffH
	DB	040H
	DB	044H
	DB	048H
	DB	0ffH
	DB	048H
	DB	044H
	DB	040H
	DB	0ffH
	DB	048H
	DB	044H
	DB	040H
	DB	0ffH
	DB	040H
	DB	044H
	DB	048H
	DB	0ffH
	DB	040H
	DB	044H
	DB	040H
	DB	0ffH
	DB	048H
	DB	044H
	DB	048H
	DB	0ffH
	DB	040H
	DB	044H
	DB	040H
	DB	0ffH
	DB	040H
	DB	044H
	DB	048H
	DB	0ffH
	DB	048H
	DB	044H
	DB	040H
	DB	0ffH
	DB	040H
	DB	044H
	DB	040H
	DB	0ffH
	DB	048H
	DB	044H
	DB	048H
	DB	0ffH
	DB	040H
	DB	044H
	DB	040H
	DB	0ffH
	DB	048H
	DB	044H
	DB	040H
	DB	0ffH
	DB	048H
	DB	044H
	DB	048H
	DB	0ffH
	DB	040H
	DB	044H
	DB	040H
	DB	0ffH
	DB	040H
	DB	044H
	DB	048H
	DB	0ffH
	DB	048H
	DB	044H
	DB	040H
	DB	0ffH
	DB	040H
	DB	044H
	DB	048H
	DB	0ffH
	DB	040H
	DB	044H
	DB	040H
	DB	0ffH
	DB	048H
	DB	044H
	DB	048H
	DB	0ffH
	DB	040H
	DB	044H
	DB	040H
	DB	0ffH
	DB	040H
	DB	040H
	DB	040H
	DB	0ffH
	DB	040H
	DB	040H
	DB	040H
	DB	0ffH
	DB	040H
	DB	040H
	DB	040H
	DB	0ffH
	DB	040H
	DB	03cH
	DB	040H
	DB	0ffH
	DB	038H
	DB	03cH
	DB	038H
	DB	0ffH
	DB	038H
	DB	038H
	DB	038H
	DB	0ffH
	DB	038H
	DB	038H
	DB	038H
	DB	0ffH
	DB	038H
	DB	034H
	DB	038H
	DB	0ffH
	DB	030H
	DB	034H
	DB	030H
	DB	0ffH
	DB	030H
	DB	034H
	DB	030H
	DB	0ffH
	DB	030H
	DB	034H
	DB	030H
	DB	0ffH
	DB	038H
	DB	034H
	DB	030H
	DB	0ffH
	DB	038H
	DB	034H
	DB	038H
	DB	0ffH
	DB	038H
	DB	038H
	DB	038H
	DB	0ffH
	DB	038H
	DB	038H
	DB	038H
	DB	0ffH
	DB	038H
	DB	03cH
	DB	038H
	DB	0ffH
	DB	040H
	DB	03cH
	DB	038H
	DB	0ffH
	DB	040H
	DB	040H
	DB	040H
	DB	0ffH
	DB	040H
	DB	040H
	DB	040H
	DB	0ffH
	DB	040H
	DB	044H
	DB	040H
	DB	0ffH
	DB	040H
	DB	044H
	DB	040H
	DB	0ffH
	DB	048H
	DB	044H
	DB	040H
	DB	0ffH
	DB	040H
	DB	044H
	DB	048H
	DB	0ffH
	DB	040H
	DB	044H
	DB	040H
	DB	0ffH
	DB	048H
	DB	044H
	DB	040H
	DB	0ffH
	DB	048H
	DB	044H
	DB	048H
	DB	0ffH
	DB	040H
	DB	044H
	DB	040H
	DB	0ffH
	DB	048H
	DB	044H
	DB	040H
	DB	0ffH
	DB	040H
	DB	044H
	DB	048H
	DB	0ffH
	DB	040H
	DB	044H
	DB	048H
	DB	0ffH
	DB	040H
	DB	044H
	DB	040H
	DB	0ffH
	DB	048H
	DB	044H
	DB	048H
	DB	0ffH
	DB	040H
	DB	044H
	DB	040H
	DB	0ffH
	DB	048H
	DB	044H
	DB	040H
	DB	0ffH
	DB	048H
	DB	044H
	DB	048H
	DB	0ffH
	DB	040H
	DB	044H
	DB	040H
	DB	0ffH
	DB	048H
	DB	044H
	DB	040H
	DB	0ffH
	DB	048H
	DB	044H
	DB	048H
	DB	0ffH
	DB	040H
	DB	044H
	DB	040H
	DB	0ffH
	DB	040H
	DB	044H
	DB	040H
	DB	0ffH
	DB	048H
	DB	044H
	DB	040H
	DB	0ffH
	DB	040H
	DB	044H
	DB	048H
	DB	0ffH
	DB	040H
	DB	044H
	DB	040H
	DB	0ffH
	DB	048H
	DB	044H
	DB	040H
	DB	0ffH
	DB	040H
	DB	044H
	DB	048H
	DB	0ffH
	DB	040H
	DB	044H
	DB	040H
	DB	0ffH
	DB	048H
	DB	044H
	DB	048H
	DB	0ffH
	DB	040H
	DB	044H
	DB	040H
	DB	0ffH
	DB	040H
	DB	044H
	DB	040H
	DB	0ffH
	DB	048H
	DB	044H
	DB	048H
	DB	0ffH
	DB	040H
	DB	044H
	DB	040H
	DB	0ffH
	DB	048H
	DB	044H
	DB	040H
	DB	0ffH
	DB	048H
	DB	044H
	DB	040H
	DB	0ffH
	DB	040H
	DB	044H
	DB	040H
	DB	0ffH
	DB	048H
	DB	044H
	DB	040H
	DB	0ffH
	DB	040H
	DB	044H
	DB	048H
	DB	0ffH
	DB	040H
	DB	044H
	DB	040H
	DB	0ffH
	DB	040H
	DB	044H
	DB	040H
	DB	0ffH
	DB	048H
	DB	044H
	DB	048H
	DB	0ffH
	DB	040H
	DB	044H
	DB	040H
	DB	0ffH
	DB	048H
	DB	044H
	DB	048H
	DB	0ffH
	DB	048H
	DB	044H
	DB	040H
	DB	0ffH
	DB	040H
	DB	044H
	DB	040H
	DB	0ffH
	DB	048H
	DB	044H
	DB	048H
	DB	0ffH
	DB	040H
	DB	044H
	DB	040H
	DB	0ffH
	DB	040H
	DB	044H
	DB	040H
	DB	0ffH
	DB	048H
	DB	044H
	DB	048H
	DB	0ffH
	DB	048H
	DB	044H
	DB	040H
	DB	0ffH
	DB	040H
	DB	044H
	DB	048H
	DB	0ffH
	DB	040H
	DB	044H
	DB	040H
	DB	0ffH
	DB	048H
	DB	044H
	DB	040H
	DB	0ffH
	DB	040H
	DB	044H
	DB	048H
	DB	0ffH
	DB	040H
	DB	044H
	DB	040H
	DB	0ffH
	DB	040H
	DB	044H
	DB	040H
	DB	0ffH
	DB	048H
	DB	044H
	DB	048H
	DB	0ffH
	DB	040H
	DB	044H
	DB	040H
	DB	0ffH
	DB	040H
	DB	044H
	DB	040H
	DB	0ffH
	DB	048H
	DB	044H
	DB	048H
	DB	0ffH
	DB	040H
	DB	044H
	DB	040H
	DB	0ffH
	DB	048H
	DB	044H
	DB	040H
	DB	0ffH
	DB	040H
	DB	044H
	DB	048H
	DB	0ffH
	DB	048H
	DB	044H
	DB	040H
	DB	0ffH
	DB	048H
	DB	044H
	DB	048H
	DB	0ffH
	DB	040H
	DB	044H
	DB	040H
	DB	0ffH
	DB	040H
	DB	044H
	DB	048H
	DB	0ffH
	DB	048H
	DB	044H
	DB	040H
	DB	0ffH
	DB	040H
	DB	044H
	DB	048H
	DB	0ffH
	DB	040H
	DB	044H
	DB	040H
	DB	0ffH
	DB	048H
	DB	044H
	DB	040H
	DB	0ffH
	DB	040H
	DB	044H
	DB	048H
	DB	0ffH
	DB	048H
	DB	044H
	DB	040H
	DB	0ffH
	DB	048H
	DB	044H
	DB	048H
	DB	0ffH
	DB	040H
	DB	044H
	DB	040H
	DB	0ffH
	DB	048H
	DB	044H
	DB	040H
	DB	0ffH
	DB	040H
	DB	044H
	DB	048H
	DB	0ffH
	DB	040H
	DB	044H
	DB	040H
	DB	0ffH
	DB	048H
	DB	044H
	DB	048H
	DB	0ffH
	DB	040H
	DB	044H
	DB	040H
	DB	0ffH
	DB	048H
	DB	044H
	DB	040H
	DB	0ffH
	DB	040H
	DB	044H
	DB	048H
	DB	0ffH
	DB	040H
	DB	044H
	DB	040H
	DB	0ffH
	DB	048H
	DB	044H
	DB	040H
	DB	0ffH
	DB	040H
	DB	044H
	DB	048H
	DB	0ffH
	DB	040H
	DB	044H
	DB	048H
	DB	0ffH
	DB	048H
	DB	044H
	DB	040H
	DB	0ffH
	DB	048H
	DB	044H
	DB	040H
	DB	0ffH
	DB	040H
	DB	044H
	DB	048H
	DB	0ffH
	DB	048H
	DB	044H
	DB	040H
	DB	0ffH
	DB	040H
	DB	044H
	DB	048H
	DB	0ffH
	DB	040H
	DB	044H
	DB	040H
	DB	0ffH
	DB	048H
	DB	044H
	DB	048H
	DB	0ffH
	DB	040H
	DB	044H
	DB	040H
	DB	0ffH
	DB	048H
	DB	044H
	DB	040H
	DB	0ffH
	DB	048H
	DB	044H
	DB	048H
	DB	0ffH
	DB	040H
	DB	044H
	DB	040H
	DB	0ffH
	DB	048H
	DB	044H
	DB	040H
	DB	0ffH
	DB	048H
	DB	044H
	DB	048H
	DB	0ffH
	DB	040H
	DB	044H
	DB	040H
	DB	0ffH
	DB	040H
	DB	044H
	DB	048H
	DB	0ffH
	DB	048H
	DB	044H
	DB	040H
	DB	0ffH
	DB	040H
	DB	044H
	DB	048H
	DB	0ffH
	DB	040H
	DB	044H
	DB	040H
	DB	0ffH
	DB	048H
	DB	044H
	DB	040H
	DB	0ffH
	DB	048H
	DB	044H
	DB	048H
	DB	0ffH
	DB	040H
	DB	044H
	DB	040H
	DB	0ffH
	DB	048H
	DB	044H
	DB	040H
	DB	0ffH
	DB	048H
	DB	044H
	DB	048H
	DB	0ffH
	DB	040H
	DB	044H
	DB	040H
	DB	0ffH
	DB	048H
	DB	044H
	DB	040H
	DB	0ffH
	DB	040H
	DB	044H
	DB	048H
	DB	0ffH
	DB	040H
	DB	044H
	DB	040H
	DB	0ffH
	DB	040H
	DB	040H
	DB	040H
	DB	0ffH
	DB	040H
	DB	040H
	DB	040H
	DB	0ffH
	DB	040H
	DB	03cH
	DB	040H
	DB	0ffH
	DB	038H
	DB	03cH
	DB	038H
	DB	0ffH
	DB	038H
	DB	038H
	DB	038H
	DB	0ffH
	DB	038H
	DB	038H
	DB	038H
	DB	0ffH
	DB	038H
	DB	034H
	DB	038H
	DB	0ffH
	DB	038H
	DB	034H
	DB	030H
	DB	0ffH
	DB	030H
	DB	034H
	DB	030H
	DB	0ffH
	DB	030H
	DB	034H
	DB	030H
	DB	0ffH
	DB	030H
	DB	034H
	DB	030H
	DB	0ffH
	DB	038H
	DB	034H
	DB	038H
	DB	0ffH
	DB	038H
	DB	038H
	DB	038H
	DB	0ffH
	DB	038H
	DB	038H
	DB	038H
	DB	0ffH
	DB	038H
	DB	03cH
	DB	038H
	DB	0ffH
	DB	040H
	DB	03cH
	DB	038H
	DB	0ffH
	DB	040H
	DB	040H
	DB	040H
	DB	0ffH
	DB	040H
	DB	040H
	DB	040H
	DB	0ffH
	DB	040H
	DB	040H
	DB	040H
	DB	0ffH
	DB	048H
	DB	044H
	DB	040H
	DB	0ffH
	DB	048H
	DB	044H
	DB	048H
	DB	0ffH
	DB	040H
	DB	044H
	DB	040H
	DB	0ffH
	DB	048H
	DB	044H
	DB	040H
	DB	0ffH
	DB	040H
	DB	044H
	DB	048H
	DB	0ffH
	DB	040H
	DB	044H
	DB	048H
	DB	0ffH
	DB	048H
	DB	044H
	DB	040H
	DB	0ffH
	DB	048H
	DB	044H
	DB	040H
	DB	0ffH
	DB	048H
	DB	044H
	DB	048H
	DB	0ffH
	DB	040H
	DB	044H
	DB	040H
	DB	0ffH
	DB	048H
	DB	044H
	DB	040H
	DB	0ffH
	DB	040H
	DB	044H
	DB	048H
	DB	0ffH
	DB	040H
	DB	044H
	DB	048H
	DB	0ffH
	DB	048H
	DB	044H
	DB	040H
	DB	0ffH
	DB	040H
	DB	044H
	DB	040H
	DB	0ffH
	DB	040H
	DB	044H
	DB	048H
	DB	0ffH
	DB	048H
	DB	044H
	DB	048H
	DB	0ffH
	DB	048H
	DB	044H
	DB	040H
	DB	0ffH
	DB	040H
	DB	044H
	DB	048H
	DB	0ffH
	DB	048H
	DB	044H
	DB	040H
	DB	0ffH
	DB	048H
	DB	044H
	DB	040H
	DB	0ffH
	DB	040H
	DB	044H
	DB	048H
	DB	0ffH
	DB	048H
	DB	044H
	DB	040H
	DB	0ffH
	DB	048H
	DB	044H
	DB	040H
	DB	0ffH
	DB	040H
	DB	044H
	DB	048H
	DB	0ffH
	DB	048H
	DB	044H
	DB	040H
	DB	0ffH
	DB	048H
	DB	044H
	DB	040H
	DB	0ffH
	DB	040H
	DB	044H
	DB	048H
	DB	0ffH
	DB	048H
	DB	044H
	DB	040H
	DB	0ffH
	DB	040H
	DB	044H
	DB	048H
	DB	0ffH
	DB	040H
	DB	044H
	DB	040H
	DB	0ffH
	DB	048H
	DB	044H
	DB	048H
	DB	0ffH
	DB	040H
	DB	044H
	DB	048H
	DB	0ffH
	DB	048H
	DB	044H
	DB	040H
	DB	0ffH
	DB	048H
	DB	044H
	DB	040H
	DB	0ffH
	DB	040H
	DB	044H
	DB	048H
	DB	0ffH
	DB	048H
	DB	044H
	DB	040H
	DB	0ffH
	DB	040H
	DB	044H
	DB	048H
	DB	0ffH
	DB	040H
	DB	044H
	DB	040H
	DB	0ffH
	DB	048H
	DB	044H
	DB	040H
	DB	0ffH
	DB	040H
	DB	044H
	DB	048H
	DB	0ffH
	DB	040H
	DB	044H
	DB	040H
	DB	0ffH
	DB	048H
	DB	044H
	DB	048H
	DB	0ffH
	DB	048H
	DB	044H
	DB	040H
	DB	0ffH
	DB	040H
	DB	044H
	DB	040H
	DB	0ffH
	DB	040H
	DB	044H
	DB	048H
	DB	0ffH
	DB	048H
	DB	044H
	DB	040H
	DB	0ffH
	DB	040H
	DB	044H
	DB	040H
	DB	0ffH
	DB	048H
	DB	044H
	DB	048H
	DB	0ffH
	DB	048H
	DB	044H
	DB	040H
	DB	0ffH
	DB	040H
	DB	044H
	DB	048H
	DB	0ffH
	DB	048H
	DB	044H
	DB	040H
	DB	0ffH
	DB	048H
	DB	044H
	DB	040H
	DB	0ffH
	DB	040H
	DB	044H
	DB	048H
	DB	0ffH
	DB	048H
	DB	044H
	DB	040H
	DB	0ffH
	DB	048H
	DB	044H
	DB	048H
	DB	0ffH
	DB	040H
	DB	044H
	DB	040H
	DB	0ffH
	DB	040H
	DB	044H
	DB	048H
	DB	0ffH
	DB	048H
	DB	044H
	DB	040H
	DB	0ffH
	DB	040H
	DB	044H
	DB	048H
	DB	0ffH
	DB	040H
	DB	044H
	DB	040H
	DB	0ffH
	DB	048H
	DB	044H
	DB	040H
	DB	0ffH
	DB	040H
	DB	044H
	DB	048H
	DB	0ffH
	DB	040H
	DB	044H
	DB	040H
	DB	0ffH
	DB	048H
	DB	044H
	DB	040H
	DB	0ffH
	DB	048H
	DB	044H
	DB	048H
	DB	0ffH
	DB	040H
	DB	044H
	DB	040H
	DB	0ffH
	DB	048H
	DB	044H
	DB	048H
	DB	0ffH
	DB	040H
	DB	044H
	DB	040H
	DB	0ffH
	DB	040H
	DB	044H
	DB	048H
	DB	0ffH
	DB	048H
	DB	044H
	DB	040H
	DB	0ffH
	DB	040H
	DB	044H
	DB	040H
	DB	0ffH
	DB	048H
	DB	044H
	DB	048H
	DB	0ffH
	DB	048H
	DB	044H
	DB	040H
	DB	0ffH
	DB	040H
	DB	044H
	DB	040H
	DB	0ffH
	DB	048H
	DB	044H
	DB	048H
	DB	0ffH
	DB	040H
	DB	044H
	DB	040H
	DB	0ffH
	DB	048H
	DB	044H
	DB	040H
	DB	0ffH
	DB	040H
	DB	044H
	DB	048H
	DB	0ffH
	DB	048H
	DB	044H
	DB	040H
	DB	0ffH
	DB	048H
	DB	044H
	DB	040H
	DB	0ffH
	DB	040H
	DB	044H
	DB	048H
	DB	0ffH
	DB	048H
	DB	044H
	DB	040H
	DB	0ffH
	DB	040H
	DB	044H
	DB	040H
	DB	0ffH
	DB	040H
	DB	044H
	DB	048H
	DB	0ffH
	DB	048H
	DB	044H
	DB	040H
	DB	0ffH
	DB	048H
	DB	044H
	DB	040H
	DB	0ffH
	DB	040H
	DB	044H
	DB	048H
	DB	0ffH
	DB	048H
	DB	044H
	DB	040H
	DB	0ffH
	DB	048H
	DB	044H
	DB	040H
	DB	0ffH
	DB	040H
	DB	044H
	DB	048H
	DB	0ffH
	DB	040H
	DB	044H
	DB	040H
	DB	0ffH
	DB	048H
	DB	044H
	DB	040H
	DB	0ffH
	DB	040H
	DB	044H
	DB	048H
	DB	0ffH
	DB	040H
	DB	044H
	DB	040H
	DB	0ffH
	DB	048H
	DB	044H
	DB	040H
	DB	0ffH
	DB	048H
	DB	044H
	DB	048H
	DB	0ffH
	DB	040H
	DB	044H
	DB	040H
	DB	0ffH
	DB	048H
	DB	044H
	DB	040H
	DB	0ffH
	DB	048H
	DB	044H
	DB	048H
	DB	0ffH
	DB	040H
	DB	044H
	DB	040H
	DB	0ffH
	DB	040H
	DB	044H
	DB	040H
	DB	0ffH
	DB	048H
	DB	044H
	DB	048H
	DB	0ffH
	DB	040H
	DB	044H
	DB	040H
	DB	0ffH
	DB	048H
	DB	044H
	DB	040H
	DB	0ffH
	DB	040H
	DB	044H
	DB	048H
	DB	0ffH
	DB	040H
	DB	044H
	DB	040H
	DB	0ffH
	DB	048H
	DB	044H
	DB	040H
	DB	0ffH
	DB	048H
	DB	044H
	DB	048H
	DB	0ffH
	DB	040H
	DB	044H
	DB	040H
	DB	0ffH
	DB	040H
	DB	040H
	DB	040H
	DB	0ffH
	DB	040H
	DB	040H
	DB	040H
	DB	0ffH
	DB	040H
	DB	040H
	DB	040H
	DB	0ffH
	DB	040H
	DB	03cH
	DB	038H
	DB	0ffH
	DB	038H
	DB	03cH
	DB	038H
	DB	0ffH
	DB	038H
	DB	038H
	DB	038H
	DB	0ffH
	DB	038H
	DB	038H
	DB	038H
	DB	0ffH
	DB	038H
	DB	038H
	DB	038H
	DB	0ffH
	DB	030H
	DB	034H
	DB	030H
	DB	0ffH
	DB	030H
	DB	034H
	DB	030H
	DB	0ffH
	DB	030H
	DB	034H
	DB	030H
	DB	0ffH
	DB	038H
	DB	034H
	DB	038H
	DB	0ffH
	DB	038H
	DB	038H
	DB	038H
	DB	0ffH
	DB	038H
	DB	038H
	DB	030H
	DB	0ffH
	DB	038H
	DB	038H
	DB	038H
	DB	0ffH
	DB	038H
	DB	03cH
	DB	038H
	DB	0ffH
	DB	040H
	DB	03cH
	DB	040H
	DB	0ffH
	DB	040H
	DB	040H
	DB	040H
	DB	0ffH
	DB	040H
	DB	040H
	DB	040H
	DB	0ffH
	DB	040H
	DB	040H
	DB	040H
	DB	0ffH
	DB	040H
	DB	044H
	DB	040H
	DB	0ffH
	DB	048H
	DB	044H
	DB	048H
	DB	0ffH
	DB	048H
	DB	044H
	DB	040H
	DB	0ffH
	DB	040H
	DB	044H
	DB	040H
	DB	0ffH
	DB	048H
	DB	044H
	DB	048H
	DB	0ffH
	DB	040H
	DB	044H
	DB	040H
	DB	0ffH
	DB	040H
	DB	044H
	DB	040H
	DB	0ffH
	DB	048H
	DB	044H
	DB	048H
	DB	0ffH
	DB	040H
	DB	044H
	DB	040H
	DB	0ffH
	DB	048H
	DB	044H
	DB	040H
	DB	0ffH
	DB	048H
	DB	044H
	DB	040H
	DB	0ffH
	DB	040H
	DB	044H
	DB	040H
	DB	0ffH
	DB	048H
	DB	044H
	DB	048H
	DB	0ffH
	DB	048H
	DB	044H
	DB	040H
	DB	0ffH
	DB	040H
	DB	044H
	DB	040H
	DB	0ffH
	DB	040H
	DB	044H
	DB	048H
	DB	0ffH
	DB	048H
	DB	044H
	DB	040H
	DB	0ffH
	DB	040H
	DB	044H
	DB	040H
	DB	0ffH
	DB	040H
	DB	044H
	DB	048H
	DB	0ffH
	DB	048H
	DB	044H
	DB	040H
	DB	0ffH
	DB	040H
	DB	044H
	DB	048H
	DB	0ffH
	DB	040H
	DB	044H
	DB	040H
	DB	0ffH
	DB	048H
	DB	044H
	DB	040H
	DB	0ffH
	DB	040H
	DB	044H
	DB	048H
	DB	0ffH
	DB	040H
	DB	044H
	DB	040H
	DB	0ffH
	DB	048H
	DB	044H
	DB	040H
	DB	0ffH
	DB	040H
	DB	044H
	DB	048H
	DB	0ffH
	DB	048H
	DB	044H
	DB	040H
	DB	0ffH
	DB	048H
	DB	044H
	DB	040H
	DB	0ffH
	DB	040H
	DB	044H
	DB	048H
	DB	0ffH
	DB	048H
	DB	044H
	DB	040H
	DB	0ffH
	DB	040H
	DB	044H
	DB	040H
	DB	0ffH
	DB	040H
	DB	044H
	DB	048H
	DB	0ffH
	DB	048H
	DB	044H
	DB	040H
	DB	0ffH
	DB	040H
	DB	044H
	DB	048H
	DB	0ffH
	DB	048H
	DB	044H
	DB	040H
	DB	0ffH
	DB	048H
	DB	044H
	DB	040H
	DB	0ffH
	DB	048H
	DB	044H
	DB	048H
	DB	0ffH
	DB	040H
	DB	044H
	DB	040H
	DB	0ffH
	DB	048H
	DB	044H
	DB	040H
	DB	0ffH
	DB	048H
	DB	044H
	DB	048H
	DB	0ffH
	DB	040H
	DB	044H
	DB	040H
	DB	0ffH
	DB	048H
	DB	044H
	DB	040H
	DB	0ffH
	DB	040H
	DB	044H
	DB	048H
	DB	0ffH
	DB	048H
	DB	044H
	DB	040H
	DB	0ffH
	DB	048H
	DB	044H
	DB	048H
	DB	0ffH
	DB	040H
	DB	044H
	DB	040H
	DB	0ffH
	DB	040H
	DB	044H
	DB	040H
	DB	0ffH
	DB	048H
	DB	044H
	DB	048H
	DB	0ffH
	DB	040H
	DB	044H
	DB	040H
	DB	0ffH
	DB	040H
	DB	044H
	DB	040H
	DB	0ffH
	DB	048H
	DB	044H
	DB	048H
	DB	0ffH
	DB	048H
	DB	044H
	DB	040H
	DB	0ffH
	DB	040H
	DB	044H
	DB	040H
	DB	0ffH
	DB	040H
	DB	044H
	DB	048H
	DB	0ffH
	DB	048H
	DB	044H
	DB	040H
	DB	0ffH
	DB	048H
	DB	044H
	DB	040H
	DB	0ffH
	DB	040H
	DB	044H
	DB	048H
	DB	0ffH
	DB	048H
	DB	044H
	DB	040H
	DB	0ffH
	DB	048H
	DB	044H
	DB	040H
	DB	0ffH
	DB	040H
	DB	044H
	DB	048H
	DB	0ffH
	DB	048H
	DB	044H
	DB	040H
	DB	0ffH
	DB	048H
	DB	044H
	DB	040H
	DB	0ffH
	DB	040H
	DB	044H
	DB	048H
	DB	0ffH
	DB	048H
	DB	044H
	DB	040H
	DB	0ffH
	DB	040H
	DB	044H
	DB	040H
	DB	0ffH
	DB	048H
	DB	044H
	DB	048H
	DB	0ffH
	DB	048H
	DB	044H
	DB	040H
	DB	0ffH
	DB	040H
	DB	044H
	DB	040H
	DB	0ffH
	DB	048H
	DB	044H
	DB	048H
	DB	0ffH
	DB	040H
	DB	044H
	DB	040H
	DB	0ffH
	DB	040H
	DB	044H
	DB	040H
	DB	0ffH
	DB	048H
	DB	044H
	DB	048H
	DB	0ffH
	DB	040H
	DB	044H
	DB	040H
	DB	0ffH
	DB	048H
	DB	044H
	DB	040H
	DB	0ffH
	DB	048H
	DB	044H
	DB	048H
	DB	0ffH
	DB	040H
	DB	044H
	DB	040H
	DB	0ffH
	DB	040H
	DB	044H
	DB	048H
	DB	0ffH
	DB	048H
	DB	044H
	DB	048H
	DB	0ffH
	DB	040H
	DB	044H
	DB	040H
	DB	0ffH
	DB	048H
	DB	044H
	DB	048H
	DB	0ffH
	DB	040H
	DB	044H
	DB	040H
	DB	0ffH
	DB	048H
	DB	044H
	DB	040H
	DB	0ffH
	DB	048H
	DB	044H
	DB	048H
	DB	0ffH
	DB	040H
	DB	044H
	DB	040H
	DB	0ffH
	DB	040H
	DB	044H
	DB	048H
	DB	0ffH
	DB	048H
	DB	044H
	DB	040H
	DB	0ffH
	DB	040H
	DB	044H
	DB	040H
	DB	0ffH
	DB	040H
	DB	044H
	DB	048H
	DB	0ffH
	DB	048H
	DB	044H
	DB	040H
	DB	0ffH
	DB	048H
	DB	044H
	DB	040H
	DB	0ffH
	DB	040H
	DB	044H
	DB	048H
	DB	0ffH
	DB	048H
	DB	044H
	DB	048H
	DB	0ffH
	DB	048H
	DB	044H
	DB	040H
	DB	0ffH
	DB	040H
	DB	044H
	DB	040H
	DB	0ffH
	DB	040H
	DB	044H
	DB	048H
	DB	0ffH
	DB	048H
	DB	044H
	DB	040H
	DB	0ffH
	DB	040H
	DB	044H
	DB	040H
	DB	0ffH
	DB	040H
	DB	044H
	DB	048H
	DB	0ffH
	DB	048H
	DB	044H
	DB	040H
	DB	0ffH
	DB	048H
	DB	044H
	DB	040H
	DB	0ffH
	DB	048H
	DB	044H
	DB	048H
	DB	0ffH
	DB	040H
	DB	044H
	DB	040H
	DB	0ffH
	DB	048H
	DB	044H
	DB	040H
	DB	0ffH
	DB	040H
	DB	044H
	DB	048H
	DB	0ffH
	DB	048H
	DB	044H
	DB	040H
	DB	0ffH
	DB	040H
	DB	044H
	DB	048H
	DB	0ffH
	DB	048H
	DB	044H
	DB	040H
	DB	0ffH
	DB	040H
	DB	044H
	DB	048H
	DB	0ffH
	DB	048H
	DB	044H
	DB	040H
	DB	0ffH
	DB	040H
	DB	040H
	DB	040H
	DB	0ffH
	DB	040H
	DB	040H
	DB	040H
	DB	0ffH
	DB	040H
	DB	040H
	DB	040H
	DB	0ffH
	DB	040H
	DB	03cH
	DB	038H
	DB	0ffH
	DB	038H
	DB	03cH
	DB	038H
	DB	0ffH
	DB	038H
	DB	038H
	DB	038H
	DB	0ffH
	DB	038H
	DB	038H
	DB	038H
	DB	0ffH
	DB	038H
	DB	034H
	DB	038H
	DB	0ffH
	DB	038H
	DB	034H
	DB	030H
	DB	0ffH
	DB	030H
	DB	034H
	DB	030H
	DB	0ffH
	DB	030H
	DB	034H
	DB	030H
	DB	0ffH
	DB	038H
	DB	034H
	DB	030H
	DB	0ffH
	DB	038H
	DB	034H
	DB	038H
	DB	0ffH
	DB	038H
	DB	038H
	DB	038H
	DB	0ffH
	DB	038H
	DB	038H
	DB	038H
	DB	0ffH
	DB	038H
	DB	03cH
	DB	038H
	DB	0ffH
	DB	040H
	DB	03cH
	DB	040H
	DB	0ffH
	DB	040H
	DB	040H
	DB	040H
	DB	0ffH
	DB	040H
	DB	040H
	DB	040H
	DB	0ffH
	DB	040H
	DB	044H
	DB	040H
	DB	0ffH
	DB	040H
	DB	044H
	DB	040H
	DB	0ffH
	DB	048H
	DB	044H
	DB	048H
	DB	0ffH
	DB	040H
	DB	044H
	DB	040H
	DB	0ffH
	DB	040H
	DB	044H
	DB	040H
	DB	0ffH
	DB	048H
	DB	044H
	DB	048H
	DB	0ffH
	DB	048H
	DB	044H
	DB	040H
	DB	0ffH
	DB	040H
	DB	044H
	DB	040H
	DB	0ffH
	DB	040H
	DB	044H
	DB	048H
	DB	0ffH
	DB	048H
	DB	044H
	DB	040H
	DB	0ffH
	DB	040H
	DB	044H
	DB	048H
	DB	0ffH
	DB	040H
	DB	044H
	DB	048H
	DB	0ffH
	DB	048H
	DB	044H
	DB	040H
	DB	0ffH
	DB	040H
	DB	044H
	DB	040H
	DB	0ffH
	DB	048H
	DB	044H
	DB	048H
	DB	0ffH
	DB	048H
	DB	044H
	DB	040H
	DB	0ffH
	DB	040H
	DB	044H
	DB	040H
	DB	0ffH
	DB	048H
	DB	044H
	DB	040H
	DB	0ffH
	DB	040H
	DB	044H
	DB	048H
	DB	0ffH
	DB	048H
	DB	044H
	DB	040H
	DB	0ffH
	DB	040H
	DB	044H
	DB	040H
	DB	0ffH
	DB	048H
	DB	044H
	DB	048H
	DB	0ffH
	DB	048H
	DB	044H
	DB	040H
	DB	0ffH
	DB	040H
	DB	044H
	DB	048H
	DB	0ffH
	DB	048H
	DB	044H
	DB	040H
	DB	0ffH
	DB	048H
	DB	044H
	DB	040H
	DB	0ffH
	DB	040H
	DB	044H
	DB	048H
	DB	0ffH
	DB	040H
	DB	044H
	DB	048H
	DB	0ffH
	DB	048H
	DB	044H
	DB	040H
	DB	0ffH
	DB	040H
	DB	044H
	DB	040H
	DB	0ffH
	DB	048H
	DB	044H
	DB	048H
	DB	0ffH
	DB	048H
	DB	044H
	DB	040H
	DB	0ffH
	DB	040H
	DB	044H
	DB	040H
	DB	0ffH
	DB	048H
	DB	044H
	DB	040H
	DB	0ffH
	DB	040H
	DB	044H
	DB	048H
	DB	0ffH
	DB	040H
	DB	044H
	DB	040H
	DB	0ffH
	DB	040H
	DB	044H
	DB	040H
	DB	0ffH
	DB	048H
	DB	044H
	DB	048H
	DB	0ffH
	DB	040H
	DB	044H
	DB	040H
	DB	0ffH
	DB	040H
	DB	044H
	DB	048H
	DB	0ffH
	DB	048H
	DB	044H
	DB	040H
	DB	0ffH
	DB	040H
	DB	044H
	DB	040H
	DB	0ffH
	DB	048H
	DB	044H
	DB	048H
	DB	0ffH
	DB	040H
	DB	044H
	DB	040H
	DB	0ffH
	DB	040H
	DB	044H
	DB	040H
	DB	0ffH
	DB	048H
	DB	044H
	DB	048H
	DB	0ffH
	DB	048H
	DB	044H
	DB	040H
	DB	0ffH
	DB	040H
	DB	044H
	DB	048H
	DB	0ffH
	DB	048H
	DB	044H
	DB	040H
	DB	0ffH
	DB	048H
	DB	044H
	DB	040H
	DB	0ffH
	DB	040H
	DB	044H
	DB	048H
	DB	0ffH
	DB	048H
	DB	044H
	DB	040H
	DB	0ffH
	DB	040H
	DB	044H
	DB	048H
	DB	0ffH
	DB	040H
	DB	044H
	DB	040H
	DB	0ffH
	DB	048H
	DB	044H
	DB	040H
	DB	0ffH
	DB	040H
	DB	044H
	DB	048H
	DB	0ffH
	DB	048H
	DB	044H
	DB	040H
	DB	0ffH
	DB	040H
	DB	044H
	DB	040H
	DB	0ffH
	DB	048H
	DB	044H
	DB	048H
	DB	0ffH
	DB	040H
	DB	044H
	DB	040H
	DB	0ffH
	DB	048H
	DB	044H
	DB	040H
	DB	0ffH
	DB	040H
	DB	044H
	DB	048H
	DB	0ffH
	DB	040H
	DB	044H
	DB	040H
	DB	0ffH
	DB	048H
	DB	044H
	DB	040H
	DB	0ffH
	DB	040H
	DB	044H
	DB	048H
	DB	0ffH
	DB	040H
	DB	044H
	DB	040H
	DB	0ffH
	DB	048H
	DB	044H
	DB	040H
	DB	0ffH
	DB	040H
	DB	044H
	DB	048H
	DB	0ffH
	DB	040H
	DB	044H
	DB	040H
	DB	0ffH
	DB	048H
	DB	044H
	DB	040H
	DB	0ffH
	DB	048H
	DB	044H
	DB	048H
	DB	0ffH
	DB	040H
	DB	044H
	DB	040H
	DB	0ffH
	DB	048H
	DB	044H
	DB	048H
	DB	0ffH
	DB	040H
	DB	044H
	DB	040H
	DB	0ffH
	DB	040H
	DB	044H
	DB	048H
	DB	0ffH
	DB	048H
	DB	044H
	DB	040H
	DB	0ffH
	DB	040H
	DB	044H
	DB	040H
	DB	0ffH
	DB	048H
	DB	044H
	DB	048H
	DB	0ffH
	DB	048H
	DB	044H
	DB	040H
	DB	0ffH
	DB	040H
	DB	044H
	DB	040H
	DB	0ffH
	DB	048H
	DB	044H
	DB	040H
	DB	0ffH
	DB	040H
	DB	044H
	DB	048H
	DB	0ffH
	DB	040H
	DB	044H
	DB	040H
	DB	0ffH
	DB	048H
	DB	044H
	DB	040H
	DB	0ffH
	DB	048H
	DB	044H
	DB	048H
	DB	0ffH
	DB	040H
	DB	044H
	DB	040H
	DB	0ffH
	DB	048H
	DB	044H
	DB	040H
	DB	0ffH
	DB	048H
	DB	044H
	DB	048H
	DB	0ffH
	DB	040H
	DB	044H
	DB	040H
	DB	0ffH
	DB	040H
	DB	044H
	DB	048H
	DB	0ffH
	DB	048H
	DB	044H
	DB	040H
	DB	0ffH
	DB	040H
	DB	044H
	DB	040H
	DB	0ffH
	DB	040H
	DB	044H
	DB	048H
	DB	0ffH
	DB	048H
	DB	044H
	DB	040H
	DB	0ffH
	DB	048H
	DB	044H
	DB	040H
	DB	0ffH
	DB	040H
	DB	044H
	DB	048H
	DB	0ffH
	DB	048H
	DB	044H
	DB	048H
	DB	0ffH
	DB	040H
	DB	044H
	DB	040H
	DB	0ffH
	DB	048H
	DB	044H
	DB	040H
	DB	0ffH
	DB	040H
	DB	044H
	DB	048H
	DB	0ffH
	DB	040H
	DB	044H
	DB	040H
	DB	0ffH
	DB	048H
	DB	044H
	DB	048H
	DB	0ffH
	DB	040H
	DB	044H
	DB	048H
	DB	0ffH
	DB	040H
	DB	044H
	DB	040H
	DB	0ffH
	DB	048H
	DB	044H
	DB	048H
	DB	0ffH
	DB	048H
	DB	044H
	DB	040H
	DB	0ffH
	DB	040H
	DB	044H
	DB	040H
	DB	0ffH
	DB	048H
	DB	044H
	DB	048H
	DB	0ffH
	DB	040H
	DB	044H
	DB	040H
	DB	0ffH
	DB	048H
	DB	044H
	DB	040H
	DB	0ffH
	DB	040H
	DB	044H
	DB	040H
	DB	0ffH
	DB	040H
	DB	044H
	DB	040H
	DB	0ffH
	DB	040H
	DB	040H
	DB	040H
	DB	0ffH
	DB	040H
	DB	040H
	DB	040H
	DB	0ffH
	DB	040H
	DB	03cH
	DB	040H
	DB	0ffH
	DB	038H
	DB	03cH
	DB	038H
	DB	0ffH
	DB	038H
	DB	038H
	DB	038H
	DB	0ffH
	DB	038H
	DB	038H
	DB	038H
	DB	0ffH
	DB	038H
	DB	034H
	DB	030H
	DB	0ffH
	DB	030H
	DB	034H
	DB	030H
	DB	0ffH
	DB	030H
	DB	034H
	DB	030H
	DB	0ffH
	DB	030H
	DB	034H
	DB	030H
	DB	0ffH
	DB	030H
	DB	034H
	DB	030H
	DB	0ffH
	DB	038H
	DB	034H
	DB	038H
	DB	0ffH
	DB	038H
	DB	038H
	DB	038H
	DB	0ffH
	DB	038H
	DB	038H
	DB	038H
	DB	0ffH
	DB	038H
	DB	03cH
	DB	038H
	DB	0ffH
	DB	040H
	DB	03cH
	DB	038H
	DB	0ffH
	DB	040H
	DB	040H
	DB	040H
	DB	0ffH
	DB	040H
	DB	040H
	DB	040H
	DB	0ffH
	DB	040H
	DB	040H
	DB	040H
	DB	0ffH
	DB	040H
	DB	044H
	DB	040H
	DB	0ffH
	DB	048H
	DB	044H
	DB	048H
	DB	0ffH
	DB	048H
	DB	044H
	DB	040H
	DB	0ffH
	DB	040H
	DB	044H
	DB	048H
	DB	0ffH
	DB	048H
	DB	044H
	DB	040H
	DB	0ffH
	DB	048H
	DB	044H
	DB	040H
	DB	0ffH
	DB	040H
	DB	044H
	DB	048H
	DB	0ffH
	DB	048H
	DB	044H
	DB	040H
	DB	0ffH
	DB	048H
	DB	044H
	DB	040H
	DB	0ffH
	DB	040H
	DB	044H
	DB	048H
	DB	0ffH
	DB	048H
	DB	044H
	DB	040H
	DB	0ffH
	DB	048H
	DB	044H
	DB	040H
	DB	0ffH
	DB	040H
	DB	044H
	DB	048H
	DB	0ffH
	DB	040H
	DB	044H
	DB	040H
	DB	0ffH
	DB	048H
	DB	044H
	DB	048H
	DB	0ffH
	DB	048H
	DB	044H
	DB	040H
	DB	0ffH
	DB	040H
	DB	044H
	DB	048H
	DB	0ffH
	DB	048H
	DB	044H
	DB	040H
	DB	0ffH
	DB	040H
	DB	044H
	DB	040H
	DB	0ffH
	DB	048H
	DB	044H
	DB	048H
	DB	0ffH
	DB	040H
	DB	044H
	DB	040H
	DB	0ffH
	DB	040H
	DB	044H
	DB	040H
	DB	0ffH
	DB	048H
	DB	044H
	DB	048H
	DB	0ffH
	DB	040H
	DB	044H
	DB	040H
	DB	0ffH
	DB	048H
	DB	044H
	DB	040H
	DB	0ffH
	DB	040H
	DB	044H
	DB	048H
	DB	0ffH
	DB	048H
	DB	044H
	DB	040H
	DB	0ffH
	DB	040H
	DB	044H
	DB	040H
	DB	0ffH
	DB	040H
	DB	044H
	DB	048H
	DB	0ffH
	DB	048H
	DB	044H
	DB	040H
	DB	0ffH
	DB	040H
	DB	044H
	DB	048H
	DB	0ffH
	DB	048H
	DB	044H
	DB	040H
	DB	0ffH
	DB	048H
	DB	044H
	DB	048H
	DB	0ffH
	DB	048H
	DB	044H
	DB	040H
	DB	0ffH
	DB	040H
	DB	044H
	DB	040H
	DB	0ffH
	DB	048H
	DB	044H
	DB	048H
	DB	0ffH
	DB	040H
	DB	044H
	DB	040H
	DB	0ffH
	DB	048H
	DB	044H
	DB	040H
	DB	0ffH
	DB	048H
	DB	044H
	DB	048H
	DB	0ffH
	DB	040H
	DB	044H
	DB	040H
	DB	0ffH
	DB	040H
	DB	044H
	DB	040H
	DB	0ffH
	DB	048H
	DB	044H
	DB	048H
	DB	0ffH
	DB	048H
	DB	044H
	DB	048H
	DB	0ffH
	DB	040H
	DB	044H
	DB	040H
	DB	0ffH
	DB	040H
	DB	044H
	DB	040H
	DB	0ffH
	DB	048H
	DB	044H
	DB	048H
	DB	0ffH
	DB	040H
	DB	044H
	DB	040H
	DB	0ffH
	DB	040H
	DB	044H
	DB	040H
	DB	0ffH
	DB	048H
	DB	044H
	DB	048H
	DB	0ffH
	DB	048H
	DB	044H
	DB	040H
	DB	0ffH
	DB	040H
	DB	044H
	DB	040H
	DB	0ffH
	DB	048H
	DB	044H
	DB	048H
	DB	0ffH
	DB	048H
	DB	044H
	DB	048H
	DB	0ffH
	DB	040H
	DB	044H
	DB	040H
	DB	0ffH
	DB	048H
	DB	044H
	DB	048H
	DB	0ffH
	DB	040H
	DB	044H
	DB	040H
	DB	0ffH
	DB	048H
	DB	044H
	DB	048H
	DB	0ffH
	DB	040H
	DB	044H
	DB	040H
	DB	0ffH
	DB	040H
	DB	044H
	DB	048H
	DB	0ffH
	DB	048H
	DB	044H
	DB	040H
	DB	0ffH
	DB	048H
	DB	044H
	DB	048H
	DB	0ffH
	DB	040H
	DB	044H
	DB	040H
	DB	0ffH
	DB	048H
	DB	044H
	DB	048H
	DB	0ffH
	DB	048H
	DB	044H
	DB	040H
	DB	0ffH
	DB	040H
	DB	044H
	DB	048H
	DB	0ffH
	DB	048H
	DB	044H
	DB	040H
	DB	0ffH
	DB	040H
	DB	044H
	DB	040H
	DB	0ffH
	DB	040H
	DB	044H
	DB	048H
	DB	0ffH
	DB	048H
	DB	044H
	DB	040H
	DB	0ffH
	DB	040H
	DB	044H
	DB	040H
	DB	0ffH
	DB	048H
	DB	044H
	DB	048H
	DB	0ffH
	DB	048H
	DB	044H
	DB	040H
	DB	0ffH
	DB	040H
	DB	044H
	DB	040H
	DB	0ffH
	DB	048H
	DB	044H
	DB	048H
	DB	0ffH
	DB	040H
	DB	044H
	DB	040H
	DB	0ffH
	DB	040H
	DB	044H
	DB	040H
	DB	0ffH
	DB	048H
	DB	044H
	DB	048H
	DB	0ffH
	DB	040H
	DB	044H
	DB	040H
	DB	0ffH
	DB	040H
	DB	044H
	DB	040H
	DB	0ffH
	DB	048H
	DB	044H
	DB	048H
	DB	0ffH
	DB	048H
	DB	044H
	DB	040H
	DB	0ffH
	DB	040H
	DB	044H
	DB	040H
	DB	0ffH
	DB	040H
	DB	044H
	DB	048H
	DB	0ffH
	DB	048H
	DB	044H
	DB	040H
	DB	0ffH
	DB	040H
	DB	044H
	DB	040H
	DB	0ffH
	DB	040H
	DB	044H
	DB	048H
	DB	0ffH
	DB	048H
	DB	044H
	DB	040H
	DB	0ffH
	DB	048H
	DB	044H
	DB	040H
	DB	0ffH
	DB	040H
	DB	044H
	DB	048H
	DB	0ffH
	DB	048H
	DB	044H
	DB	040H
	DB	0ffH
	DB	048H
	DB	044H
	DB	040H
	DB	0ffH
	DB	040H
	DB	044H
	DB	048H
	DB	0ffH
	DB	040H
	DB	044H
	DB	040H
	DB	0ffH
	DB	040H
	DB	044H
	DB	040H
	DB	0ffH
	DB	048H
	DB	044H
	DB	048H
	DB	0ffH
	DB	048H
	DB	044H
	DB	040H
	DB	0ffH
	DB	040H
	DB	044H
	DB	040H
	DB	0ffH
	DB	048H
	DB	044H
	DB	048H
	DB	0ffH
	DB	048H
	DB	044H
	DB	040H
	DB	0ffH
	DB	040H
	DB	044H
	DB	040H
	DB	0ffH
	DB	048H
	DB	044H
	DB	040H
	DB	0ffH
	DB	040H
	DB	044H
	DB	040H
	DB	0ffH
	DB	048H
	DB	044H
	DB	040H
	DB	0ffH
	DB	040H
	DB	044H
	DB	048H
	DB	0ffH
	DB	040H
	DB	044H
	DB	040H
	DB	0ffH
	DB	048H
	DB	044H
	DB	040H
	DB	0ffH
	DB	040H
	DB	044H
	DB	048H
	DB	0ffH
	DB	048H
	DB	044H
	DB	040H
	DB	0ffH
	DB	048H
	DB	044H
	DB	048H
	DB	0ffH
	DB	040H
	DB	044H
	DB	040H
	DB	0ffH
	DB	040H
	DB	040H
	DB	040H
	DB	0ffH
	DB	040H
	DB	040H
	DB	040H
	DB	0ffH
	DB	040H
	DB	040H
	DB	040H
	DB	0ffH
	DB	040H
	DB	03cH
	DB	040H
	DB	0ffH
	DB	038H
	DB	03cH
	DB	038H
	DB	0ffH
	DB	038H
	DB	038H
	DB	038H
	DB	0ffH
	DB	038H
	DB	038H
	DB	038H
	DB	0ffH
	DB	038H
	DB	038H
	DB	038H
	DB	0ffH
	DB	038H
	DB	034H
	DB	030H
	DB	0ffH
	DB	030H
	DB	034H
	DB	030H
	DB	0ffH
	DB	030H
	DB	034H
	DB	030H
	DB	0ffH
	DB	038H
	DB	034H
	DB	030H
	DB	0ffH
	DB	038H
	DB	034H
	DB	038H
	DB	0ffH
	DB	038H
	DB	038H
	DB	038H
	DB	0ffH
	DB	038H
	DB	038H
	DB	038H
	DB	0ffH
	DB	038H
	DB	03cH
	DB	038H
	DB	0ffH
	DB	040H
	DB	03cH
	DB	038H
	DB	0ffH
	DB	040H
	DB	040H
	DB	040H
	DB	0ffH
	DB	040H
	DB	040H
	DB	040H
	DB	0ffH
	DB	040H
	DB	044H
	DB	040H
	DB	0ffH
	DB	040H
	DB	044H
	DB	040H
	DB	0ffH
	DB	048H
	DB	044H
	DB	040H
	DB	0ffH
	DB	040H
	DB	044H
	DB	048H
	DB	0ffH
	DB	040H
	DB	044H
	DB	040H
	DB	0ffH
	DB	048H
	DB	044H
	DB	040H
	DB	0ffH
	DB	040H
	DB	044H
	DB	048H
	DB	0ffH
	DB	040H
	DB	044H
	DB	048H
	DB	0ffH
	DB	048H
	DB	044H
	DB	040H
	DB	0ffH
	DB	040H
	DB	044H
	DB	040H
	DB	0ffH
	DB	040H
	DB	044H
	DB	040H
	DB	0ffH
	DB	048H
	DB	044H
	DB	048H
	DB	0ffH
	DB	040H
	DB	044H
	DB	040H
	DB	0ffH
	DB	048H
	DB	044H
	DB	040H
	DB	0ffH
	DB	040H
	DB	044H
	DB	048H
	DB	0ffH
	DB	040H
	DB	044H
	DB	040H
	DB	0ffH
	DB	048H
	DB	044H
	DB	040H
	DB	0ffH
	DB	040H
	DB	044H
	DB	048H
	DB	0ffH
	DB	040H
	DB	044H
	DB	040H
	DB	0ffH
	DB	048H
	DB	044H
	DB	040H
	DB	0ffH
	DB	048H
	DB	044H
	DB	048H
	DB	0ffH
	DB	040H
	DB	044H
	DB	040H
	DB	0ffH
	DB	048H
	DB	044H
	DB	040H
	DB	0ffH
	DB	040H
	DB	044H
	DB	048H
	DB	0ffH
	DB	048H
	DB	044H
	DB	040H
	DB	0ffH
	DB	040H
	DB	044H
	DB	048H
	DB	0ffH
	DB	048H
	DB	044H
	DB	040H
	DB	0ffH
	DB	048H
	DB	044H
	DB	040H
	DB	0ffH
	DB	040H
	DB	044H
	DB	048H
	DB	0ffH
	DB	048H
	DB	044H
	DB	040H
	DB	0ffH
	DB	040H
	DB	044H
	DB	040H
	DB	0ffH
	DB	040H
	DB	044H
	DB	048H
	DB	0ffH
	DB	040H
	DB	044H
	DB	040H
	DB	0ffH
	DB	048H
	DB	044H
	DB	040H
	DB	0ffH
	DB	040H
	DB	044H
	DB	048H
	DB	0ffH
	DB	048H
	DB	044H
	DB	040H
	DB	0ffH
	DB	048H
	DB	044H
	DB	048H
	DB	0ffH
	DB	040H
	DB	044H
	DB	040H
	DB	0ffH
	DB	040H
	DB	044H
	DB	040H
	DB	0ffH
	DB	048H
	DB	044H
	DB	048H
	DB	0ffH
	DB	048H
	DB	044H
	DB	040H
	DB	0ffH
	DB	040H
	DB	044H
	DB	040H
	DB	0ffH
	DB	048H
	DB	044H
	DB	048H
	DB	0ffH
	DB	048H
	DB	044H
	DB	040H
	DB	0ffH
	DB	040H
	DB	044H
	DB	040H
	DB	0ffH
	DB	048H
	DB	044H
	DB	048H
	DB	0ffH
	DB	048H
	DB	044H
	DB	040H
	DB	0ffH
	DB	040H
	DB	044H
	DB	040H
	DB	0ffH
	DB	040H
	DB	044H
	DB	048H
	DB	0ffH
	DB	048H
	DB	044H
	DB	048H
	DB	0ffH
	DB	040H
	DB	044H
	DB	040H
	DB	0ffH
	DB	040H
	DB	044H
	DB	040H
	DB	0ffH
	DB	048H
	DB	044H
	DB	040H
	DB	0ffH
	DB	040H
	DB	044H
	DB	040H
	DB	0ffH
	DB	048H
	DB	044H
	DB	048H
	DB	0ffH
	DB	040H
	DB	044H
	DB	040H
	DB	0ffH
	DB	048H
	DB	044H
	DB	040H
	DB	0ffH
	DB	048H
	DB	044H
	DB	040H
	DB	0ffH
	DB	040H
	DB	044H
	DB	048H
	DB	0ffH
	DB	048H
	DB	044H
	DB	040H
	DB	0ffH
	DB	040H
	DB	044H
	DB	040H
	DB	0ffH
	DB	048H
	DB	044H
	DB	040H
	DB	0ffH
	DB	040H
	DB	044H
	DB	048H
	DB	0ffH
	DB	040H
	DB	044H
	DB	040H
	DB	0ffH
	DB	048H
	DB	044H
	DB	040H
	DB	0ffH
	DB	048H
	DB	044H
	DB	048H
	DB	0ffH
	DB	040H
	DB	044H
	DB	040H
	DB	0ffH
	DB	048H
	DB	044H
	DB	048H
	DB	0ffH
	DB	048H
	DB	044H
	DB	040H
	DB	0ffH
	DB	040H
	DB	044H
	DB	048H
	DB	0ffH
	DB	040H
	DB	044H
	DB	040H
	DB	0ffH
	DB	048H
	DB	044H
	DB	040H
	DB	0ffH
	DB	040H
	DB	044H
	DB	048H
	DB	0ffH
	DB	048H
	DB	044H
	DB	040H
	DB	0ffH
	DB	048H
	DB	044H
	DB	040H
	DB	0ffH
	DB	040H
	DB	044H
	DB	048H
	DB	0ffH
	DB	048H
	DB	044H
	DB	040H
	DB	0ffH
	DB	048H
	DB	044H
	DB	048H
	DB	0ffH
	DB	040H
	DB	044H
	DB	040H
	DB	0ffH
	DB	048H
	DB	044H
	DB	048H
	DB	0ffH
	DB	040H
	DB	044H
	DB	040H
	DB	0ffH
	DB	048H
	DB	044H
	DB	040H
	DB	0ffH
	DB	048H
	DB	044H
	DB	048H
	DB	0ffH
	DB	040H
	DB	044H
	DB	048H
	DB	0ffH
	DB	048H
	DB	044H
	DB	040H
	DB	0ffH
	DB	048H
	DB	044H
	DB	040H
	DB	0ffH
	DB	040H
	DB	044H
	DB	048H
	DB	0ffH
	DB	040H
	DB	044H
	DB	040H
	DB	0ffH
	DB	048H
	DB	044H
	DB	040H
	DB	0ffH
	DB	040H
	DB	044H
	DB	048H
	DB	0ffH
	DB	040H
	DB	044H
	DB	040H
	DB	0ffH
	DB	048H
	DB	044H
	DB	048H
	DB	0ffH
	DB	048H
	DB	044H
	DB	040H
	DB	0ffH
	DB	040H
	DB	044H
	DB	040H
	DB	0ffH
	DB	048H
	DB	044H
	DB	048H
	DB	0ffH
	DB	040H
	DB	044H
	DB	040H
	DB	0ffH
	DB	040H
	DB	044H
	DB	040H
	DB	0ffH
	DB	048H
	DB	044H
	DB	048H
	DB	0ffH
	DB	040H
	DB	044H
	DB	040H
	DB	0ffH
	DB	048H
	DB	044H
	DB	048H
	DB	0ffH
	DB	040H
	DB	044H
	DB	048H
	DB	0ffH
	DB	048H
	DB	044H
	DB	040H
	DB	0ffH
	DB	048H
	DB	044H
	DB	040H
	DB	0ffH
	DB	040H
	DB	044H
	DB	048H
	DB	0ffH
	DB	048H
	DB	044H
	DB	040H
	DB	0ffH
	DB	040H
	DB	044H
	DB	048H
	DB	0ffH
	DB	048H
	DB	044H
	DB	040H
	DB	0ffH
	DB	040H
	DB	044H
	DB	040H
	DB	0ffH
	DB	040H
	DB	044H
	DB	048H
	DB	0ffH
	DB	048H
	DB	044H
	DB	040H
	DB	0ffH
	DB	040H
	DB	044H
	DB	040H
	DB	0ffH
	DB	040H
	DB	040H
	DB	040H
	DB	0ffH
	DB	040H
	DB	040H
	DB	040H
	DB	0ffH
	DB	040H
	DB	040H
	DB	040H
	DB	0ffH
	DB	040H
	DB	03cH
	DB	038H
	DB	0ffH
	DB	040H
	DB	03cH
	DB	038H
	DB	0ffH
	DB	038H
	DB	038H
	DB	038H
	DB	0ffH
	DB	038H
	DB	038H
	DB	038H
	DB	0ffH
	DB	038H
	DB	034H
	DB	038H
	DB	0ffH
	DB	030H
	DB	034H
	DB	030H
	DB	0ffH
	DB	030H
	DB	034H
	DB	030H
	DB	0ffH
	DB	030H
	DB	034H
	DB	030H
	DB	0ffH
	DB	030H
	DB	034H
	DB	030H
	DB	0ffH
	DB	038H
	DB	034H
	DB	038H
	DB	0ffH
	DB	038H
	DB	038H
	DB	038H
	DB	0ffH
	DB	038H
	DB	038H
	DB	038H
	DB	0ffH
	DB	038H
	DB	03cH
	DB	038H
	DB	0ffH
	DB	040H
	DB	03cH
	DB	040H
	DB	0ffH
	DB	040H
	DB	040H
	DB	040H
	DB	0ffH
	DB	040H
	DB	040H
	DB	040H
	DB	0ffH
	DB	040H
	DB	040H
	DB	040H
	DB	0ffH
	DB	048H
	DB	044H
	DB	040H
	DB	0ffH
	DB	048H
	DB	044H
	DB	048H
	DB	0ffH
	DB	040H
	DB	044H
	DB	040H
	DB	0ffH
	DB	048H
	DB	044H
	DB	040H
	DB	0ffH
	DB	048H
	DB	044H
	DB	048H
	DB	0ffH
	DB	040H
	DB	044H
	DB	040H
	DB	0ffH
	DB	048H
	DB	044H
	DB	040H
	DB	0ffH
	DB	048H
	DB	044H
	DB	048H
	DB	0ffH
	DB	040H
	DB	044H
	DB	040H
	DB	0ffH
	DB	048H
	DB	044H
	DB	048H
	DB	0ffH
	DB	040H
	DB	044H
	DB	040H
	DB	0ffH
	DB	048H
	DB	044H
	DB	040H
	DB	0ffH
	DB	048H
	DB	044H
	DB	048H
	DB	0ffH
	DB	040H
	DB	044H
	DB	040H
	DB	0ffH
	DB	048H
	DB	044H
	DB	040H
	DB	0ffH
	DB	048H
	DB	044H
	DB	048H
	DB	0ffH
	DB	040H
	DB	044H
	DB	040H
	DB	0ffH
	DB	048H
	DB	044H
	DB	048H
	DB	0ffH
	DB	040H
	DB	044H
	DB	040H
	DB	0ffH
	DB	040H
	DB	044H
	DB	048H
	DB	0ffH
	DB	048H
	DB	044H
	DB	040H
	DB	0ffH
	DB	048H
	DB	044H
	DB	048H
	DB	0ffH
	DB	040H
	DB	044H
	DB	040H
	DB	0ffH
	DB	040H
	DB	044H
	DB	040H
	DB	0ffH
	DB	048H
	DB	044H
	DB	048H
	DB	0ffH
	DB	040H
	DB	044H
	DB	040H
	DB	0ffH
	DB	040H
	DB	044H
	DB	040H
	DB	0ffH
	DB	048H
	DB	044H
	DB	048H
	DB	0ffH
	DB	048H
	DB	044H
	DB	040H
	DB	0ffH
	DB	048H
	DB	044H
	DB	040H
	DB	0ffH
	DB	040H
	DB	044H
	DB	048H
	DB	0ffH
	DB	048H
	DB	044H
	DB	040H
	DB	0ffH
	DB	040H
	DB	044H
	DB	040H
	DB	0ffH
	DB	040H
	DB	044H
	DB	048H
	DB	0ffH
	DB	048H
	DB	044H
	DB	040H
	DB	0ffH
	DB	040H
	DB	044H
	DB	040H
	DB	0ffH
	DB	048H
	DB	044H
	DB	048H
	DB	0ffH
	DB	040H
	DB	044H
	DB	040H
	DB	0ffH
	DB	040H
	DB	044H
	DB	048H
	DB	0ffH
	DB	048H
	DB	044H
	DB	040H
	DB	0ffH
	DB	040H
	DB	044H
	DB	048H
	DB	0ffH
	DB	040H
	DB	044H
	DB	040H
	DB	0ffH
	DB	040H
	DB	044H
	DB	040H
	DB	0ffH
	DB	048H
	DB	044H
	DB	048H
	DB	0ffH
	DB	040H
	DB	044H
	DB	040H
	DB	0ffH
	DB	048H
	DB	044H
	DB	040H
	DB	0ffH
	DB	048H
	DB	044H
	DB	048H
	DB	0ffH
	DB	040H
	DB	044H
	DB	040H
	DB	0ffH
	DB	048H
	DB	044H
	DB	040H
	DB	0ffH
	DB	048H
	DB	044H
	DB	048H
	DB	0ffH
	DB	040H
	DB	044H
	DB	048H
	DB	0ffH
	DB	040H
	DB	044H
	DB	040H
	DB	0ffH
	DB	048H
	DB	044H
	DB	040H
	DB	0ffH
	DB	040H
	DB	044H
	DB	048H
	DB	0ffH
	DB	040H
	DB	044H
	DB	040H
	DB	0ffH
	DB	048H
	DB	044H
	DB	040H
	DB	0ffH
	DB	040H
	DB	044H
	DB	048H
	DB	0ffH
	DB	048H
	DB	044H
	DB	040H
	DB	0ffH
	DB	040H
	DB	044H
	DB	040H
	DB	0ffH
	DB	048H
	DB	044H
	DB	048H
	DB	0ffH
	DB	040H
	DB	044H
	DB	040H
	DB	0ffH
	DB	048H
	DB	044H
	DB	040H
	DB	0ffH
	DB	040H
	DB	044H
	DB	048H
	DB	0ffH
	DB	040H
	DB	044H
	DB	040H
	DB	0ffH
	DB	048H
	DB	044H
	DB	040H
	DB	0ffH
	DB	040H
	DB	044H
	DB	048H
	DB	0ffH
	DB	048H
	DB	044H
	DB	040H
	DB	0ffH
	DB	048H
	DB	044H
	DB	040H
	DB	0ffH
	DB	040H
	DB	044H
	DB	048H
	DB	0ffH
	DB	048H
	DB	044H
	DB	040H
	DB	0ffH
	DB	040H
	DB	044H
	DB	040H
	DB	0ffH
	DB	040H
	DB	044H
	DB	048H
	DB	0ffH
	DB	048H
	DB	044H
	DB	040H
	DB	0ffH
	DB	040H
	DB	044H
	DB	048H
	DB	0ffH
	DB	040H
	DB	044H
	DB	040H
	DB	0ffH
	DB	048H
	DB	044H
	DB	040H
	DB	0ffH
	DB	040H
	DB	044H
	DB	040H
	DB	0ffH
	DB	048H
	DB	044H
	DB	048H
	DB	0ffH
	DB	040H
	DB	044H
	DB	040H
	DB	0ffH
	DB	040H
	DB	044H
	DB	040H
	DB	0ffH
	DB	048H
	DB	044H
	DB	048H
	DB	0ffH
	DB	040H
	DB	044H
	DB	040H
	DB	0ffH
	DB	040H
	DB	044H
	DB	040H
	DB	0ffH
	DB	048H
	DB	044H
	DB	048H
	DB	0ffH
	DB	040H
	DB	044H
	DB	040H
	DB	0ffH
	DB	048H
	DB	044H
	DB	048H
	DB	0ffH
	DB	048H
	DB	044H
	DB	040H
	DB	0ffH
	DB	040H
	DB	044H
	DB	048H
	DB	0ffH
	DB	048H
	DB	044H
	DB	040H
	DB	0ffH
	DB	040H
	DB	044H
	DB	040H
	DB	0ffH
	DB	048H
	DB	044H
	DB	048H
	DB	0ffH
	DB	040H
	DB	044H
	DB	040H
	DB	0ffH
	DB	048H
	DB	044H
	DB	048H
	DB	0ffH
	DB	048H
	DB	044H
	DB	040H
	DB	0ffH
	DB	040H
	DB	044H
	DB	040H
	DB	0ffH
	DB	048H
	DB	044H
	DB	048H
	DB	0ffH
	DB	040H
	DB	044H
	DB	040H
	DB	0ffH
	DB	040H
	DB	044H
	DB	040H
	DB	0ffH
	DB	048H
	DB	044H
	DB	040H
	DB	0ffH
	DB	040H
	DB	044H
	DB	048H
	DB	0ffH
	DB	040H
	DB	044H
	DB	040H
	DB	0ffH
	DB	048H
	DB	044H
	DB	048H
	DB	0ffH
	DB	040H
	DB	044H
	DB	040H
	DB	0ffH
	DB	048H
	DB	044H
	DB	040H
	DB	0ffH
	DB	048H
	DB	044H
	DB	048H
	DB	0ffH
	DB	040H
	DB	044H
	DB	040H
	DB	0ffH
	DB	048H
	DB	044H
	DB	040H
	DB	0ffH
	DB	040H
	DB	044H
	DB	048H
	DB	0ffH
	DB	048H
	DB	044H
	DB	040H
	DB	0ffH
	DB	048H
	DB	044H
	DB	040H
	DB	0ffH
	DB	040H
	DB	040H
	DB	040H
	DB	0ffH
	DB	040H
	DB	040H
	DB	040H
	DB	0ffH
	DB	040H
	DB	040H
	DB	040H
	DB	0ffH
	DB	040H
	DB	03cH
	DB	040H
	DB	0ffH
	DB	038H
	DB	03cH
	DB	038H
	DB	0ffH
	DB	038H
	DB	038H
	DB	038H
	DB	0ffH
	DB	038H
	DB	038H
	DB	038H
	DB	0ffH
	DB	038H
	DB	034H
	DB	038H
	DB	0ffH
	DB	038H
	DB	034H
	DB	030H
	DB	0ffH
	DB	030H
	DB	034H
	DB	030H
	DB	0ffH
	DB	030H
	DB	034H
	DB	030H
	DB	0ffH
	DB	038H
	DB	034H
	DB	038H
	DB	0ffH
	DB	038H
	DB	034H
	DB	038H
	DB	0ffH
	DB	038H
	DB	038H
	DB	038H
	DB	0ffH
	DB	038H
	DB	038H
	DB	038H
	DB	0ffH
	DB	038H
	DB	03cH
	DB	038H
	DB	0ffH
	DB	040H
	DB	03cH
	DB	038H
	DB	0ffH
	DB	040H
	DB	040H
	DB	040H
	DB	0ffH
	DB	040H
	DB	040H
	DB	040H
	DB	0ffH
	DB	040H
	DB	044H
	DB	040H
	DB	0ffH
	DB	040H
	DB	044H
	DB	040H
	DB	0ffH
	DB	048H
	DB	044H
	DB	048H
	DB	0ffH
	DB	040H
	DB	044H
	DB	040H
	DB	0ffH
	DB	040H
	DB	044H
	DB	048H
	DB	0ffH
	DB	048H
	DB	044H
	DB	040H
	DB	0ffH
	DB	040H
	DB	044H
	DB	040H
	DB	0ffH
	DB	040H
	DB	044H
	DB	048H
	DB	0ffH
	DB	048H
	DB	044H
	DB	040H
	DB	0ffH
	DB	048H
	DB	044H
	DB	040H
	DB	0ffH
	DB	040H
	DB	044H
	DB	048H
	DB	0ffH
	DB	040H
	DB	044H
	DB	040H
	DB	0ffH
	DB	048H
	DB	044H
	DB	048H
	DB	0ffH
	DB	040H
	DB	044H
	DB	040H
	DB	0ffH
	DB	040H
	DB	044H
	DB	040H
	DB	0ffH
	DB	048H
	DB	044H
	DB	048H
	DB	0ffH
	DB	040H
	DB	044H
	DB	040H
	DB	0ffH
	DB	048H
	DB	044H
	DB	040H
	DB	0ffH
	DB	048H
	DB	044H
	DB	048H
	DB	0ffH
	DB	040H
	DB	044H
	DB	040H
	DB	0ffH
	DB	040H
	DB	044H
	DB	040H
	DB	0ffH
	DB	048H
	DB	044H
	DB	048H
	DB	0ffH
	DB	040H
	DB	044H
	DB	040H
	DB	0ffH
	DB	048H
	DB	044H
	DB	040H
	DB	0ffH
	DB	048H
	DB	044H
	DB	048H
	DB	0ffH
	DB	040H
	DB	044H
	DB	040H
	DB	0ffH
	DB	048H
	DB	044H
	DB	048H
	DB	0ffH
	DB	040H
	DB	044H
	DB	040H
	DB	0ffH
	DB	040H
	DB	044H
	DB	048H
	DB	0ffH
	DB	048H
	DB	044H
	DB	040H
	DB	0ffH
	DB	040H
	DB	044H
	DB	048H
	DB	0ffH
	DB	048H
	DB	044H
	DB	040H
	DB	0ffH
	DB	048H
	DB	044H
	DB	048H
	DB	0ffH
	DB	040H
	DB	044H
	DB	040H
	DB	0ffH
	DB	048H
	DB	044H
	DB	040H
	DB	0ffH
	DB	040H
	DB	044H
	DB	048H
	DB	0ffH
	DB	048H
	DB	044H
	DB	040H
	DB	0ffH
	DB	048H
	DB	044H
	DB	040H
	DB	0ffH
	DB	040H
	DB	044H
	DB	048H
	DB	0ffH
	DB	048H
	DB	044H
	DB	040H
	DB	0ffH
	DB	048H
	DB	044H
	DB	040H
	DB	0ffH
	DB	040H
	DB	044H
	DB	048H
	DB	0ffH
	DB	048H
	DB	044H
	DB	040H
	DB	0ffH
	DB	048H
	DB	044H
	DB	040H
	DB	0ffH
	DB	040H
	DB	044H
	DB	048H
	DB	0ffH
	DB	040H
	DB	044H
	DB	040H
	DB	0ffH
	DB	040H
	DB	044H
	DB	048H
	DB	0ffH
	DB	048H
	DB	044H
	DB	040H
	DB	0ffH
	DB	040H
	DB	044H
	DB	040H
	DB	0ffH
	DB	040H
	DB	044H
	DB	040H
	DB	0ffH
	DB	048H
	DB	044H
	DB	040H
	DB	0ffH
	DB	048H
	DB	044H
	DB	048H
	DB	0ffH
	DB	040H
	DB	044H
	DB	040H
	DB	0ffH
	DB	048H
	DB	044H
	DB	048H
	DB	0ffH
	DB	048H
	DB	044H
	DB	040H
	DB	0ffH
	DB	040H
	DB	044H
	DB	048H
	DB	0ffH
	DB	040H
	DB	044H
	DB	048H
	DB	0ffH
	DB	048H
	DB	044H
	DB	040H
	DB	0ffH
	DB	040H
	DB	044H
	DB	040H
	DB	0ffH
	DB	048H
	DB	044H
	DB	048H
	DB	0ffH
	DB	040H
	DB	044H
	DB	048H
	DB	0ffH
	DB	048H
	DB	044H
	DB	040H
	DB	0ffH
	DB	048H
	DB	044H
	DB	040H
	DB	0ffH
	DB	040H
	DB	044H
	DB	048H
	DB	0ffH
	DB	048H
	DB	044H
	DB	040H
	DB	0ffH
	DB	040H
	DB	044H
	DB	040H
	DB	0ffH
	DB	040H
	DB	044H
	DB	048H
	DB	0ffH
	DB	048H
	DB	044H
	DB	040H
	DB	0ffH
	DB	040H
	DB	044H
	DB	040H
	DB	0ffH
	DB	048H
	DB	044H
	DB	048H
	DB	0ffH
	DB	048H
	DB	044H
	DB	040H
	DB	0ffH
	DB	040H
	DB	044H
	DB	048H
	DB	0ffH
	DB	048H
	DB	044H
	DB	040H
	DB	0ffH
	DB	048H
	DB	044H
	DB	040H
	DB	0ffH
	DB	040H
	DB	044H
	DB	048H
	DB	0ffH
	DB	048H
	DB	044H
	DB	048H
	DB	0ffH
	DB	040H
	DB	044H
	DB	040H
	DB	0ffH
	DB	048H
	DB	044H
	DB	048H
	DB	0ffH
	DB	048H
	DB	044H
	DB	040H
	DB	0ffH
	DB	040H
	DB	044H
	DB	040H
	DB	0ffH
	DB	048H
	DB	044H
	DB	048H
	DB	0ffH
	DB	048H
	DB	044H
	DB	040H
	DB	0ffH
	DB	040H
	DB	044H
	DB	040H
	DB	0ffH
	DB	048H
	DB	044H
	DB	048H
	DB	0ffH
	DB	040H
	DB	044H
	DB	040H
	DB	0ffH
	DB	040H
	DB	044H
	DB	040H
	DB	0ffH
	DB	048H
	DB	044H
	DB	040H
	DB	0ffH
	DB	040H
	DB	044H
	DB	048H
	DB	0ffH
	DB	048H
	DB	044H
	DB	040H
	DB	0ffH
	DB	048H
	DB	044H
	DB	040H
	DB	0ffH
	DB	040H
	DB	044H
	DB	048H
	DB	0ffH
	DB	040H
	DB	044H
	DB	040H
	DB	0ffH
	DB	048H
	DB	044H
	DB	040H
	DB	0ffH
	DB	040H
	DB	044H
	DB	048H
	DB	0ffH
	DB	040H
	DB	044H
	DB	040H
	DB	0ffH
	DB	048H
	DB	044H
	DB	048H
	DB	0ffH
	DB	048H
	DB	044H
	DB	040H
	DB	0ffH
	DB	040H
	DB	044H
	DB	048H
	DB	0ffH
	DB	048H
	DB	044H
	DB	040H
	DB	0ffH
	DB	048H
	DB	044H
	DB	040H
	DB	0ffH
	DB	040H
	DB	044H
	DB	040H
	DB	0ffH
	DB	048H
	DB	044H
	DB	048H
	DB	0ffH
	DB	040H
	DB	044H
	DB	040H
	DB	0ffH
	DB	040H
	DB	044H
	DB	040H
	DB	0ffH
	DB	048H
	DB	044H
	DB	048H
	DB	0ffH
	DB	040H
	DB	044H
	DB	040H
	DB	0ffH
	DB	048H
	DB	044H
	DB	048H
	DB	0ffH
	DB	048H
	DB	044H
	DB	040H
	DB	0ffH
	DB	040H
	DB	044H
	DB	048H
	DB	0ffH
	DB	040H
	DB	044H
	DB	048H
	DB	0ffH
	DB	048H
	DB	044H
	DB	040H
	DB	0ffH
	DB	040H
	DB	044H
	DB	040H
	DB	0ffH
	DB	040H
	DB	040H
	DB	040H
	DB	0ffH
	DB	040H
	DB	040H
	DB	040H
	DB	0ffH
	DB	040H
	DB	03cH
	DB	038H
	DB	0ffH
	DB	038H
	DB	03cH
	DB	038H
	DB	0ffH
	DB	038H
	DB	038H
	DB	038H
	DB	0ffH
	DB	038H
	DB	038H
	DB	038H
	DB	0ffH
	DB	038H
	DB	038H
	DB	038H
	DB	0ffH
	DB	030H
	DB	034H
	DB	030H
	DB	0ffH
	DB	030H
	DB	034H
	DB	030H
	DB	0ffH
	DB	030H
	DB	034H
	DB	030H
	DB	0ffH
	DB	038H
	DB	034H
	DB	030H
	DB	0ffH
	DB	038H
	DB	034H
	DB	038H
	DB	0ffH
	DB	038H
	DB	038H
	DB	030H
	DB	0ffH
	DB	038H
	DB	038H
	DB	038H
	DB	0ffH
	DB	038H
	DB	03cH
	DB	038H
	DB	0ffH
	DB	040H
	DB	03cH
	DB	040H
	DB	0ffH
	DB	040H
	DB	040H
	DB	040H
	DB	0ffH
	DB	040H
	DB	040H
	DB	040H
	DB	0ffH
	DB	040H
	DB	040H
	DB	040H
	DB	0ffH
	DB	040H
	DB	044H
	DB	040H
	DB	0ffH
	DB	048H
	DB	044H
	DB	040H
	DB	0ffH
	DB	048H
	DB	044H
	DB	048H
	DB	0ffH
	DB	040H
	DB	044H
	DB	040H
	DB	0ffH
	DB	048H
	DB	044H
	DB	040H
	DB	0ffH
	DB	048H
	DB	044H
	DB	048H
	DB	0ffH
	DB	040H
	DB	044H
	DB	040H
	DB	0ffH
	DB	040H
	DB	044H
	DB	040H
	DB	0ffH
	DB	048H
	DB	044H
	DB	048H
	DB	0ffH
	DB	040H
	DB	044H
	DB	040H
	DB	0ffH
	DB	048H
	DB	044H
	DB	040H
	DB	0ffH
	DB	048H
	DB	044H
	DB	048H
	DB	0ffH
	DB	040H
	DB	044H
	DB	040H
	DB	0ffH
	DB	048H
	DB	044H
	DB	048H
	DB	0ffH
	DB	040H
	DB	044H
	DB	048H
	DB	0ffH
	DB	040H
	DB	044H
	DB	040H
	DB	0ffH
	DB	048H
	DB	044H
	DB	040H
	DB	0ffH
	DB	040H
	DB	044H
	DB	048H
	DB	0ffH
	DB	048H
	DB	044H
	DB	040H
	DB	0ffH
	DB	048H
	DB	044H
	DB	040H
	DB	0ffH
	DB	040H
	DB	044H
	DB	048H
	DB	0ffH
	DB	040H
	DB	044H
	DB	040H
	DB	0ffH
	DB	048H
	DB	044H
	DB	048H
	DB	0ffH
	DB	040H
	DB	044H
	DB	040H
	DB	0ffH
	DB	048H
	DB	044H
	DB	040H
	DB	0ffH
	DB	048H
	DB	044H
	DB	048H
	DB	0ffH
	DB	040H
	DB	044H
	DB	040H
	DB	0ffH
	DB	048H
	DB	044H
	DB	040H
	DB	0ffH
	DB	040H
	DB	044H
	DB	048H
	DB	0ffH
	DB	040H
	DB	044H
	DB	040H
	DB	0ffH
	DB	048H
	DB	044H
	DB	040H
	DB	0ffH
	DB	040H
	DB	044H
	DB	048H
	DB	0ffH
	DB	048H
	DB	044H
	DB	040H
	DB	0ffH
	DB	040H
	DB	044H
	DB	048H
	DB	0ffH
	DB	048H
	DB	044H
	DB	040H
	DB	0ffH
	DB	040H
	DB	044H
	DB	048H
	DB	0ffH
	DB	040H
	DB	044H
	DB	040H
	DB	0ffH
	DB	048H
	DB	044H
	DB	040H
	DB	0ffH
	DB	040H
	DB	044H
	DB	048H
	DB	0ffH
	DB	040H
	DB	044H
	DB	040H
	DB	0ffH
	DB	048H
	DB	044H
	DB	040H
	DB	0ffH
	DB	040H
	DB	044H
	DB	048H
	DB	0ffH
	DB	048H
	DB	044H
	DB	040H
	DB	0ffH
	DB	048H
	DB	044H
	DB	040H
	DB	0ffH
	DB	040H
	DB	044H
	DB	048H
	DB	0ffH
	DB	048H
	DB	044H
	DB	040H
	DB	0ffH
	DB	048H
	DB	044H
	DB	048H
	DB	0ffH
	DB	040H
	DB	044H
	DB	048H
	DB	0ffH
	DB	040H
	DB	044H
	DB	040H
	DB	0ffH
	DB	048H
	DB	044H
	DB	040H
	DB	0ffH
	DB	040H
	DB	044H
	DB	040H
	DB	0ffH
	DB	048H
	DB	044H
	DB	048H
	DB	0ffH
	DB	040H
	DB	044H
	DB	040H
	DB	0ffH
	DB	048H
	DB	044H
	DB	040H
	DB	0ffH
	DB	048H
	DB	044H
	DB	040H
	DB	0ffH
	DB	040H
	DB	044H
	DB	048H
	DB	0ffH
	DB	048H
	DB	044H
	DB	040H
	DB	0ffH
	DB	048H
	DB	044H
	DB	040H
	DB	0ffH
	DB	040H
	DB	044H
	DB	048H
	DB	0ffH
	DB	040H
	DB	044H
	DB	040H
	DB	0ffH
	DB	048H
	DB	044H
	DB	040H
	DB	0ffH
	DB	040H
	DB	044H
	DB	048H
	DB	0ffH
	DB	048H
	DB	044H
	DB	048H
	DB	0ffH
	DB	048H
	DB	044H
	DB	040H
	DB	0ffH
	DB	040H
	DB	044H
	DB	048H
	DB	0ffH
	DB	048H
	DB	044H
	DB	040H
	DB	0ffH
	DB	040H
	DB	044H
	DB	040H
	DB	0ffH
	DB	040H
	DB	044H
	DB	048H
	DB	0ffH
	DB	048H
	DB	044H
	DB	040H
	DB	0ffH
	DB	040H
	DB	044H
	DB	040H
	DB	0ffH
	DB	040H
	DB	044H
	DB	048H
	DB	0ffH
	DB	048H
	DB	044H
	DB	040H
	DB	0ffH
	DB	040H
	DB	044H
	DB	040H
	DB	0ffH
	DB	048H
	DB	044H
	DB	040H
	DB	0ffH
	DB	048H
	DB	044H
	DB	040H
	DB	0ffH
	DB	040H
	DB	044H
	DB	048H
	DB	0ffH
	DB	040H
	DB	044H
	DB	040H
	DB	0ffH
	DB	048H
	DB	044H
	DB	040H
	DB	0ffH
	DB	040H
	DB	044H
	DB	048H
	DB	0ffH
	DB	040H
	DB	044H
	DB	048H
	DB	0ffH
	DB	048H
	DB	044H
	DB	040H
	DB	0ffH
	DB	040H
	DB	044H
	DB	040H
	DB	0ffH
	DB	048H
	DB	044H
	DB	048H
	DB	0ffH
	DB	048H
	DB	044H
	DB	040H
	DB	0ffH
	DB	040H
	DB	044H
	DB	048H
	DB	0ffH
	DB	048H
	DB	044H
	DB	040H
	DB	0ffH
	DB	040H
	DB	044H
	DB	040H
	DB	0ffH
	DB	040H
	DB	044H
	DB	048H
	DB	0ffH
	DB	048H
	DB	044H
	DB	040H
	DB	0ffH
	DB	040H
	DB	044H
	DB	048H
	DB	0ffH
	DB	048H
	DB	044H
	DB	040H
	DB	0ffH
	DB	048H
	DB	044H
	DB	040H
	DB	0ffH
	DB	040H
	DB	044H
	DB	048H
	DB	0ffH
	DB	040H
	DB	044H
	DB	040H
	DB	0ffH
	DB	048H
	DB	044H
	DB	040H
	DB	0ffH
	DB	040H
	DB	044H
	DB	048H
	DB	0ffH
	DB	048H
	DB	044H
	DB	040H
	DB	0ffH
	DB	040H
	DB	044H
	DB	048H
	DB	0ffH
	DB	040H
	DB	044H
	DB	048H
	DB	0ffH
	DB	048H
	DB	044H
	DB	040H
	DB	0ffH
	DB	048H
	DB	044H
	DB	040H
	DB	0ffH
	DB	040H
	DB	044H
	DB	048H
	DB	0ffH
	DB	048H
	DB	044H
	DB	040H
	DB	0ffH
	DB	040H
	DB	044H
	DB	040H
	DB	0ffH
	DB	040H
	DB	044H
	DB	048H
	DB	0ffH
	DB	048H
	DB	044H
	DB	040H
	DB	0ffH
	DB	040H
	DB	044H
	DB	040H
	DB	0ffH
	DB	048H
	DB	044H
	DB	040H
	DB	0ffH
	DB	040H
	DB	044H
	DB	048H
	DB	0ffH
	DB	040H
	DB	044H
	DB	040H
	DB	0ffH
	DB	040H
	DB	040H
	DB	040H
	DB	0ffH
	DB	040H
	DB	040H
	DB	040H
	DB	0ffH
	DB	040H
	DB	040H
	DB	040H
	DB	0ffH
	DB	040H
	DB	03cH
	DB	040H
	DB	0ffH
	DB	038H
	DB	03cH
	DB	038H
	DB	0ffH
	DB	038H
	DB	038H
	DB	038H
	DB	0ffH
	DB	038H
	DB	038H
	DB	038H
	DB	0ffH
	DB	038H
	DB	034H
	DB	038H
	DB	0ffH
	DB	030H
	DB	034H
	DB	030H
	DB	0ffH
	DB	030H
	DB	034H
	DB	030H
	DB	0ffH
	DB	030H
	DB	034H
	DB	030H
	DB	0ffH
	DB	030H
	DB	034H
	DB	030H
	DB	0ffH
	DB	038H
	DB	038H
	DB	038H
	DB	0ffH
	DB	038H
	DB	038H
	DB	038H
	DB	0ffH
	DB	038H
	DB	038H
	DB	038H
	DB	0ffH
	DB	038H
	DB	03cH
	DB	038H
	DB	0ffH
	DB	040H
	DB	03cH
	DB	038H
	DB	0ffH
	DB	040H
	DB	040H
	DB	040H
	DB	0ffH
	DB	040H
	DB	040H
	DB	040H
	DB	0ffH
	DB	040H
	DB	044H
	DB	040H
	DB	0ffH
	DB	048H
	DB	044H
	DB	040H
	DB	0ffH
	DB	040H
	DB	044H
	DB	048H
	DB	0ffH
	DB	048H
	DB	044H
	DB	040H
	DB	0ffH
	DB	040H
	DB	044H
	DB	040H
	DB	0ffH
	DB	040H
	DB	044H
	DB	048H
	DB	0ffH
	DB	048H
	DB	044H
	DB	040H
	DB	0ffH
	DB	048H
	DB	044H
	DB	048H
	DB	0ffH
	DB	040H
	DB	044H
	DB	040H
	DB	0ffH
	DB	048H
	DB	044H
	DB	048H
	DB	0ffH
	DB	040H
	DB	044H
	DB	040H
	DB	0ffH
	DB	048H
	DB	044H
	DB	040H
	DB	0ffH
	DB	040H
	DB	044H
	DB	048H
	DB	0ffH
	DB	048H
	DB	044H
	DB	040H
	DB	0ffH
	DB	048H
	DB	044H
	DB	040H
	DB	0ffH
	DB	040H
	DB	044H
	DB	040H
	DB	0ffH
	DB	048H
	DB	044H
	DB	048H
	DB	0ffH
	DB	040H
	DB	044H
	DB	040H
	DB	0ffH
	DB	040H
	DB	044H
	DB	040H
	DB	0ffH
	DB	048H
	DB	044H
	DB	048H
	DB	0ffH
	DB	048H
	DB	044H
	DB	040H
	DB	0ffH
	DB	040H
	DB	044H
	DB	040H
	DB	0ffH
	DB	048H
	DB	044H
	DB	048H
	DB	0ffH
	DB	040H
	DB	044H
	DB	040H
	DB	0ffH
	DB	040H
	DB	044H
	DB	040H
	DB	0ffH
	DB	048H
	DB	044H
	DB	048H
	DB	0ffH
	DB	040H
	DB	044H
	DB	040H
	DB	0ffH
	DB	048H
	DB	044H
	DB	040H
	DB	0ffH
	DB	048H
	DB	044H
	DB	048H
	DB	0ffH
	DB	040H
	DB	044H
	DB	040H
	DB	0ffH
	DB	048H
	DB	044H
	DB	040H
	DB	0ffH
	DB	040H
	DB	044H
	DB	048H
	DB	0ffH
	DB	048H
	DB	044H
	DB	040H
	DB	0ffH
	DB	040H
	DB	044H
	DB	040H
	DB	0ffH
	DB	048H
	DB	044H
	DB	048H
	DB	0ffH
	DB	040H
	DB	044H
	DB	040H
	DB	0ffH
	DB	048H
	DB	044H
	DB	040H
	DB	0ffH
	DB	040H
	DB	044H
	DB	048H
	DB	0ffH
	DB	048H
	DB	044H
	DB	040H
	DB	0ffH
	DB	048H
	DB	044H
	DB	048H
	DB	0ffH
	DB	040H
	DB	044H
	DB	040H
	DB	0ffH
	DB	048H
	DB	044H
	DB	048H
	DB	0ffH
	DB	040H
	DB	044H
	DB	048H
	DB	0ffH
	DB	040H
	DB	044H
	DB	040H
	DB	0ffH
	DB	048H
	DB	044H
	DB	040H
	DB	0ffH
	DB	040H
	DB	044H
	DB	048H
	DB	0ffH
	DB	048H
	DB	044H
	DB	040H
	DB	0ffH
	DB	048H
	DB	044H
	DB	040H
	DB	0ffH
	DB	040H
	DB	044H
	DB	048H
	DB	0ffH
	DB	048H
	DB	044H
	DB	048H
	DB	0ffH
	DB	048H
	DB	044H
	DB	040H
	DB	0ffH
	DB	040H
	DB	044H
	DB	048H
	DB	0ffH
	DB	040H
	DB	044H
	DB	040H
	DB	0ffH
	DB	048H
	DB	044H
	DB	040H
	DB	0ffH
	DB	040H
	DB	044H
	DB	048H
	DB	0ffH
	DB	040H
	DB	044H
	DB	040H
	DB	0ffH
	DB	048H
	DB	044H
	DB	040H
	DB	0ffH
	DB	040H
	DB	044H
	DB	048H
	DB	0ffH
	DB	048H
	DB	044H
	DB	040H
	DB	0ffH
	DB	040H
	DB	044H
	DB	040H
	DB	0ffH
	DB	048H
	DB	044H
	DB	048H
	DB	0ffH
	DB	040H
	DB	044H
	DB	040H
	DB	0ffH
	DB	040H
	DB	044H
	DB	040H
	DB	0ffH
	DB	048H
	DB	044H
	DB	040H
	DB	0ffH
	DB	040H
	DB	044H
	DB	048H
	DB	0ffH
	DB	048H
	DB	044H
	DB	040H
	DB	0ffH
	DB	048H
	DB	044H
	DB	040H
	DB	0ffH
	DB	040H
	DB	044H
	DB	048H
	DB	0ffH
	DB	048H
	DB	044H
	DB	048H
	DB	0ffH
	DB	048H
	DB	044H
	DB	040H
	DB	0ffH
	DB	040H
	DB	044H
	DB	040H
	DB	0ffH
	DB	048H
	DB	044H
	DB	048H
	DB	0ffH
	DB	040H
	DB	044H
	DB	048H
	DB	0ffH
	DB	040H
	DB	044H
	DB	040H
	DB	0ffH
	DB	048H
	DB	044H
	DB	048H
	DB	0ffH
	DB	040H
	DB	044H
	DB	040H
	DB	0ffH
	DB	048H
	DB	044H
	DB	040H
	DB	0ffH
	DB	040H
	DB	044H
	DB	048H
	DB	0ffH
	DB	048H
	DB	044H
	DB	040H
	DB	0ffH
	DB	048H
	DB	044H
	DB	040H
	DB	0ffH
	DB	040H
	DB	044H
	DB	048H
	DB	0ffH
	DB	048H
	DB	044H
	DB	040H
	DB	0ffH
	DB	040H
	DB	044H
	DB	040H
	DB	0ffH
	DB	040H
	DB	044H
	DB	048H
	DB	0ffH
	DB	048H
	DB	044H
	DB	040H
	DB	0ffH
	DB	048H
	DB	044H
	DB	048H
	DB	0ffH
	DB	040H
	DB	044H
	DB	040H
	DB	0ffH
	DB	048H
	DB	044H
	DB	048H
	DB	0ffH
	DB	040H
	DB	044H
	DB	040H
	DB	0ffH
	DB	048H
	DB	044H
	DB	040H
	DB	0ffH
	DB	040H
	DB	044H
	DB	048H
	DB	0ffH
	DB	048H
	DB	044H
	DB	040H
	DB	0ffH
	DB	048H
	DB	044H
	DB	048H
	DB	0ffH
	DB	040H
	DB	044H
	DB	040H
	DB	0ffH
	DB	048H
	DB	044H
	DB	040H
	DB	0ffH
	DB	048H
	DB	044H
	DB	048H
	DB	0ffH
	DB	040H
	DB	044H
	DB	040H
	DB	0ffH
	DB	048H
	DB	044H
	DB	040H
	DB	0ffH
	DB	048H
	DB	044H
	DB	040H
	DB	0ffH
	DB	040H
	DB	044H
	DB	048H
	DB	0ffH
	DB	048H
	DB	044H
	DB	040H
	DB	0ffH
	DB	040H
	DB	044H
	DB	040H
	DB	0ffH
	DB	048H
	DB	044H
	DB	048H
	DB	0ffH
	DB	048H
	DB	044H
	DB	048H
	DB	0ffH
	DB	040H
	DB	044H
	DB	040H
	DB	0ffH
	DB	048H
	DB	044H
	DB	040H
	DB	0ffH
	DB	040H
	DB	044H
	DB	048H
	DB	0ffH
	DB	048H
	DB	044H
	DB	040H
	DB	0ffH
	DB	048H
	DB	044H
	DB	040H
	DB	0ffH
	DB	048H
	DB	044H
	DB	048H
	DB	0ffH
	DB	040H
	DB	044H
	DB	040H
	DB	0ffH
	DB	040H
	DB	040H
	DB	040H
	DB	0ffH
	DB	040H
	DB	040H
	DB	040H
	DB	0ffH
	DB	040H
	DB	040H
	DB	040H
	DB	0ffH
	DB	040H
	DB	03cH
	DB	040H
	DB	0ffH
	DB	038H
	DB	03cH
	DB	038H
	DB	0ffH
	DB	038H
	DB	038H
	DB	038H
	DB	0ffH
	DB	038H
	DB	038H
	DB	038H
	DB	0ffH
	DB	038H
	DB	034H
	DB	030H
	DB	0ffH
	DB	038H
	DB	034H
	DB	030H
	DB	0ffH
	DB	030H
	DB	034H
	DB	030H
	DB	0ffH
	DB	030H
	DB	034H
	DB	030H
	DB	0ffH
	DB	038H
	DB	034H
	DB	030H
	DB	0ffH
	DB	038H
	DB	034H
	DB	038H
	DB	0ffH
	DB	038H
	DB	038H
	DB	038H
	DB	0ffH
	DB	038H
	DB	038H
	DB	038H
	DB	0ffH
	DB	038H
	DB	03cH
	DB	038H
	DB	0ffH
	DB	040H
	DB	03cH
	DB	040H
	DB	0ffH
	DB	040H
	DB	040H
	DB	040H
	DB	0ffH
	DB	040H
	DB	040H
	DB	040H
	DB	0ffH
	DB	040H
	DB	040H
	DB	040H
	DB	0ffH
	DB	040H
	DB	044H
	DB	040H
	DB	0ffH
	DB	048H
	DB	044H
	DB	048H
	DB	0ffH
	DB	040H
	DB	044H
	DB	040H
	DB	0ffH
	DB	048H
	DB	044H
	DB	048H
	DB	0ffH
	DB	040H
	DB	044H
	DB	040H
	DB	0ffH
	DB	040H
	DB	044H
	DB	040H
	DB	0ffH
	DB	048H
	DB	044H
	DB	048H
	DB	0ffH
	DB	040H
	DB	044H
	DB	040H
	DB	0ffH
	DB	048H
	DB	044H
	DB	040H
	DB	0ffH
	DB	040H
	DB	044H
	DB	048H
	DB	0ffH
	DB	040H
	DB	044H
	DB	040H
	DB	0ffH
	DB	048H
	DB	044H
	DB	040H
	DB	0ffH
	DB	040H
	DB	044H
	DB	048H
	DB	0ffH
	DB	040H
	DB	044H
	DB	040H
	DB	0ffH
	DB	048H
	DB	044H
	DB	040H
	DB	0ffH
	DB	048H
	DB	044H
	DB	048H
	DB	0ffH
	DB	040H
	DB	044H
	DB	040H
	DB	0ffH
	DB	048H
	DB	044H
	DB	040H
	DB	0ffH
	DB	040H
	DB	044H
	DB	048H
	DB	0ffH
	DB	040H
	DB	044H
	DB	040H
	DB	0ffH
	DB	048H
	DB	044H
	DB	040H
	DB	0ffH
	DB	048H
	DB	044H
	DB	048H
	DB	0ffH
	DB	040H
	DB	044H
	DB	040H
	DB	0ffH
	DB	048H
	DB	044H
	DB	040H
	DB	0ffH
	DB	040H
	DB	044H
	DB	048H
	DB	0ffH
	DB	040H
	DB	044H
	DB	040H
	DB	0ffH
	DB	048H
	DB	044H
	DB	040H
	DB	0ffH
	DB	040H
	DB	044H
	DB	048H
	DB	0ffH
	DB	048H
	DB	044H
	DB	040H
	DB	0ffH
	DB	040H
	DB	044H
	DB	040H
	DB	0ffH
	DB	048H
	DB	044H
	DB	048H
	DB	0ffH
	DB	040H
	DB	044H
	DB	040H
