; Listing generated by Microsoft (R) Optimizing Compiler Version 19.31.31104.0 

	TITLE	F:\MyProject\STM32F769_Keyboard\TouchGFX\build\Debug\obj\image_pinyin_select.obj
	.686P
	.XMM
	include listing.inc
	.model	flat

INCLUDELIB MSVCRTD
INCLUDELIB OLDNAMES

PUBLIC	?image_pinyin_select@@3QBEB			; image_pinyin_select
msvcjmc	SEGMENT
__4DF99823_Config@hpp DB 01H
__654A712B_image_pinyin_select@cpp DB 01H
msvcjmc	ENDS
CONST	SEGMENT
?image_pinyin_select@@3QBEB DB 040H			; image_pinyin_select
	DB	044H
	DB	040H
	DB	04H
	DB	048H
	DB	044H
	DB	040H
	DB	04H
	DB	040H
	DB	044H
	DB	040H
	DB	04H
	DB	040H
	DB	044H
	DB	040H
	DB	04H
	DB	048H
	DB	044H
	DB	040H
	DB	04H
	DB	040H
	DB	044H
	DB	040H
	DB	04H
	DB	040H
	DB	044H
	DB	040H
	DB	04H
	DB	048H
	DB	044H
	DB	040H
	DB	04H
	DB	040H
	DB	044H
	DB	040H
	DB	04H
	DB	040H
	DB	044H
	DB	040H
	DB	04H
	DB	048H
	DB	044H
	DB	040H
	DB	04H
	DB	040H
	DB	044H
	DB	040H
	DB	04H
	DB	040H
	DB	044H
	DB	040H
	DB	04H
	DB	048H
	DB	044H
	DB	040H
	DB	04H
	DB	040H
	DB	044H
	DB	040H
	DB	04H
	DB	040H
	DB	044H
	DB	040H
	DB	04H
	DB	048H
	DB	044H
	DB	040H
	DB	04H
	DB	040H
	DB	044H
	DB	040H
	DB	04H
	DB	040H
	DB	044H
	DB	040H
	DB	04H
	DB	048H
	DB	044H
	DB	040H
	DB	04H
	DB	040H
	DB	044H
	DB	040H
	DB	04H
	DB	040H
	DB	044H
	DB	040H
	DB	04H
	DB	048H
	DB	044H
	DB	040H
	DB	04H
	DB	040H
	DB	044H
	DB	040H
	DB	04H
	DB	040H
	DB	044H
	DB	040H
	DB	04H
	DB	048H
	DB	044H
	DB	040H
	DB	04H
	DB	040H
	DB	044H
	DB	040H
	DB	04H
	DB	040H
	DB	044H
	DB	040H
	DB	04H
	DB	048H
	DB	044H
	DB	040H
	DB	04H
	DB	040H
	DB	044H
	DB	040H
	DB	04H
	DB	040H
	DB	044H
	DB	040H
	DB	04H
	DB	048H
	DB	044H
	DB	040H
	DB	04H
	DB	040H
	DB	044H
	DB	040H
	DB	04H
	DB	040H
	DB	044H
	DB	040H
	DB	04H
	DB	048H
	DB	044H
	DB	040H
	DB	04H
	DB	040H
	DB	044H
	DB	040H
	DB	04H
	DB	040H
	DB	044H
	DB	040H
	DB	04H
	DB	048H
	DB	044H
	DB	040H
	DB	04H
	DB	040H
	DB	044H
	DB	040H
	DB	04H
	DB	040H
	DB	044H
	DB	040H
	DB	04H
	DB	048H
	DB	044H
	DB	040H
	DB	04H
	DB	040H
	DB	044H
	DB	040H
	DB	04H
	DB	040H
	DB	044H
	DB	040H
	DB	04H
	DB	048H
	DB	044H
	DB	040H
	DB	04H
	DB	040H
	DB	044H
	DB	040H
	DB	04H
	DB	040H
	DB	044H
	DB	040H
	DB	04H
	DB	048H
	DB	044H
	DB	040H
	DB	04H
	DB	040H
	DB	044H
	DB	040H
	DB	04H
	DB	040H
	DB	044H
	DB	040H
	DB	04H
	DB	048H
	DB	044H
	DB	040H
	DB	04H
	DB	040H
	DB	044H
	DB	040H
	DB	04H
	DB	040H
	DB	044H
	DB	040H
	DB	04H
	DB	048H
	DB	044H
	DB	040H
	DB	04H
	DB	040H
	DB	044H
	DB	040H
	DB	04H
	DB	040H
	DB	044H
	DB	040H
	DB	04H
	DB	048H
	DB	044H
	DB	040H
	DB	04H
	DB	040H
	DB	044H
	DB	040H
	DB	04H
	DB	040H
	DB	044H
	DB	040H
	DB	04H
	DB	048H
	DB	044H
	DB	040H
	DB	04H
	DB	040H
	DB	044H
	DB	040H
	DB	04H
	DB	040H
	DB	044H
	DB	040H
	DB	04H
	DB	048H
	DB	044H
	DB	040H
	DB	04H
	DB	040H
	DB	044H
	DB	040H
	DB	04H
	DB	040H
	DB	044H
	DB	040H
	DB	04H
	DB	048H
	DB	044H
	DB	040H
	DB	04H
	DB	040H
	DB	044H
	DB	040H
	DB	04H
	DB	040H
	DB	044H
	DB	040H
	DB	04H
	DB	048H
	DB	044H
	DB	040H
	DB	04H
	DB	040H
	DB	044H
	DB	040H
	DB	04H
	DB	040H
	DB	044H
	DB	040H
	DB	04H
	DB	048H
	DB	044H
	DB	040H
	DB	04H
	DB	040H
	DB	044H
	DB	040H
	DB	04H
	DB	040H
	DB	044H
	DB	040H
	DB	04H
	DB	048H
	DB	044H
	DB	040H
	DB	04H
	DB	040H
	DB	044H
	DB	040H
	DB	04H
	DB	040H
	DB	044H
	DB	040H
	DB	04H
	DB	048H
	DB	044H
	DB	040H
	DB	04H
	DB	040H
	DB	044H
	DB	040H
	DB	04H
	DB	040H
	DB	044H
	DB	040H
	DB	04H
	DB	048H
	DB	044H
	DB	040H
	DB	04H
	DB	040H
	DB	044H
	DB	040H
	DB	04H
	DB	040H
	DB	044H
	DB	040H
	DB	04H
	DB	048H
	DB	044H
	DB	040H
	DB	04H
	DB	040H
	DB	044H
	DB	040H
	DB	04H
	DB	040H
	DB	044H
	DB	040H
	DB	04H
	DB	048H
	DB	044H
	DB	040H
	DB	04H
	DB	040H
	DB	044H
	DB	040H
	DB	04H
	DB	040H
	DB	044H
	DB	040H
	DB	04H
	DB	048H
	DB	044H
	DB	040H
	DB	04H
	DB	040H
	DB	044H
	DB	040H
	DB	04H
	DB	040H
	DB	044H
	DB	040H
	DB	04H
	DB	048H
	DB	044H
	DB	040H
	DB	04H
	DB	040H
	DB	044H
	DB	040H
	DB	04H
	DB	040H
	DB	044H
	DB	040H
	DB	04H
	DB	048H
	DB	044H
	DB	040H
	DB	04H
	DB	040H
	DB	044H
	DB	040H
	DB	04H
	DB	040H
	DB	044H
	DB	040H
	DB	04H
	DB	048H
	DB	044H
	DB	040H
	DB	04H
	DB	040H
	DB	044H
	DB	040H
	DB	04H
	DB	040H
	DB	044H
	DB	040H
	DB	04H
	DB	048H
	DB	044H
	DB	040H
	DB	04H
	DB	040H
	DB	044H
	DB	040H
	DB	04H
	DB	040H
	DB	044H
	DB	040H
	DB	04H
	DB	048H
	DB	044H
	DB	040H
	DB	04H
	DB	040H
	DB	044H
	DB	040H
	DB	04H
	DB	040H
	DB	044H
	DB	040H
	DB	04H
	DB	048H
	DB	044H
	DB	040H
	DB	04H
	DB	040H
	DB	044H
	DB	040H
	DB	04H
	DB	040H
	DB	044H
	DB	040H
	DB	04H
	DB	048H
	DB	044H
	DB	040H
	DB	04H
	DB	040H
	DB	044H
	DB	040H
	DB	04H
	DB	040H
	DB	044H
	DB	040H
	DB	04H
	DB	048H
	DB	044H
	DB	040H
	DB	04H
	DB	040H
	DB	044H
	DB	040H
	DB	04H
	DB	040H
	DB	044H
	DB	040H
	DB	04H
	DB	048H
	DB	044H
	DB	040H
	DB	04H
	DB	040H
	DB	044H
	DB	040H
	DB	04H
	DB	040H
	DB	044H
	DB	040H
	DB	04H
	DB	048H
	DB	044H
	DB	040H
	DB	04H
	DB	040H
	DB	044H
	DB	040H
	DB	04H
	DB	040H
	DB	044H
	DB	040H
	DB	04H
	DB	048H
	DB	044H
	DB	048H
	DB	00H
	DB	048H
	DB	044H
	DB	048H
	DB	04H
	DB	040H
	DB	044H
	DB	040H
	DB	00H
	DB	048H
	DB	044H
	DB	048H
	DB	04H
	DB	048H
	DB	044H
	DB	048H
	DB	00H
	DB	040H
	DB	044H
	DB	040H
	DB	04H
	DB	048H
	DB	044H
	DB	048H
	DB	00H
	DB	048H
	DB	044H
	DB	048H
	DB	04H
	DB	040H
	DB	044H
	DB	040H
	DB	00H
	DB	048H
	DB	044H
	DB	048H
	DB	04H
	DB	048H
	DB	044H
	DB	048H
	DB	00H
	DB	040H
	DB	044H
	DB	040H
	DB	04H
	DB	048H
	DB	044H
	DB	048H
	DB	00H
	DB	048H
	DB	044H
	DB	048H
	DB	04H
	DB	040H
	DB	044H
	DB	040H
	DB	00H
	DB	048H
	DB	044H
	DB	048H
	DB	04H
	DB	048H
	DB	044H
	DB	048H
	DB	00H
	DB	040H
	DB	044H
	DB	040H
	DB	04H
	DB	048H
	DB	044H
	DB	048H
	DB	00H
	DB	048H
	DB	044H
	DB	048H
	DB	04H
	DB	040H
	DB	044H
	DB	040H
	DB	00H
	DB	048H
	DB	044H
	DB	048H
	DB	04H
	DB	048H
	DB	044H
	DB	048H
	DB	00H
	DB	040H
	DB	044H
	DB	040H
	DB	04H
	DB	048H
	DB	044H
	DB	048H
	DB	00H
	DB	048H
	DB	044H
	DB	048H
	DB	04H
	DB	040H
	DB	044H
	DB	040H
	DB	00H
	DB	048H
	DB	044H
	DB	048H
	DB	04H
	DB	048H
	DB	044H
	DB	048H
	DB	00H
	DB	040H
	DB	044H
	DB	040H
	DB	04H
	DB	048H
	DB	044H
	DB	048H
	DB	00H
	DB	048H
	DB	044H
	DB	048H
	DB	04H
	DB	040H
	DB	044H
	DB	040H
	DB	00H
	DB	048H
	DB	044H
	DB	048H
	DB	04H
	DB	048H
	DB	044H
	DB	048H
	DB	00H
	DB	040H
	DB	044H
	DB	040H
	DB	04H
	DB	048H
	DB	044H
	DB	048H
	DB	00H
	DB	048H
	DB	044H
	DB	048H
	DB	04H
	DB	040H
	DB	044H
	DB	040H
	DB	00H
	DB	048H
	DB	044H
	DB	048H
	DB	04H
	DB	048H
	DB	044H
	DB	048H
	DB	00H
	DB	040H
	DB	044H
	DB	040H
	DB	04H
	DB	048H
	DB	044H
	DB	048H
	DB	00H
	DB	048H
	DB	044H
	DB	048H
	DB	04H
	DB	040H
	DB	044H
	DB	040H
	DB	00H
	DB	048H
	DB	044H
	DB	048H
	DB	04H
	DB	048H
	DB	044H
	DB	048H
	DB	00H
	DB	040H
	DB	044H
	DB	040H
	DB	04H
	DB	048H
	DB	044H
	DB	048H
	DB	00H
	DB	048H
	DB	044H
	DB	048H
	DB	04H
	DB	040H
	DB	044H
	DB	040H
	DB	00H
	DB	048H
	DB	044H
	DB	048H
	DB	04H
	DB	048H
	DB	044H
	DB	048H
	DB	00H
	DB	040H
	DB	044H
	DB	040H
	DB	04H
	DB	048H
	DB	044H
	DB	048H
	DB	00H
	DB	048H
	DB	044H
	DB	048H
	DB	04H
	DB	040H
	DB	044H
	DB	040H
	DB	00H
	DB	048H
	DB	044H
	DB	048H
	DB	04H
	DB	048H
	DB	044H
	DB	048H
	DB	00H
	DB	040H
	DB	044H
	DB	040H
	DB	04H
	DB	048H
	DB	044H
	DB	048H
	DB	00H
	DB	048H
	DB	044H
	DB	048H
	DB	04H
	DB	040H
	DB	044H
	DB	040H
	DB	00H
	DB	048H
	DB	044H
	DB	048H
	DB	04H
	DB	048H
	DB	044H
	DB	048H
	DB	00H
	DB	040H
	DB	044H
	DB	040H
	DB	04H
	DB	048H
	DB	044H
	DB	048H
	DB	00H
	DB	048H
	DB	044H
	DB	048H
	DB	04H
	DB	040H
	DB	044H
	DB	040H
	DB	00H
	DB	048H
	DB	044H
	DB	048H
	DB	04H
	DB	048H
	DB	044H
	DB	048H
	DB	00H
	DB	040H
	DB	044H
	DB	040H
	DB	04H
	DB	048H
	DB	044H
	DB	048H
	DB	00H
	DB	048H
	DB	044H
	DB	048H
	DB	04H
	DB	040H
	DB	044H
	DB	040H
	DB	00H
	DB	048H
	DB	044H
	DB	048H
	DB	04H
	DB	048H
	DB	044H
	DB	048H
	DB	00H
	DB	040H
	DB	044H
	DB	040H
	DB	04H
	DB	048H
	DB	044H
	DB	048H
	DB	00H
	DB	048H
	DB	044H
	DB	048H
	DB	04H
	DB	040H
	DB	044H
	DB	040H
	DB	00H
	DB	048H
	DB	044H
	DB	048H
	DB	04H
	DB	048H
	DB	044H
	DB	048H
	DB	00H
	DB	040H
	DB	044H
	DB	040H
	DB	04H
	DB	048H
	DB	044H
	DB	048H
	DB	00H
	DB	048H
	DB	044H
	DB	048H
	DB	04H
	DB	040H
	DB	044H
	DB	040H
	DB	00H
	DB	048H
	DB	044H
	DB	048H
	DB	04H
	DB	048H
	DB	044H
	DB	048H
	DB	00H
	DB	040H
	DB	044H
	DB	040H
	DB	04H
	DB	048H
	DB	044H
	DB	048H
	DB	00H
	DB	048H
	DB	044H
	DB	048H
	DB	04H
	DB	040H
	DB	044H
	DB	040H
	DB	00H
	DB	048H
	DB	044H
	DB	048H
	DB	04H
	DB	048H
	DB	044H
	DB	048H
	DB	00H
	DB	040H
	DB	044H
	DB	040H
	DB	04H
	DB	048H
	DB	044H
	DB	048H
	DB	00H
	DB	048H
	DB	044H
	DB	048H
	DB	04H
	DB	040H
	DB	044H
	DB	040H
	DB	00H
	DB	048H
	DB	044H
	DB	048H
	DB	04H
	DB	048H
	DB	044H
	DB	048H
	DB	00H
	DB	040H
	DB	044H
	DB	040H
	DB	04H
	DB	048H
	DB	044H
	DB	048H
	DB	00H
	DB	048H
	DB	044H
	DB	048H
	DB	04H
	DB	040H
	DB	044H
	DB	040H
	DB	00H
	DB	048H
	DB	044H
	DB	048H
	DB	04H
	DB	048H
	DB	044H
	DB	048H
	DB	00H
	DB	040H
	DB	044H
	DB	040H
	DB	04H
	DB	048H
	DB	044H
	DB	048H
	DB	00H
	DB	048H
	DB	044H
	DB	048H
	DB	04H
	DB	040H
	DB	044H
	DB	040H
	DB	00H
	DB	048H
	DB	044H
	DB	048H
	DB	04H
	DB	048H
	DB	044H
	DB	048H
	DB	00H
	DB	040H
	DB	044H
	DB	040H
	DB	04H
	DB	048H
	DB	044H
	DB	048H
	DB	00H
	DB	048H
	DB	044H
	DB	048H
	DB	04H
	DB	040H
	DB	044H
	DB	040H
	DB	00H
	DB	048H
	DB	044H
	DB	048H
	DB	04H
	DB	048H
	DB	044H
	DB	040H
	DB	04H
	DB	040H
	DB	044H
	DB	040H
	DB	04H
	DB	048H
	DB	044H
	DB	040H
	DB	04H
	DB	040H
	DB	044H
	DB	048H
	DB	00H
	DB	040H
	DB	044H
	DB	040H
	DB	04H
	DB	048H
	DB	044H
	DB	040H
	DB	04H
	DB	040H
	DB	044H
	DB	048H
	DB	04H
	DB	040H
	DB	044H
	DB	040H
	DB	00H
	DB	048H
	DB	044H
	DB	040H
	DB	04H
	DB	040H
	DB	044H
	DB	048H
	DB	04H
	DB	040H
	DB	044H
	DB	040H
	DB	04H
	DB	048H
	DB	044H
	DB	040H
	DB	00H
	DB	040H
	DB	044H
	DB	048H
	DB	04H
	DB	040H
	DB	044H
	DB	040H
	DB	04H
	DB	048H
	DB	044H
	DB	040H
	DB	04H
	DB	040H
	DB	044H
	DB	048H
	DB	00H
	DB	040H
	DB	044H
	DB	040H
	DB	04H
	DB	048H
	DB	044H
	DB	040H
	DB	04H
	DB	040H
	DB	044H
	DB	048H
	DB	04H
	DB	040H
	DB	044H
	DB	040H
	DB	00H
	DB	048H
	DB	044H
	DB	040H
	DB	04H
	DB	040H
	DB	044H
	DB	048H
	DB	04H
	DB	040H
	DB	044H
	DB	040H
	DB	04H
	DB	048H
	DB	044H
	DB	040H
	DB	00H
	DB	040H
	DB	044H
	DB	048H
	DB	04H
	DB	040H
	DB	044H
	DB	040H
	DB	04H
	DB	048H
	DB	044H
	DB	040H
	DB	04H
	DB	040H
	DB	044H
	DB	048H
	DB	00H
	DB	040H
	DB	044H
	DB	040H
	DB	04H
	DB	048H
	DB	044H
	DB	040H
	DB	04H
	DB	040H
	DB	044H
	DB	048H
	DB	04H
	DB	040H
	DB	044H
	DB	040H
	DB	00H
	DB	048H
	DB	044H
	DB	040H
	DB	04H
	DB	040H
	DB	044H
	DB	048H
	DB	04H
	DB	040H
	DB	044H
	DB	040H
	DB	04H
	DB	048H
	DB	044H
	DB	040H
	DB	00H
	DB	040H
	DB	044H
	DB	048H
	DB	04H
	DB	040H
	DB	044H
	DB	040H
	DB	04H
	DB	048H
	DB	044H
	DB	040H
	DB	04H
	DB	040H
	DB	044H
	DB	048H
	DB	00H
	DB	040H
	DB	044H
	DB	040H
	DB	04H
	DB	048H
	DB	044H
	DB	040H
	DB	04H
	DB	040H
	DB	044H
	DB	048H
	DB	04H
	DB	040H
	DB	044H
	DB	040H
	DB	00H
	DB	048H
	DB	044H
	DB	040H
	DB	04H
	DB	040H
	DB	044H
	DB	048H
	DB	04H
	DB	040H
	DB	044H
	DB	040H
	DB	04H
	DB	048H
	DB	044H
	DB	040H
	DB	00H
	DB	040H
	DB	044H
	DB	048H
	DB	04H
	DB	040H
	DB	044H
	DB	040H
	DB	04H
	DB	048H
	DB	044H
	DB	040H
	DB	04H
	DB	040H
	DB	044H
	DB	048H
	DB	00H
	DB	040H
	DB	044H
	DB	040H
	DB	04H
	DB	048H
	DB	044H
	DB	040H
	DB	04H
	DB	040H
	DB	044H
	DB	048H
	DB	04H
	DB	040H
	DB	044H
	DB	040H
	DB	00H
	DB	048H
	DB	044H
	DB	040H
	DB	04H
	DB	040H
	DB	044H
	DB	048H
	DB	04H
	DB	040H
	DB	044H
	DB	040H
	DB	04H
	DB	048H
	DB	044H
	DB	040H
	DB	00H
	DB	040H
	DB	044H
	DB	048H
	DB	04H
	DB	040H
	DB	044H
	DB	040H
	DB	04H
	DB	048H
	DB	044H
	DB	040H
	DB	04H
	DB	040H
	DB	044H
	DB	048H
	DB	00H
	DB	040H
	DB	044H
	DB	040H
	DB	04H
	DB	048H
	DB	044H
	DB	040H
	DB	04H
	DB	040H
	DB	044H
	DB	048H
	DB	04H
	DB	040H
	DB	044H
	DB	040H
	DB	00H
	DB	048H
	DB	044H
	DB	040H
	DB	04H
	DB	040H
	DB	044H
	DB	048H
	DB	04H
	DB	040H
	DB	044H
	DB	040H
	DB	04H
	DB	048H
	DB	044H
	DB	040H
	DB	00H
	DB	040H
	DB	044H
	DB	048H
	DB	04H
	DB	040H
	DB	044H
	DB	040H
	DB	04H
	DB	048H
	DB	044H
	DB	040H
	DB	04H
	DB	040H
	DB	044H
	DB	048H
	DB	00H
	DB	040H
	DB	044H
	DB	040H
	DB	04H
	DB	048H
	DB	044H
	DB	040H
	DB	04H
	DB	040H
	DB	044H
	DB	048H
	DB	04H
	DB	040H
	DB	044H
	DB	040H
	DB	00H
	DB	048H
	DB	044H
	DB	040H
	DB	04H
	DB	040H
	DB	044H
	DB	048H
	DB	04H
	DB	040H
	DB	044H
	DB	040H
	DB	04H
	DB	048H
	DB	044H
	DB	040H
	DB	00H
	DB	040H
	DB	044H
	DB	048H
	DB	04H
	DB	040H
	DB	044H
	DB	040H
	DB	04H
	DB	048H
	DB	044H
	DB	040H
	DB	04H
	DB	040H
	DB	044H
	DB	048H
	DB	00H
	DB	040H
	DB	044H
	DB	040H
	DB	04H
	DB	048H
	DB	044H
	DB	040H
	DB	04H
	DB	040H
	DB	044H
	DB	048H
	DB	04H
	DB	040H
	DB	044H
	DB	040H
	DB	00H
	DB	048H
	DB	044H
	DB	040H
	DB	04H
	DB	040H
	DB	044H
	DB	048H
	DB	04H
	DB	040H
	DB	044H
	DB	040H
	DB	04H
	DB	048H
	DB	044H
	DB	040H
	DB	00H
	DB	040H
	DB	044H
	DB	048H
	DB	04H
	DB	040H
	DB	044H
	DB	040H
	DB	04H
	DB	048H
	DB	044H
	DB	040H
	DB	04H
	DB	040H
	DB	044H
	DB	048H
	DB	00H
	DB	040H
	DB	044H
	DB	040H
	DB	04H
	DB	048H
	DB	044H
	DB	040H
	DB	04H
	DB	040H
	DB	044H
	DB	048H
	DB	04H
	DB	040H
	DB	044H
	DB	040H
	DB	00H
	DB	048H
	DB	044H
	DB	040H
	DB	04H
	DB	040H
	DB	044H
	DB	048H
	DB	04H
	DB	040H
	DB	044H
	DB	040H
	DB	04H
	DB	048H
	DB	044H
	DB	040H
	DB	00H
	DB	040H
	DB	044H
	DB	048H
	DB	04H
	DB	040H
	DB	044H
	DB	040H
	DB	04H
	DB	048H
	DB	044H
	DB	040H
	DB	04H
	DB	040H
	DB	044H
	DB	048H
	DB	00H
	DB	040H
	DB	044H
	DB	040H
	DB	04H
	DB	048H
	DB	044H
	DB	040H
	DB	04H
	DB	040H
	DB	044H
	DB	048H
	DB	04H
	DB	040H
	DB	044H
	DB	040H
	DB	00H
	DB	048H
	DB	044H
	DB	040H
	DB	04H
	DB	040H
	DB	044H
	DB	048H
	DB	04H
	DB	040H
	DB	044H
	DB	040H
	DB	04H
	DB	048H
	DB	044H
	DB	048H
	DB	00H
	DB	040H
	DB	044H
	DB	040H
	DB	04H
	DB	048H
	DB	044H
	DB	040H
	DB	04H
	DB	040H
	DB	044H
	DB	040H
	DB	04H
	DB	048H
	DB	044H
	DB	048H
	DB	04H
	DB	048H
	DB	044H
	DB	040H
	DB	04H
	DB	040H
	DB	044H
	DB	040H
	DB	04H
	DB	048H
	DB	044H
	DB	040H
	DB	04H
	DB	048H
	DB	044H
	DB	048H
	DB	04H
	DB	040H
	DB	044H
	DB	040H
	DB	04H
	DB	048H
	DB	044H
	DB	040H
	DB	04H
	DB	048H
	DB	044H
	DB	048H
	DB	04H
	DB	040H
	DB	044H
	DB	040H
	DB	04H
	DB	048H
	DB	044H
	DB	040H
	DB	04H
	DB	048H
	DB	044H
	DB	048H
	DB	04H
	DB	040H
	DB	044H
	DB	040H
	DB	04H
	DB	048H
	DB	044H
	DB	040H
	DB	04H
	DB	048H
	DB	044H
	DB	048H
	DB	04H
	DB	040H
	DB	044H
	DB	040H
	DB	04H
	DB	048H
	DB	044H
	DB	040H
	DB	04H
	DB	048H
	DB	044H
	DB	048H
	DB	04H
	DB	040H
	DB	044H
	DB	040H
	DB	04H
	DB	048H
	DB	044H
	DB	040H
	DB	04H
	DB	048H
	DB	044H
	DB	048H
	DB	04H
	DB	040H
	DB	044H
	DB	040H
	DB	04H
	DB	048H
	DB	044H
	DB	040H
	DB	04H
	DB	048H
	DB	044H
	DB	048H
	DB	04H
	DB	040H
	DB	044H
	DB	040H
	DB	04H
	DB	048H
	DB	044H
	DB	040H
	DB	04H
	DB	048H
	DB	044H
	DB	048H
	DB	04H
	DB	040H
	DB	044H
	DB	040H
	DB	04H
	DB	048H
	DB	044H
	DB	040H
	DB	04H
	DB	048H
	DB	044H
	DB	048H
	DB	04H
	DB	040H
	DB	044H
	DB	040H
	DB	04H
	DB	048H
	DB	044H
	DB	040H
	DB	04H
	DB	048H
	DB	044H
	DB	048H
	DB	04H
	DB	040H
	DB	044H
	DB	040H
	DB	04H
	DB	048H
	DB	044H
	DB	040H
	DB	04H
	DB	048H
	DB	044H
	DB	048H
	DB	04H
	DB	040H
	DB	044H
	DB	040H
	DB	04H
	DB	048H
	DB	044H
	DB	040H
	DB	04H
	DB	048H
	DB	044H
	DB	048H
	DB	04H
	DB	040H
	DB	044H
	DB	040H
	DB	04H
	DB	048H
	DB	044H
	DB	040H
	DB	04H
	DB	048H
	DB	044H
	DB	048H
	DB	04H
	DB	040H
	DB	044H
	DB	040H
	DB	04H
	DB	048H
	DB	044H
	DB	040H
	DB	04H
	DB	048H
	DB	044H
	DB	048H
	DB	04H
	DB	040H
	DB	044H
	DB	040H
	DB	04H
	DB	048H
	DB	044H
	DB	040H
	DB	04H
	DB	048H
	DB	044H
	DB	048H
	DB	04H
	DB	040H
	DB	044H
	DB	040H
	DB	04H
	DB	048H
	DB	044H
	DB	040H
	DB	04H
	DB	048H
	DB	044H
	DB	048H
	DB	04H
	DB	040H
	DB	044H
	DB	040H
	DB	04H
	DB	048H
	DB	044H
	DB	040H
	DB	04H
	DB	048H
	DB	044H
	DB	048H
	DB	04H
	DB	040H
	DB	044H
	DB	040H
	DB	04H
	DB	048H
	DB	044H
	DB	040H
	DB	04H
	DB	048H
	DB	044H
	DB	048H
	DB	04H
	DB	040H
	DB	044H
	DB	040H
	DB	04H
	DB	048H
	DB	044H
	DB	040H
	DB	04H
	DB	048H
	DB	044H
	DB	048H
	DB	04H
	DB	040H
	DB	044H
	DB	040H
	DB	04H
	DB	048H
	DB	044H
	DB	040H
	DB	04H
	DB	048H
	DB	044H
	DB	048H
	DB	04H
	DB	040H
	DB	044H
	DB	040H
	DB	04H
	DB	048H
	DB	044H
	DB	040H
	DB	04H
	DB	048H
	DB	044H
	DB	048H
	DB	04H
	DB	040H
	DB	044H
	DB	040H
	DB	04H
	DB	048H
	DB	044H
	DB	040H
	DB	04H
	DB	048H
	DB	044H
	DB	048H
	DB	04H
	DB	040H
	DB	044H
	DB	040H
	DB	04H
	DB	048H
	DB	044H
	DB	040H
	DB	04H
	DB	048H
	DB	044H
	DB	048H
	DB	04H
	DB	040H
	DB	044H
	DB	040H
	DB	04H
	DB	048H
	DB	044H
	DB	040H
	DB	04H
	DB	048H
	DB	044H
	DB	048H
	DB	04H
	DB	040H
	DB	044H
	DB	040H
	DB	04H
	DB	048H
	DB	044H
	DB	040H
	DB	04H
	DB	048H
	DB	044H
	DB	048H
	DB	04H
	DB	040H
	DB	044H
	DB	040H
	DB	04H
	DB	048H
	DB	044H
	DB	040H
	DB	04H
	DB	048H
	DB	044H
	DB	048H
	DB	04H
	DB	040H
	DB	044H
	DB	040H
	DB	04H
	DB	048H
	DB	044H
	DB	040H
	DB	04H
	DB	048H
	DB	044H
	DB	048H
	DB	04H
	DB	040H
	DB	044H
	DB	040H
	DB	04H
	DB	048H
	DB	044H
	DB	040H
	DB	04H
	DB	048H
	DB	044H
	DB	048H
	DB	04H
	DB	040H
	DB	044H
	DB	040H
	DB	04H
	DB	048H
	DB	044H
	DB	040H
	DB	04H
	DB	048H
	DB	044H
	DB	048H
	DB	04H
	DB	040H
	DB	044H
	DB	040H
	DB	04H
	DB	048H
	DB	044H
	DB	040H
	DB	04H
	DB	048H
	DB	044H
	DB	048H
	DB	04H
	DB	040H
	DB	044H
	DB	040H
	DB	04H
	DB	048H
	DB	044H
	DB	040H
	DB	04H
	DB	048H
	DB	044H
	DB	048H
	DB	04H
	DB	040H
	DB	044H
	DB	040H
	DB	04H
	DB	048H
	DB	044H
	DB	040H
	DB	04H
	DB	048H
	DB	044H
	DB	048H
	DB	04H
	DB	040H
	DB	044H
	DB	040H
	DB	04H
	DB	048H
	DB	044H
	DB	040H
	DB	04H
	DB	048H
	DB	044H
	DB	048H
	DB	04H
	DB	040H
	DB	044H
	DB	040H
	DB	04H
	DB	048H
	DB	044H
	DB	040H
	DB	04H
	DB	048H
	DB	044H
	DB	048H
	DB	04H
	DB	040H
	DB	044H
	DB	040H
	DB	04H
	DB	048H
	DB	044H
	DB	040H
	DB	04H
	DB	048H
	DB	044H
	DB	048H
	DB	04H
	DB	040H
	DB	044H
	DB	040H
	DB	04H
	DB	048H
	DB	044H
	DB	040H
	DB	04H
	DB	048H
	DB	044H
	DB	048H
	DB	04H
	DB	040H
	DB	044H
	DB	040H
	DB	04H
	DB	048H
	DB	044H
	DB	040H
	DB	04H
	DB	048H
	DB	044H
	DB	048H
	DB	04H
	DB	040H
	DB	044H
	DB	040H
	DB	04H
	DB	048H
	DB	044H
	DB	040H
	DB	04H
	DB	048H
	DB	044H
	DB	040H
	DB	04H
	DB	040H
	DB	044H
	DB	040H
	DB	00H
	DB	040H
	DB	044H
	DB	048H
	DB	04H
	DB	040H
	DB	044H
	DB	040H
	DB	00H
	DB	048H
	DB	044H
	DB	048H
	DB	04H
	DB	040H
	DB	044H
	DB	040H
	DB	04H
	DB	048H
	DB	044H
	DB	048H
	DB	00H
	DB	040H
	DB	044H
	DB	040H
	DB	00H
	DB	040H
	DB	044H
	DB	048H
	DB	04H
	DB	048H
	DB	044H
	DB	040H
	DB	04H
	DB	040H
	DB	044H
	DB	040H
	DB	00H
	DB	048H
	DB	044H
	DB	048H
	DB	00H
	DB	040H
	DB	044H
	DB	040H
	DB	04H
	DB	040H
	DB	044H
	DB	040H
	DB	04H
	DB	048H
	DB	044H
	DB	048H
	DB	00H
	DB	040H
	DB	044H
	DB	040H
	DB	00H
	DB	040H
	DB	044H
	DB	040H
	DB	04H
	DB	048H
	DB	044H
	DB	048H
	DB	04H
	DB	040H
	DB	044H
	DB	040H
	DB	00H
	DB	040H
	DB	044H
	DB	040H
	DB	00H
	DB	048H
	DB	044H
	DB	048H
	DB	04H
	DB	040H
	DB	044H
	DB	040H
	DB	04H
	DB	040H
	DB	044H
	DB	040H
	DB	00H
	DB	048H
	DB	044H
	DB	048H
	DB	00H
	DB	040H
	DB	044H
	DB	040H
	DB	04H
	DB	040H
	DB	044H
	DB	040H
	DB	04H
	DB	048H
	DB	044H
	DB	048H
	DB	00H
	DB	040H
	DB	044H
	DB	040H
	DB	00H
	DB	040H
	DB	044H
	DB	040H
	DB	04H
	DB	048H
	DB	044H
	DB	048H
	DB	04H
	DB	040H
	DB	044H
	DB	040H
	DB	00H
	DB	040H
	DB	044H
	DB	040H
	DB	00H
	DB	048H
	DB	044H
	DB	048H
	DB	04H
	DB	040H
	DB	044H
	DB	040H
	DB	04H
	DB	040H
	DB	044H
	DB	040H
	DB	00H
	DB	048H
	DB	044H
	DB	048H
	DB	00H
	DB	040H
	DB	044H
	DB	040H
	DB	04H
	DB	040H
	DB	044H
	DB	040H
	DB	04H
	DB	048H
	DB	044H
	DB	048H
	DB	00H
	DB	040H
	DB	044H
	DB	040H
	DB	00H
	DB	040H
	DB	044H
	DB	040H
	DB	04H
	DB	048H
	DB	044H
	DB	048H
	DB	04H
	DB	040H
	DB	044H
	DB	040H
	DB	00H
	DB	040H
	DB	044H
	DB	040H
	DB	00H
	DB	048H
	DB	044H
	DB	048H
	DB	04H
	DB	040H
	DB	044H
	DB	040H
	DB	04H
	DB	040H
	DB	044H
	DB	040H
	DB	00H
	DB	048H
	DB	044H
	DB	048H
	DB	00H
	DB	040H
	DB	044H
	DB	040H
	DB	04H
	DB	040H
	DB	044H
	DB	040H
	DB	04H
	DB	048H
	DB	044H
	DB	048H
	DB	00H
	DB	040H
	DB	044H
	DB	040H
	DB	00H
	DB	040H
	DB	044H
	DB	040H
	DB	04H
	DB	048H
	DB	044H
	DB	048H
	DB	04H
	DB	040H
	DB	044H
	DB	040H
	DB	00H
	DB	040H
	DB	044H
	DB	040H
	DB	00H
	DB	048H
	DB	044H
	DB	048H
	DB	04H
	DB	040H
	DB	044H
	DB	040H
	DB	04H
	DB	040H
	DB	044H
	DB	040H
	DB	00H
	DB	048H
	DB	044H
	DB	048H
	DB	00H
	DB	040H
	DB	044H
	DB	040H
	DB	04H
	DB	040H
	DB	044H
	DB	040H
	DB	04H
	DB	048H
	DB	044H
	DB	048H
	DB	00H
	DB	040H
	DB	044H
	DB	040H
	DB	00H
	DB	040H
	DB	044H
	DB	040H
	DB	04H
	DB	048H
	DB	044H
	DB	048H
	DB	04H
	DB	040H
	DB	044H
	DB	040H
	DB	00H
	DB	040H
	DB	044H
	DB	040H
	DB	00H
	DB	048H
	DB	044H
	DB	048H
	DB	04H
	DB	040H
	DB	044H
	DB	040H
	DB	04H
	DB	040H
	DB	044H
	DB	040H
	DB	00H
	DB	048H
	DB	044H
	DB	048H
	DB	00H
	DB	040H
	DB	044H
	DB	040H
	DB	04H
	DB	040H
	DB	044H
	DB	040H
	DB	04H
	DB	048H
	DB	044H
	DB	048H
	DB	00H
	DB	040H
	DB	044H
	DB	040H
	DB	00H
	DB	040H
	DB	044H
	DB	040H
	DB	04H
	DB	048H
	DB	044H
	DB	048H
	DB	04H
	DB	040H
	DB	044H
	DB	040H
	DB	00H
	DB	040H
	DB	044H
	DB	040H
	DB	00H
	DB	048H
	DB	044H
	DB	048H
	DB	04H
	DB	040H
	DB	044H
	DB	040H
	DB	04H
	DB	040H
	DB	044H
	DB	040H
	DB	00H
	DB	048H
	DB	044H
	DB	048H
	DB	00H
	DB	040H
	DB	044H
	DB	040H
	DB	04H
	DB	040H
	DB	044H
	DB	040H
	DB	04H
	DB	048H
	DB	044H
	DB	048H
	DB	00H
	DB	040H
	DB	044H
	DB	040H
	DB	00H
	DB	040H
	DB	044H
	DB	040H
	DB	04H
	DB	048H
	DB	044H
	DB	048H
	DB	04H
	DB	040H
	DB	044H
	DB	040H
	DB	00H
	DB	040H
	DB	044H
	DB	040H
	DB	00H
	DB	048H
	DB	044H
	DB	048H
	DB	04H
	DB	040H
	DB	044H
	DB	040H
	DB	04H
	DB	040H
	DB	044H
	DB	040H
	DB	00H
	DB	048H
	DB	044H
	DB	048H
	DB	00H
	DB	040H
	DB	044H
	DB	040H
	DB	04H
	DB	040H
	DB	044H
	DB	040H
	DB	04H
	DB	048H
	DB	044H
	DB	048H
	DB	00H
	DB	040H
	DB	044H
	DB	040H
	DB	00H
	DB	040H
	DB	044H
	DB	040H
	DB	04H
	DB	048H
	DB	044H
	DB	048H
	DB	04H
	DB	040H
	DB	044H
	DB	040H
	DB	00H
	DB	040H
	DB	044H
	DB	040H
	DB	00H
	DB	048H
	DB	044H
	DB	048H
	DB	04H
	DB	040H
	DB	044H
	DB	040H
	DB	04H
	DB	040H
	DB	044H
	DB	040H
	DB	00H
	DB	048H
	DB	044H
	DB	048H
	DB	00H
	DB	040H
	DB	044H
	DB	040H
	DB	04H
	DB	040H
	DB	044H
	DB	040H
	DB	04H
	DB	048H
	DB	044H
	DB	048H
	DB	00H
	DB	040H
	DB	044H
	DB	040H
	DB	00H
	DB	040H
	DB	044H
	DB	040H
	DB	04H
	DB	048H
	DB	044H
	DB	048H
	DB	04H
	DB	040H
	DB	044H
	DB	040H
	DB	00H
	DB	040H
	DB	044H
	DB	040H
	DB	00H
	DB	048H
	DB	044H
	DB	048H
	DB	04H
	DB	040H
	DB	044H
	DB	040H
	DB	04H
	DB	040H
	DB	044H
	DB	048H
	DB	00H
	DB	048H
	DB	044H
	DB	040H
	DB	04H
	DB	048H
	DB	044H
	DB	048H
	DB	04H
	DB	040H
	DB	044H
	DB	040H
	DB	04H
	DB	048H
	DB	044H
	DB	040H
	DB	04H
	DB	040H
	DB	044H
	DB	040H
	DB	04H
	DB	048H
	DB	044H
	DB	040H
	DB	04H
	DB	040H
	DB	044H
	DB	048H
	DB	04H
	DB	040H
	DB	044H
	DB	040H
	DB	04H
	DB	048H
	DB	044H
	DB	040H
	DB	04H
	DB	048H
	DB	044H
	DB	048H
	DB	00H
	DB	040H
	DB	044H
	DB	040H
	DB	04H
	DB	048H
	DB	044H
	DB	048H
	DB	04H
	DB	040H
	DB	044H
	DB	040H
	DB	04H
	DB	048H
	DB	044H
	DB	040H
	DB	04H
	DB	048H
	DB	044H
	DB	048H
	DB	00H
	DB	040H
	DB	044H
	DB	040H
	DB	04H
	DB	048H
	DB	044H
	DB	040H
	DB	04H
	DB	048H
	DB	044H
	DB	048H
	DB	04H
	DB	040H
	DB	044H
	DB	040H
	DB	04H
	DB	048H
	DB	044H
	DB	040H
	DB	04H
	DB	048H
	DB	044H
	DB	048H
	DB	04H
	DB	040H
	DB	044H
	DB	040H
	DB	00H
	DB	048H
	DB	044H
	DB	040H
	DB	04H
	DB	048H
	DB	044H
	DB	048H
	DB	04H
	DB	040H
	DB	044H
	DB	040H
	DB	04H
	DB	048H
	DB	044H
	DB	040H
	DB	04H
	DB	048H
	DB	044H
	DB	048H
	DB	00H
	DB	040H
	DB	044H
	DB	040H
	DB	04H
	DB	048H
	DB	044H
	DB	040H
	DB	04H
	DB	048H
	DB	044H
	DB	048H
	DB	04H
	DB	040H
	DB	044H
	DB	040H
	DB	04H
	DB	048H
	DB	044H
	DB	040H
	DB	04H
	DB	048H
	DB	044H
	DB	048H
	DB	04H
	DB	040H
	DB	044H
	DB	040H
	DB	00H
	DB	048H
	DB	044H
	DB	040H
	DB	04H
	DB	048H
	DB	044H
	DB	048H
	DB	04H
	DB	040H
	DB	044H
	DB	040H
	DB	04H
	DB	048H
	DB	044H
	DB	040H
	DB	04H
	DB	048H
	DB	044H
	DB	048H
	DB	00H
	DB	040H
	DB	044H
	DB	040H
	DB	04H
	DB	048H
	DB	044H
	DB	040H
	DB	04H
	DB	048H
	DB	044H
	DB	048H
	DB	04H
	DB	040H
	DB	044H
	DB	040H
	DB	04H
	DB	048H
	DB	044H
	DB	040H
	DB	04H
	DB	048H
	DB	044H
	DB	048H
	DB	04H
	DB	040H
	DB	044H
	DB	040H
	DB	00H
	DB	048H
	DB	044H
	DB	040H
	DB	04H
	DB	048H
	DB	044H
	DB	048H
	DB	04H
	DB	040H
	DB	044H
	DB	040H
	DB	04H
	DB	048H
	DB	044H
	DB	040H
	DB	04H
	DB	048H
	DB	044H
	DB	048H
	DB	00H
	DB	040H
	DB	044H
	DB	040H
	DB	04H
	DB	048H
	DB	044H
	DB	040H
	DB	04H
	DB	048H
	DB	044H
	DB	048H
	DB	04H
	DB	040H
	DB	044H
	DB	040H
	DB	04H
	DB	048H
	DB	044H
	DB	040H
	DB	04H
	DB	048H
	DB	044H
	DB	048H
	DB	04H
	DB	040H
	DB	044H
	DB	040H
	DB	00H
	DB	048H
	DB	044H
	DB	040H
	DB	04H
	DB	048H
	DB	044H
	DB	048H
	DB	04H
	DB	040H
	DB	044H
	DB	040H
	DB	04H
	DB	048H
	DB	044H
	DB	040H
	DB	04H
	DB	048H
	DB	044H
	DB	048H
	DB	00H
	DB	040H
	DB	044H
	DB	040H
	DB	04H
	DB	048H
	DB	044H
	DB	040H
	DB	04H
	DB	048H
	DB	044H
	DB	048H
	DB	04H
	DB	040H
	DB	044H
	DB	040H
	DB	04H
	DB	048H
	DB	044H
	DB	040H
	DB	04H
	DB	048H
	DB	044H
	DB	048H
	DB	04H
	DB	040H
	DB	044H
	DB	040H
	DB	00H
	DB	048H
	DB	044H
	DB	040H
	DB	04H
	DB	048H
	DB	044H
	DB	048H
	DB	04H
	DB	040H
	DB	044H
	DB	040H
	DB	04H
	DB	048H
	DB	044H
	DB	040H
	DB	04H
	DB	048H
	DB	044H
	DB	048H
	DB	00H
	DB	040H
	DB	044H
	DB	040H
	DB	04H
	DB	048H
	DB	044H
	DB	040H
	DB	04H
	DB	048H
	DB	044H
	DB	048H
	DB	04H
	DB	040H
	DB	044H
	DB	040H
	DB	04H
	DB	048H
	DB	044H
	DB	040H
	DB	04H
	DB	048H
	DB	044H
	DB	048H
	DB	04H
	DB	040H
	DB	044H
	DB	040H
	DB	00H
	DB	048H
	DB	044H
	DB	040H
	DB	04H
	DB	048H
	DB	044H
	DB	048H
	DB	04H
	DB	040H
	DB	044H
	DB	040H
	DB	04H
	DB	048H
	DB	044H
	DB	040H
	DB	04H
	DB	048H
	DB	044H
	DB	048H
	DB	00H
	DB	040H
	DB	044H
	DB	040H
	DB	04H
	DB	048H
	DB	044H
	DB	040H
	DB	04H
	DB	048H
	DB	044H
	DB	048H
	DB	04H
	DB	040H
	DB	044H
	DB	040H
	DB	04H
	DB	048H
	DB	044H
	DB	040H
	DB	04H
	DB	048H
	DB	044H
	DB	048H
	DB	04H
	DB	040H
	DB	044H
	DB	040H
	DB	00H
	DB	048H
	DB	044H
	DB	040H
	DB	04H
	DB	048H
	DB	044H
	DB	048H
	DB	04H
	DB	040H
	DB	044H
	DB	040H
	DB	04H
	DB	048H
	DB	044H
	DB	040H
	DB	04H
	DB	048H
	DB	044H
	DB	048H
	DB	00H
	DB	040H
	DB	044H
	DB	040H
	DB	04H
	DB	048H
	DB	044H
	DB	040H
	DB	04H
	DB	048H
	DB	044H
	DB	048H
	DB	04H
	DB	040H
	DB	044H
	DB	040H
	DB	04H
	DB	048H
	DB	044H
	DB	040H
	DB	04H
	DB	048H
	DB	044H
	DB	048H
	DB	04H
	DB	040H
	DB	044H
	DB	040H
	DB	00H
	DB	048H
	DB	044H
	DB	040H
	DB	04H
	DB	048H
	DB	044H
	DB	048H
	DB	04H
	DB	040H
	DB	044H
	DB	040H
	DB	04H
	DB	048H
	DB	044H
	DB	040H
	DB	04H
	DB	048H
	DB	044H
	DB	048H
	DB	00H
	DB	040H
	DB	044H
	DB	040H
	DB	04H
	DB	048H
	DB	044H
	DB	040H
	DB	04H
	DB	048H
	DB	044H
	DB	048H
	DB	04H
	DB	040H
	DB	044H
	DB	040H
	DB	04H
	DB	048H
	DB	044H
	DB	040H
	DB	04H
	DB	048H
	DB	044H
	DB	048H
	DB	04H
	DB	040H
	DB	044H
	DB	040H
	DB	00H
	DB	048H
	DB	044H
	DB	040H
	DB	04H
	DB	040H
	DB	044H
	DB	048H
	DB	04H
	DB	040H
	DB	044H
	DB	040H
	DB	00H
	DB	048H
	DB	044H
	DB	048H
	DB	04H
	DB	040H
	DB	044H
	DB	048H
	DB	04H
	DB	048H
	DB	044H
	DB	040H
	DB	00H
	DB	048H
	DB	044H
	DB	040H
	DB	04H
	DB	040H
	DB	044H
	DB	048H
	DB	00H
	DB	048H
	DB	044H
	DB	040H
	DB	04H
	DB	048H
	DB	044H
	DB	040H
	DB	04H
	DB	040H
	DB	044H
	DB	048H
	DB	04H
	DB	048H
	DB	044H
	DB	040H
	DB	04H
	DB	040H
	DB	044H
	DB	040H
	DB	04H
	DB	040H
	DB	044H
	DB	048H
	DB	04H
	DB	048H
	DB	044H
	DB	040H
	DB	04H
	DB	040H
	DB	044H
	DB	048H
	DB	00H
	DB	048H
	DB	044H
	DB	048H
	DB	04H
	DB	040H
	DB	044H
	DB	040H
	DB	04H
	DB	040H
	DB	044H
	DB	048H
	DB	04H
	DB	048H
	DB	044H
	DB	040H
	DB	00H
	DB	040H
	DB	044H
	DB	048H
	DB	04H
	DB	048H
	DB	044H
	DB	040H
	DB	04H
	DB	040H
	DB	044H
	DB	048H
	DB	04H
	DB	040H
	DB	044H
	DB	040H
	DB	04H
	DB	048H
	DB	044H
	DB	048H
	DB	04H
	DB	040H
	DB	044H
	DB	048H
	DB	04H
	DB	040H
	DB	044H
	DB	040H
	DB	04H
	DB	048H
	DB	044H
	DB	048H
	DB	00H
	DB	040H
	DB	044H
	DB	040H
	DB	04H
	DB	040H
	DB	044H
	DB	048H
	DB	04H
	DB	048H
	DB	044H
	DB	040H
	DB	04H
	DB	040H
	DB	044H
	DB	048H
	DB	00H
	DB	040H
	DB	044H
	DB	040H
	DB	04H
	DB	048H
	DB	044H
	DB	048H
	DB	04H
	DB	040H
	DB	044H
	DB	048H
	DB	04H
	DB	040H
	DB	044H
	DB	040H
	DB	04H
	DB	048H
	DB	044H
	DB	048H
	DB	04H
	DB	040H
	DB	044H
	DB	040H
	DB	04H
	DB	040H
	DB	044H
	DB	048H
	DB	04H
	DB	048H
	DB	044H
	DB	040H
	DB	00H
	DB	040H
	DB	044H
	DB	048H
	DB	04H
	DB	040H
	DB	044H
	DB	040H
	DB	04H
	DB	048H
	DB	044H
	DB	048H
	DB	04H
	DB	040H
	DB	044H
	DB	048H
	DB	00H
	DB	040H
	DB	044H
	DB	040H
	DB	04H
	DB	048H
	DB	044H
	DB	048H
	DB	04H
	DB	040H
	DB	044H
	DB	040H
	DB	04H
	DB	040H
	DB	044H
	DB	048H
	DB	04H
	DB	048H
	DB	044H
	DB	040H
	DB	04H
	DB	040H
	DB	044H
	DB	048H
	DB	04H
	DB	040H
	DB	044H
	DB	040H
	DB	04H
	DB	048H
	DB	044H
	DB	048H
	DB	00H
	DB	040H
	DB	044H
	DB	048H
	DB	04H
	DB	040H
	DB	044H
	DB	040H
	DB	04H
	DB	048H
	DB	044H
	DB	048H
	DB	04H
	DB	040H
	DB	044H
	DB	040H
	DB	00H
	DB	040H
	DB	044H
	DB	048H
	DB	04H
	DB	048H
	DB	044H
	DB	040H
	DB	04H
	DB	040H
	DB	044H
	DB	048H
	DB	04H
	DB	040H
	DB	044H
	DB	040H
	DB	04H
	DB	048H
	DB	044H
	DB	048H
	DB	04H
	DB	040H
	DB	044H
	DB	048H
	DB	04H
	DB	040H
	DB	044H
	DB	040H
	DB	04H
	DB	048H
	DB	044H
	DB	048H
	DB	00H
	DB	040H
	DB	044H
	DB	040H
	DB	04H
	DB	040H
	DB	044H
	DB	048H
	DB	04H
	DB	048H
	DB	044H
	DB	040H
	DB	04H
	DB	040H
	DB	044H
	DB	048H
	DB	00H
	DB	040H
	DB	044H
	DB	040H
	DB	04H
	DB	048H
	DB	044H
	DB	048H
	DB	04H
	DB	040H
	DB	044H
	DB	048H
	DB	04H
	DB	040H
	DB	044H
	DB	040H
	DB	04H
	DB	048H
	DB	044H
	DB	048H
	DB	04H
	DB	040H
	DB	044H
	DB	040H
	DB	04H
	DB	040H
	DB	044H
	DB	048H
	DB	04H
	DB	048H
	DB	044H
	DB	040H
	DB	00H
	DB	040H
	DB	044H
	DB	048H
	DB	04H
	DB	040H
	DB	044H
	DB	040H
	DB	04H
	DB	048H
	DB	044H
	DB	048H
	DB	04H
	DB	040H
	DB	044H
	DB	048H
	DB	00H
	DB	040H
	DB	044H
	DB	040H
	DB	04H
	DB	048H
	DB	044H
	DB	048H
	DB	04H
	DB	040H
	DB	044H
	DB	040H
	DB	04H
	DB	040H
	DB	044H
	DB	048H
	DB	04H
	DB	048H
	DB	044H
	DB	040H
	DB	04H
	DB	040H
	DB	044H
	DB	048H
	DB	04H
	DB	040H
	DB	044H
	DB	040H
	DB	04H
	DB	048H
	DB	044H
	DB	048H
	DB	00H
	DB	040H
	DB	044H
	DB	048H
	DB	04H
	DB	040H
	DB	044H
	DB	040H
	DB	04H
	DB	048H
	DB	044H
	DB	048H
	DB	04H
	DB	040H
	DB	044H
	DB	040H
	DB	00H
	DB	040H
	DB	044H
	DB	048H
	DB	04H
	DB	048H
	DB	044H
	DB	040H
	DB	04H
	DB	040H
	DB	044H
	DB	048H
	DB	04H
	DB	040H
	DB	044H
	DB	040H
	DB	04H
	DB	048H
	DB	044H
	DB	048H
	DB	04H
	DB	040H
	DB	044H
	DB	048H
	DB	04H
	DB	040H
	DB	044H
	DB	040H
	DB	04H
	DB	048H
	DB	044H
	DB	048H
	DB	00H
	DB	040H
	DB	044H
	DB	040H
	DB	04H
	DB	040H
	DB	044H
	DB	048H
	DB	04H
	DB	048H
	DB	044H
	DB	040H
	DB	04H
	DB	040H
	DB	044H
	DB	048H
	DB	00H
	DB	040H
	DB	044H
	DB	040H
	DB	04H
	DB	048H
	DB	044H
	DB	048H
	DB	04H
	DB	040H
	DB	044H
	DB	048H
	DB	04H
	DB	040H
	DB	044H
	DB	040H
	DB	04H
	DB	048H
	DB	044H
	DB	048H
	DB	04H
	DB	040H
	DB	044H
	DB	040H
	DB	04H
	DB	040H
	DB	044H
	DB	048H
	DB	04H
	DB	048H
	DB	044H
	DB	040H
	DB	00H
	DB	040H
	DB	044H
	DB	048H
	DB	04H
	DB	040H
	DB	044H
	DB	040H
	DB	04H
	DB	048H
	DB	044H
	DB	048H
	DB	04H
	DB	040H
	DB	044H
	DB	048H
	DB	00H
	DB	040H
	DB	044H
	DB	040H
	DB	04H
	DB	048H
	DB	044H
	DB	048H
	DB	04H
	DB	040H
	DB	044H
	DB	040H
	DB	04H
	DB	048H
	DB	044H
	DB	040H
	DB	04H
	DB	048H
	DB	044H
	DB	048H
	DB	04H
	DB	040H
	DB	044H
	DB	040H
	DB	04H
	DB	048H
	DB	044H
	DB	040H
	DB	00H
	DB	040H
	DB	044H
	DB	040H
	DB	04H
	DB	040H
	DB	044H
	DB	040H
	DB	04H
	DB	048H
	DB	044H
	DB	040H
	DB	04H
	DB	040H
	DB	044H
	DB	040H
	DB	04H
	DB	048H
	DB	044H
	DB	048H
	DB	00H
	DB	040H
	DB	044H
	DB	040H
	DB	04H
	DB	040H
	DB	044H
	DB	048H
	DB	00H
	DB	048H
	DB	044H
	DB	040H
	DB	00H
	DB	040H
	DB	044H
	DB	040H
	DB	04H
	DB	048H
	DB	044H
	DB	048H
	DB	00H
	DB	048H
	DB	044H
	DB	040H
	DB	04H
	DB	040H
	DB	044H
	DB	040H
	DB	04H
	DB	040H
	DB	044H
	DB	040H
	DB	04H
	DB	048H
	DB	044H
	DB	040H
	DB	04H
	DB	048H
	DB	044H
	DB	040H
	DB	04H
	DB	040H
	DB	044H
	DB	048H
	DB	00H
	DB	040H
	DB	044H
	DB	040H
	DB	04H
	DB	048H
	DB	044H
	DB	040H
	DB	00H
	DB	040H
	DB	044H
	DB	048H
	DB	00H
	DB	048H
	DB	044H
	DB	040H
	DB	04H
	DB	048H
	DB	044H
	DB	040H
	DB	00H
	DB	040H
	DB	044H
	DB	040H
	DB	00H
	DB	048H
	DB	044H
	DB	040H
	DB	04H
	DB	048H
	DB	044H
	DB	040H
	DB	04H
	DB	040H
	DB	044H
	DB	048H
	DB	04H
	DB	048H
	DB	044H
	DB	040H
	DB	04H
	DB	048H
	DB	044H
	DB	040H
	DB	04H
	DB	040H
	DB	044H
	DB	048H
	DB	00H
	DB	048H
	DB	044H
	DB	040H
	DB	04H
	DB	048H
	DB	044H
	DB	040H
	DB	00H
	DB	040H
	DB	044H
	DB	040H
	DB	00H
	DB	048H
	DB	044H
	DB	040H
	DB	04H
	DB	048H
	DB	044H
	DB	040H
	DB	00H
	DB	040H
	DB	044H
	DB	048H
	DB	00H
	DB	048H
	DB	044H
	DB	040H
	DB	04H
	DB	048H
	DB	044H
	DB	040H
	DB	04H
	DB	040H
	DB	044H
	DB	048H
	DB	04H
	DB	048H
	DB	044H
	DB	040H
	DB	04H
	DB	048H
	DB	044H
	DB	040H
	DB	04H
	DB	040H
	DB	044H
	DB	040H
	DB	00H
	DB	048H
	DB	044H
	DB	040H
	DB	04H
	DB	048H
	DB	044H
	DB	040H
	DB	00H
	DB	040H
	DB	044H
	DB	048H
	DB	00H
	DB	048H
	DB	044H
	DB	040H
	DB	04H
	DB	048H
	DB	044H
	DB	040H
	DB	00H
	DB	040H
	DB	044H
	DB	048H
	DB	00H
	DB	048H
	DB	044H
	DB	040H
	DB	04H
	DB	048H
	DB	044H
	DB	040H
	DB	04H
	DB	040H
	DB	044H
	DB	040H
	DB	04H
	DB	048H
	DB	044H
	DB	040H
	DB	04H
	DB	048H
	DB	044H
	DB	040H
	DB	04H
	DB	040H
	DB	044H
	DB	048H
	DB	00H
	DB	048H
	DB	044H
	DB	040H
	DB	04H
	DB	048H
	DB	044H
	DB	040H
	DB	00H
	DB	040H
	DB	044H
	DB	048H
	DB	00H
	DB	048H
	DB	044H
	DB	040H
	DB	04H
	DB	048H
	DB	044H
	DB	040H
	DB	00H
	DB	040H
	DB	044H
	DB	040H
	DB	00H
	DB	048H
	DB	044H
	DB	040H
	DB	04H
	DB	048H
	DB	044H
	DB	040H
	DB	04H
	DB	040H
	DB	044H
	DB	048H
	DB	04H
	DB	048H
	DB	044H
	DB	040H
	DB	04H
	DB	048H
	DB	044H
	DB	040H
	DB	04H
	DB	040H
	DB	044H
	DB	048H
	DB	00H
	DB	048H
	DB	044H
	DB	040H
	DB	04H
	DB	048H
	DB	044H
	DB	040H
	DB	00H
	DB	040H
	DB	044H
	DB	040H
	DB	00H
	DB	048H
	DB	044H
	DB	040H
	DB	04H
	DB	048H
	DB	044H
	DB	040H
	DB	00H
	DB	040H
	DB	044H
	DB	048H
	DB	00H
	DB	048H
	DB	044H
	DB	040H
	DB	04H
	DB	048H
	DB	044H
	DB	040H
	DB	04H
	DB	040H
	DB	044H
	DB	048H
	DB	04H
	DB	048H
	DB	044H
	DB	040H
	DB	04H
	DB	048H
	DB	044H
	DB	040H
	DB	04H
	DB	040H
	DB	044H
	DB	040H
	DB	00H
	DB	048H
	DB	044H
	DB	040H
	DB	04H
	DB	048H
	DB	044H
	DB	040H
	DB	00H
	DB	040H
	DB	044H
	DB	048H
	DB	00H
	DB	048H
	DB	044H
	DB	040H
	DB	04H
	DB	048H
	DB	044H
	DB	040H
	DB	00H
	DB	040H
	DB	044H
	DB	048H
	DB	00H
	DB	048H
	DB	044H
	DB	040H
	DB	04H
	DB	048H
	DB	044H
	DB	040H
	DB	04H
	DB	040H
	DB	044H
	DB	040H
	DB	04H
	DB	048H
	DB	044H
	DB	040H
	DB	04H
	DB	048H
	DB	044H
	DB	040H
	DB	04H
	DB	040H
	DB	044H
	DB	048H
	DB	00H
	DB	048H
	DB	044H
	DB	040H
	DB	04H
	DB	048H
	DB	044H
	DB	040H
	DB	00H
	DB	040H
	DB	044H
	DB	048H
	DB	00H
	DB	048H
	DB	044H
	DB	040H
	DB	04H
	DB	048H
	DB	044H
	DB	040H
	DB	00H
	DB	040H
	DB	044H
	DB	040H
	DB	00H
	DB	048H
	DB	044H
	DB	040H
	DB	04H
	DB	048H
	DB	044H
	DB	040H
	DB	04H
	DB	040H
	DB	044H
	DB	048H
	DB	04H
	DB	048H
	DB	044H
	DB	040H
	DB	04H
	DB	048H
	DB	044H
	DB	040H
	DB	04H
	DB	040H
	DB	044H
	DB	048H
	DB	00H
	DB	048H
	DB	044H
	DB	040H
	DB	04H
	DB	048H
	DB	044H
	DB	040H
	DB	00H
	DB	040H
	DB	044H
	DB	040H
	DB	00H
	DB	048H
	DB	044H
	DB	040H
	DB	04H
	DB	048H
	DB	044H
	DB	040H
	DB	00H
	DB	040H
	DB	044H
	DB	048H
	DB	00H
	DB	048H
	DB	044H
	DB	040H
	DB	04H
	DB	048H
	DB	044H
	DB	040H
	DB	04H
	DB	040H
	DB	044H
	DB	048H
	DB	04H
	DB	048H
	DB	044H
	DB	040H
	DB	04H
	DB	048H
	DB	044H
	DB	040H
	DB	04H
	DB	040H
	DB	044H
	DB	040H
	DB	00H
	DB	048H
	DB	044H
	DB	040H
	DB	04H
	DB	048H
	DB	044H
	DB	040H
	DB	00H
	DB	040H
	DB	044H
	DB	048H
	DB	00H
	DB	040H
	DB	044H
	DB	040H
	DB	04H
	DB	048H
	DB	044H
	DB	048H
	DB	00H
	DB	040H
	DB	044H
	DB	040H
	DB	04H
	DB	048H
	DB	044H
	DB	040H
	DB	04H
	DB	048H
	DB	044H
	DB	048H
	DB	04H
	DB	040H
	DB	044H
	DB	048H
	DB	00H
	DB	048H
	DB	044H
	DB	040H
	DB	04H
	DB	040H
	DB	044H
	DB	048H
	DB	04H
	DB	040H
	DB	044H
	DB	040H
	DB	04H
	DB	048H
	DB	044H
	DB	040H
	DB	04H
	DB	048H
	DB	044H
	DB	048H
	DB	04H
	DB	040H
	DB	044H
	DB	040H
	DB	04H
	DB	048H
	DB	044H
	DB	040H
	DB	04H
	DB	040H
	DB	044H
	DB	048H
	DB	04H
	DB	048H
	DB	044H
	DB	040H
	DB	00H
	DB	048H
	DB	044H
	DB	048H
	DB	04H
	DB	040H
	DB	044H
	DB	040H
	DB	00H
	DB	048H
	DB	044H
	DB	048H
	DB	04H
	DB	040H
	DB	044H
	DB	040H
	DB	04H
	DB	048H
	DB	044H
	DB	040H
	DB	00H
	DB	048H
	DB	044H
	DB	048H
	DB	04H
	DB	040H
	DB	044H
	DB	040H
	DB	04H
	DB	048H
	DB	044H
	DB	040H
	DB	04H
	DB	040H
	DB	044H
	DB	048H
	DB	04H
	DB	048H
	DB	044H
	DB	040H
	DB	04H
	DB	040H
	DB	044H
	DB	048H
	DB	04H
	DB	040H
	DB	044H
	DB	048H
	DB	04H
	DB	048H
	DB	044H
	DB	040H
	DB	00H
	DB	040H
	DB	044H
	DB	040H
	DB	04H
	DB	040H
	DB	044H
	DB	048H
	DB	00H
	DB	048H
	DB	044H
	DB	040H
	DB	04H
	DB	040H
	DB	044H
	DB	040H
	DB	04H
	DB	040H
	DB	044H
	DB	048H
	DB	04H
	DB	048H
	DB	044H
	DB	040H
	DB	04H
	DB	040H
	DB	044H
	DB	048H
	DB	04H
	DB	040H
	DB	044H
	DB	048H
	DB	04H
	DB	048H
	DB	044H
	DB	040H
	DB	04H
	DB	040H
	DB	044H
	DB	040H
	DB	04H
	DB	040H
	DB	044H
	DB	048H
	DB	04H
	DB	048H
	DB	044H
	DB	040H
	DB	00H
	DB	040H
	DB	044H
	DB	040H
	DB	04H
	DB	040H
	DB	044H
	DB	048H
	DB	00H
	DB	048H
	DB	044H
	DB	040H
	DB	04H
	DB	040H
	DB	044H
	DB	048H
	DB	04H
	DB	040H
	DB	044H
	DB	048H
	DB	04H
	DB	048H
	DB	044H
	DB	040H
	DB	04H
	DB	040H
	DB	044H
	DB	040H
	DB	04H
	DB	040H
	DB	044H
	DB	048H
	DB	04H
	DB	048H
	DB	044H
	DB	040H
	DB	04H
	DB	040H
	DB	044H
	DB	040H
	DB	04H
	DB	040H
	DB	044H
	DB	048H
	DB	04H
	DB	048H
	DB	044H
	DB	040H
	DB	00H
	DB	040H
	DB	044H
	DB	048H
	DB	04H
	DB	040H
	DB	044H
	DB	048H
	DB	00H
	DB	048H
	DB	044H
	DB	040H
	DB	04H
	DB	040H
	DB	044H
	DB	040H
	DB	04H
	DB	040H
	DB	044H
	DB	048H
	DB	04H
	DB	048H
	DB	044H
	DB	040H
	DB	04H
	DB	040H
	DB	044H
	DB	040H
	DB	04H
	DB	040H
	DB	044H
	DB	048H
	DB	04H
	DB	048H
	DB	044H
	DB	040H
	DB	04H
	DB	040H
	DB	044H
	DB	048H
	DB	04H
	DB	040H
	DB	044H
	DB	048H
	DB	04H
	DB	048H
	DB	044H
	DB	040H
	DB	00H
	DB	040H
	DB	044H
	DB	040H
	DB	04H
	DB	040H
	DB	044H
	DB	048H
	DB	00H
	DB	048H
	DB	044H
	DB	040H
	DB	04H
	DB	040H
	DB	044H
	DB	040H
	DB	04H
	DB	040H
	DB	044H
	DB	048H
	DB	04H
	DB	048H
	DB	044H
	DB	040H
	DB	04H
	DB	040H
	DB	044H
	DB	048H
	DB	04H
	DB	040H
	DB	044H
	DB	048H
	DB	04H
	DB	048H
	DB	044H
	DB	040H
	DB	04H
	DB	040H
	DB	044H
	DB	040H
	DB	04H
	DB	040H
	DB	044H
	DB	048H
	DB	04H
	DB	048H
	DB	044H
	DB	040H
	DB	00H
	DB	040H
	DB	044H
	DB	040H
	DB	04H
	DB	040H
	DB	044H
	DB	048H
	DB	00H
	DB	048H
	DB	044H
	DB	040H
	DB	04H
	DB	040H
	DB	044H
	DB	048H
	DB	04H
	DB	040H
	DB	044H
	DB	048H
	DB	04H
	DB	048H
	DB	044H
	DB	040H
	DB	04H
	DB	040H
	DB	044H
	DB	040H
	DB	04H
	DB	040H
	DB	044H
	DB	048H
	DB	04H
	DB	048H
	DB	044H
	DB	040H
	DB	04H
	DB	040H
	DB	044H
	DB	040H
	DB	04H
	DB	040H
	DB	044H
	DB	048H
	DB	04H
	DB	048H
	DB	044H
	DB	040H
	DB	00H
	DB	040H
	DB	044H
	DB	048H
	DB	04H
	DB	040H
	DB	044H
	DB	048H
	DB	00H
	DB	048H
	DB	044H
	DB	040H
	DB	04H
	DB	040H
	DB	044H
	DB	040H
	DB	04H
	DB	040H
	DB	044H
	DB	048H
	DB	04H
	DB	048H
	DB	044H
	DB	040H
	DB	04H
	DB	040H
	DB	044H
	DB	040H
	DB	04H
	DB	040H
	DB	044H
	DB	048H
	DB	04H
	DB	048H
	DB	044H
	DB	040H
	DB	04H
	DB	040H
	DB	044H
	DB	048H
	DB	04H
	DB	040H
	DB	044H
	DB	048H
	DB	04H
	DB	048H
	DB	044H
	DB	040H
	DB	00H
	DB	040H
	DB	044H
	DB	040H
	DB	04H
	DB	040H
	DB	044H
	DB	048H
	DB	00H
	DB	048H
	DB	044H
	DB	040H
	DB	04H
	DB	040H
	DB	044H
	DB	040H
	DB	04H
	DB	040H
	DB	044H
	DB	048H
	DB	04H
	DB	048H
	DB	044H
	DB	040H
	DB	04H
	DB	040H
	DB	044H
	DB	048H
	DB	04H
	DB	040H
	DB	044H
	DB	048H
	DB	04H
	DB	048H
	DB	044H
	DB	040H
	DB	04H
	DB	040H
	DB	044H
	DB	040H
	DB	04H
	DB	040H
	DB	044H
	DB	048H
	DB	04H
	DB	048H
	DB	044H
	DB	040H
	DB	00H
	DB	040H
	DB	044H
	DB	040H
	DB	04H
	DB	040H
	DB	044H
	DB	048H
	DB	00H
	DB	048H
	DB	044H
	DB	040H
	DB	04H
	DB	040H
	DB	044H
	DB	048H
	DB	04H
	DB	040H
	DB	044H
	DB	048H
	DB	04H
	DB	048H
	DB	044H
	DB	040H
	DB	04H
	DB	048H
	DB	044H
	DB	040H
	DB	04H
	DB	040H
	DB	044H
	DB	048H
	DB	04H
	DB	048H
	DB	044H
	DB	040H
	DB	04H
	DB	040H
	DB	044H
	DB	040H
	DB	04H
	DB	040H
	DB	044H
	DB	048H
	DB	00H
	DB	048H
	DB	044H
	DB	040H
	DB	04H
	DB	040H
	DB	044H
	DB	040H
	DB	04H
	DB	048H
	DB	044H
	DB	048H
	DB	00H
	DB	048H
	DB	044H
	DB	040H
	DB	04H
	DB	040H
	DB	044H
	DB	040H
	DB	04H
	DB	040H
	DB	044H
	DB	040H
	DB	04H
	DB	048H
	DB	044H
	DB	048H
	DB	04H
	DB	040H
	DB	044H
	DB	040H
	DB	00H
	DB	048H
	DB	044H
	DB	040H
	DB	04H
	DB	040H
	DB	044H
	DB	048H
	DB	04H
	DB	040H
	DB	044H
	DB	040H
	DB	04H
	DB	040H
	DB	044H
	DB	040H
	DB	04H
	DB	048H
	DB	044H
	DB	048H
	DB	04H
	DB	040H
	DB	044H
	DB	040H
	DB	04H
	DB	048H
	DB	044H
	DB	048H
	DB	00H
	DB	040H
	DB	044H
	DB	048H
	DB	04H
	DB	040H
	DB	044H
	DB	040H
	DB	04H
	DB	048H
	DB	044H
	DB	040H
	DB	04H
	DB	048H
	DB	044H
	DB	048H
	DB	04H
	DB	040H
	DB	044H
	DB	040H
	DB	04H
	DB	048H
	DB	044H
	DB	040H
	DB	04H
	DB	040H
	DB	044H
	DB	048H
	DB	00H
	DB	048H
	DB	044H
	DB	040H
	DB	04H
	DB	048H
	DB	044H
	DB	040H
	DB	04H
	DB	040H
	DB	044H
	DB	048H
	DB	04H
	DB	048H
	DB	044H
	DB	040H
	DB	04H
	DB	048H
	DB	044H
	DB	048H
	DB	00H
	DB	040H
	DB	044H
	DB	040H
	DB	04H
	DB	048H
	DB	044H
	DB	040H
	DB	04H
	DB	048H
	DB	044H
	DB	048H
	DB	00H
	DB	040H
	DB	044H
	DB	040H
	DB	04H
	DB	048H
	DB	044H
	DB	040H
	DB	04H
	DB	048H
	DB	044H
	DB	048H
	DB	04H
	DB	040H
	DB	044H
	DB	040H
	DB	04H
	DB	048H
	DB	044H
	DB	048H
	DB	04H
	DB	048H
	DB	044H
	DB	040H
	DB	04H
	DB	040H
	DB	044H
	DB	040H
	DB	04H
	DB	048H
	DB	044H
	DB	048H
	DB	04H
	DB	048H
	DB	044H
	DB	040H
	DB	00H
	DB	040H
	DB	044H
	DB	040H
	DB	04H
	DB	048H
	DB	044H
	DB	040H
	DB	04H
	DB	048H
	DB	044H
	DB	048H
	DB	00H
	DB	040H
	DB	044H
	DB	040H
	DB	04H
	DB	048H
	DB	044H
	DB	048H
	DB	04H
	DB	048H
	DB	044H
	DB	040H
	DB	04H
	DB	040H
	DB	044H
	DB	040H
	DB	04H
	DB	048H
	DB	044H
	DB	048H
	DB	04H
	DB	048H
	DB	044H
	DB	040H
	DB	04H
	DB	040H
	DB	044H
	DB	040H
	DB	04H
	DB	048H
	DB	044H
	DB	040H
	DB	04H
	DB	048H
	DB	044H
	DB	048H
	DB	00H
	DB	040H
	DB	044H
	DB	040H
	DB	04H
	DB	048H
	DB	044H
	DB	048H
	DB	04H
	DB	048H
	DB	044H
	DB	040H
	DB	00H
	DB	040H
	DB	044H
	DB	040H
	DB	04H
	DB	048H
	DB	044H
	DB	048H
	DB	04H
	DB	048H
	DB	044H
	DB	040H
	DB	04H
	DB	040H
	DB	044H
	DB	040H
	DB	04H
	DB	048H
	DB	044H
	DB	040H
	DB	04H
	DB	048H
	DB	044H
	DB	048H
	DB	04H
	DB	040H
	DB	044H
	DB	040H
	DB	04H
	DB	048H
	DB	044H
	DB	048H
	DB	04H
	DB	048H
	DB	044H
	DB	040H
	DB	00H
	DB	040H
	DB	044H
	DB	040H
	DB	04H
	DB	048H
	DB	044H
	DB	048H
	DB	04H
	DB	048H
	DB	044H
	DB	040H
	DB	00H
	DB	040H
	DB	044H
	DB	040H
	DB	04H
	DB	048H
	DB	044H
	DB	040H
	DB	04H
	DB	048H
	DB	044H
	DB	048H
	DB	04H
	DB	040H
	DB	044H
	DB	040H
	DB	04H
	DB	048H
	DB	044H
	DB	048H
	DB	04H
	DB	048H
	DB	044H
	DB	040H
	DB	04H
	DB	040H
	DB	044H
	DB	040H
	DB	04H
	DB	048H
	DB	044H
	DB	048H
	DB	04H
	DB	048H
	DB	044H
	DB	040H
	DB	00H
	DB	040H
	DB	044H
	DB	040H
	DB	04H
	DB	048H
	DB	044H
	DB	040H
	DB	04H
	DB	048H
	DB	044H
	DB	048H
	DB	00H
	DB	040H
	DB	044H
	DB	040H
	DB	04H
	DB	048H
	DB	044H
	DB	048H
	DB	04H
	DB	048H
	DB	044H
	DB	040H
	DB	04H
	DB	040H
	DB	044H
	DB	040H
	DB	04H
	DB	048H
	DB	044H
	DB	048H
	DB	04H
	DB	048H
	DB	044H
	DB	040H
	DB	04H
	DB	040H
	DB	044H
	DB	040H
	DB	04H
	DB	048H
	DB	044H
	DB	040H
	DB	04H
	DB	048H
	DB	044H
	DB	048H
	DB	00H
	DB	040H
	DB	044H
	DB	040H
	DB	04H
	DB	048H
	DB	044H
	DB	048H
	DB	04H
	DB	048H
	DB	044H
	DB	040H
	DB	00H
	DB	040H
	DB	044H
	DB	040H
	DB	04H
	DB	048H
	DB	044H
	DB	048H
	DB	04H
	DB	048H
	DB	044H
	DB	040H
	DB	04H
	DB	040H
	DB	044H
	DB	040H
	DB	04H
	DB	048H
	DB	044H
	DB	040H
	DB	04H
	DB	048H
	DB	044H
	DB	048H
	DB	04H
	DB	040H
	DB	044H
	DB	040H
	DB	04H
	DB	048H
	DB	044H
	DB	048H
	DB	04H
	DB	048H
	DB	044H
	DB	040H
	DB	00H
	DB	040H
	DB	044H
	DB	040H
	DB	04H
	DB	048H
	DB	044H
	DB	048H
	DB	04H
	DB	048H
	DB	044H
	DB	040H
	DB	00H
	DB	040H
	DB	044H
	DB	040H
	DB	04H
	DB	048H
	DB	044H
	DB	040H
	DB	04H
	DB	048H
	DB	044H
	DB	048H
	DB	04H
	DB	040H
	DB	044H
	DB	040H
	DB	04H
	DB	048H
	DB	044H
	DB	048H
	DB	04H
	DB	048H
	DB	044H
	DB	040H
	DB	04H
	DB	040H
	DB	044H
	DB	040H
	DB	04H
	DB	048H
	DB	044H
	DB	048H
	DB	04H
	DB	048H
	DB	044H
	DB	040H
	DB	00H
	DB	040H
	DB	044H
	DB	040H
	DB	04H
	DB	048H
	DB	044H
	DB	040H
	DB	04H
	DB	040H
	DB	044H
	DB	048H
	DB	00H
	DB	040H
	DB	044H
	DB	040H
	DB	04H
	DB	048H
	DB	044H
	DB	048H
	DB	04H
	DB	040H
	DB	044H
	DB	040H
	DB	04H
	DB	048H
	DB	044H
	DB	040H
	DB	04H
	DB	048H
	DB	044H
	DB	048H
	DB	04H
	DB	040H
	DB	044H
	DB	048H
	DB	00H
	DB	048H
	DB	044H
	DB	040H
	DB	04H
	DB	040H
	DB	044H
	DB	040H
	DB	04H
	DB	040H
	DB	044H
	DB	040H
	DB	04H
	DB	048H
	DB	044H
	DB	048H
	DB	04H
	DB	040H
	DB	044H
	DB	040H
	DB	00H
	DB	048H
	DB	044H
	DB	040H
	DB	04H
	DB	040H
	DB	044H
	DB	048H
	DB	00H
	DB	040H
	DB	044H
	DB	040H
	DB	04H
	DB	048H
	DB	044H
	DB	048H
	DB	04H
	DB	048H
	DB	044H
	DB	048H
	DB	00H
	DB	048H
	DB	044H
	DB	040H
	DB	04H
	DB	040H
	DB	044H
	DB	040H
	DB	04H
	DB	040H
	DB	044H
	DB	048H
	DB	00H
	DB	048H
	DB	044H
	DB	040H
	DB	04H
	DB	040H
	DB	044H
	DB	040H
	DB	04H
	DB	048H
	DB	044H
	DB	040H
	DB	00H
	DB	040H
	DB	044H
	DB	048H
	DB	04H
	DB	040H
	DB	044H
	DB	040H
	DB	00H
	DB	048H
	DB	044H
	DB	048H
	DB	04H
	DB	040H
	DB	044H
	DB	040H
	DB	00H
	DB	040H
	DB	044H
	DB	040H
	DB	04H
	DB	048H
	DB	044H
	DB	048H
	DB	04H
	DB	040H
	DB	044H
	DB	040H
	DB	00H
	DB	048H
	DB	044H
	DB	040H
	DB	04H
	DB	040H
	DB	044H
	DB	048H
	DB	04H
	DB	040H
	DB	044H
	DB	040H
	DB	04H
	DB	048H
	DB	044H
	DB	040H
	DB	04H
	DB	040H
	DB	044H
	DB	048H
	DB	04H
	DB	048H
	DB	044H
	DB	040H
	DB	00H
	DB	040H
	DB	044H
	DB	040H
	DB	04H
	DB	040H
	DB	044H
	DB	048H
	DB	04H
	DB	048H
	DB	044H
	DB	040H
	DB	00H
	DB	040H
	DB	044H
	DB	040H
	DB	00H
	DB	040H
	DB	044H
	DB	048H
	DB	04H
	DB	048H
	DB	044H
	DB	040H
	DB	00H
	DB	040H
	DB	044H
	DB	040H
	DB	00H
	DB	040H
	DB	044H
	DB	048H
	DB	04H
	DB	048H
	DB	044H
	DB	048H
	DB	04H
	DB	040H
	DB	044H
	DB	040H
	DB	04H
	DB	040H
	DB	044H
	DB	040H
	DB	04H
	DB	048H
	DB	044H
	DB	048H
	DB	00H
	DB	040H
	DB	044H
	DB	040H
	DB	04H
	DB	040H
	DB	044H
	DB	040H
	DB	04H
	DB	048H
	DB	044H
	DB	048H
	DB	00H
	DB	040H
	DB	044H
	DB	040H
	DB	00H
	DB	040H
	DB	044H
	DB	048H
	DB	04H
	DB	048H
	DB	044H
	DB	040H
	DB	00H
	DB	040H
	DB	044H
	DB	048H
	DB	00H
	DB	040H
	DB	044H
	DB	040H
	DB	04H
	DB	048H
	DB	044H
	DB	040H
	DB	04H
	DB	040H
	DB	044H
	DB	040H
	DB	04H
	DB	040H
	DB	044H
	DB	048H
	DB	04H
	DB	048H
	DB	044H
	DB	040H
	DB	00H
	DB	040H
	DB	044H
	DB	040H
	DB	04H
	DB	040H
	DB	044H
	DB	048H
	DB	04H
	DB	048H
	DB	044H
	DB	048H
	DB	00H
	DB	040H
	DB	044H
	DB	040H
	DB	00H
	DB	040H
	DB	044H
	DB	040H
	DB	04H
	DB	048H
	DB	044H
	DB	048H
	DB	00H
	DB	040H
	DB	044H
	DB	040H
	DB	00H
	DB	040H
	DB	044H
	DB	040H
	DB	04H
	DB	048H
	DB	044H
	DB	048H
	DB	04H
	DB	040H
	DB	044H
	DB	040H
	DB	04H
	DB	040H
	DB	044H
	DB	048H
	DB	04H
	DB	048H
	DB	044H
	DB	040H
	DB	00H
	DB	040H
	DB	044H
	DB	048H
	DB	04H
	DB	040H
	DB	044H
	DB	040H
	DB	04H
	DB	048H
	DB	044H
	DB	040H
	DB	00H
	DB	040H
	DB	044H
	DB	040H
	DB	00H
	DB	040H
	DB	044H
	DB	048H
	DB	04H
	DB	048H
	DB	044H
	DB	040H
	DB	00H
	DB	040H
	DB	044H
	DB	040H
	DB	00H
	DB	040H
	DB	044H
	DB	048H
	DB	04H
	DB	048H
	DB	044H
	DB	048H
	DB	04H
	DB	040H
	DB	044H
	DB	040H
	DB	04H
	DB	040H
	DB	044H
	DB	040H
	DB	04H
	DB	048H
	DB	044H
	DB	048H
	DB	00H
	DB	040H
	DB	044H
	DB	040H
	DB	04H
	DB	040H
	DB	044H
	DB	040H
	DB	04H
	DB	048H
	DB	044H
	DB	048H
	DB	00H
	DB	040H
	DB	044H
	DB	040H
	DB	00H
	DB	040H
	DB	044H
	DB	048H
	DB	04H
	DB	048H
	DB	044H
	DB	040H
	DB	00H
	DB	040H
	DB	044H
	DB	048H
	DB	00H
	DB	040H
	DB	044H
	DB	040H
	DB	04H
	DB	048H
	DB	044H
	DB	040H
	DB	04H
	DB	040H
	DB	044H
	DB	040H
	DB	04H
	DB	040H
	DB	044H
	DB	048H
	DB	04H
	DB	048H
	DB	044H
	DB	040H
	DB	00H
	DB	040H
	DB	044H
	DB	040H
	DB	04H
	DB	040H
	DB	044H
	DB	048H
	DB	04H
	DB	048H
	DB	044H
	DB	048H
	DB	00H
	DB	040H
	DB	044H
	DB	040H
	DB	00H
	DB	040H
	DB	044H
	DB	040H
	DB	04H
	DB	048H
	DB	044H
	DB	048H
	DB	00H
	DB	040H
	DB	044H
	DB	040H
	DB	00H
	DB	040H
	DB	044H
	DB	040H
	DB	04H
	DB	048H
	DB	044H
	DB	048H
	DB	04H
	DB	040H
	DB	044H
	DB	040H
	DB	04H
	DB	040H
	DB	044H
	DB	048H
	DB	04H
	DB	048H
	DB	044H
	DB	040H
	DB	00H
	DB	040H
	DB	044H
	DB	048H
	DB	04H
	DB	040H
	DB	044H
	DB	040H
	DB	04H
	DB	048H
	DB	044H
	DB	040H
	DB	00H
	DB	040H
	DB	044H
	DB	040H
	DB	00H
	DB	040H
	DB	044H
	DB	048H
	DB	04H
	DB	048H
	DB	044H
	DB	040H
	DB	00H
	DB	040H
	DB	044H
	DB	040H
	DB	00H
	DB	040H
	DB	044H
	DB	048H
	DB	04H
	DB	048H
	DB	044H
	DB	048H
	DB	04H
	DB	040H
	DB	044H
	DB	040H
	DB	04H
	DB	048H
	DB	044H
	DB	040H
	DB	04H
	DB	048H
	DB	044H
	DB	048H
	DB	00H
	DB	040H
	DB	044H
	DB	040H
	DB	04H
	DB	048H
	DB	044H
	DB	040H
	DB	04H
	DB	040H
	DB	044H
	DB	048H
	DB	00H
	DB	040H
	DB	044H
	DB	040H
	DB	00H
	DB	048H
	DB	044H
	DB	040H
	DB	04H
	DB	040H
	DB	044H
	DB	048H
	DB	04H
	DB	048H
	DB	044H
	DB	040H
	DB	04H
	DB	048H
	DB	044H
	DB	040H
	DB	00H
	DB	040H
	DB	044H
	DB	048H
	DB	04H
	DB	048H
	DB	044H
	DB	048H
	DB	04H
	DB	040H
	DB	044H
	DB	040H
	DB	00H
	DB	048H
	DB	044H
	DB	040H
	DB	04H
	DB	048H
	DB	044H
	DB	040H
	DB	04H
	DB	040H
	DB	044H
	DB	040H
	DB	04H
	DB	048H
	DB	044H
	DB	040H
	DB	04H
	DB	040H
	DB	044H
	DB	040H
	DB	04H
	DB	040H
	DB	044H
	DB	048H
	DB	00H
	DB	048H
	DB	044H
	DB	040H
	DB	04H
	DB	048H
	DB	044H
	DB	040H
	DB	04H
	DB	040H
	DB	044H
	DB	048H
	DB	00H
	DB	048H
	DB	044H
	DB	040H
	DB	04H
	DB	048H
	DB	044H
	DB	040H
	DB	04H
	DB	040H
	DB	044H
	DB	048H
	DB	04H
	DB	048H
	DB	044H
	DB	040H
	DB	04H
	DB	048H
	DB	044H
	DB	040H
	DB	04H
	DB	040H
	DB	044H
	DB	048H
	DB	00H
	DB	048H
	DB	044H
	DB	040H
	DB	04H
	DB	048H
	DB	044H
	DB	048H
	DB	04H
	DB	040H
	DB	044H
	DB	040H
	DB	04H
	DB	040H
	DB	044H
	DB	040H
	DB	04H
	DB	048H
	DB	044H
	DB	048H
	DB	00H
	DB	048H
	DB	044H
	DB	040H
	DB	04H
	DB	040H
	DB	044H
	DB	040H
	DB	00H
	DB	040H
	DB	044H
	DB	048H
	DB	04H
	DB	048H
	DB	044H
	DB	048H
	DB	04H
	DB	040H
	DB	044H
	DB	040H
	DB	04H
	DB	048H
	DB	044H
	DB	040H
	DB	04H
	DB	048H
	DB	044H
	DB	048H
	DB	04H
	DB	040H
	DB	044H
	DB	040H
	DB	04H
	DB	048H
	DB	044H
	DB	040H
	DB	04H
	DB	048H
	DB	044H
	DB	048H
	DB	04H
	DB	040H
	DB	044H
	DB	040H
	DB	04H
	DB	048H
	DB	044H
	DB	040H
	DB	04H
	DB	048H
	DB	044H
	DB	048H
	DB	04H
	DB	040H
	DB	044H
	DB	040H
	DB	00H
	DB	048H
	DB	044H
	DB	040H
	DB	04H
	DB	048H
	DB	044H
	DB	048H
	DB	04H
	DB	040H
	DB	044H
	DB	048H
	DB	04H
	DB	048H
	DB	044H
	DB	040H
	DB	04H
	DB	048H
	DB	044H
	DB	040H
	DB	04H
	DB	040H
	DB	044H
	DB	048H
	DB	04H
	DB	048H
	DB	044H
	DB	040H
	DB	04H
	DB	048H
	DB	044H
	DB	040H
	DB	04H
	DB	040H
	DB	044H
	DB	048H
	DB	04H
	DB	048H
	DB	044H
	DB	040H
	DB	04H
	DB	048H
	DB	044H
	DB	048H
	DB	04H
	DB	040H
	DB	044H
	DB	048H
	DB	00H
	DB	048H
	DB	044H
	DB	040H
	DB	04H
	DB	048H
	DB	044H
	DB	040H
	DB	04H
	DB	040H
	DB	044H
	DB	048H
	DB	04H
	DB	048H
	DB	044H
	DB	040H
	DB	04H
	DB	048H
	DB	044H
	DB	040H
	DB	04H
	DB	040H
	DB	044H
	DB	048H
	DB	04H
	DB	048H
	DB	044H
	DB	040H
	DB	04H
	DB	048H
	DB	044H
	DB	048H
	DB	04H
	DB	040H
	DB	044H
	DB	040H
	DB	04H
	DB	048H
	DB	044H
	DB	040H
	DB	04H
	DB	048H
	DB	044H
	DB	048H
	DB	04H
	DB	040H
	DB	044H
	DB	040H
	DB	00H
	DB	048H
	DB	044H
	DB	040H
	DB	04H
	DB	048H
	DB	044H
	DB	048H
	DB	04H
	DB	040H
	DB	044H
	DB	040H
	DB	04H
	DB	048H
	DB	044H
	DB	040H
	DB	04H
	DB	048H
	DB	044H
	DB	048H
	DB	04H
	DB	040H
	DB	044H
	DB	048H
	DB	04H
	DB	048H
	DB	044H
	DB	040H
	DB	04H
	DB	048H
	DB	044H
	DB	040H
	DB	04H
	DB	040H
	DB	044H
	DB	048H
	DB	04H
	DB	048H
	DB	044H
	DB	040H
	DB	04H
	DB	048H
	DB	044H
	DB	040H
	DB	04H
	DB	040H
	DB	044H
	DB	048H
	DB	00H
	DB	048H
	DB	044H
	DB	040H
	DB	04H
	DB	048H
	DB	044H
	DB	048H
	DB	04H
	DB	040H
	DB	044H
	DB	040H
	DB	04H
	DB	048H
	DB	044H
	DB	040H
	DB	04H
	DB	048H
	DB	044H
	DB	048H
	DB	04H
	DB	040H
	DB	044H
	DB	040H
	DB	04H
	DB	048H
	DB	044H
	DB	040H
	DB	04H
	DB	048H
	DB	044H
	DB	048H
	DB	04H
	DB	040H
	DB	044H
	DB	040H
	DB	04H
	DB	048H
	DB	044H
	DB	040H
	DB	04H
	DB	048H
	DB	044H
	DB	048H
	DB	04H
	DB	040H
	DB	044H
	DB	048H
	DB	00H
	DB	048H
	DB	044H
	DB	040H
	DB	04H
	DB	048H
	DB	044H
	DB	040H
	DB	04H
	DB	040H
	DB	044H
	DB	048H
	DB	04H
	DB	048H
	DB	044H
	DB	040H
	DB	04H
	DB	048H
	DB	044H
	DB	040H
	DB	04H
	DB	040H
	DB	044H
	DB	048H
	DB	04H
	DB	048H
	DB	044H
	DB	040H
	DB	04H
	DB	048H
	DB	044H
	DB	048H
	DB	04H
	DB	040H
	DB	044H
	DB	040H
	DB	04H
	DB	048H
	DB	044H
	DB	040H
	DB	04H
	DB	048H
	DB	044H
	DB	048H
	DB	04H
	DB	040H
	DB	044H
	DB	040H
	DB	00H
	DB	048H
	DB	044H
	DB	040H
	DB	04H
	DB	048H
	DB	044H
	DB	048H
	DB	04H
	DB	040H
	DB	044H
	DB	040H
	DB	04H
	DB	048H
	DB	044H
	DB	040H
	DB	04H
	DB	048H
	DB	044H
	DB	048H
	DB	04H
	DB	040H
	DB	044H
	DB	048H
	DB	04H
	DB	048H
	DB	044H
	DB	040H
	DB	04H
	DB	048H
	DB	044H
	DB	040H
	DB	04H
	DB	040H
	DB	044H
	DB	048H
	DB	04H
	DB	048H
	DB	044H
	DB	040H
	DB	04H
	DB	048H
	DB	044H
	DB	040H
	DB	04H
	DB	040H
	DB	044H
	DB	048H
	DB	00H
	DB	040H
	DB	044H
	DB	040H
	DB	04H
	DB	048H
	DB	044H
	DB	048H
	DB	04H
	DB	040H
	DB	044H
	DB	040H
	DB	04H
	DB	048H
	DB	044H
	DB	040H
	DB	04H
	DB	048H
	DB	044H
	DB	048H
	DB	04H
	DB	040H
	DB	044H
	DB	040H
	DB	04H
	DB	048H
	DB	044H
	DB	048H
	DB	04H
	DB	040H
	DB	044H
	DB	040H
	DB	00H
	DB	040H
	DB	044H
	DB	040H
	DB	04H
	DB	048H
	DB	044H
	DB	048H
	DB	04H
	DB	040H
	DB	044H
	DB	040H
	DB	04H
	DB	048H
	DB	044H
	DB	040H
	DB	00H
	DB	040H
	DB	044H
	DB	048H
	DB	04H
	DB	048H
	DB	044H
	DB	040H
	DB	04H
	DB	040H
	DB	044H
	DB	040H
	DB	04H
	DB	040H
	DB	044H
	DB	048H
	DB	04H
	DB	048H
	DB	044H
	DB	040H
	DB	00H
	DB	048H
	DB	044H
	DB	048H
	DB	04H
	DB	040H
	DB	044H
	DB	040H
	DB	04H
	DB	040H
	DB	044H
	DB	040H
	DB	04H
	DB	048H
	DB	044H
	DB	048H
	DB	04H
	DB	040H
	DB	044H
	DB	040H
	DB	04H
	DB	048H
	DB	044H
	DB	040H
	DB	04H
	DB	040H
	DB	044H
	DB	048H
	DB	04H
	DB	040H
	DB	044H
	DB	040H
	DB	00H
	DB	048H
	DB	044H
	DB	048H
	DB	04H
	DB	040H
	DB	044H
	DB	040H
	DB	04H
	DB	048H
	DB	044H
	DB	040H
	DB	04H
	DB	040H
	DB	044H
	DB	048H
	DB	04H
	DB	040H
	DB	044H
	DB	040H
	DB	04H
	DB	048H
	DB	044H
	DB	040H
	DB	00H
	DB	048H
	DB	044H
	DB	048H
	DB	04H
	DB	040H
	DB	044H
	DB	040H
	DB	04H
	DB	048H
	DB	044H
	DB	048H
	DB	04H
	DB	048H
	DB	044H
	DB	040H
	DB	04H
	DB	040H
	DB	044H
	DB	040H
	DB	04H
	DB	048H
	DB	044H
	DB	048H
	DB	00H
	DB	048H
	DB	044H
	DB	040H
	DB	04H
	DB	040H
	DB	044H
	DB	040H
	DB	00H
	DB	040H
	DB	044H
	DB	048H
	DB	00H
	DB	048H
	DB	044H
	DB	040H
	DB	04H
	DB	040H
	DB	044H
	DB	048H
	DB	04H
	DB	048H
	DB	044H
	DB	040H
	DB	00H
	DB	040H
	DB	044H
	DB	040H
	DB	04H
	DB	040H
	DB	044H
	DB	048H
	DB	04H
	DB	048H
	DB	044H
	DB	040H
	DB	04H
	DB	040H
	DB	044H
	DB	040H
	DB	00H
	DB	040H
	DB	044H
	DB	048H
	DB	04H
	DB	048H
	DB	044H
	DB	040H
	DB	04H
	DB	040H
	DB	044H
	DB	040H
	DB	00H
	DB	040H
	DB	044H
	DB	040H
	DB	04H
	DB	048H
	DB	044H
	DB	048H
	DB	00H
	DB	040H
	DB	044H
	DB	040H
	DB	04H
	DB	040H
	DB	044H
	DB	040H
	DB	04H
	DB	048H
	DB	044H
	DB	048H
	DB	00H
	DB	040H
	DB	044H
	DB	040H
	DB	04H
	DB	040H
	DB	044H
	DB	040H
	DB	04H
	DB	048H
	DB	044H
	DB	040H
	DB	04H
	DB	040H
	DB	044H
	DB	040H
	DB	00H
	DB	040H
	DB	044H
	DB	048H
	DB	04H
	DB	048H
	DB	044H
	DB	040H
	DB	04H
	DB	040H
	DB	044H
	DB	040H
	DB	00H
	DB	040H
	DB	044H
	DB	048H
	DB	04H
	DB	048H
	DB	044H
	DB	040H
	DB	00H
	DB	040H
	DB	044H
	DB	040H
	DB	04H
	DB	040H
	DB	044H
	DB	040H
	DB	04H
	DB	048H
	DB	044H
	DB	048H
	DB	00H
	DB	040H
	DB	044H
	DB	040H
	DB	04H
	DB	040H
	DB	044H
	DB	040H
	DB	04H
	DB	048H
	DB	044H
	DB	048H
	DB	04H
	DB	040H
	DB	044H
	DB	040H
	DB	00H
	DB	040H
	DB	044H
	DB	040H
	DB	04H
	DB	048H
	DB	044H
	DB	048H
	DB	04H
	DB	040H
	DB	044H
	DB	040H
	DB	00H
	DB	040H
	DB	044H
	DB	040H
	DB	04H
	DB	048H
	DB	044H
	DB	048H
	DB	00H
	DB	040H
	DB	044H
	DB	040H
	DB	04H
	DB	040H
	DB	044H
	DB	040H
	DB	04H
	DB	048H
	DB	044H
	DB	048H
	DB	00H
	DB	040H
	DB	044H
	DB	040H
	DB	04H
	DB	040H
	DB	044H
	DB	048H
	DB	04H
	DB	048H
	DB	044H
	DB	040H
	DB	04H
	DB	040H
	DB	044H
	DB	040H
	DB	00H
	DB	040H
	DB	044H
	DB	040H
	DB	04H
	DB	048H
	DB	044H
	DB	048H
	DB	04H
	DB	040H
	DB	044H
	DB	040H
	DB	00H
	DB	040H
	DB	044H
	DB	040H
	DB	04H
	DB	048H
	DB	044H
	DB	048H
	DB	00H
	DB	040H
	DB	044H
	DB	040H
	DB	04H
	DB	040H
	DB	044H
	DB	040H
	DB	04H
	DB	048H
	DB	044H
	DB	048H
	DB	00H
	DB	040H
	DB	044H
	DB	040H
	DB	04H
	DB	040H
	DB	044H
	DB	040H
	DB	04H
	DB	048H
	DB	044H
	DB	048H
	DB	04H
	DB	040H
	DB	044H
	DB	040H
	DB	00H
	DB	040H
	DB	044H
	DB	040H
	DB	04H
	DB	048H
	DB	044H
	DB	048H
	DB	04H
	DB	040H
	DB	044H
	DB	040H
	DB	00H
	DB	040H
	DB	044H
	DB	048H
	DB	04H
	DB	048H
	DB	044H
	DB	040H
	DB	00H
	DB	040H
	DB	044H
	DB	040H
	DB	04H
	DB	040H
	DB	044H
	DB	040H
	DB	04H
	DB	048H
	DB	044H
	DB	048H
	DB	00H
	DB	040H
	DB	044H
	DB	040H
	DB	04H
	DB	040H
	DB	044H
	DB	040H
	DB	04H
	DB	048H
	DB	044H
	DB	048H
	DB	04H
	DB	040H
	DB	044H
	DB	040H
	DB	00H
	DB	040H
	DB	044H
	DB	040H
	DB	04H
	DB	048H
	DB	044H
	DB	048H
	DB	04H
	DB	040H
	DB	044H
	DB	040H
	DB	00H
	DB	040H
	DB	044H
	DB	040H
	DB	04H
	DB	048H
	DB	044H
	DB	048H
	DB	00H
	DB	040H
	DB	044H
	DB	040H
	DB	04H
	DB	040H
	DB	044H
	DB	040H
	DB	04H
	DB	048H
	DB	044H
	DB	048H
	DB	00H
	DB	040H
	DB	044H
	DB	040H
	DB	04H
	DB	040H
	DB	044H
	DB	048H
	DB	04H
	DB	048H
	DB	044H
	DB	040H
	DB	04H
	DB	048H
	DB	044H
	DB	040H
	DB	00H
	DB	040H
	DB	044H
	DB	040H
	DB	04H
	DB	048H
	DB	044H
	DB	048H
	DB	04H
	DB	040H
	DB	044H
	DB	040H
	DB	00H
	DB	040H
	DB	044H
	DB	040H
	DB	04H
	DB	048H
	DB	044H
	DB	048H
	DB	00H
	DB	040H
	DB	044H
	DB	040H
	DB	04H
	DB	048H
	DB	044H
	DB	040H
	DB	04H
	DB	048H
	DB	044H
	DB	048H
	DB	04H
	DB	040H
	DB	044H
	DB	040H
	DB	04H
	DB	048H
	DB	044H
	DB	040H
	DB	00H
	DB	040H
	DB	044H
	DB	048H
	DB	04H
	DB	040H
	DB	044H
	DB	040H
	DB	04H
	DB	048H
	DB	044H
	DB	040H
	DB	04H
	DB	040H
	DB	044H
	DB	048H
	DB	04H
	DB	048H
	DB	044H
	DB	040H
	DB	04H
	DB	040H
	DB	044H
	DB	048H
	DB	00H
	DB	040H
	DB	044H
	DB	040H
	DB	04H
	DB	048H
	DB	044H
	DB	048H
	DB	00H
	DB	040H
	DB	044H
	DB	040H
	DB	04H
	DB	048H
	DB	044H
	DB	048H
	DB	04H
	DB	048H
	DB	044H
	DB	040H
	DB	00H
	DB	040H
	DB	044H
	DB	048H
	DB	00H
	DB	048H
	DB	044H
	DB	040H
	DB	04H
	DB	040H
	DB	044H
	DB	040H
	DB	04H
	DB	048H
	DB	044H
	DB	048H
	DB	00H
	DB	048H
	DB	044H
	DB	040H
	DB	04H
	DB	040H
	DB	044H
	DB	040H
	DB	04H
	DB	040H
	DB	044H
	DB	048H
	DB	00H
	DB	048H
	DB	044H
	DB	040H
	DB	00H
	DB	048H
	DB	044H
	DB	040H
	DB	04H
	DB	040H
	DB	044H
	DB	048H
	DB	04H
	DB	040H
	DB	044H
	DB	040H
	DB	04H
	DB	048H
	DB	044H
	DB	040H
	DB	00H
	DB	040H
	DB	044H
	DB	048H
	DB	04H
	DB	040H
	DB	044H
	DB	040H
	DB	04H
	DB	048H
	DB	044H
	DB	048H
	DB	00H
	DB	040H
	DB	044H
	DB	040H
	DB	04H
	DB	040H
	DB	044H
	DB	040H
	DB	04H
	DB	048H
	DB	044H
	DB	040H
	DB	04H
	DB	048H
	DB	044H
	DB	048H
	DB	04H
	DB	040H
	DB	044H
	DB	040H
	DB	04H
	DB	040H
	DB	044H
	DB	040H
	DB	04H
	DB	048H
	DB	044H
	DB	048H
	DB	00H
	DB	040H
	DB	044H
	DB	040H
	DB	04H
	DB	048H
	DB	044H
	DB	040H
	DB	04H
	DB	048H
	DB	044H
	DB	048H
	DB	00H
	DB	040H
	DB	044H
	DB	040H
	DB	04H
	DB	048H
	DB	044H
	DB	040H
	DB	04H
	DB	048H
	DB	044H
	DB	048H
	DB	04H
	DB	040H
	DB	044H
	DB	040H
	DB	04H
	DB	048H
	DB	044H
	DB	040H
	DB	00H
	DB	048H
	DB	044H
	DB	048H
	DB	04H
	DB	040H
	DB	044H
	DB	040H
	DB	04H
	DB	048H
	DB	044H
	DB	040H
	DB	00H
	DB	048H
	DB	044H
	DB	048H
	DB	04H
	DB	040H
	DB	044H
	DB	040H
	DB	04H
	DB	048H
	DB	044H
	DB	048H
	DB	00H
	DB	048H
	DB	044H
	DB	048H
	DB	04H
	DB	040H
	DB	044H
	DB	040H
	DB	04H
	DB	048H
	DB	044H
	DB	040H
	DB	00H
	DB	048H
	DB	044H
	DB	048H
	DB	04H
	DB	040H
	DB	044H
	DB	040H
	DB	04H
	DB	048H
	DB	044H
	DB	048H
	DB	04H
	DB	048H
	DB	044H
	DB	040H
	DB	00H
	DB	040H
	DB	044H
	DB	048H
	DB	04H
	DB	048H
	DB	044H
	DB	048H
	DB	04H
	DB	048H
	DB	044H
	DB	040H
	DB	00H
	DB	040H
	DB	044H
	DB	040H
	DB	04H
	DB	048H
	DB	044H
	DB	048H
	DB	04H
	DB	048H
	DB	044H
	DB	040H
	DB	00H
	DB	040H
	DB	044H
	DB	048H
	DB	04H
	DB	048H
	DB	044H
	DB	040H
	DB	04H
	DB	048H
	DB	044H
	DB	048H
	DB	04H
	DB	040H
	DB	044H
	DB	040H
	DB	04H
	DB	048H
	DB	044H
	DB	040H
	DB	00H
	DB	048H
	DB	044H
	DB	048H
	DB	04H
	DB	040H
	DB	044H
	DB	040H
	DB	04H
	DB	048H
	DB	044H
	DB	040H
	DB	00H
	DB	048H
	DB	044H
	DB	048H
	DB	04H
	DB	040H
	DB	044H
	DB	040H
	DB	04H
	DB	048H
	DB	044H
	DB	040H
	DB	00H
	DB	048H
	DB	044H
	DB	048H
	DB	04H
	DB	040H
	DB	044H
	DB	048H
	DB	04H
	DB	048H
	DB	044H
	DB	040H
	DB	00H
	DB	048H
	DB	044H
	DB	048H
	DB	04H
	DB	040H
	DB	044H
	DB	040H
	DB	04H
	DB	048H
	DB	044H
	DB	040H
	DB	04H
	DB	048H
	DB	044H
	DB	048H
	DB	00H
	DB	040H
	DB	044H
	DB	048H
	DB	04H
	DB	048H
	DB	044H
	DB	040H
	DB	04H
	DB	048H
	DB	044H
	DB	040H
	DB	00H
	DB	040H
	DB	044H
	DB	048H
	DB	04H
	DB	048H
	DB	044H
	DB	040H
	DB	04H
	DB	048H
	DB	044H
	DB	048H
	DB	00H
	DB	040H
	DB	044H
	DB	040H
	DB	04H
	DB	048H
	DB	044H
	DB	040H
	DB	04H
	DB	048H
	DB	044H
	DB	048H
	DB	04H
	DB	040H
	DB	044H
	DB	040H
	DB	04H
	DB	048H
	DB	044H
	DB	040H
	DB	00H
	DB	048H
	DB	044H
	DB	048H
	DB	04H
	DB	040H
	DB	044H
	DB	048H
	DB	04H
	DB	048H
	DB	044H
	DB	040H
	DB	00H
	DB	048H
	DB	044H
	DB	048H
	DB	04H
	DB	040H
	DB	044H
	DB	040H
	DB	04H
	DB	048H
	DB	044H
	DB	040H
	DB	00H
	DB	048H
	DB	044H
	DB	048H
	DB	04H
	DB	040H
	DB	044H
	DB	048H
	DB	04H
	DB	048H
	DB	044H
	DB	040H
	DB	00H
	DB	048H
	DB	044H
	DB	040H
	DB	04H
	DB	040H
	DB	044H
	DB	048H
	DB	04H
	DB	048H
	DB	044H
	DB	040H
	DB	04H
	DB	048H
	DB	044H
	DB	048H
	DB	00H
	DB	040H
	DB	044H
	DB	040H
	DB	04H
	DB	048H
	DB	044H
	DB	040H
	DB	04H
	DB	048H
	DB	044H
	DB	048H
	DB	00H
	DB	040H
	DB	044H
	DB	040H
	DB	04H
	DB	048H
	DB	044H
	DB	040H
	DB	04H
	DB	040H
	DB	044H
	DB	048H
	DB	00H
	DB	040H
	DB	044H
	DB	048H
	DB	04H
	DB	048H
	DB	044H
	DB	040H
	DB	04H
	DB	040H
	DB	044H
	DB	048H
	DB	04H
	DB	048H
	DB	044H
	DB	040H
	DB	04H
	DB	048H
	DB	044H
	DB	040H
	DB	00H
	DB	040H
	DB	044H
	DB	048H
	DB	04H
	DB	048H
	DB	044H
	DB	048H
	DB	04H
	DB	040H
	DB	044H
	DB	040H
	DB	00H
	DB	040H
	DB	044H
	DB	040H
	DB	00H
	DB	048H
	DB	044H
	DB	048H
	DB	04H
	DB	048H
	DB	044H
	DB	040H
	DB	04H
	DB	040H
	DB	044H
	DB	048H
	DB	04H
	DB	048H
	DB	044H
	DB	040H
	DB	00H
	DB	048H
	DB	044H
	DB	040H
	DB	04H
	DB	040H
	DB	044H
	DB	048H
	DB	04H
	DB	048H
	DB	044H
	DB	040H
	DB	00H
	DB	040H
	DB	044H
	DB	040H
	DB	04H
	DB	048H
	DB	044H
	DB	040H
	DB	04H
	DB	048H
	DB	044H
	DB	040H
	DB	04H
	DB	040H
	DB	044H
	DB	040H
	DB	04H
	DB	040H
	DB	044H
	DB	040H
	DB	04H
	DB	048H
	DB	044H
	DB	040H
	DB	04H
	DB	040H
	DB	044H
	DB	048H
	DB	04H
	DB	048H
	DB	044H
	DB	040H
	DB	04H
	DB	040H
	DB	044H
	DB	048H
	DB	04H
	DB	040H
	DB	044H
	DB	040H
	DB	00H
	DB	048H
	DB	044H
	DB	048H
	DB	04H
	DB	048H
	DB	044H
	DB	040H
	DB	04H
	DB	040H
	DB	044H
	DB	040H
	DB	04H
	DB	048H
	DB	044H
	DB	048H
	DB	04H
	DB	040H
	DB	044H
	DB	040H
	DB	04H
	DB	048H
	DB	044H
	DB	048H
	DB	04H
	DB	048H
	DB	044H
	DB	040H
	DB	00H
	DB	040H
	DB	044H
	DB	048H
	DB	04H
	DB	048H
	DB	044H
	DB	040H
	DB	04H
	DB	048H
	DB	044H
	DB	040H
	DB	00H
	DB	040H
	DB	044H
	DB	048H
	DB	04H
	DB	048H
	DB	044H
	DB	040H
	DB	04H
	DB	048H
	DB	044H
	DB	048H
	DB	00H
	DB	040H
	DB	044H
	DB	040H
	DB	04H
	DB	040H
	DB	044H
	DB	048H
	DB	04H
	DB	048H
	DB	044H
	DB	040H
	DB	00H
	DB	048H
	DB	044H
	DB	040H
	DB	04H
	DB	040H
	DB	044H
	DB	048H
	DB	04H
	DB	048H
	DB	044H
	DB	040H
	DB	04H
	DB	040H
	DB	044H
	DB	048H
	DB	04H
	DB	048H
	DB	044H
	DB	040H
	DB	04H
	DB	040H
	DB	044H
	DB	048H
	DB	00H
	DB	040H
	DB	044H
	DB	040H
	DB	04H
	DB	048H
	DB	044H
	DB	048H
	DB	04H
	DB	040H
	DB	044H
	DB	040H
	DB	00H
	DB	040H
	DB	044H
	DB	048H
	DB	04H
	DB	048H
	DB	044H
	DB	048H
	DB	04H
	DB	040H
	DB	044H
	DB	040H
	DB	04H
	DB	040H
	DB	044H
	DB	040H
	DB	04H
	DB	048H
	DB	044H
	DB	048H
	DB	04H
	DB	040H
	DB	044H
	DB	040H
	DB	04H
	DB	040H
	DB	044H
	DB	040H
	DB	04H
	DB	048H
	DB	044H
	DB	040H
	DB	00H
	DB	040H
	DB	044H
	DB	048H
	DB	04H
	DB	040H
	DB	044H
	DB	040H
	DB	04H
	DB	048H
	DB	044H
	DB	048H
	DB	04H
	DB	040H
	DB	044H
	DB	040H
	DB	04H
	DB	040H
	DB	044H
	DB	040H
	DB	04H
	DB	048H
	DB	044H
	DB	048H
	DB	04H
	DB	040H
	DB	044H
	DB	040H
	DB	04H
	DB	040H
	DB	044H
	DB	040H
	DB	04H
	DB	048H
	DB	044H
	DB	048H
	DB	04H
	DB	040H
	DB	044H
	DB	040H
	DB	04H
	DB	040H
	DB	044H
	DB	040H
	DB	04H
	DB	048H
	DB	044H
	DB	048H
	DB	00H
	DB	040H
	DB	044H
	DB	040H
	DB	04H
	DB	040H
	DB	044H
	DB	040H
	DB	04H
	DB	048H
	DB	044H
	DB	048H
	DB	00H
	DB	040H
	DB	044H
	DB	040H
	DB	04H
	DB	040H
	DB	044H
	DB	040H
	DB	04H
	DB	048H
	DB	044H
	DB	048H
	DB	04H
	DB	040H
	DB	044H
	DB	048H
	DB	04H
	DB	040H
	DB	044H
	DB	040H
	DB	04H
	DB	048H
	DB	044H
	DB	040H
	DB	04H
	DB	040H
	DB	044H
	DB	048H
	DB	04H
	DB	040H
	DB	044H
	DB	040H
	DB	04H
	DB	048H
	DB	044H
	DB	040H
	DB	00H
	DB	040H
	DB	044H
	DB	040H
	DB	04H
	DB	040H
	DB	044H
	DB	040H
	DB	04H
	DB	048H
	DB	044H
	DB	048H
	DB	04H
	DB	040H
	DB	044H
	DB	040H
	DB	04H
	DB	040H
	DB	044H
	DB	040H
	DB	04H
	DB	048H
	DB	044H
	DB	048H
	DB	04H
	DB	040H
	DB	044H
	DB	040H
	DB	04H
	DB	040H
	DB	044H
	DB	040H
	DB	04H
	DB	048H
	DB	044H
	DB	048H
	DB	04H
	DB	040H
	DB	044H
	DB	040H
	DB	04H
	DB	040H
	DB	044H
	DB	040H
	DB	04H
	DB	048H
	DB	044H
	DB	048H
	DB	00H
	DB	040H
	DB	044H
	DB	040H
	DB	04H
	DB	040H
	DB	044H
	DB	040H
	DB	04H
	DB	048H
	DB	044H
	DB	048H
	DB	00H
	DB	040H
	DB	044H
	DB	048H
	DB	04H
	DB	040H
	DB	044H
	DB	040H
	DB	04H
	DB	048H
	DB	044H
	DB	040H
	DB	04H
	DB	040H
	DB	044H
	DB	040H
	DB	04H
	DB	040H
	DB	044H
	DB	040H
	DB	04H
	DB	048H
	DB	044H
	DB	048H
	DB	04H
	DB	040H
	DB	044H
	DB	040H
	DB	04H
	DB	040H
	DB	044H
	DB	040H
	DB	04H
	DB	048H
	DB	044H
	DB	048H
	DB	00H
	DB	040H
	DB	044H
	DB	040H
	DB	04H
	DB	040H
	DB	044H
	DB	040H
	DB	04H
	DB	048H
	DB	044H
	DB	048H
	DB	04H
	DB	040H
	DB	044H
	DB	040H
	DB	04H
	DB	040H
	DB	044H
	DB	040H
	DB	04H
	DB	048H
	DB	044H
	DB	048H
	DB	04H
	DB	040H
	DB	044H
	DB	040H
	DB	04H
	DB	040H
	DB	044H
	DB	040H
	DB	04H
	DB	048H
	DB	044H
	DB	048H
	DB	04H
	DB	040H
	DB	044H
	DB	048H
	DB	04H
	DB	048H
	DB	044H
	DB	040H
	DB	04H
	DB	048H
	DB	044H
	DB	040H
	DB	00H
	DB	040H
	DB	044H
	DB	040H
	DB	04H
	DB	048H
	DB	044H
	DB	040H
	DB	04H
	DB	040H
	DB	044H
	DB	048H
	DB	00H
	DB	040H
	DB	044H
	DB	040H
	DB	04H
	DB	048H
	DB	044H
	DB	040H
	DB	04H
	DB	040H
	DB	044H
	DB	048H
	DB	04H
	DB	048H
	DB	044H
	DB	040H
	DB	04H
	DB	048H
	DB	044H
	DB	040H
	DB	04H
	DB	040H
	DB	044H
	DB	048H
	DB	04H
	DB	040H
	DB	044H
	DB	040H
	DB	04H
	DB	048H
	DB	044H
	DB	040H
	DB	00H
	DB	040H
	DB	044H
	DB	048H
	DB	04H
	DB	040H
	DB	044H
	DB	040H
	DB	04H
	DB	048H
	DB	044H
	DB	040H
	DB	04H
	DB	040H
	DB	044H
	DB	048H
	DB	00H
	DB	048H
	DB	044H
	DB	048H
	DB	04H
	DB	040H
	DB	044H
	DB	040H
	DB	04H
	DB	048H
	DB	044H
	DB	040H
	DB	00H
	DB	040H
	DB	044H
	DB	048H
	DB	04H
	DB	040H
	DB	044H
	DB	040H
	DB	04H
	DB	048H
	DB	044H
	DB	048H
	DB	00H
	DB	048H
	DB	044H
	DB	048H
	DB	04H
	DB	040H
	DB	044H
	DB	040H
	DB	00H
	DB	040H
	DB	044H
	DB	040H
	DB	04H
	DB	048H
	DB	044H
	DB	048H
	DB	04H
	DB	048H
	DB	044H
	DB	040H
	DB	00H
	DB	040H
	DB	044H
	DB	040H
	DB	04H
	DB	040H
	DB	044H
	DB	048H
	DB	04H
	DB	048H
	DB	044H
	DB	040H
	DB	04H
	DB	040H
	DB	044H
	DB	048H
	DB	00H
	DB	048H
	DB	044H
	DB	040H
	DB	04H
	DB	040H
	DB	044H
	DB	040H
	DB	04H
	DB	040H
	DB	044H
	DB	048H
	DB	04H
	DB	048H
	DB	044H
	DB	040H
	DB	00H
	DB	040H
	DB	044H
	DB	040H
	DB	04H
	DB	040H
	DB	044H
	DB	048H
	DB	04H
	DB	048H
	DB	044H
	DB	040H
	DB	04H
	DB	040H
	DB	044H
	DB	040H
	DB	04H
	DB	040H
	DB	044H
	DB	040H
	DB	04H
	DB	048H
	DB	044H
	DB	048H
	DB	04H
	DB	048H
	DB	044H
	DB	040H
	DB	04H
	DB	040H
	DB	044H
	DB	040H
	DB	00H
	DB	040H
	DB	044H
	DB	048H
	DB	04H
	DB	048H
	DB	044H
	DB	040H
	DB	04H
	DB	048H
	DB	044H
	DB	040H
	DB	00H
	DB	040H
	DB	044H
	DB	048H
	DB	04H
	DB	048H
	DB	044H
	DB	040H
	DB	04H
	DB	040H
	DB	044H
	DB	040H
	DB	00H
	DB	048H
	DB	044H
	DB	048H
	DB	04H
	DB	048H
	DB	044H
	DB	040H
	DB	04H
	DB	040H
	DB	044H
	DB	040H
	DB	04H
	DB	048H
	DB	044H
	DB	040H
	DB	00H
	DB	048H
	DB	044H
	DB	040H
	DB	04H
	DB	040H
	DB	044H
	DB	048H
	DB	04H
	DB	048H
	DB	044H
	DB	040H
	DB	00H
	DB	048H
	DB	044H
	DB	048H
	DB	04H
	DB	040H
	DB	044H
	DB	040H
	DB	00H
	DB	048H
	DB	044H
	DB	048H
	DB	04H
	DB	048H
	DB	044H
	DB	040H
	DB	04H
	DB	040H
	DB	044H
	DB	040H
	DB	04H
	DB	048H
	DB	044H
	DB	040H
	DB	00H
	DB	048H
	DB	044H
	DB	048H
	DB	04H
	DB	040H
	DB	044H
	DB	040H
	DB	04H
	DB	048H
	DB	044H
	DB	040H
	DB	00H
	DB	048H
	DB	044H
	DB	048H
	DB	00H
	DB	040H
	DB	044H
	DB	040H
	DB	04H
	DB	048H
	DB	044H
	DB	040H
	DB	00H
	DB	048H
	DB	044H
	DB	040H
	DB	04H
	DB	040H
	DB	044H
	DB	048H
	DB	00H
	DB	048H
	DB	044H
	DB	040H
	DB	04H
	DB	048H
	DB	044H
	DB	048H
	DB	04H
	DB	040H
	DB	044H
	DB	040H
	DB	04H
	DB	048H
	DB	044H
	DB	040H
	DB	04H
	DB	048H
	DB	044H
	DB	048H
	DB	04H
	DB	040H
	DB	044H
	DB	040H
	DB	00H
	DB	048H
	DB	044H
	DB	040H
	DB	04H
	DB	048H
	DB	044H
	DB	048H
	DB	04H
	DB	040H
	DB	044H
	DB	040H
	DB	00H
	DB	048H
	DB	044H
	DB	040H
	DB	04H
	DB	048H
	DB	044H
	DB	048H
	DB	00H
	DB	040H
	DB	044H
	DB	040H
	DB	04H
	DB	048H
	DB	044H
	DB	048H
	DB	04H
	DB	048H
	DB	044H
	DB	048H
	DB	00H
	DB	040H
	DB	044H
	DB	040H
	DB	04H
	DB	048H
	DB	044H
	DB	048H
	DB	04H
	DB	048H
	DB	044H
	DB	040H
	DB	00H
	DB	040H
	DB	044H
	DB	040H
	DB	04H
	DB	048H
	DB	044H
	DB	048H
	DB	00H
	DB	048H
	DB	044H
	DB	040H
	DB	00H
	DB	040H
	DB	044H
	DB	048H
	DB	04H
	DB	048H
	DB	044H
	DB	040H
	DB	00H
	DB	048H
	DB	044H
	DB	040H
	DB	04H
	DB	040H
	DB	044H
	DB	048H
	DB	00H
	DB	048H
	DB	044H
	DB	040H
	DB	04H
	DB	048H
	DB	044H
	DB	040H
	DB	04H
	DB	040H
	DB	044H
	DB	048H
	DB	04H
	DB	048H
	DB	044H
	DB	040H
	DB	04H
	DB	048H
	DB	044H
	DB	040H
	DB	04H
	DB	040H
	DB	044H
	DB	048H
	DB	00H
	DB	048H
	DB	044H
	DB	040H
	DB	04H
	DB	048H
	DB	044H
	DB	040H
	DB	04H
	DB	040H
	DB	044H
	DB	048H
	DB	00H
	DB	048H
	DB	044H
	DB	040H
	DB	04H
	DB	048H
	DB	044H
	DB	040H
	DB	00H
	DB	040H
	DB	044H
	DB	048H
	DB	04H
	DB	048H
	DB	044H
	DB	040H
	DB	04H
	DB	048H
	DB	044H
	DB	040H
	DB	00H
	DB	040H
	DB	044H
	DB	048H
	DB	04H
	DB	048H
	DB	044H
	DB	040H
	DB	04H
	DB	048H
	DB	044H
	DB	040H
	DB	00H
	DB	040H
	DB	044H
	DB	048H
	DB	04H
	DB	048H
	DB	044H
	DB	040H
	DB	00H
	DB	048H
	DB	044H
	DB	040H
	DB	00H
	DB	040H
	DB	044H
	DB	048H
	DB	04H
	DB	048H
	DB	044H
	DB	040H
	DB	00H
	DB	048H
	DB	044H
	DB	040H
	DB	04H
	DB	040H
	DB	044H
	DB	048H
	DB	00H
	DB	040H
	DB	044H
	DB	040H
	DB	04H
	DB	048H
	DB	044H
	DB	040H
	DB	04H
	DB	040H
	DB	044H
	DB	048H
	DB	04H
	DB	048H
	DB	044H
	DB	040H
	DB	04H
	DB	048H
	DB	044H
	DB	040H
	DB	04H
	DB	040H
	DB	044H
	DB	048H
	DB	00H
	DB	048H
	DB	044H
	DB	040H
	DB	04H
	DB	040H
	DB	044H
	DB	040H
	DB	04H
	DB	040H
	DB	044H
	DB	048H
	DB	00H
	DB	048H
	DB	044H
	DB	040H
	DB	04H
	DB	040H
	DB	044H
	DB	040H
	DB	04H
	DB	048H
	DB	044H
	DB	048H
	DB	04H
	DB	048H
	DB	044H
	DB	040H
	DB	04H
	DB	040H
	DB	044H
	DB	040H
	DB	04H
	DB	048H
	DB	044H
	DB	048H
	DB	00H
	DB	048H
	DB	044H
	DB	040H
	DB	04H
	DB	040H
	DB	044H
	DB	040H
	DB	04H
	DB	048H
	DB	044H
	DB	048H
	DB	04H
	DB	040H
	DB	044H
	DB	040H
	DB	04H
	DB	048H
	DB	044H
	DB	040H
	DB	04H
	DB	040H
	DB	044H
	DB	048H
	DB	04H
	DB	048H
	DB	044H
	DB	040H
	DB	04H
	DB	040H
	DB	044H
	DB	040H
	DB	04H
	DB	048H
	DB	044H
	DB	040H
	DB	04H
	DB	048H
	DB	044H
	DB	048H
	DB	00H
	DB	040H
	DB	044H
	DB	040H
	DB	04H
	DB	048H
	DB	044H
	DB	040H
	DB	04H
	DB	040H
	DB	044H
	DB	048H
	DB	00H
	DB	048H
	DB	044H
	DB	040H
	DB	04H
	DB	048H
	DB	044H
	DB	040H
	DB	04H
	DB	040H
	DB	044H
	DB	048H
	DB	04H
	DB	040H
	DB	044H
	DB	040H
	DB	00H
	DB	048H
	DB	044H
	DB	040H
	DB	04H
	DB	040H
	DB	044H
	DB	048H
	DB	04H
	DB	048H
	DB	044H
	DB	040H
	DB	00H
	DB	040H
	DB	044H
	DB	040H
	DB	04H
	DB	048H
	DB	044H
	DB	048H
	DB	04H
	DB	048H
	DB	044H
	DB	040H
	DB	04H
	DB	040H
	DB	044H
	DB	048H
	DB	00H
	DB	048H
	DB	044H
	DB	048H
	DB	04H
	DB	048H
	DB	044H
	DB	040H
	DB	00H
	DB	040H
	DB	044H
	DB	048H
	DB	04H
	DB	040H
	DB	044H
	DB	040H
	DB	04H
	DB	048H
	DB	044H
	DB	040H
	DB	00H
	DB	048H
	DB	044H
	DB	048H
	DB	04H
	DB	040H
	DB	044H
	DB	048H
	DB	04H
	DB	040H
	DB	044H
	DB	040H
	DB	04H
	DB	048H
	DB	044H
	DB	040H
	DB	00H
	DB	040H
	DB	044H
	DB	048H
	DB	04H
	DB	040H
	DB	044H
	DB	040H
	DB	04H
	DB	048H
	DB	044H
	DB	040H
	DB	04H
	DB	040H
	DB	044H
	DB	048H
	DB	04H
	DB	048H
	DB	044H
	DB	040H
	DB	00H
	DB	040H
	DB	044H
	DB	048H
	DB	04H
	DB	040H
	DB	044H
	DB	048H
	DB	04H
	DB	048H
	DB	044H
	DB	040H
	DB	04H
	DB	040H
	DB	044H
	DB	040H
	DB	04H
	DB	048H
	DB	044H
	DB	048H
	DB	00H
	DB	040H
	DB	044H
	DB	040H
	DB	04H
	DB	040H
	DB	044H
	DB	040H
	DB	04H
	DB	048H
	DB	044H
	DB	048H
	DB	00H
	DB	040H
	DB	044H
	DB	048H
	DB	04H
	DB	040H
	DB	044H
	DB	040H
	DB	04H
	DB	048H
	DB	044H
	DB	048H
	DB	04H
	DB	040H
	DB	044H
	DB	040H
	DB	00H
	DB	040H
	DB	044H
	DB	040H
	DB	04H
	DB	048H
	DB	044H
	DB	048H
	DB	04H
	DB	040H
	DB	044H
	DB	040H
	DB	04H
	DB	040H
	DB	044H
	DB	048H
	DB	04H
	DB	048H
	DB	044H
	DB	040H
	DB	04H
	DB	040H
	DB	044H
	DB	048H
	DB	00H
	DB	040H
	DB	044H
	DB	040H
	DB	04H
	DB	048H
	DB	044H
	DB	040H
	DB	04H
	DB	040H
	DB	044H
	DB	048H
	DB	00H
	DB	040H
	DB	044H
	DB	040H
	DB	04H
	DB	048H
	DB	044H
	DB	048H
	DB	04H
	DB	040H
	DB	044H
	DB	040H
	DB	00H
	DB	040H
	DB	044H
	DB	040H
	DB	04H
	DB	048H
	DB	044H
	DB	048H
	DB	04H
	DB	040H
	DB	044H
	DB	040H
	DB	00H
	DB	040H
	DB	044H
	DB	040H
	DB	04H
	DB	048H
	DB	044H
	DB	048H
	DB	04H
	DB	040H
	DB	044H
	DB	040H
	DB	00H
	DB	040H
	DB	044H
	DB	040H
	DB	04H
	DB	048H
	DB	044H
	DB	040H
	DB	04H
	DB	040H
	DB	044H
	DB	040H
	DB	04H
	DB	040H
	DB	044H
	DB	048H
	DB	04H
	DB	048H
	DB	044H
	DB	040H
	DB	04H
	DB	040H
	DB	044H
	DB	048H
	DB	04H
	DB	040H
	DB	044H
	DB	040H
	DB	04H
	DB	048H
	DB	044H
	DB	040H
	DB	04H
	DB	040H
	DB	044H
	DB	048H
	DB	04H
	DB	040H
	DB	044H
	DB	040H
	DB	04H
	DB	048H
	DB	044H
	DB	040H
	DB	04H
	DB	040H
	DB	044H
	DB	048H
	DB	00H
	DB	040H
	DB	044H
	DB	040H
	DB	04H
	DB	048H
	DB	044H
	DB	048H
	DB	04H
	DB	040H
	DB	044H
	DB	040H
	DB	00H
	DB	040H
	DB	044H
	DB	048H
	DB	04H
	DB	048H
	DB	044H
	DB	040H
	DB	04H
	DB	040H
	DB	044H
	DB	040H
	DB	00H
	DB	040H
	DB	044H
	DB	048H
	DB	04H
	DB	048H
	DB	044H
	DB	040H
	DB	04H
	DB	040H
	DB	044H
	DB	040H
	DB	00H
	DB	040H
	DB	044H
	DB	048H
	DB	04H
	DB	048H
	DB	044H
	DB	048H
	DB	04H
	DB	040H
	DB	044H
	DB	040H
	DB	00H
	DB	040H
	DB	044H
	DB	048H
	DB	04H
	DB	048H
	DB	044H
	DB	040H
	DB	04H
	DB	040H
	DB	044H
	DB	048H
	DB	04H
	DB	040H
	DB	044H
	DB	040H
	DB	04H
	DB	048H
	DB	044H
	DB	040H
	DB	04H
	DB	040H
	DB	044H
	DB	048H
	DB	04H
	DB	040H
	DB	044H
	DB	040H
	DB	04H
	DB	048H
	DB	044H
	DB	048H
	DB	04H
	DB	040H
	DB	044H
	DB	040H
	DB	04H
	DB	040H
	DB	044H
	DB	048H
	DB	04H
	DB	048H
	DB	044H
	DB	040H
	DB	04H
	DB	048H
	DB	044H
	DB	040H
	DB	00H
	DB	040H
	DB	044H
	DB	048H
	DB	04H
	DB	048H
	DB	044H
	DB	040H
	DB	04H
	DB	040H
	DB	044H
	DB	040H
	DB	00H
	DB	040H
	DB	044H
	DB	048H
	DB	04H
	DB	048H
	DB	044H
	DB	048H
	DB	04H
	DB	040H
	DB	044H
	DB	040H
	DB	00H
	DB	048H
	DB	044H
	DB	048H
	DB	04H
	DB	048H
	DB	044H
	DB	040H
	DB	04H
	DB	040H
	DB	044H
	DB	048H
	DB	00H
	DB	048H
	DB	044H
	DB	040H
	DB	04H
	DB	040H
	DB	044H
	DB	040H
	DB	00H
	DB	040H
	DB	044H
	DB	048H
	DB	00H
	DB	048H
	DB	044H
	DB	040H
	DB	04H
	DB	040H
	DB	044H
	DB	048H
	DB	04H
	DB	040H
	DB	044H
	DB	040H
	DB	00H
	DB	048H
	DB	044H
	DB	048H
	DB	04H
	DB	040H
	DB	044H
	DB	040H
	DB	04H
	DB	040H
	DB	044H
	DB	040H
	DB	00H
	DB	048H
	DB	044H
	DB	048H
	DB	04H
	DB	048H
	DB	044H
	DB	040H
	DB	00H
	DB	040H
	DB	044H
	DB	040H
	DB	04H
	DB	040H
	DB	044H
	DB	048H
	DB	04H
	DB	048H
	DB	044H
	DB	040H
	DB	00H
	DB	040H
	DB	044H
	DB	040H
	DB	04H
	DB	040H
	DB	044H
	DB	040H
	DB	04H
	DB	048H
	DB	044H
	DB	048H
	DB	04H
	DB	040H
	DB	044H
	DB	040H
	DB	04H
	DB	048H
	DB	044H
	DB	040H
	DB	04H
	DB	040H
	DB	044H
	DB	048H
	DB	04H
	DB	040H
	DB	044H
	DB	040H
	DB	04H
	DB	048H
	DB	044H
	DB	040H
	DB	04H
	DB	048H
	DB	044H
	DB	048H
	DB	00H
	DB	040H
	DB	044H
	DB	040H
	DB	04H
	DB	048H
	DB	044H
	DB	040H
	DB	04H
	DB	048H
	DB	044H
	DB	048H
	DB	04H
	DB	040H
	DB	044H
	DB	040H
	DB	00H
	DB	048H
	DB	044H
	DB	048H
	DB	04H
	DB	040H
	DB	044H
	DB	040H
	DB	04H
	DB	040H
	DB	044H
	DB	040H
	DB	04H
	DB	048H
	DB	044H
	DB	040H
	DB	04H
	DB	040H
	DB	044H
	DB	040H
	DB	04H
	DB	048H
	DB	044H
	DB	048H
	DB	00H
	DB	040H
	DB	044H
	DB	040H
	DB	04H
	DB	040H
	DB	044H
	DB	040H
	DB	04H
	DB	048H
	DB	044H
	DB	048H
	DB	04H
	DB	040H
	DB	044H
	DB	040H
	DB	04H
	DB	048H
	DB	044H
	DB	040H
	DB	04H
	DB	048H
	DB	044H
	DB	048H
	DB	00H
	DB	040H
	DB	044H
	DB	040H
	DB	04H
	DB	048H
	DB	044H
	DB	048H
	DB	04H
	DB	048H
	DB	044H
	DB	040H
	DB	00H
	DB	040H
	DB	044H
	DB	048H
	DB	04H
	DB	040H
	DB	044H
	DB	040H
	DB	04H
	DB	048H
	DB	044H
	DB	040H
	DB	00H
	DB	048H
	DB	044H
	DB	048H
	DB	04H
	DB	040H
	DB	044H
	DB	040H
	DB	04H
	DB	040H
	DB	044H
	DB	040H
	DB	00H
	DB	048H
	DB	044H
	DB	048H
	DB	04H
	DB	040H
	DB	044H
	DB	040H
	DB	04H
	DB	048H
	DB	044H
	DB	040H
	DB	04H
	DB	048H
	DB	044H
	DB	040H
	DB	04H
	DB	040H
	DB	044H
	DB	040H
	DB	04H
	DB	048H
	DB	044H
	DB	048H
	DB	00H
	DB	048H
	DB	044H
	DB	040H
	DB	04H
	DB	040H
	DB	044H
	DB	040H
	DB	04H
	DB	048H
	DB	044H
	DB	048H
	DB	04H
	DB	048H
	DB	044H
	DB	040H
	DB	04H
	DB	040H
	DB	044H
	DB	040H
	DB	04H
	DB	048H
	DB	044H
	DB	048H
	DB	00H
	DB	048H
	DB	044H
	DB	040H
	DB	04H
	DB	040H
	DB	044H
	DB	048H
	DB	04H
	DB	048H
	DB	044H
	DB	040H
	DB	04H
	DB	048H
	DB	044H
	DB	040H
	DB	04H
	DB	040H
	DB	044H
	DB	048H
	DB	04H
	DB	048H
	DB	044H
	DB	040H
	DB	00H
	DB	048H
	DB	044H
	DB	040H
	DB	04H
	DB	040H
	DB	044H
	DB	048H
	DB	04H
	DB	048H
	DB	044H
	DB	040H
	DB	00H
	DB	048H
	DB	044H
	DB	048H
	DB	04H
	DB	040H
	DB	044H
	DB	048H
	DB	04H
	DB	048H
	DB	044H
	DB	040H
	DB	04H
	DB	048H
	DB	044H
	DB	040H
	DB	04H
	DB	040H
	DB	044H
	DB	048H
	DB	04H
	DB	048H
	DB	044H
	DB	040H
	DB	04H
	DB	048H
	DB	044H
	DB	048H
	DB	00H
	DB	040H
	DB	044H
	DB	040H
	DB	04H
	DB	048H
	DB	044H
	DB	040H
	DB	00H
	DB	048H
	DB	044H
	DB	048H
	DB	04H
	DB	040H
	DB	044H
	DB	040H
	DB	00H
	DB	048H
	DB	044H
	DB	040H
	DB	04H
	DB	048H
	DB	044H
	DB	048H
	DB	04H
	DB	040H
	DB	044H
	DB	040H
	DB	00H
	DB	048H
	DB	044H
	DB	040H
	DB	04H
	DB	048H
	DB	044H
	DB	048H
	DB	04H
	DB	040H
	DB	044H
	DB	040H
	DB	04H
	DB	048H
	DB	044H
	DB	040H
	DB	04H
	DB	048H
	DB	044H
	DB	048H
	DB	04H
	DB	040H
	DB	044H
	DB	040H
	DB	04H
	DB	048H
	DB	044H
	DB	040H
	DB	00H
	DB	048H
	DB	044H
	DB	048H
	DB	04H
	DB	040H
	DB	044H
	DB	040H
	DB	04H
	DB	048H
	DB	044H
	DB	048H
	DB	00H
	DB	048H
	DB	044H
	DB	040H
	DB	04H
	DB	040H
	DB	044H
	DB	040H
	DB	04H
	DB	048H
	DB	044H
	DB	048H
	DB	04H
	DB	048H
	DB	044H
	DB	040H
	DB	04H
	DB	040H
	DB	044H
	DB	040H
	DB	04H
	DB	048H
	DB	044H
	DB	048H
	DB	04H
	DB	048H
	DB	044H
	DB	040H
	DB	00H
	DB	040H
	DB	044H
	DB	040H
	DB	04H
	DB	048H
	DB	044H
	DB	048H
	DB	00H
	DB	048H
	DB	044H
	DB	040H
	DB	04H
	DB	040H
	DB	044H
	DB	048H
	DB	00H
	DB	048H
	DB	044H
	DB	040H
	DB	04H
	DB	048H
	DB	044H
	DB	040H
	DB	04H
	DB	040H
	DB	044H
	DB	048H
	DB	00H
	DB	048H
	DB	044H
	DB	040H
	DB	04H
	DB	040H
	DB	044H
	DB	040H
	DB	04H
	DB	040H
	DB	044H
	DB	048H
	DB	04H
	DB	048H
	DB	044H
	DB	040H
	DB	04H
	DB	040H
	DB	044H
	DB	048H
	DB	04H
	DB	048H
	DB	044H
	DB	040H
	DB	04H
	DB	048H
	DB	044H
	DB	040H
	DB	00H
	DB	040H
	DB	044H
	DB	048H
	DB	04H
	DB	048H
	DB	044H
	DB	040H
	DB	04H
	DB	040H
	DB	044H
	DB	040H
	DB	00H
	DB	040H
	DB	044H
	DB	040H
	DB	04H
	DB	048H
	DB	044H
	DB	048H
	DB	04H
	DB	048H
	DB	044H
	DB	040H
	DB	04H
	DB	040H
	DB	044H
	DB	040H
	DB	04H
	DB	048H
	DB	044H
	DB	048H
	DB	04H
	DB	048H
	DB	044H
	DB	040H
	DB	04H
	DB	040H
	DB	044H
	DB	040H
	DB	04H
	DB	048H
	DB	044H
	DB	048H
	DB	00H
	DB	048H
	DB	044H
	DB	040H
	DB	04H
	DB	040H
	DB	044H
	DB	040H
	DB	04H
	DB	048H
	DB	044H
	DB	048H
	DB	04H
	DB	040H
	DB	044H
	DB	040H
	DB	04H
	DB	040H
	DB	044H
	DB	048H
	DB	00H
	DB	048H
	DB	044H
	DB	040H
	DB	04H
	DB	040H
	DB	044H
	DB	040H
	DB	04H
	DB	048H
	DB	044H
	DB	048H
	DB	00H
	DB	040H
	DB	044H
	DB	040H
	DB	04H
	DB	048H
	DB	044H
	DB	040H
	DB	00H
	DB	040H
	DB	044H
	DB	048H
	DB	04H
	DB	040H
	DB	044H
	DB	040H
	DB	04H
	DB	048H
	DB	044H
	DB	048H
	DB	00H
	DB	048H
	DB	044H
	DB	040H
	DB	04H
	DB	040H
	DB	044H
	DB	048H
	DB	00H
	DB	040H
	DB	044H
	DB	040H
	DB	04H
	DB	048H
	DB	044H
	DB	048H
	DB	04H
	DB	040H
	DB	044H
	DB	040H
	DB	04H
	DB	048H
	DB	044H
	DB	048H
	DB	04H
	DB	040H
	DB	044H
	DB	040H
	DB	00H
	DB	040H
	DB	044H
	DB	040H
	DB	04H
	DB	048H
	DB	044H
	DB	048H
	DB	04H
	DB	048H
	DB	044H
	DB	040H
	DB	04H
	DB	040H
	DB	044H
	DB	048H
	DB	00H
	DB	048H
	DB	044H
	DB	040H
	DB	00H
	DB	040H
	DB	044H
	DB	040H
	DB	04H
	DB	040H
	DB	044H
	DB	048H
	DB	04H
	DB	048H
	DB	044H
	DB	040H
	DB	04H
	DB	048H
	DB	044H
	DB	040H
	DB	00H
	DB	048H
	DB	044H
	DB	048H
	DB	04H
	DB	040H
	DB	044H
	DB	040H
	DB	04H
	DB	040H
	DB	044H
	DB	040H
	DB	00H
	DB	048H
	DB	044H
	DB	048H
	DB	04H
	DB	040H
	DB	044H
	DB	040H
	DB	04H
	DB	040H
	DB	044H
	DB	040H
	DB	04H
	DB	048H
	DB	044H
	DB	040H
	DB	04H
	DB	048H
	DB	044H
	DB	048H
	DB	00H
	DB	040H
	DB	044H
	DB	040H
	DB	04H
	DB	048H
	DB	044H
	DB	040H
	DB	04H
	DB	040H
	DB	044H
	DB	048H
	DB	04H
	DB	048H
	DB	044H
	DB	040H
	DB	04H
	DB	048H
	DB	044H
	DB	040H
	DB	04H
	DB	040H
	DB	044H
	DB	048H
	DB	00H
	DB	048H
	DB	044H
	DB	040H
	DB	04H
	DB	040H
	DB	044H
	DB	048H
	DB	04H
	DB	048H
	DB	044H
	DB	048H
	DB	00H
	DB	040H
	DB	044H
	DB	040H
	DB	04H
	DB	040H
	DB	044H
	DB	040H
	DB	04H
	DB	048H
	DB	044H
	DB	048H
	DB	04H
	DB	040H
	DB	044H
	DB	040H
	DB	00H
	DB	040H
	DB	044H
	DB	040H
	DB	04H
	DB	048H
	DB	044H
	DB	048H
	DB	04H
	DB	040H
	DB	044H
	DB	048H
	DB	00H
	DB	040H
	DB	044H
	DB	040H
	DB	04H
	DB	048H
	DB	044H
	DB	040H
	DB	04H
	DB	040H
	DB	044H
	DB	040H
	DB	00H
	DB	040H
	DB	044H
	DB	048H
	DB	04H
	DB	048H
	DB	044H
	DB	040H
	DB	04H
	DB	040H
	DB	044H
	DB	040H
	DB	00H
	DB	040H
	DB	044H
	DB	048H
	DB	04H
	DB	048H
	DB	044H
	DB	040H
	DB	04H
	DB	040H
	DB	044H
	DB	040H
	DB	04H
	DB	040H
	DB	044H
	DB	048H
	DB	04H
	DB	048H
	DB	044H
	DB	040H
	DB	04H
	DB	040H
	DB	044H
	DB	040H
	DB	04H
	DB	040H
	DB	044H
	DB	040H
	DB	00H
	DB	048H
	DB	044H
	DB	048H
	DB	04H
	DB	040H
	DB	044H
	DB	040H
	DB	04H
	DB	040H
	DB	044H
	DB	040H
	DB	00H
	DB	048H
	DB	044H
	DB	048H
	DB	04H
	DB	040H
	DB	044H
	DB	040H
	DB	04H
	DB	040H
	DB	044H
	DB	048H
	DB	04H
	DB	048H
	DB	044H
	DB	040H
	DB	04H
	DB	040H
	DB	044H
	DB	040H
	DB	00H
	DB	040H
	DB	044H
	DB	048H
	DB	04H
	DB	048H
	DB	044H
	DB	040H
	DB	04H
	DB	040H
	DB	044H
	DB	048H
	DB	00H
	DB	040H
	DB	044H
	DB	040H
	DB	04H
	DB	048H
	DB	044H
	DB	040H
	DB	04H
	DB	040H
	DB	044H
	DB	048H
	DB	00H
	DB	040H
	DB	044H
	DB	040H
	DB	04H
	DB	048H
	DB	044H
	DB	040H
	DB	00H
	DB	040H
	DB	044H
	DB	048H
	DB	04H
	DB	040H
	DB	044H
	DB	040H
	DB	04H
	DB	048H
	DB	044H
	DB	040H
	DB	04H
	DB	040H
	DB	044H
	DB	048H
	DB	04H
	DB	040H
	DB	044H
	DB	040H
	DB	04H
	DB	048H
	DB	044H
	DB	040H
	DB	04H
	DB	040H
	DB	044H
	DB	048H
	DB	04H
	DB	040H
	DB	044H
	DB	040H
	DB	00H
	DB	048H
	DB	044H
	DB	048H
	DB	04H
	DB	040H
	DB	044H
	DB	040H
	DB	04H
	DB	040H
	DB	044H
	DB	040H
	DB	00H
	DB	048H
	DB	044H
	DB	048H
	DB	04H
	DB	040H
	DB	044H
	DB	040H
	DB	04H
	DB	040H
	DB	044H
	DB	040H
	DB	04H
	DB	048H
	DB	044H
	DB	048H
	DB	04H
	DB	040H
	DB	044H
	DB	040H
	DB	00H
	DB	040H
	DB	044H
	DB	040H
	DB	04H
	DB	048H
	DB	044H
	DB	048H
	DB	04H
	DB	040H
	DB	044H
	DB	040H
	DB	00H
	DB	048H
	DB	044H
	DB	040H
	DB	04H
	DB	048H
	DB	044H
	DB	048H
	DB	04H
	DB	040H
	DB	044H
	DB	040H
	DB	00H
	DB	048H
	DB	044H
	DB	040H
	DB	04H
	DB	040H
	DB	044H
	DB	048H
	DB	00H
	DB	040H
	DB	044H
	DB	040H
	DB	04H
	DB	048H
	DB	044H
	DB	048H
	DB	04H
	DB	040H
	DB	044H
	DB	040H
	DB	04H
	DB	048H
	DB	044H
	DB	040H
	DB	04H
	DB	048H
	DB	044H
	DB	048H
	DB	04H
	DB	040H
	DB	044H
	DB	040H
	DB	04H
	DB	040H
	DB	044H
	DB	040H
	DB	04H
	DB	048H
	DB	044H
	DB	048H
	DB	00H
	DB	040H
	DB	044H
	DB	040H
	DB	04H
	DB	040H
	DB	044H
	DB	048H
	DB	04H
	DB	048H
	DB	044H
	DB	048H
	DB	04H
	DB	040H
	DB	044H
	DB	040H
	DB	04H
	DB	040H
	DB	044H
	DB	040H
	DB	00H
	DB	048H
	DB	044H
	DB	048H
	DB	04H
	DB	040H
	DB	044H
	DB	040H
	DB	04H
	DB	048H
	DB	044H
	DB	040H
	DB	00H
	DB	048H
	DB	044H
	DB	048H
	DB	04H
	DB	048H
	DB	044H
	DB	040H
	DB	04H
	DB	040H
	DB	044H
	DB	040H
	DB	04H
	DB	048H
	DB	044H
	DB	048H
	DB	04H
	DB	048H
	DB	044H
	DB	040H
	DB	04H
	DB	040H
	DB	044H
	DB	040H
	DB	04H
	DB	048H
	DB	044H
	DB	048H
	DB	04H
	DB	048H
	DB	044H
	DB	040H
	DB	04H
	DB	048H
	DB	044H
	DB	048H
	DB	04H
	DB	040H
	DB	044H
	DB	040H
	DB	00H
	DB	048H
	DB	044H
	DB	040H
	DB	04H
	DB	040H
	DB	044H
	DB	048H
	DB	04H
	DB	048H
	DB	044H
	DB	040H
	DB	00H
	DB	048H
	DB	044H
	DB	040H
	DB	04H
	DB	040H
	DB	044H
	DB	040H
	DB	04H
	DB	048H
	DB	044H
	DB	048H
	DB	00H
	DB	040H
	DB	044H
	DB	040H
	DB	04H
	DB	048H
	DB	044H
	DB	048H
	DB	04H
	DB	040H
	DB	044H
	DB	040H
	DB	00H
	DB	040H
	DB	044H
	DB	040H
	DB	04H
	DB	048H
	DB	044H
	DB	048H
	DB	04H
	DB	040H
	DB	044H
	DB	040H
	DB	04H
	DB	048H
	DB	044H
	DB	048H
	DB	04H
	DB	048H
	DB	044H
	DB	048H
	DB	04H
	DB	040H
	DB	044H
	DB	040H
	DB	04H
	DB	040H
	DB	044H
	DB	040H
	DB	04H
	DB	048H
	DB	044H
	DB	048H
	DB	00H
	DB	040H
	DB	044H
	DB	040H
	DB	04H
	DB	048H
	DB	044H
	DB	040H
	DB	04H
	DB	048H
	DB	044H
	DB	048H
	DB	00H
	DB	040H
	DB	044H
	DB	040H
	DB	04H
	DB	048H
	DB	044H
	DB	048H
	DB	04H
	DB	040H
	DB	044H
	DB	040H
	DB	00H
	DB	040H
	DB	044H
	DB	048H
	DB	04H
	DB	048H
	DB	044H
	DB	040H
	DB	04H
	DB	040H
	DB	044H
	DB	040H
	DB	04H
	DB	048H
	DB	044H
	DB	048H
	DB	00H
	DB	040H
	DB	044H
	DB	040H
	DB	04H
	DB	040H
	DB	044H
	DB	040H
	DB	04H
	DB	048H
	DB	044H
	DB	048H
	DB	00H
	DB	048H
	DB	044H
	DB	040H
	DB	04H
	DB	040H
	DB	044H
	DB	040H
	DB	04H
	DB	048H
	DB	044H
	DB	040H
	DB	04H
	DB	040H
	DB	044H
	DB	048H
	DB	00H
	DB	048H
	DB	044H
	DB	040H
	DB	04H
	DB	048H
	DB	044H
	DB	048H
	DB	04H
	DB	040H
	DB	044H
	DB	040H
	DB	04H
	DB	048H
	DB	044H
	DB	048H
	DB	00H
	DB	048H
	DB	044H
	DB	040H
	DB	04H
	DB	040H
	DB	044H
	DB	040H
	DB	04H
	DB	048H
	DB	044H
	DB	048H
	DB	00H
	DB	048H
	DB	044H
	DB	040H
	DB	04H
	DB	040H
	DB	044H
	DB	040H
	DB	04H
	DB	048H
	DB	044H
	DB	048H
	DB	04H
	DB	048H
	DB	044H
	DB	040H
	DB	00H
	DB	040H
	DB	044H
	DB	048H
	DB	04H
	DB	048H
	DB	044H
	DB	040H
	DB	04H
	DB	048H
	DB	044H
	DB	048H
	DB	00H
	DB	040H
	DB	044H
	DB	040H
	DB	04H
	DB	048H
	DB	044H
	DB	040H
	DB	00H
	DB	048H
	DB	044H
	DB	048H
	DB	04H
	DB	040H
	DB	044H
	DB	040H
	DB	04H
	DB	048H
	DB	044H
	DB	040H
	DB	00H
	DB	048H
	DB	044H
	DB	048H
	DB	04H
	DB	040H
	DB	044H
	DB	040H
	DB	04H
	DB	048H
	DB	044H
	DB	048H
	DB	00H
	DB	048H
	DB	044H
	DB	040H
	DB	04H
	DB	040H
	DB	044H
	DB	040H
	DB	04H
	DB	048H
	DB	044H
	DB	048H
	DB	04H
	DB	048H
	DB	044H
	DB	040H
	DB	00H
	DB	040H
	DB	044H
	DB	048H
	DB	04H
	DB	048H
	DB	044H
	DB	040H
	DB	04H
	DB	048H
	DB	044H
	DB	040H
	DB	04H
	DB	040H
	DB	044H
	DB	048H
	DB	04H
	DB	048H
	DB	044H
	DB	040H
	DB	04H
	DB	048H
	DB	044H
	DB	048H
	DB	04H
	DB	040H
	DB	044H
	DB	040H
	DB	04H
	DB	048H
	DB	044H
	DB	048H
	DB	04H
	DB	048H
	DB	044H
	DB	040H
	DB	00H
	DB	040H
	DB	044H
	DB	048H
	DB	04H
	DB	048H
	DB	044H
	DB	040H
	DB	04H
	DB	048H
	DB	044H
	DB	048H
	DB	00H
	DB	040H
	DB	044H
	DB	040H
	DB	04H
	DB	048H
	DB	044H
	DB	040H
	DB	00H
	DB	048H
	DB	044H
	DB	048H
	DB	04H
	DB	040H
	DB	044H
	DB	040H
	DB	04H
	DB	048H
	DB	044H
	DB	040H
	DB	00H
	DB	048H
	DB	044H
	DB	048H
	DB	04H
	DB	040H
	DB	044H
	DB	040H
	DB	04H
	DB	048H
	DB	044H
	DB	040H
	DB	00H
	DB	048H
	DB	044H
	DB	048H
	DB	04H
	DB	040H
	DB	044H
	DB	040H
	DB	04H
	DB	048H
	DB	044H
	DB	040H
	DB	04H
	DB	048H
	DB	044H
	DB	048H
	DB	00H
	DB	040H
	DB	044H
	DB	040H
	DB	04H
	DB	048H
	DB	044H
	DB	040H
	DB	04H
	DB	048H
	DB	044H
	DB	048H
	DB	04H
	DB	040H
	DB	044H
	DB	040H
	DB	04H
	DB	040H
	DB	044H
	DB	048H
	DB	04H
	DB	048H
	DB	044H
	DB	040H
	DB	04H
	DB	040H
	DB	044H
	DB	048H
	DB	04H
	DB	048H
	DB	044H
	DB	040H
	DB	04H
	DB	048H
	DB	044H
	DB	040H
	DB	00H
	DB	040H
	DB	044H
	DB	048H
	DB	04H
	DB	048H
	DB	044H
	DB	040H
	DB	04H
	DB	040H
	DB	044H
	DB	040H
	DB	00H
	DB	040H
	DB	044H
	DB	048H
	DB	04H
	DB	048H
	DB	044H
	DB	040H
	DB	00H
	DB	040H
	DB	044H
	DB	048H
	DB	04H
	DB	048H
	DB	044H
	DB	040H
	DB	04H
	DB	048H
	DB	044H
	DB	048H
	DB	00H
	DB	040H
	DB	044H
	DB	040H
	DB	04H
	DB	048H
	DB	044H
	DB	040H
	DB	04H
	DB	048H
	DB	044H
	DB	040H
	DB	00H
	DB	040H
	DB	044H
	DB	040H
	DB	04H
	DB	048H
	DB	044H
	DB	048H
	DB	04H
	DB	048H
	DB	044H
	DB	040H
	DB	04H
	DB	040H
	DB	044H
	DB	040H
	DB	04H
	DB	040H
	DB	044H
	DB	048H
	DB	04H
	DB	040H
	DB	044H
	DB	040H
	DB	04H
	DB	048H
	DB	044H
	DB	048H
	DB	00H
	DB	040H
	DB	044H
	DB	040H
	DB	04H
	DB	040H
	DB	044H
	DB	040H
	DB	04H
	DB	048H
	DB	044H
	DB	048H
	DB	00H
	DB	040H
	DB	044H
	DB	048H
	DB	00H
	DB	040H
	DB	044H
	DB	040H
	DB	04H
	DB	048H
	DB	044H
	DB	040H
	DB	04H
	DB	040H
	DB	044H
	DB	040H
	DB	04H
	DB	040H
	DB	044H
	DB	040H
	DB	04H
	DB	048H
	DB	044H
	DB	048H
	DB	04H
	DB	040H
	DB	044H
	DB	040H
	DB	04H
	DB	040H
	DB	044H
	DB	040H
	DB	04H
	DB	048H
	DB	044H
	DB	048H
	DB	04H
	DB	040H
	DB	044H
	DB	040H
	DB	04H
	DB	048H
	DB	044H
	DB	048H
	DB	00H
	DB	040H
	DB	044H
	DB	040H
	DB	04H
	DB	048H
	DB	044H
	DB	040H
	DB	04H
	DB	048H
	DB	044H
	DB	048H
	DB	04H
	DB	040H
	DB	044H
	DB	040H
	DB	04H
	DB	048H
	DB	044H
	DB	040H
	DB	00H
	DB	040H
	DB	044H
	DB	048H
	DB	04H
	DB	040H
	DB	044H
	DB	040H
	DB	04H
	DB	048H
	DB	044H
	DB	040H
	DB	00H
	DB	048H
	DB	044H
	DB	040H
	DB	04H
	DB	040H
	DB	044H
	DB	048H
	DB	00H
	DB	048H
	DB	044H
	DB	040H
	DB	04H
	DB	040H
	DB	044H
	DB	048H
	DB	04H
	DB	040H
	DB	044H
	DB	040H
	DB	04H
	DB	048H
	DB	044H
	DB	048H
	DB	04H
	DB	040H
	DB	044H
	DB	040H
	DB	04H
	DB	048H
	DB	044H
	DB	040H
	DB	04H
	DB	048H
	DB	044H
	DB	048H
	DB	00H
	DB	040H
	DB	044H
	DB	040H
	DB	04H
	DB	048H
	DB	044H
	DB	040H
	DB	04H
	DB	040H
	DB	044H
	DB	048H
	DB	04H
	DB	048H
	DB	044H
	DB	040H
	DB	00H
	DB	040H
	DB	044H
	DB	048H
	DB	04H
	DB	048H
	DB	044H
	DB	040H
	DB	04H
	DB	040H
	DB	044H
	DB	040H
	DB	00H
	DB	040H
	DB	044H
	DB	048H
	DB	04H
	DB	048H
	DB	044H
	DB	040H
	DB	04H
	DB	040H
	DB	044H
	DB	040H
	DB	04H
	DB	040H
	DB	044H
	DB	048H
	DB	04H
	DB	048H
	DB	044H
	DB	040H
	DB	04H
	DB	040H
	DB	044H
	DB	040H
	DB	00H
	DB	048H
	DB	044H
	DB	040H
	DB	04H
	DB	040H
	DB	044H
	DB	048H
	DB	04H
	DB	040H
	DB	044H
	DB	040H
	DB	04H
	DB	048H
	DB	044H
	DB	040H
	DB	04H
	DB	040H
	DB	044H
	DB	048H
	DB	04H
	DB	048H
	DB	044H
	DB	040H
	DB	04H
	DB	040H
	DB	044H
	DB	040H
	DB	00H
	DB	040H
	DB	044H
	DB	048H
	DB	04H
	DB	048H
	DB	044H
	DB	040H
	DB	04H
	DB	040H
	DB	044H
	DB	040H
	DB	04H
	DB	040H
	DB	044H
	DB	048H
	DB	04H
	DB	048H
	DB	044H
	DB	040H
	DB	04H
	DB	040H
	DB	044H
	DB	040H
	DB	04H
	DB	040H
	DB	044H
	DB	048H
	DB	04H
	DB	048H
	DB	044H
	DB	040H
	DB	00H
	DB	040H
	DB	044H
	DB	048H
	DB	04H
	DB	040H
	DB	044H
	DB	040H
	DB	04H
	DB	048H
	DB	044H
	DB	048H
	DB	04H
	DB	040H
	DB	044H
	DB	040H
	DB	04H
	DB	040H
	DB	044H
	DB	040H
	DB	04H
	DB	048H
	DB	044H
	DB	048H
	DB	04H
	DB	040H
	DB	044H
	DB	040H
	DB	04H
	DB	040H
	DB	044H
	DB	040H
	DB	00H
	DB	048H
	DB	044H
	DB	048H
	DB	04H
	DB	040H
	DB	044H
	DB	040H
	DB	04H
	DB	040H
	DB	044H
	DB	040H
	DB	04H
	DB	048H
	DB	044H
	DB	048H
	DB	04H
	DB	040H
	DB	044H
	DB	040H
	DB	00H
	DB	040H
	DB	044H
	DB	040H
	DB	04H
	DB	048H
	DB	044H
	DB	048H
	DB	00H
	DB	040H
	DB	044H
	DB	040H
	DB	04H
	DB	040H
	DB	044H
	DB	040H
	DB	04H
	DB	048H
	DB	044H
	DB	040H
	DB	00H
	DB	040H
	DB	044H
	DB	048H
	DB	04H
	DB	040H
	DB	044H
	DB	040H
	DB	04H
	DB	048H
	DB	044H
	DB	040H
	DB	04H
	DB	040H
	DB	044H
	DB	048H
	DB	04H
	DB	040H
	DB	044H
	DB	040H
	DB	00H
	DB	048H
	DB	044H
	DB	040H
	DB	04H
	DB	040H
	DB	044H
	DB	048H
	DB	04H
	DB	040H
	DB	044H
	DB	040H
	DB	00H
	DB	048H
	DB	044H
	DB	040H
	DB	04H
	DB	040H
	DB	044H
	DB	048H
	DB	04H
	DB	040H
	DB	044H
	DB	040H
	DB	04H
	DB	048H
	DB	044H
	DB	048H
	DB	04H
	DB	040H
	DB	044H
	DB	040H
	DB	04H
	DB	040H
	DB	044H
	DB	040H
	DB	00H
	DB	048H
	DB	044H
	DB	048H
	DB	04H
	DB	040H
	DB	044H
	DB	040H
	DB	04H
	DB	040H
	DB	044H
	DB	040H
	DB	04H
	DB	048H
	DB	044H
	DB	048H
	DB	04H
	DB	048H
	DB	044H
	DB	040H
	DB	00H
	DB	040H
	DB	044H
	DB	040H
	DB	04H
	DB	048H
	DB	044H
	DB	048H
	DB	00H
	DB	040H
	DB	044H
	DB	040H
	DB	04H
	DB	040H
	DB	044H
	DB	040H
	DB	04H
	DB	048H
	DB	044H
	DB	048H
	DB	00H
	DB	040H
	DB	044H
	DB	040H
	DB	04H
	DB	048H
	DB	044H
	DB	040H
	DB	04H
	DB	048H
	DB	044H
	DB	048H
	DB	04H
	DB	040H
	DB	044H
	DB	040H
	DB	04H
	DB	048H
	DB	044H
	DB	040H
	DB	00H
	DB	040H
	DB	044H
	DB	048H
	DB	04H
	DB	040H
	DB	044H
	DB	040H
	DB	04H
	DB	048H
	DB	044H
	DB	040H
	DB	00H
	DB	040H
	DB	044H
	DB	048H
	DB	04H
	DB	040H
	DB	044H
	DB	040H
	DB	04H
	DB	048H
	DB	044H
	DB	048H
	DB	04H
	DB	040H
	DB	044H
	DB	040H
	DB	00H
	DB	040H
	DB	044H
	DB	040H
	DB	04H
	DB	048H
	DB	044H
	DB	048H
	DB	00H
	DB	048H
	DB	044H
	DB	040H
	DB	04H
	DB	040H
	DB	044H
	DB	048H
	DB	00H
	DB	048H
	DB	044H
	DB	040H
	DB	04H
	DB	048H
	DB	044H
	DB	040H
	DB	04H
	DB	040H
	DB	044H
	DB	048H
	DB	04H
	DB	040H
	DB	044H
	DB	040H
	DB	00H
	DB	048H
	DB	044H
	DB	040H
	DB	04H
	DB	048H
	DB	044H
	DB	048H
	DB	04H
	DB	040H
	DB	044H
	DB	040H
	DB	04H
	DB	048H
	DB	044H
	DB	040H
	DB	04H
	DB	040H
	DB	044H
	DB	048H
	DB	00H
	DB	040H
	DB	044H
	DB	040H
	DB	00H
	DB	048H
	DB	044H
	DB	048H
	DB	04H
	DB	048H
	DB	044H
	DB	040H
	DB	00H
	DB	040H
	DB	044H
	DB	048H
	DB	04H
	DB	048H
	DB	044H
	DB	040H
	DB	00H
	DB	040H
	DB	044H
	DB	040H
	DB	04H
	DB	048H
	DB	044H
	DB	048H
	DB	04H
	DB	040H
	DB	044H
	DB	040H
	DB	04H
	DB	040H
	DB	044H
	DB	040H
	DB	00H
	DB	048H
	DB	044H
	DB	048H
	DB	04H
	DB	040H
	DB	044H
	DB	040H
	DB	04H
	DB	048H
	DB	044H
	DB	040H
	DB	04H
	DB	048H
	DB	044H
	DB	048H
	DB	04H
	DB	040H
	DB	044H
	DB	040H
	DB	04H
	DB	048H
	DB	044H
	DB	040H
	DB	00H
	DB	040H
	DB	044H
	DB	048H
	DB	04H
	DB	040H
	DB	044H
	DB	040H
	DB	04H
	DB	048H
	DB	044H
	DB	040H
	DB	04H
	DB	048H
	DB	044H
	DB	048H
	DB	00H
	DB	040H
	DB	044H
	DB	040H
	DB	04H
	DB	048H
	DB	044H
	DB	040H
	DB	04H
	DB	040H
	DB	044H
	DB	048H
	DB	00H
	DB	040H
	DB	044H
	DB	040H
	DB	04H
	DB	048H
	DB	044H
	DB	040H
	DB	04H
	DB	040H
	DB	044H
	DB	048H
	DB	04H
	DB	048H
	DB	044H
	DB	040H
	DB	04H
	DB	040H
	DB	044H
	DB	040H
	DB	00H
	DB	048H
	DB	044H
	DB	048H
	DB	04H
	DB	040H
	DB	044H
	DB	040H
	DB	04H
	DB	048H
	DB	044H
	DB	040H
	DB	04H
	DB	048H
	DB	044H
	DB	048H
	DB	04H
	DB	040H
	DB	044H
	DB	048H
	DB	04H
	DB	048H
	DB	044H
	DB	040H
	DB	04H
	DB	048H
	DB	044H
	DB	048H
	DB	00H
	DB	040H
	DB	044H
	DB	040H
	DB	00H
	DB	048H
	DB	044H
	DB	048H
	DB	04H
	DB	048H
	DB	044H
	DB	040H
	DB	04H
	DB	040H
	DB	044H
	DB	048H
	DB	04H
	DB	040H
	DB	044H
	DB	040H
	DB	00H
	DB	048H
	DB	044H
	DB	040H
	DB	04H
	DB	048H
	DB	044H
	DB	048H
	DB	00H
	DB	040H
	DB	044H
	DB	040H
	DB	04H
	DB	048H
	DB	044H
	DB	048H
	DB	04H
	DB	040H
	DB	044H
	DB	040H
	DB	00H
	DB	048H
	DB	044H
	DB	048H
	DB	04H
	DB	048H
	DB	044H
	DB	048H
	DB	04H
	DB	040H
	DB	044H
	DB	040H
	DB	00H
	DB	048H
	DB	044H
	DB	040H
	DB	04H
	DB	048H
	DB	044H
	DB	048H
	DB	00H
	DB	040H
	DB	044H
	DB	040H
	DB	04H
	DB	048H
	DB	044H
	DB	040H
	DB	04H
	DB	048H
	DB	044H
	DB	048H
	DB	04H
	DB	040H
	DB	044H
	DB	040H
	DB	04H
	DB	048H
	DB	044H
	DB	040H
	DB	00H
	DB	048H
	DB	044H
	DB	048H
	DB	04H
	DB	040H
	DB	044H
	DB	040H
	DB	04H
	DB	048H
	DB	044H
	DB	040H
	DB	00H
	DB	048H
	DB	044H
	DB	048H
	DB	00H
	DB	040H
	DB	044H
	DB	040H
	DB	04H
	DB	048H
	DB	044H
	DB	048H
	DB	04H
	DB	048H
	DB	044H
	DB	040H
	DB	00H
	DB	040H
	DB	044H
	DB	040H
	DB	04H
	DB	048H
	DB	044H
	DB	048H
	DB	04H
	DB	048H
	DB	044H
	DB	040H
	DB	00H
	DB	040H
	DB	044H
	DB	048H
	DB	04H
	DB	048H
	DB	044H
	DB	040H
	DB	04H
	DB	048H
	DB	044H
	DB	040H
	DB	00H
	DB	040H
	DB	044H
	DB	048H
	DB	04H
	DB	048H
	DB	044H
	DB	040H
	DB	04H
	DB	048H
	DB	044H
	DB	048H
	DB	00H
	DB	040H
	DB	044H
	DB	040H
	DB	04H
	DB	048H
	DB	044H
	DB	040H
	DB	04H
	DB	048H
	DB	044H
	DB	048H
	DB	00H
	DB	040H
	DB	044H
	DB	040H
	DB	04H
	DB	048H
	DB	044H
	DB	040H
	DB	04H
	DB	048H
	DB	044H
	DB	048H
	DB	04H
	DB	040H
	DB	044H
	DB	048H
	DB	04H
	DB	048H
	DB	044H
	DB	040H
	DB	04H
	DB	048H
	DB	044H
	DB	048H
	DB	04H
	DB	040H
	DB	044H
	DB	040H
	DB	04H
	DB	048H
	DB	044H
	DB	040H
	DB	00H
	DB	048H
	DB	044H
	DB	048H
	DB	04H
	DB	040H
	DB	044H
	DB	040H
	DB	04H
	DB	048H
	DB	044H
	DB	040H
	DB	00H
	DB	048H
	DB	044H
	DB	048H
	DB	04H
	DB	040H
	DB	044H
	DB	048H
	DB	04H
	DB	048H
	DB	044H
	DB	040H
	DB	00H
	DB	040H
	DB	044H
	DB	048H
	DB	04H
	DB	040H
	DB	044H
	DB	040H
	DB	04H
	DB	048H
	DB	044H
	DB	040H
	DB	00H
	DB	040H
	DB	044H
	DB	048H
	DB	04H
	DB	048H
	DB	044H
	DB	040H
	DB	04H
	DB	048H
	DB	044H
	DB	040H
	DB	00H
	DB	040H
	DB	044H
	DB	048H
	DB	04H
	DB	048H
	DB	044H
	DB	048H
	DB	04H
	DB	040H
	DB	044H
	DB	040H
	DB	04H
	DB	040H
	DB	044H
	DB	040H
	DB	00H
	DB	048H
	DB	044H
	DB	048H
	DB	04H
	DB	048H
	DB	044H
	DB	040H
	DB	04H
	DB	040H
	DB	044H
	DB	040H
	DB	04H
	DB	048H
	DB	044H
	DB	048H
	DB	04H
	DB	048H
	DB	044H
	DB	040H
	DB	04H
	DB	040H
	DB	044H
	DB	040H
	DB	04H
	DB	048H
	DB	044H
	DB	048H
	DB	04H
	DB	048H
	DB	044H
	DB	040H
	DB	04H
	DB	040H
	DB	044H
	DB	048H
	DB	00H
	DB	048H
	DB	044H
	DB	048H
	DB	04H
	DB	040H
	DB	044H
	DB	040H
	DB	04H
	DB	040H
	DB	044H
	DB	040H
	DB	04H
	DB	048H
	DB	044H
	DB	048H
	DB	04H
	DB	040H
	DB	044H
	DB	040H
	DB	00H
	DB	048H
	DB	044H
	DB	040H
	DB	04H
	DB	048H
	DB	044H
	DB	048H
	DB	04H
	DB	040H
	DB	044H
	DB	040H
	DB	00H
	DB	048H
	DB	044H
	DB	048H
	DB	04H
	DB	048H
	DB	044H
	DB	040H
	DB	04H
	DB	040H
	DB	044H
	DB	040H
	DB	04H
	DB	048H
	DB	044H
	DB	048H
	DB	04H
	DB	040H
	DB	044H
	DB	040H
	DB	04H
	DB	048H
	DB	044H
	DB	040H
	DB	04H
	DB	048H
	DB	044H
	DB	040H
	DB	04H
	DB	040H
	DB	044H
	DB	040H
	DB	04H
	DB	048H
	DB	044H
	DB	048H
	DB	04H
	DB	048H
	DB	044H
	DB	040H
	DB	04H
	DB	040H
	DB	044H
	DB	048H
	DB	00H
	DB	048H
	DB	044H
	DB	040H
	DB	04H
	DB	048H
	DB	044H
	DB	040H
	DB	04H
	DB	040H
	DB	044H
	DB	048H
	DB	00H
	DB	048H
	DB	044H
	DB	040H
	DB	04H
	DB	040H
	DB	044H
	DB	048H
	DB	04H
	DB	040H
	DB	044H
	DB	040H
	DB	00H
	DB	048H
	DB	044H
	DB	048H
	DB	00H
	DB	040H
	DB	044H
	DB	040H
	DB	04H
	DB	048H
	DB	044H
	DB	040H
	DB	04H
	DB	048H
	DB	044H
	DB	048H
	DB	04H
	DB	040H
	DB	044H
	DB	048H
	DB	04H
	DB	040H
	DB	044H
	DB	040H
	DB	04H
	DB	048H
	DB	044H
	DB	040H
	DB	04H
	DB	040H
	DB	044H
	DB	048H
	DB	04H
	DB	048H
	DB	044H
	DB	040H
	DB	00H
	DB	048H
	DB	044H
	DB	040H
	DB	04H
	DB	040H
	DB	044H
	DB	048H
	DB	04H
	DB	048H
	DB	044H
	DB	040H
	DB	00H
	DB	040H
	DB	044H
	DB	048H
	DB	04H
	DB	040H
	DB	044H
	DB	040H
	DB	04H
	DB	048H
	DB	044H
	DB	048H
	DB	00H
	DB	048H
	DB	044H
	DB	040H
	DB	04H
	DB	040H
	DB	044H
	DB	048H
	DB	04H
	DB	040H
	DB	044H
	DB	040H
	DB	00H
	DB	048H
	DB	044H
	DB	040H
	DB	04H
	DB	040H
	DB	044H
	DB	048H
	DB	00H
	DB	040H
	DB	044H
	DB	040H
	DB	04H
	DB	048H
	DB	044H
	DB	040H
	DB	04H
	DB	040H
	DB	044H
	DB	040H
	DB	04H
	DB	040H
	DB	044H
	DB	048H
	DB	04H
	DB	048H
	DB	044H
	DB	040H
	DB	00H
	DB	040H
	DB	044H
	DB	040H
	DB	04H
	DB	048H
	DB	044H
	DB	048H
	DB	04H
	DB	048H
	DB	044H
	DB	040H
	DB	04H
	DB	040H
	DB	044H
	DB	048H
	DB	04H
	DB	040H
	DB	044H
	DB	040H
	DB	00H
	DB	048H
	DB	044H
	DB	040H
	DB	04H
	DB	040H
	DB	044H
	DB	040H
	DB	04H
	DB	040H
	DB	044H
	DB	040H
	DB	04H
	DB	048H
	DB	044H
	DB	040H
	DB	04H
	DB	040H
	DB	044H
	DB	048H
	DB	04H
	DB	040H
	DB	044H
	DB	040H
	DB	04H
	DB	048H
	DB	044H
	DB	040H
	DB	00H
	DB	040H
	DB	044H
	DB	048H
	DB	04H
	DB	040H
	DB	044H
	DB	040H
	DB	04H
	DB	048H
	DB	044H
	DB	048H
	DB	00H
	DB	040H
	DB	044H
	DB	040H
	DB	04H
	DB	040H
	DB	044H
	DB	040H
	DB	04H
	DB	048H
	DB	044H
	DB	048H
	DB	04H
	DB	040H
	DB	044H
	DB	040H
	DB	00H
	DB	040H
	DB	044H
	DB	040H
	DB	04H
	DB	048H
	DB	044H
	DB	048H
	DB	04H
	DB	040H
	DB	044H
	DB	040H
	DB	04H
	DB	040H
	DB	044H
	DB	040H
	DB	04H
	DB	048H
	DB	044H
	DB	048H
	DB	04H
	DB	040H
	DB	044H
	DB	040H
	DB	04H
	DB	040H
	DB	044H
	DB	040H
	DB	04H
	DB	048H
	DB	044H
	DB	048H
	DB	00H
	DB	040H
	DB	044H
	DB	040H
	DB	04H
	DB	040H
	DB	044H
	DB	040H
	DB	04H
	DB	048H
	DB	044H
	DB	048H
	DB	04H
	DB	040H
	DB	044H
	DB	040H
	DB	04H
	DB	040H
	DB	044H
	DB	040H
	DB	04H
	DB	048H
	DB	044H
	DB	048H
	DB	04H
	DB	040H
	DB	044H
	DB	040H
	DB	04H
	DB	040H
	DB	044H
	DB	048H
	DB	04H
	DB	048H
	DB	044H
	DB	040H
	DB	04H
	DB	040H
	DB	044H
	DB	048H
	DB	04H
	DB	040H
	DB	044H
	DB	040H
	DB	00H
	DB	048H
	DB	044H
	DB	040H
	DB	04H
	DB	040H
	DB	044H
	DB	048H
	DB	04H
	DB	040H
	DB	044H
	DB	040H
	DB	00H
	DB	048H
	DB	044H
	DB	040H
	DB	00H
	DB	040H
	DB	044H
	DB	048H
	DB	04H
	DB	040H
	DB	044H
	DB	040H
	DB	04H
	DB	048H
	DB	044H
	DB	040H
	DB	00H
	DB	040H
	DB	044H
	DB	048H
	DB	04H
	DB	040H
	DB	044H
	DB	040H
	DB	04H
	DB	048H
	DB	044H
	DB	040H
	DB	04H
	DB	040H
	DB	044H
	DB	048H
	DB	04H
	DB	048H
	DB	044H
	DB	040H
	DB	04H
	DB	048H
	DB	044H
	DB	040H
	DB	00H
	DB	040H
	DB	044H
	DB	048H
	DB	04H
	DB	048H
	DB	044H
	DB	040H
	DB	04H
	DB	040H
	DB	044H
	DB	048H
	DB	04H
	DB	040H
	DB	044H
	DB	040H
	DB	04H
	DB	048H
	DB	044H
	DB	040H
	DB	04H
	DB	040H
	DB	044H
	DB	048H
	DB	04H
	DB	048H
	DB	044H
	DB	040H
	DB	00H
	DB	048H
	DB	044H
	DB	040H
	DB	04H
	DB	040H
	DB	044H
	DB	048H
	DB	04H
	DB	040H
	DB	044H
	DB	040H
	DB	04H
	DB	048H
	DB	044H
	DB	048H
	DB	00H
	DB	040H
	DB	044H
	DB	040H
	DB	04H
	DB	040H
	DB	044H
	DB	048H
	DB	00H
	DB	048H
	DB	044H
	DB	040H
	DB	04H
	DB	040H
	DB	044H
	DB	040H
	DB	00H
	DB	040H
	DB	044H
	DB	048H
	DB	04H
	DB	048H
	DB	044H
	DB	040H
	DB	04H
	DB	040H
	DB	044H
	DB	040H
	DB	00H
	DB	048H
	DB	044H
	DB	040H
	DB	04H
	DB	048H
	DB	044H
	DB	048H
	DB	04H
	DB	040H
	DB	044H
	DB	040H
	DB	04H
	DB	048H
	DB	044H
	DB	040H
	DB	04H
	DB	040H
	DB	044H
	DB	048H
	DB	04H
	DB	040H
	DB	044H
	DB	040H
	DB	04H
	DB	048H
	DB	044H
	DB	048H
	DB	04H
	DB	040H
	DB	044H
	DB	040H
	DB	04H
	DB	040H
	DB	044H
	DB	040H
	DB	04H
	DB	048H
	DB	044H
	DB	048H
	DB	04H
	DB	040H
	DB	044H
	DB	040H
	DB	00H
	DB	040H
	DB	044H
	DB	040H
	DB	00H
	DB	048H
	DB	044H
	DB	048H
	DB	04H
	DB	040H
	DB	044H
	DB	040H
	DB	00H
	DB	040H
	DB	044H
	DB	040H
	DB	04H
	DB	040H
	DB	044H
	DB	040H
	DB	04H
	DB	040H
	DB	044H
	DB	048H
	DB	04H
	DB	040H
	DB	044H
	DB	040H
	DB	04H
	DB	048H
	DB	044H
	DB	040H
	DB	00H
	DB	040H
	DB	044H
	DB	048H
	DB	04H
	DB	040H
	DB	044H
	DB	040H
	DB	04H
	DB	048H
	DB	044H
	DB	048H
	DB	04H
	DB	040H
	DB	044H
	DB	040H
	DB	04H
	DB	048H
	DB	044H
	DB	040H
	DB	04H
	DB	048H
	DB	044H
	DB	040H
	DB	04H
	DB	040H
	DB	044H
	DB	048H
	DB	04H
	DB	048H
	DB	044H
	DB	040H
	DB	04H
	DB	040H
	DB	044H
	DB	048H
	DB	00H
	DB	040H
	DB	044H
	DB	040H
	DB	04H
	DB	048H
	DB	044H
	DB	040H
	DB	04H
	DB	048H
	DB	044H
	DB	040H
	DB	00H
	DB	040H
	DB	044H
	DB	048H
	DB	00H
	DB	048H
	DB	044H
	DB	040H
	DB	04H
	DB	040H
	DB	044H
	DB	040H
	DB	04H
	DB	040H
	DB	044H
	DB	048H
	DB	04H
	DB	048H
	DB	044H
	DB	040H
	DB	04H
	DB	048H
	DB	044H
	DB	040H
	DB	04H
	DB	040H
	DB	044H
	DB	048H
	DB	00H
	DB	048H
	DB	044H
	DB	040H
	DB	04H
	DB	048H
	DB	044H
	DB	040H
	DB	04H
	DB	040H
	DB	044H
	DB	040H
	DB	00H
	DB	048H
	DB	044H
	DB	048H
	DB	04H
	DB	040H
	DB	044H
	DB	040H
	DB	04H
	DB	048H
	DB	044H
	DB	040H
	DB	04H
	DB	048H
	DB	044H
	DB	048H
	DB	04H
	DB	040H
	DB	044H
	DB	040H
	DB	04H
	DB	048H
	DB	044H
	DB	040H
	DB	00H
	DB	048H
	DB	044H
	DB	048H
	DB	04H
	DB	040H
	DB	044H
	DB	040H
	DB	04H
	DB	048H
	DB	044H
	DB	040H
	DB	04H
	DB	040H
	DB	044H
	DB	048H
	DB	04H
	DB	040H
	DB	044H
	DB	040H
	DB	00H
	DB	048H
	DB	044H
	DB	040H
	DB	04H
	DB	048H
	DB	044H
	DB	048H
	DB	04H
	DB	040H
	DB	044H
	DB	040H
	DB	04H
	DB	048H
	DB	044H
	DB	048H
	DB	04H
	DB	048H
	DB	044H
	DB	048H
	DB	00H
	DB	040H
	DB	044H
	DB	040H
	DB	04H
	DB	048H
	DB	044H
	DB	048H
	DB	00H
	DB	048H
	DB	044H
	DB	040H
	DB	04H
	DB	040H
	DB	044H
	DB	040H
	DB	04H
	DB	048H
	DB	044H
	DB	048H
	DB	04H
	DB	048H
	DB	044H
	DB	040H
	DB	04H
	DB	040H
	DB	044H
	DB	040H
	DB	04H
	DB	048H
	DB	044H
	DB	048H
	DB	04H
	DB	048H
	DB	044H
	DB	040H
	DB	00H
	DB	040H
	DB	044H
	DB	040H
	DB	04H
	DB	048H
	DB	044H
	DB	048H
	DB	04H
	DB	048H
	DB	044H
	DB	040H
	DB	00H
	DB	040H
	DB	044H
	DB	040H
	DB	04H
	DB	048H
	DB	044H
	DB	048H
	DB	04H
	DB	048H
	DB	044H
	DB	048H
	DB	04H
	DB	040H
	DB	044H
	DB	040H
	DB	00H
	DB	048H
	DB	044H
	DB	040H
	DB	04H
	DB	048H
	DB	044H
	DB	048H
	DB	00H
	DB	040H
	DB	044H
	DB	040H
	DB	04H
	DB	048H
	DB	044H
	DB	048H
	DB	04H
	DB	048H
	DB	044H
	DB	040H
	DB	04H
	DB	040H
	DB	044H
	DB	040H
	DB	04H
	DB	048H
	DB	044H
	DB	048H
	DB	00H
	DB	048H
	DB	044H
	DB	048H
	DB	04H
	DB	040H
	DB	044H
	DB	040H
	DB	04H
	DB	048H
	DB	044H
	DB	040H
	DB	00H
	DB	048H
	DB	044H
	DB	048H
	DB	04H
	DB	040H
	DB	044H
	DB	040H
	DB	00H
	DB	048H
	DB	044H
	DB	040H
	DB	04H
	DB	048H
	DB	044H
	DB	048H
	DB	04H
	DB	040H
	DB	044H
	DB	040H
	DB	00H
	DB	048H
	DB	044H
	DB	048H
	DB	04H
	DB	048H
	DB	044H
	DB	040H
	DB	04H
	DB	040H
	DB	044H
	DB	040H
	DB	04H
	DB	048H
	DB	044H
	DB	040H
	DB	04H
	DB	048H
	DB	044H
	DB	048H
	DB	04H
	DB	040H
	DB	044H
	DB	040H
	DB	04H
	DB	048H
	DB	044H
	DB	048H
	DB	04H
	DB	048H
	DB	044H
	DB	040H
	DB	04H
	DB	040H
	DB	044H
	DB	048H
	DB	00H
	DB	048H
	DB	044H
	DB	040H
	DB	04H
	DB	040H
	DB	044H
	DB	040H
	DB	00H
	DB	040H
	DB	044H
	DB	048H
	DB	04H
	DB	048H
	DB	044H
	DB	040H
	DB	04H
	DB	040H
	DB	044H
	DB	040H
	DB	04H
	DB	048H
	DB	044H
	DB	040H
	DB	00H
	DB	048H
	DB	044H
	DB	048H
	DB	04H
	DB	040H
	DB	044H
	DB	040H
	DB	04H
	DB	048H
	DB	044H
	DB	040H
	DB	00H
	DB	040H
	DB	044H
	DB	048H
	DB	04H
	DB	040H
	DB	044H
	DB	040H
	DB	04H
	DB	048H
	DB	044H
	DB	040H
	DB	04H
	DB	040H
	DB	044H
	DB	048H
	DB	00H
	DB	048H
	DB	044H
	DB	040H
	DB	04H
	DB	048H
	DB	044H
	DB	040H
	DB	04H
	DB	040H
	DB	044H
	DB	040H
	DB	04H
	DB	048H
	DB	044H
	DB	048H
	DB	04H
	DB	048H
	DB	044H
	DB	040H
	DB	04H
	DB	040H
	DB	044H
	DB	048H
	DB	00H
	DB	048H
	DB	044H
	DB	040H
	DB	04H
	DB	048H
	DB	044H
	DB	048H
	DB	04H
	DB	040H
	DB	044H
	DB	040H
	DB	00H
	DB	040H
	DB	044H
	DB	040H
	DB	04H
	DB	048H
	DB	044H
	DB	048H
	DB	04H
	DB	040H
	DB	044H
	DB	040H
	DB	00H
	DB	048H
	DB	044H
	DB	040H
	DB	00H
	DB	048H
	DB	044H
	DB	048H
	DB	04H
	DB	040H
	DB	044H
	DB	040H
	DB	00H
	DB	048H
	DB	044H
	DB	040H
	DB	04H
	DB	048H
	DB	044H
	DB	048H
	DB	00H
	DB	040H
	DB	044H
	DB	040H
	DB	00H
	DB	048H
	DB	044H
	DB	040H
	DB	04H
	DB	040H
	DB	044H
	DB	048H
	DB	04H
	DB	048H
	DB	044H
	DB	040H
	DB	04H
	DB	048H
	DB	044H
	DB	048H
	DB	04H
	DB	040H
	DB	044H
	DB	040H
	DB	04H
	DB	048H
	DB	044H
	DB	048H
	DB	04H
	DB	048H
	DB	044H
	DB	040H
	DB	00H
	DB	048H
	DB	044H
	DB	040H
	DB	00H
	DB	048H
	DB	044H
	DB	048H
	DB	04H
	DB	040H
	DB	044H
	DB	040H
	DB	04H
	DB	048H
	DB	044H
	DB	040H
	DB	04H
	DB	048H
	DB	044H
	DB	048H
	DB	04H
	DB	040H
	DB	044H
	DB	040H
	DB	00H
	DB	040H
	DB	044H
	DB	040H
	DB	04H
	DB	048H
	DB	044H
	DB	048H
	DB	00H
	DB	040H
	DB	044H
	DB	040H
	DB	04H
	DB	048H
	DB	044H
	DB	048H
	DB	00H
	DB	040H
	DB	044H
	DB	040H
	DB	04H
	DB	048H
	DB	044H
	DB	040H
	DB	04H
	DB	048H
	DB	044H
	DB	048H
	DB	04H
	DB	040H
	DB	044H
	DB	048H
	DB	00H
	DB	040H
	DB	044H
	DB	040H
	DB	04H
	DB	048H
	DB	044H
	DB	040H
	DB	04H
	DB	048H
	DB	044H
	DB	048H
	DB	04H
	DB	040H
	DB	044H
	DB	040H
	DB	00H
	DB	048H
	DB	044H
	DB	048H
	DB	04H
	DB	040H
	DB	044H
	DB	040H
	DB	00H
	DB	040H
	DB	044H
	DB	048H
	DB	04H
	DB	048H
	DB	044H
	DB	040H
	DB	04H
	DB	040H
	DB	044H
	DB	040H
	DB	04H
	DB	048H
	DB	044H
	DB	048H
	DB	04H
	DB	040H
	DB	044H
	DB	040H
	DB	04H
	DB	040H
	DB	044H
	DB	048H
	DB	04H
	DB	048H
	DB	044H
	DB	040H
	DB	04H
	DB	040H
	DB	044H
	DB	040H
	DB	00H
	DB	040H
	DB	044H
	DB	048H
	DB	04H
	DB	048H
	DB	044H
	DB	040H
	DB	04H
	DB	040H
	DB	044H
	DB	040H
	DB	04H
	DB	048H
	DB	044H
	DB	048H
	DB	00H
	DB	040H
	DB	044H
	DB	048H
	DB	04H
	DB	048H
	DB	044H
	DB	040H
	DB	04H
	DB	048H
	DB	044H
	DB	040H
	DB	00H
	DB	040H
	DB	044H
	DB	048H
	DB	04H
	DB	048H
	DB	044H
	DB	040H
	DB	04H
	DB	040H
	DB	044H
	DB	040H
	DB	00H
	DB	040H
	DB	044H
	DB	048H
	DB	04H
	DB	048H
	DB	044H
	DB	040H
	DB	00H
	DB	040H
	DB	044H
	DB	040H
	DB	04H
	DB	040H
	DB	044H
	DB	040H
	DB	04H
	DB	048H
	DB	044H
	DB	048H
	DB	04H
	DB	040H
	DB	044H
	DB	040H
	DB	04H
	DB	040H
	DB	044H
	DB	048H
	DB	00H
	DB	048H
	DB	044H
	DB	040H
	DB	00H
	DB	040H
	DB	044H
	DB	048H
	DB	04H
	DB	040H
	DB	044H
	DB	040H
	DB	00H
	DB	048H
	DB	044H
	DB	040H
	DB	04H
	DB	040H
	DB	044H
	DB	048H
	DB	04H
	DB	040H
	DB	044H
	DB	040H
	DB	04H
	DB	048H
	DB	044H
	DB	048H
	DB	00H
	DB	040H
	DB	044H
	DB	048H
	DB	04H
	DB	048H
	DB	044H
	DB	040H
	DB	04H
	DB	040H
	DB	044H
	DB	040H
	DB	04H
	DB	048H
	DB	044H
	DB	048H
	DB	04H
	DB	040H
	DB	044H
	DB	040H
	DB	00H
	DB	040H
	DB	044H
	DB	040H
	DB	04H
	DB	048H
	DB	044H
	DB	048H
	DB	04H
	DB	040H
	DB	044H
	DB	040H
	DB	04H
	DB	040H
	DB	044H
	DB	040H
	DB	00H
	DB	048H
	DB	044H
	DB	048H
	DB	04H
	DB	040H
	DB	044H
	DB	040H
	DB	04H
	DB	040H
	DB	044H
	DB	040H
	DB	00H
	DB	048H
	DB	044H
	DB	048H
	DB	04H
	DB	040H
	DB	044H
	DB	040H
	DB	04H
	DB	040H
	DB	044H
	DB	040H
	DB	00H
	DB	048H
	DB	044H
	DB	048H
	DB	04H
	DB	040H
	DB	044H
	DB	040H
	DB	04H
	DB	040H
	DB	044H
	DB	040H
	DB	00H
	DB	048H
	DB	044H
	DB	048H
	DB	04H
	DB	040H
	DB	044H
	DB	040H
	DB	04H
	DB	040H
	DB	044H
	DB	040H
	DB	04H
	DB	048H
	DB	044H
	DB	048H
	DB	00H
	DB	040H
	DB	044H
	DB	048H
	DB	04H
	DB	040H
	DB	044H
	DB	040H
	DB	00H
	DB	048H
	DB	044H
	DB	048H
	DB	04H
	DB	040H
	DB	044H
	DB	040H
	DB	04H
	DB	040H
	DB	044H
	DB	040H
	DB	00H
	DB	048H
	DB	044H
	DB	040H
	DB	04H
	DB	040H
	DB	044H
	DB	048H
	DB	04H
	DB	048H
	DB	044H
	DB	040H
	DB	04H
	DB	048H
	DB	044H
	DB	048H
	DB	04H
	DB	040H
	DB	044H
	DB	040H
	DB	04H
	DB	048H
	DB	044H
	DB	040H
	DB	00H
	DB	040H
	DB	044H
	DB	048H
	DB	04H
	DB	040H
	DB	044H
	DB	040H
	DB	04H
	DB	048H
	DB	044H
	DB	048H
	DB	04H
	DB	040H
	DB	044H
	DB	040H
	DB	00H
	DB	048H
	DB	044H
	DB	040H
	DB	04H
	DB	048H
	DB	044H
	DB	048H
	DB	04H
	DB	040H
	DB	044H
	DB	048H
	DB	00H
	DB	048H
	DB	044H
	DB	040H
	DB	04H
	DB	040H
	DB	044H
	DB	040H
	DB	04H
	DB	040H
	DB	044H
	DB	048H
	DB	04H
	DB	048H
	DB	044H
	DB	040H
	DB	00H
	DB	040H
	DB	044H
	DB	048H
	DB	04H
	DB	040H
	DB	044H
	DB	040H
	DB	04H
	DB	048H
	DB	044H
	DB	040H
	DB	00H
	DB	040H
	DB	044H
	DB	048H
	DB	04H
	DB	040H
	DB	044H
	DB	040H
	DB	04H
	DB	048H
	DB	044H
	DB	040H
	DB	04H
	DB	048H
	DB	044H
	DB	048H
	DB	04H
	DB	040H
	DB	044H
	DB	040H
	DB	04H
	DB	048H
	DB	044H
	DB	048H
	DB	04H
	DB	040H
	DB	044H
	DB	040H
	DB	04H
	DB	040H
	DB	044H
	DB	040H
	DB	04H
	DB	048H
	DB	044H
	DB	048H
	DB	04H
	DB	040H
	DB	044H
	DB	040H
	DB	04H
	DB	040H
	DB	044H
	DB	040H
	DB	04H
	DB	048H
	DB	044H
	DB	048H
	DB	04H
	DB	040H
	DB	044H
	DB	040H
	DB	04H
	DB	048H
	DB	044H
	DB	048H
	DB	04H
	DB	040H
	DB	044H
	DB	040H
	DB	00H
	DB	048H
	DB	044H
	DB	040H
	DB	04H
	DB	040H
	DB	044H
	DB	048H
	DB	04H
	DB	040H
	DB	044H
	DB	040H
	DB	00H
	DB	048H
	DB	044H
	DB	040H
	DB	04H
	DB	040H
	DB	044H
	DB	048H
	DB	04H
	DB	040H
	DB	044H
	DB	040H
	DB	04H
	DB	040H
	DB	044H
	DB	040H
	DB	04H
	DB	048H
	DB	044H
	DB	040H
	DB	00H
	DB	040H
	DB	044H
	DB	048H
	DB	04H
	DB	040H
	DB	044H
	DB	040H
	DB	04H
	DB	048H
	DB	044H
	DB	040H
	DB	00H
	DB	048H
	DB	044H
	DB	048H
	DB	04H
	DB	040H
	DB	044H
	DB	040H
	DB	04H
	DB	048H
	DB	044H
	DB	040H
	DB	04H
	DB	040H
	DB	044H
	DB	048H
	DB	04H
	DB	040H
	DB	044H
	DB	040H
	DB	04H
	DB	048H
	DB	044H
	DB	040H
	DB	00H
	DB	040H
	DB	044H
	DB	040H
	DB	04H
	DB	048H
	DB	044H
	DB	040H
	DB	04H
	DB	040H
	DB	044H
	DB	048H
	DB	04H
	DB	048H
	DB	044H
	DB	040H
	DB	04H
	DB	040H
	DB	044H
	DB	048H
	DB	04H
	DB	040H
	DB	044H
	DB	040H
	DB	04H
	DB	048H
	DB	044H
	DB	040H
	DB	04H
	DB	048H
	DB	044H
	DB	048H
	DB	04H
	DB	040H
	DB	044H
	DB	040H
	DB	00H
	DB	048H
	DB	044H
	DB	040H
	DB	04H
	DB	040H
	DB	044H
	DB	048H
	DB	04H
	DB	048H
	DB	044H
	DB	040H
	DB	00H
	DB	040H
	DB	044H
	DB	048H
	DB	00H
	DB	048H
	DB	044H
	DB	040H
	DB	04H
	DB	048H
	DB	044H
	DB	040H
	DB	04H
	DB	040H
	DB	044H
	DB	048H
	DB	00H
	DB	048H
	DB	044H
	DB	040H
	DB	04H
	DB	048H
	DB	044H
	DB	048H
	DB	04H
	DB	040H
	DB	044H
	DB	040H
	DB	00H
	DB	048H
	DB	044H
	DB	040H
	DB	04H
	DB	040H
	DB	044H
	DB	048H
	DB	04H
	DB	040H
	DB	044H
	DB	040H
	DB	04H
	DB	048H
	DB	044H
	DB	040H
	DB	00H
	DB	040H
	DB	044H
	DB	048H
	DB	04H
	DB	048H
	DB	044H
	DB	040H
	DB	04H
	DB	048H
	DB	044H
	DB	048H
	DB	04H
	DB	040H
	DB	044H
	DB	040H
	DB	04H
	DB	048H
	DB	044H
	DB	040H
	DB	04H
	DB	048H
	DB	044H
	DB	048H
	DB	04H
	DB	040H
	DB	044H
	DB	040H
	DB	00H
	DB	048H
	DB	044H
	DB	040H
	DB	04H
	DB	048H
	DB	044H
	DB	048H
	DB	04H
	DB	040H
	DB	044H
	DB	040H
	DB	04H
	DB	048H
	DB	044H
	DB	040H
	DB	04H
	DB	048H
	DB	044H
	DB	048H
	DB	04H
	DB	040H
	DB	044H
	DB	040H
	DB	04H
	DB	048H
	DB	044H
	DB	048H
	DB	04H
	DB	048H
	DB	044H
	DB	040H
	DB	00H
	DB	040H
	DB	044H
	DB	040H
	DB	04H
	DB	048H
	DB	044H
	DB	048H
	DB	04H
	DB	040H
	DB	044H
	DB	040H
	DB	04H
	DB	048H
	DB	044H
	DB	040H
	DB	00H
	DB	040H
	DB	044H
	DB	048H
	DB	04H
	DB	040H
	DB	044H
	DB	040H
	DB	04H
	DB	048H
	DB	044H
	DB	040H
	DB	00H
	DB	048H
	DB	044H
	DB	040H
	DB	04H
	DB	040H
	DB	044H
	DB	048H
	DB	04H
	DB	048H
	DB	044H
	DB	040H
	DB	04H
	DB	048H
	DB	044H
	DB	040H
	DB	04H
	DB	040H
	DB	044H
	DB	048H
	DB	00H
	DB	048H
	DB	044H
	DB	040H
	DB	04H
	DB	048H
	DB	044H
	DB	048H
	DB	04H
	DB	040H
	DB	044H
	DB	040H
	DB	00H
	DB	048H
	DB	044H
	DB	040H
	DB	04H
	DB	048H
	DB	044H
	DB	048H
	DB	04H
	DB	040H
	DB	044H
	DB	040H
	DB	04H
	DB	048H
	DB	044H
	DB	048H
	DB	04H
	DB	048H
	DB	044H
	DB	040H
	DB	04H
	DB	040H
	DB	044H
	DB	040H
	DB	04H
	DB	048H
	DB	044H
	DB	048H
	DB	00H
	DB	048H
	DB	044H
	DB	040H
	DB	04H
	DB	040H
	DB	044H
	DB	040H
	DB	04H
	DB	048H
	DB	044H
	DB	040H
	DB	04H
	DB	048H
	DB	044H
	DB	040H
	DB	04H
	DB	040H
	DB	044H
	DB	048H
	DB	00H
	DB	048H
	DB	044H
	DB	040H
	DB	04H
	DB	048H
	DB	044H
	DB	048H
	DB	04H
	DB	040H
	DB	044H
	DB	040H
	DB	00H
	DB	048H
	DB	044H
	DB	048H
	DB	04H
	DB	040H
	DB	044H
	DB	040H
	DB	04H
	DB	040H
	DB	044H
	DB	040H
	DB	00H
	DB	048H
	DB	044H
	DB	048H
	DB	04H
	DB	048H
	DB	044H
	DB	040H
	DB	04H
	DB	040H
	DB	044H
	DB	048H
	DB	04H
	DB	048H
	DB	044H
	DB	040H
	DB	00H
	DB	048H
	DB	044H
	DB	048H
	DB	04H
	DB	040H
	DB	044H
	DB	040H
	DB	04H
	DB	040H
	DB	044H
	DB	040H
	DB	04H
	DB	048H
	DB	044H
	DB	048H
	DB	04H
	DB	040H
	DB	044H
	DB	040H
	DB	04H
	DB	048H
	DB	044H
	DB	040H
	DB	00H
	DB	048H
	DB	044H
	DB	048H
	DB	04H
	DB	040H
	DB	044H
	DB	040H
	DB	04H
	DB	048H
	DB	044H
	DB	040H
	DB	04H
	DB	048H
	DB	044H
	DB	048H
	DB	00H
	DB	040H
	DB	044H
	DB	040H
	DB	04H
	DB	048H
	DB	044H
	DB	048H
	DB	04H
	DB	048H
	DB	044H
	DB	040H
	DB	00H
	DB	040H
	DB	044H
	DB	040H
	DB	04H
	DB	048H
	DB	044H
	DB	048H
	DB	04H
	DB	040H
	DB	044H
	DB	040H
	DB	00H
	DB	040H
	DB	044H
	DB	040H
	DB	04H
	DB	048H
	DB	044H
	DB	048H
	DB	00H
	DB	048H
	DB	044H
	DB	040H
	DB	04H
	DB	040H
	DB	044H
	DB	040H
	DB	04H
	DB	048H
	DB	044H
	DB	048H
	DB	00H
	DB	048H
	DB	044H
	DB	048H
	DB	04H
	DB	040H
	DB	044H
	DB	040H
	DB	04H
	DB	048H
	DB	044H
	DB	048H
	DB	00H
	DB	040H
	DB	044H
	DB	040H
	DB	04H
	DB	048H
	DB	044H
	DB	040H
	DB	04H
	DB	040H
	DB	044H
	DB	048H
	DB	04H
	DB	048H
	DB	044H
	DB	040H
	DB	04H
	DB	040H
	DB	044H
	DB	040H
	DB	04H
	DB	048H
	DB	044H
	DB	048H
	DB	00H
	DB	048H
	DB	044H
	DB	040H
	DB	04H
	DB	040H
	DB	044H
	DB	040H
	DB	04H
	DB	048H
	DB	044H
	DB	048H
	DB	00H
	DB	040H
	DB	044H
	DB	040H
	DB	04H
	DB	040H
	DB	044H
	DB	040H
	DB	04H
	DB	048H
	DB	044H
	DB	048H
	DB	04H
	DB	048H
	DB	044H
	DB	040H
	DB	00H
	DB	040H
	DB	044H
	DB	048H
	DB	04H
	DB	040H
	DB	044H
	DB	040H
	DB	04H
	DB	048H
	DB	044H
	DB	048H
	DB	04H
	DB	048H
	DB	044H
	DB	040H
	DB	00H
	DB	040H
	DB	044H
	DB	040H
	DB	04H
	DB	048H
	DB	044H
	DB	048H
	DB	04H
	DB	048H
	DB	044H
	DB	048H
	DB	04H
	DB	040H
	DB	044H
	DB	040H
	DB	04H
	DB	040H
	DB	044H
	DB	048H
	DB	00H
	DB	048H
	DB	044H
	DB	040H
	DB	04H
	DB	048H
	DB	044H
	DB	040H
	DB	04H
	DB	040H
	DB	044H
	DB	048H
	DB	00H
	DB	048H
	DB	044H
	DB	040H
	DB	00H
	DB	040H
	DB	044H
	DB	040H
	DB	04H
	DB	048H
	DB	044H
	DB	048H
	DB	04H
	DB	040H
	DB	044H
	DB	040H
	DB	04H
	DB	048H
	DB	044H
	DB	040H
	DB	04H
	DB	048H
	DB	044H
	DB	048H
	DB	04H
	DB	040H
	DB	044H
	DB	040H
	DB	04H
	DB	040H
	DB	044H
	DB	040H
	DB	04H
	DB	048H
	DB	044H
	DB	048H
	DB	04H
	DB	040H
	DB	044H
	DB	040H
	DB	04H
	DB	040H
	DB	044H
	DB	040H
	DB	00H
	DB	048H
	DB	044H
	DB	048H
	DB	04H
	DB	040H
	DB	044H
	DB	040H
	DB	04H
	DB	040H
	DB	044H
	DB	040H
	DB	04H
	DB	048H
	DB	044H
	DB	048H
	DB	00H
	DB	048H
	DB	044H
	DB	040H
	DB	04H
	DB	040H
	DB	044H
	DB	040H
	DB	04H
	DB	048H
	DB	044H
	DB	048H
	DB	00H
	DB	040H
	DB	044H
	DB	040H
	DB	04H
	DB	040H
	DB	044H
	DB	040H
	DB	04H
	DB	048H
	DB	044H
	DB	048H
	DB	00H
	DB	040H
	DB	044H
	DB	040H
	DB	04H
	DB	040H
	DB	044H
	DB	048H
	DB	04H
	DB	048H
	DB	044H
	DB	040H
	DB	00H
	DB	040H
	DB	044H
	DB	048H
	DB	04H
	DB	040H
	DB	044H
	DB	040H
	DB	04H
	DB	048H
	DB	044H
	DB	048H
	DB	00H
	DB	040H
	DB	044H
	DB	040H
	DB	04H
	DB	040H
	DB	044H
	DB	040H
	DB	00H
	DB	048H
	DB	044H
	DB	048H
	DB	04H
	DB	040H
	DB	044H
	DB	040H
	DB	04H
	DB	040H
	DB	044H
	DB	040H
	DB	04H
	DB	048H
	DB	044H
	DB	048H
	DB	04H
	DB	040H
	DB	044H
	DB	040H
	DB	00H
	DB	048H
	DB	044H
	DB	040H
	DB	04H
	DB	048H
	DB	044H
	DB	048H
	DB	04H
	DB	040H
	DB	044H
	DB	040H
	DB	04H
	DB	048H
	DB	044H
	DB	040H
	DB	04H
	DB	048H
	DB	044H
	DB	048H
	DB	00H
	DB	040H
	DB	044H
	DB	040H
	DB	04H
	DB	048H
	DB	044H
	DB	048H
	DB	04H
	DB	040H
	DB	044H
	DB	048H
	DB	04H
	DB	040H
	DB	044H
	DB	040H
	DB	00H
	DB	048H
	DB	044H
	DB	040H
	DB	04H
	DB	040H
	DB	044H
	DB	048H
	DB	04H
	DB	040H
	DB	044H
	DB	040H
	DB	04H
	DB	048H
	DB	044H
	DB	040H
	DB	04H
	DB	040H
	DB	044H
	DB	048H
	DB	04H
	DB	040H
	DB	044H
	DB	040H
	DB	04H
	DB	048H
	DB	044H
	DB	040H
	DB	04H
	DB	040H
	DB	044H
	DB	048H
	DB	00H
	DB	048H
	DB	044H
	DB	040H
	DB	04H
	DB	040H
	DB	044H
	DB	040H
	DB	00H
	DB	048H
	DB	044H
	DB	048H
	DB	04H
	DB	040H
	DB	044H
	DB	040H
	DB	04H
	DB	040H
	DB	044H
	DB	048H
	DB	04H
	DB	048H
	DB	044H
	DB	048H
	DB	00H
	DB	040H
	DB	044H
	DB	040H
	DB	04H
	DB	040H
	DB	044H
	DB	040H
	DB	04H
	DB	048H
	DB	044H
	DB	048H
	DB	04H
	DB	040H
	DB	044H
	DB	040H
	DB	04H
	DB	040H
	DB	044H
	DB	040H
	DB	04H
	DB	048H
	DB	044H
	DB	040H
	DB	04H
	DB	048H
	DB	044H
	DB	048H
	DB	04H
	DB	040H
	DB	044H
	DB	040H
	DB	00H
	DB	048H
	DB	044H
	DB	040H
	DB	04H
	DB	040H
	DB	044H
	DB	048H
	DB	04H
	DB	040H
	DB	044H
	DB	040H
	DB	00H
	DB	048H
	DB	044H
	DB	040H
	DB	04H
	DB	040H
	DB	044H
	DB	048H
	DB	04H
	DB	048H
	DB	044H
	DB	040H
	DB	04H
	DB	048H
	DB	044H
	DB	040H
	DB	00H
	DB	040H
	DB	044H
	DB	048H
	DB	04H
	DB	048H
	DB	044H
	DB	040H
	DB	00H
	DB	040H
	DB	044H
	DB	048H
	DB	04H
	DB	040H
	DB	044H
	DB	040H
	DB	04H
	DB	048H
	DB	044H
	DB	040H
	DB	04H
	DB	040H
	DB	044H
	DB	048H
	DB	00H
	DB	048H
	DB	044H
	DB	040H
	DB	04H
	DB	040H
	DB	044H
	DB	040H
	DB	04H
	DB	040H
	DB	044H
	DB	048H
	DB	04H
	DB	048H
	DB	044H
	DB	040H
	DB	04H
	DB	040H
	DB	044H
	DB	040H
	DB	04H
	DB	040H
	DB	044H
	DB	048H
	DB	04H
	DB	048H
	DB	044H
	DB	040H
	DB	04H
	DB	048H
	DB	044H
	DB	048H
	DB	04H
	DB	040H
	DB	044H
	DB	040H
	DB	04H
	DB	040H
	DB	044H
	DB	040H
	DB	00H
	DB	048H
	DB	044H
	DB	048H
	DB	04H
	DB	040H
	DB	044H
	DB	040H
	DB	04H
	DB	040H
	DB	044H
	DB	040H
	DB	00H
	DB	048H
	DB	044H
	DB	048H
	DB	04H
	DB	040H
	DB	044H
	DB	040H
	DB	04H
	DB	048H
	DB	044H
	DB	040H
	DB	00H
	DB	048H
	DB	044H
	DB	048H
	DB	04H
	DB	040H
	DB	044H
	DB	040H
	DB	04H
	DB	040H
	DB	044H
	DB	040H
	DB	00H
	DB	048H
	DB	044H
	DB	048H
	DB	00H
	DB	040H
	DB	044H
	DB	040H
	DB	04H
	DB	048H
	DB	044H
	DB	048H
	DB	04H
	DB	040H
	DB	044H
	DB	040H
	DB	04H
	DB	040H
	DB	044H
	DB	048H
	DB	04H
	DB	048H
	DB	044H
	DB	040H
	DB	04H
	DB	048H
	DB	044H
	DB	040H
	DB	04H
	DB	048H
	DB	044H
	DB	048H
	DB	00H
	DB	040H
	DB	044H
	DB	040H
	DB	04H
	DB	048H
	DB	044H
	DB	040H
	DB	04H
	DB	048H
	DB	044H
	DB	048H
	DB	04H
	DB	040H
	DB	044H
	DB	040H
	DB	00H
	DB	040H
	DB	044H
	DB	040H
	DB	04H
	DB	048H
	DB	044H
	DB	048H
	DB	04H
	DB	040H
	DB	044H
	DB	040H
	DB	00H
	DB	040H
	DB	044H
	DB	040H
	DB	04H
	DB	048H
	DB	044H
	DB	048H
	DB	00H
	DB	048H
	DB	044H
	DB	040H
	DB	04H
	DB	040H
	DB	044H
	DB	040H
	DB	04H
	DB	048H
	DB	044H
	DB	048H
	DB	00H
	DB	040H
	DB	044H
	DB	040H
	DB	04H
	DB	040H
	DB	044H
	DB	040H
	DB	04H
	DB	048H
	DB	044H
	DB	048H
	DB	04H
	DB	040H
	DB	044H
	DB	040H
	DB	04H
	DB	048H
	DB	044H
	DB	040H
	DB	00H
	DB	040H
	DB	044H
	DB	048H
	DB	04H
	DB	040H
	DB	044H
	DB	040H
	DB	00H
	DB	048H
	DB	044H
	DB	048H
	DB	04H
	DB	040H
	DB	044H
	DB	040H
	DB	00H
	DB	048H
	DB	044H
	DB	040H
	DB	00H
	DB	048H
	DB	044H
	DB	048H
	DB	04H
	DB	040H
	DB	044H
	DB	040H
	DB	04H
	DB	048H
	DB	044H
	DB	048H
	DB	04H
	DB	048H
	DB	044H
	DB	040H
	DB	04H
	DB	040H
	DB	044H
	DB	048H
	DB	04H
	DB	048H
	DB	044H
	DB	040H
	DB	04H
	DB	040H
	DB	044H
	DB	040H
	DB	00H
	DB	040H
	DB	044H
	DB	048H
	DB	04H
	DB	048H
	DB	044H
	DB	040H
	DB	04H
	DB	040H
	DB	044H
	DB	048H
	DB	04H
	DB	048H
	DB	044H
	DB	040H
	DB	04H
	DB	048H
	DB	044H
	DB	040H
	DB	04H
	DB	040H
	DB	044H
	DB	048H
	DB	04H
	DB	048H
	DB	044H
	DB	040H
	DB	00H
	DB	040H
	DB	044H
	DB	040H
	DB	04H
	DB	048H
	DB	044H
	DB	040H
	DB	04H
	DB	048H
	DB	044H
	DB	048H
	DB	00H
	DB	040H
	DB	044H
	DB	040H
	DB	04H
	DB	048H
	DB	044H
	DB	040H
	DB	04H
	DB	048H
	DB	044H
	DB	048H
	DB	04H
	DB	040H
	DB	044H
	DB	040H
	DB	04H
	DB	048H
	DB	044H
	DB	040H
	DB	04H
	DB	048H
	DB	044H
	DB	048H
	DB	00H
	DB	040H
	DB	044H
	DB	040H
	DB	00H
	DB	048H
	DB	044H
	DB	040H
	DB	04H
	DB	040H
	DB	044H
	DB	048H
	DB	04H
	DB	040H
	DB	044H
	DB	040H
	DB	04H
	DB	048H
	DB	044H
	DB	048H
	DB	00H
	DB	040H
	DB	044H
	DB	040H
	DB	04H
	DB	040H
	DB	044H
	DB	040H
	DB	04H
	DB	048H
	DB	044H
	DB	048H
	DB	00H
	DB	040H
	DB	044H
	DB	040H
	DB	04H
	DB	048H
	DB	044H
	DB	040H
	DB	04H
	DB	040H
	DB	044H
	DB	040H
	DB	04H
	DB	048H
	DB	044H
	DB	048H
	DB	00H
	DB	048H
	DB	044H
	DB	040H
	DB	04H
	DB	040H
	DB	044H
	DB	048H
	DB	04H
	DB	048H
	DB	044H
	DB	040H
	DB	00H
	DB	048H
	DB	044H
	DB	040H
	DB	04H
	DB	040H
	DB	044H
	DB	048H
	DB	00H
	DB	048H
	DB	044H
	DB	040H
	DB	04H
	DB	048H
	DB	044H
	DB	048H
	DB	04H
	DB	040H
	DB	044H
	DB	040H
	DB	00H
	DB	040H
	DB	044H
	DB	040H
	DB	04H
	DB	048H
	DB	044H
	DB	048H
	DB	04H
	DB	040H
	DB	044H
	DB	040H
	DB	04H
	DB	040H
	DB	044H
	DB	040H
	DB	00H
	DB	048H
	DB	044H
	DB	048H
	DB	04H
	DB	048H
	DB	044H
	DB	040H
	DB	04H
	DB	040H
	DB	044H
	DB	040H
	DB	04H
	DB	048H
	DB	044H
	DB	048H
	DB	00H
	DB	048H
	DB	044H
	DB	048H
	DB	04H
	DB	040H
	DB	044H
	DB	040H
	DB	00H
	DB	048H
	DB	044H
	DB	040H
	DB	04H
	DB	040H
	DB	044H
	DB	048H
	DB	00H
	DB	040H
	DB	044H
	DB	040H
	DB	04H
	DB	048H
	DB	044H
	DB	040H
	DB	04H
	DB	040H
	DB	044H
	DB	048H
	DB	04H
	DB	048H
	DB	044H
	DB	040H
	DB	04H
	DB	048H
	DB	044H
	DB	048H
	DB	04H
	DB	040H
	DB	044H
	DB	040H
	DB	00H
	DB	040H
	DB	044H
	DB	040H
	DB	04H
	DB	048H
	DB	044H
	DB	048H
	DB	04H
	DB	040H
	DB	044H
	DB	040H
	DB	00H
	DB	040H
	DB	044H
	DB	040H
	DB	04H
	DB	048H
	DB	044H
	DB	048H
	DB	04H
	DB	048H
	DB	044H
	DB	040H
	DB	04H
	DB	040H
	DB	044H
	DB	040H
	DB	00H
	DB	048H
	DB	044H
	DB	048H
	DB	04H
	DB	040H
	DB	044H
	DB	040H
	DB	04H
	DB	048H
	DB	044H
	DB	048H
	DB	04H
	DB	040H
	DB	044H
	DB	040H
	DB	00H
	DB	048H
	DB	044H
	DB	048H
	DB	04H
	DB	048H
	DB	044H
	DB	040H
	DB	00H
	DB	040H
	DB	044H
	DB	040H
	DB	04H
	DB	048H
	DB	044H
	DB	048H
	DB	00H
	DB	040H
	DB	044H
	DB	040H
	DB	04H
	DB	048H
	DB	044H
	DB	040H
	DB	00H
	DB	040H
	DB	044H
	DB	048H
	DB	04H
	DB	048H
	DB	044H
	DB	040H
	DB	04H
	DB	048H
	DB	044H
	DB	048H
	DB	04H
	DB	040H
	DB	044H
	DB	040H
	DB	04H
	DB	048H
	DB	044H
	DB	048H
	DB	04H
	DB	048H
	DB	044H
	DB	040H
	DB	04H
	DB	040H
	DB	044H
	DB	040H
	DB	04H
	DB	040H
	DB	044H
	DB	040H
	DB	04H
	DB	048H
	DB	044H
	DB	048H
	DB	04H
	DB	040H
	DB	044H
	DB	040H
	DB	04H
	DB	048H
	DB	044H
	DB	040H
	DB	04H
	DB	048H
	DB	044H
	DB	048H
	DB	04H
	DB	040H
	DB	044H
	DB	040H
	DB	04H
	DB	048H
	DB	044H
	DB	040H
	DB	00H
	DB	040H
	DB	044H
	DB	048H
	DB	04H
	DB	048H
	DB	044H
	DB	040H
	DB	04H
	DB	040H
	DB	044H
	DB	040H
	DB	00H
	DB	040H
	DB	044H
	DB	048H
	DB	04H
	DB	040H
	DB	044H
	DB	040H
	DB	04H
	DB	040H
	DB	044H
	DB	040H
	DB	04H
	DB	040H
	DB	044H
	DB	040H
	DB	04H
	DB	040H
	DB	044H
	DB	048H
	DB	00H
	DB	048H
	DB	044H
	DB	040H
	DB	04H
	DB	048H
	DB	044H
	DB	040H
	DB	04H
	DB	040H
	DB	044H
	DB	048H
	DB	04H
	DB	048H
	DB	044H
	DB	040H
	DB	04H
	DB	048H
	DB	044H
	DB	048H
	DB	04H
	DB	040H
	DB	044H
	DB	040H
	DB	04H
	DB	040H
	DB	044H
	DB	040H
	DB	04H
	DB	048H
	DB	044H
	DB	048H
	DB	00H
	DB	040H
	DB	044H
	DB	040H
	DB	04H
	DB	048H
	DB	044H
	DB	040H
	DB	04H
	DB	048H
	DB	044H
	DB	048H
	DB	04H
	DB	040H
	DB	044H
	DB	040H
	DB	00H
	DB	048H
	DB	044H
	DB	048H
	DB	04H
	DB	040H
	DB	044H
	DB	040H
	DB	04H
	DB	048H
	DB	044H
	DB	048H
	DB	04H
	DB	048H
	DB	044H
	DB	040H
	DB	04H
	DB	040H
	DB	044H
	DB	040H
	DB	04H
	DB	040H
	DB	044H
	DB	048H
	DB	04H
	DB	048H
	DB	044H
	DB	040H
	DB	04H
	DB	040H
	DB	044H
	DB	048H
	DB	04H
	DB	040H
	DB	044H
	DB	040H
	DB	00H
	DB	048H
	DB	044H
	DB	040H
	DB	04H
	DB	040H
	DB	044H
	DB	048H
	DB	00H
	DB	048H
	DB	044H
	DB	040H
	DB	04H
	DB	040H
	DB	044H
	DB	040H
	DB	04H
	DB	048H
	DB	044H
	DB	048H
	DB	00H
	DB	048H
	DB	044H
	DB	048H
	DB	04H
	DB	040H
	DB	044H
	DB	040H
	DB	04H
	DB	048H
	DB	044H
	DB	040H
	DB	00H
	DB	040H
	DB	044H
	DB	048H
	DB	04H
	DB	040H
	DB	044H
	DB	040H
	DB	04H
	DB	048H
	DB	044H
	DB	048H
	DB	00H
	DB	040H
	DB	044H
	DB	040H
	DB	04H
	DB	048H
	DB	044H
	DB	048H
	DB	04H
	DB	040H
	DB	044H
	DB	040H
	DB	04H
	DB	040H
	DB	044H
	DB	040H
	DB	04H
	DB	048H
	DB	044H
	DB	048H
	DB	04H
	DB	040H
	DB	044H
	DB	040H
	DB	04H
	DB	040H
	DB	044H
	DB	040H
	DB	00H
	DB	048H
	DB	044H
	DB	048H
	DB	04H
	DB	040H
	DB	044H
	DB	040H
	DB	04H
	DB	040H
	DB	044H
	DB	048H
	DB	04H
	DB	048H
	DB	044H
	DB	040H
	DB	04H
	DB	048H
	DB	044H
	DB	040H
	DB	04H
	DB	040H
	DB	044H
	DB	048H
	DB	00H
	DB	048H
	DB	044H
	DB	040H
	DB	04H
	DB	048H
	DB	044H
	DB	040H
	DB	04H
	DB	040H
	DB	044H
	DB	048H
	DB	00H
	DB	048H
	DB	044H
	DB	040H
	DB	04H
	DB	040H
	DB	044H
	DB	040H
	DB	04H
	DB	040H
	DB	044H
	DB	048H
	DB	04H
	DB	048H
	DB	044H
	DB	040H
	DB	04H
	DB	040H
	DB	044H
	DB	040H
	DB	00H
	DB	040H
	DB	044H
	DB	048H
	DB	04H
	DB	048H
	DB	044H
	DB	040H
	DB	04H
	DB	040H
	DB	044H
	DB	040H
	DB	04H
	DB	040H
	DB	044H
	DB	048H
	DB	04H
	DB	048H
	DB	044H
	DB	040H
	DB	00H
	DB	040H
	DB	044H
	DB	048H
	DB	04H
	DB	040H
	DB	044H
	DB	040H
	DB	04H
	DB	048H
	DB	044H
	DB	040H
	DB	00H
	DB	048H
	DB	044H
	DB	048H
	DB	04H
	DB	040H
	DB	044H
	DB	040H
	DB	04H
	DB	048H
	DB	044H
	DB	040H
	DB	04H
	DB	048H
	DB	044H
	DB	048H
	DB	04H
	DB	040H
	DB	044H
	DB	040H
	DB	04H
	DB	048H
	DB	044H
	DB	040H
	DB	04H
	DB	048H
	DB	044H
	DB	048H
	DB	00H
	DB	040H
	DB	044H
	DB	040H
	DB	04H
	DB	040H
	DB	044H
	DB	040H
	DB	04H
	DB	048H
	DB	044H
	DB	040H
	DB	04H
	DB	040H
	DB	044H
	DB	048H
	DB	04H
	DB	048H
	DB	044H
	DB	040H
	DB	04H
	DB	048H
	DB	044H
	DB	048H
	DB	00H
	DB	040H
	DB	044H
	DB	048H
	DB	04H
	DB	048H
	DB	044H
	DB	040H
	DB	04H
	DB	040H
	DB	044H
	DB	040H
	DB	00H
	DB	040H
	DB	044H
	DB	048H
	DB	04H
	DB	048H
	DB	044H
	DB	040H
	DB	04H
	DB	048H
	DB	044H
	DB	040H
	DB	00H
	DB	040H
	DB	044H
	DB	048H
	DB	04H
	DB	048H
	DB	044H
	DB	040H
	DB	04H
	DB	048H
	DB	044H
	DB	040H
	DB	04H
	DB	040H
	DB	044H
	DB	048H
	DB	04H
	DB	040H
	DB	044H
	DB	040H
	DB	04H
	DB	048H
	DB	044H
	DB	040H
	DB	04H
	DB	040H
	DB	044H
	DB	048H
	DB	04H
	DB	048H
	DB	044H
	DB	040H
	DB	00H
	DB	048H
	DB	044H
	DB	040H
	DB	04H
	DB	040H
	DB	044H
	DB	048H
	DB	04H
	DB	040H
	DB	044H
	DB	040H
	DB	04H
	DB	048H
	DB	044H
	DB	040H
	DB	04H
	DB	040H
	DB	044H
	DB	048H
	DB	04H
	DB	048H
	DB	044H
	DB	040H
	DB	04H
	DB	040H
	DB	044H
	DB	048H
	DB	00H
	DB	048H
	DB	044H
	DB	040H
	DB	04H
	DB	048H
	DB	044H
	DB	040H
	DB	04H
	DB	040H
	DB	044H
	DB	048H
	DB	04H
	DB	040H
	DB	044H
	DB	040H
	DB	00H
	DB	048H
	DB	044H
	DB	040H
	DB	04H
	DB	040H
	DB	044H
	DB	040H
	DB	00H
	DB	040H
	DB	044H
	DB	048H
	DB	04H
	DB	048H
	DB	044H
	DB	040H
	DB	00H
	DB	048H
	DB	044H
	DB	048H
	DB	04H
	DB	040H
	DB	044H
	DB	040H
	DB	00H
	DB	048H
	DB	044H
	DB	048H
	DB	04H
	DB	040H
	DB	044H
	DB	040H
	DB	00H
	DB	040H
	DB	044H
	DB	040H
	DB	04H
	DB	048H
	DB	044H
	DB	048H
	DB	00H
	DB	040H
	DB	044H
	DB	048H
	DB	04H
	DB	048H
	DB	044H
	DB	040H
	DB	04H
	DB	040H
	DB	044H
	DB	040H
	DB	04H
	DB	048H
	DB	044H
	DB	048H
	DB	00H
	DB	048H
	DB	044H
	DB	040H
	DB	04H
	DB	048H
	DB	044H
	DB	040H
	DB	04H
	DB	048H
	DB	044H
	DB	048H
	DB	00H
	DB	040H
	DB	044H
	DB	040H
	DB	04H
	DB	048H
	DB	044H
	DB	040H
	DB	04H
	DB	048H
	DB	044H
	DB	040H
	DB	04H
	DB	040H
	DB	044H
	DB	048H
	DB	04H
	DB	040H
	DB	044H
	DB	040H
	DB	00H
	DB	048H
	DB	044H
	DB	040H
	DB	04H
	DB	040H
	DB	044H
	DB	048H
	DB	04H
	DB	040H
	DB	044H
	DB	040H
	DB	00H
	DB	048H
	DB	044H
	DB	040H
	DB	04H
	DB	048H
	DB	044H
	DB	048H
	DB	04H
	DB	040H
	DB	044H
	DB	040H
	DB	04H
	DB	040H
	DB	044H
	DB	048H
	DB	04H
	DB	048H
	DB	044H
	DB	040H
	DB	00H
	DB	040H
	DB	044H
	DB	048H
	DB	04H
	DB	040H
	DB	044H
	DB	040H
	DB	04H
	DB	048H
	DB	044H
	DB	040H
	DB	00H
	DB	040H
	DB	044H
	DB	040H
	DB	04H
	DB	048H
	DB	044H
	DB	048H
	DB	04H
	DB	040H
	DB	044H
	DB	040H
	DB	00H
	DB	048H
	DB	044H
	DB	040H
	DB	04H
	DB	048H
	DB	044H
	DB	048H
	DB	04H
	DB	040H
	DB	044H
	DB	040H
	DB	00H
	DB	048H
	DB	044H
	DB	040H
	DB	04H
	DB	048H
	DB	044H
	DB	048H
	DB	04H
	DB	040H
	DB	044H
	DB	040H
	DB	04H
	DB	048H
	DB	044H
	DB	040H
	DB	04H
	DB	040H
	DB	044H
	DB	048H
	DB	00H
	DB	040H
	DB	044H
	DB	040H
	DB	04H
	DB	048H
	DB	044H
	DB	040H
	DB	04H
	DB	040H
	DB	044H
	DB	048H
	DB	00H
	DB	048H
	DB	044H
	DB	040H
	DB	04H
	DB	040H
	DB	044H
	DB	040H
	DB	04H
	DB	048H
	DB	044H
	DB	048H
	DB	04H
	DB	048H
	DB	044H
	DB	040H
	DB	00H
	DB	040H
	DB	044H
	DB	040H
	DB	04H
	DB	048H
	DB	044H
	DB	048H
	DB	04H
	DB	040H
	DB	044H
	DB	040H
	DB	00H
	DB	048H
	DB	044H
	DB	040H
	DB	04H
	DB	048H
	DB	044H
	DB	048H
	DB	04H
	DB	040H
	DB	044H
	DB	048H
	DB	00H
	DB	048H
	DB	044H
	DB	040H
	DB	04H
	DB	048H
	DB	044H
	DB	040H
	DB	04H
	DB	040H
	DB	044H
	DB	048H
	DB	00H
	DB	048H
	DB	044H
	DB	040H
	DB	04H
	DB	048H
	DB	044H
	DB	040H
	DB	00H
	DB	040H
	DB	044H
	DB	048H
	DB	04H
	DB	040H
	DB	044H
	DB	040H
	DB	04H
	DB	048H
	DB	044H
	DB	048H
	DB	04H
	DB	040H
	DB	044H
	DB	040H
	DB	04H
	DB	048H
	DB	044H
	DB	040H
	DB	04H
	DB	040H
	DB	044H
	DB	048H
	DB	04H
	DB	048H
	DB	044H
	DB	040H
	DB	04H
	DB	048H
	DB	044H
	DB	048H
	DB	00H
	DB	040H
	DB	044H
	DB	040H
	DB	04H
	DB	048H
	DB	044H
	DB	048H
	DB	04H
	DB	048H
	DB	044H
	DB	040H
	DB	00H
	DB	040H
	DB	044H
	DB	048H
	DB	04H
	DB	048H
	DB	044H
	DB	048H
	DB	04H
	DB	048H
	DB	044H
	DB	040H
	DB	00H
	DB	040H
	DB	044H
	DB	040H
	DB	04H
	DB	048H
	DB	044H
	DB	040H
	DB	04H
	DB	048H
	DB	044H
	DB	048H
	DB	04H
	DB	040H
	DB	044H
	DB	040H
	DB	04H
	DB	048H
	DB	044H
	DB	040H
	DB	04H
	DB	040H
	DB	044H
	DB	048H
	DB	04H
	DB	040H
	DB	044H
	DB	040H
	DB	00H
	DB	048H
	DB	044H
	DB	048H
	DB	04H
	DB	040H
	DB	044H
	DB	040H
	DB	00H
	DB	040H
	DB	044H
	DB	048H
	DB	00H
	DB	048H
	DB	044H
	DB	040H
	DB	04H
	DB	040H
	DB	044H
	DB	048H
	DB	04H
	DB	040H
	DB	044H
	DB	040H
	DB	04H
	DB	048H
	DB	044H
	DB	048H
	DB	00H
	DB	048H
	DB	044H
	DB	040H
	DB	04H
	DB	040H
	DB	044H
	DB	040H
	DB	04H
	DB	040H
	DB	044H
	DB	040H
	DB	00H
	DB	048H
	DB	044H
	DB	040H
	DB	04H
	DB	040H
	DB	044H
	DB	040H
	DB	04H
	DB	048H
	DB	044H
	DB	040H
	DB	04H
	DB	048H
	DB	044H
	DB	048H
	DB	04H
	DB	040H
	DB	044H
	DB	040H
	DB	00H
	DB	048H
	DB	044H
	DB	040H
	DB	04H
	DB	040H
	DB	044H
	DB	048H
	DB	04H
	DB	040H
	DB	044H
	DB	040H
	DB	00H
	DB	048H
	DB	044H
	DB	048H
	DB	04H
	DB	040H
	DB	044H
	DB	040H
	DB	04H
	DB	048H
	DB	044H
	DB	040H
	DB	00H
	DB	048H
	DB	044H
	DB	048H
	DB	04H
	DB	040H
	DB	044H
	DB	040H
	DB	00H
	DB	048H
	DB	044H
	DB	048H
	DB	04H
	DB	040H
	DB	044H
	DB	040H
	DB	04H
	DB	040H
	DB	044H
	DB	048H
	DB	04H
	DB	048H
	DB	044H
	DB	040H
	DB	00H
	DB	048H
	DB	044H
	DB	040H
	DB	04H
	DB	040H
	DB	044H
	DB	048H
	DB	00H
	DB	048H
	DB	044H
	DB	040H
	DB	04H
	DB	040H
	DB	044H
	DB	040H
	DB	04H
	DB	040H
	DB	044H
	DB	048H
	DB	04H
	DB	048H
	DB	044H
	DB	040H
	DB	04H
	DB	040H
	DB	044H
	DB	040H
	DB	04H
	DB	048H
	DB	044H
	DB	048H
	DB	04H
	DB	040H
	DB	044H
	DB	048H
	DB	04H
	DB	048H
	DB	044H
	DB	040H
	DB	04H
	DB	048H
	DB	044H
	DB	040H
	DB	04H
	DB	040H
	DB	044H
	DB	048H
	DB	04H
	DB	048H
	DB	044H
	DB	040H
	DB	00H
	DB	040H
	DB	044H
	DB	040H
	DB	04H
	DB	040H
	DB	044H
	DB	048H
	DB	04H
	DB	048H
	DB	044H
	DB	040H
	DB	04H
	DB	048H
	DB	044H
	DB	040H
	DB	00H
	DB	040H
	DB	044H
	DB	048H
	DB	04H
	DB	048H
	DB	044H
	DB	040H
	DB	04H
	DB	040H
	DB	044H
	DB	040H
	DB	04H
	DB	048H
	DB	044H
	DB	040H
	DB	00H
	DB	040H
	DB	044H
	DB	048H
	DB	04H
	DB	040H
	DB	044H
	DB	040H
	DB	04H
	DB	048H
	DB	044H
	DB	040H
	DB	04H
	DB	040H
	DB	044H
	DB	048H
	DB	04H
	DB	040H
	DB	044H
	DB	040H
	DB	04H
	DB	048H
	DB	044H
	DB	048H
	DB	00H
	DB	048H
	DB	044H
	DB	048H
	DB	04H
	DB	040H
	DB	044H
	DB	040H
	DB	04H
	DB	048H
	DB	044H
	DB	040H
	DB	04H
	DB	048H
	DB	044H
	DB	048H
	DB	04H
	DB	040H
	DB	044H
	DB	040H
	DB	04H
	DB	048H
	DB	044H
	DB	048H
	DB	00H
	DB	048H
	DB	044H
	DB	040H
	DB	04H
	DB	040H
	DB	044H
	DB	040H
	DB	04H
	DB	040H
	DB	044H
	DB	048H
	DB	00H
	DB	048H
	DB	044H
	DB	040H
	DB	00H
	DB	048H
	DB	044H
	DB	040H
	DB	04H
	DB	040H
	DB	044H
	DB	040H
	DB	04H
	DB	048H
	DB	044H
	DB	048H
	DB	04H
	DB	048H
	DB	044H
	DB	040H
	DB	04H
	DB	040H
	DB	044H
	DB	048H
	DB	04H
	DB	048H
	DB	044H
	DB	040H
	DB	04H
	DB	048H
	DB	044H
	DB	048H
	DB	04H
	DB	040H
	DB	044H
	DB	040H
	DB	00H
	DB	040H
	DB	044H
	DB	040H
	DB	04H
	DB	040H
	DB	044H
	DB	048H
	DB	04H
	DB	048H
	DB	044H
	DB	040H
	DB	00H
	DB	040H
	DB	044H
	DB	040H
	DB	04H
	DB	040H
	DB	044H
	DB	048H
	DB	04H
	DB	048H
	DB	044H
	DB	040H
	DB	00H
	DB	048H
	DB	044H
	DB	048H
	DB	04H
	DB	040H
	DB	044H
	DB	040H
	DB	04H
	DB	048H
	DB	044H
	DB	040H
	DB	04H
	DB	048H
	DB	044H
	DB	048H
	DB	04H
	DB	040H
	DB	044H
	DB	040H
	DB	04H
	DB	040H
	DB	044H
	DB	040H
	DB	04H
	DB	048H
	DB	044H
	DB	040H
	DB	04H
	DB	040H
	DB	044H
	DB	048H
	DB	04H
	DB	040H
	DB	044H
	DB	040H
	DB	04H
	DB	048H
	DB	044H
	DB	040H
	DB	04H
	DB	048H
	DB	044H
	DB	048H
	DB	04H
	DB	040H
	DB	044H
	DB	040H
	DB	04H
	DB	040H
	DB	044H
	DB	040H
	DB	04H
	DB	048H
	DB	044H
	DB	048H
	DB	00H
	DB	040H
	DB	044H
	DB	040H
	DB	04H
	DB	040H
	DB	044H
	DB	040H
	DB	04H
	DB	048H
	DB	044H
	DB	048H
	DB	00H
	DB	040H
	DB	044H
	DB	040H
	DB	04H
	DB	040H
	DB	044H
	DB	048H
	DB	04H
	DB	048H
	DB	044H
	DB	040H
	DB	04H
	DB	048H
	DB	044H
	DB	040H
	DB	04H
	DB	040H
	DB	044H
	DB	048H
	DB	00H
	DB	048H
	DB	044H
	DB	040H
	DB	04H
	DB	040H
	DB	044H
	DB	040H
	DB	00H
	DB	048H
	DB	044H
	DB	048H
	DB	04H
	DB	040H
	DB	044H
	DB	040H
	DB	00H
	DB	040H
	DB	044H
	DB	040H
	DB	04H
	DB	048H
	DB	044H
	DB	048H
	DB	04H
	DB	040H
	DB	044H
	DB	040H
	DB	04H
	DB	040H
	DB	044H
	DB	040H
	DB	00H
	DB	048H
	DB	044H
	DB	040H
	DB	04H
	DB	040H
	DB	044H
	DB	048H
	DB	04H
	DB	048H
	DB	044H
	DB	040H
	DB	04H
	DB	040H
	DB	044H
	DB	040H
	DB	04H
	DB	040H
	DB	044H
	DB	048H
	DB	00H
	DB	048H
	DB	044H
	DB	040H
	DB	04H
	DB	040H
	DB	044H
	DB	048H
	DB	04H
	DB	040H
	DB	044H
	DB	040H
	DB	00H
	DB	048H
	DB	044H
	DB	040H
	DB	04H
	DB	048H
	DB	044H
	DB	048H
	DB	04H
	DB	040H
	DB	044H
	DB	040H
	DB	00H
	DB	048H
	DB	044H
	DB	040H
	DB	04H
	DB	048H
	DB	044H
	DB	048H
	DB	04H
	DB	040H
	DB	044H
	DB	040H
	DB	04H
	DB	048H
	DB	044H
	DB	040H
	DB	04H
	DB	048H
	DB	044H
	DB	048H
	DB	00H
	DB	040H
	DB	044H
	DB	040H
	DB	04H
	DB	048H
	DB	044H
	DB	040H
	DB	04H
	DB	040H
	DB	044H
	DB	048H
	DB	04H
	DB	048H
	DB	044H
	DB	048H
	DB	00H
	DB	040H
	DB	044H
	DB	040H
	DB	04H
	DB	048H
	DB	044H
	DB	048H
	DB	04H
	DB	040H
	DB	044H
	DB	048H
	DB	00H
	DB	040H
	DB	044H
	DB	040H
	DB	04H
	DB	048H
	DB	044H
	DB	040H
	DB	04H
	DB	040H
	DB	044H
	DB	048H
	DB	00H
	DB	048H
	DB	044H
	DB	040H
	DB	04H
	DB	048H
	DB	044H
	DB	048H
	DB	04H
	DB	040H
	DB	044H
	DB	040H
	DB	04H
	DB	048H
	DB	044H
	DB	040H
	DB	04H
	DB	040H
	DB	044H
	DB	048H
	DB	04H
	DB	040H
	DB	044H
	DB	040H
	DB	00H
	DB	048H
	DB	044H
	DB	048H
	DB	04H
	DB	040H
	DB	044H
	DB	040H
	DB	04H
	DB	048H
	DB	044H
	DB	040H
	DB	00H
	DB	040H
	DB	044H
	DB	048H
	DB	04H
	DB	048H
	DB	044H
	DB	040H
	DB	04H
	DB	040H
	DB	044H
	DB	040H
	DB	00H
	DB	040H
	DB	044H
	DB	048H
	DB	04H
	DB	048H
	DB	044H
	DB	040H
	DB	04H
	DB	048H
	DB	044H
	DB	048H
	DB	04H
	DB	040H
	DB	044H
	DB	040H
	DB	00H
	DB	048H
	DB	044H
	DB	040H
	DB	00H
	DB	048H
	DB	044H
	DB	048H
	DB	04H
	DB	040H
	DB	044H
	DB	040H
	DB	04H
	DB	040H
	DB	044H
	DB	040H
	DB	00H
	DB	048H
	DB	044H
	DB	048H
	DB	00H
	DB	040H
	DB	044H
	DB	040H
	DB	04H
	DB	040H
	DB	044H
	DB	040H
	DB	00H
	DB	048H
	DB	044H
	DB	048H
	DB	04H
	DB	048H
	DB	044H
	DB	048H
	DB	04H
	DB	040H
	DB	044H
	DB	040H
	DB	04H
	DB	048H
	DB	044H
	DB	040H
	DB	04H
	DB	040H
	DB	044H
	DB	048H
	DB	04H
	DB	040H
	DB	044H
	DB	040H
	DB	04H
	DB	048H
	DB	044H
	DB	040H
	DB	04H
	DB	048H
	DB	044H
	DB	048H
	DB	04H
	DB	040H
	DB	044H
	DB	048H
	DB	04H
	DB	048H
	DB	044H
	DB	040H
	DB	04H
	DB	048H
	DB	044H
	DB	040H
	DB	04H
	DB	040H
	DB	044H
	DB	048H
	DB	00H
	DB	048H
	DB	044H
	DB	040H
	DB	04H
	DB	040H
	DB	044H
	DB	048H
	DB	04H
	DB	040H
	DB	044H
	DB	040H
	DB	00H
	DB	048H
	DB	044H
	DB	040H
	DB	04H
	DB	040H
	DB	044H
	DB	040H
	DB	04H
	DB	040H
	DB	044H
	DB	040H
	DB	04H
	DB	048H
	DB	044H
	DB	048H
	DB	00H
	DB	040H
	DB	044H
	DB	040H
	DB	00H
	DB	040H
	DB	044H
	DB	040H
	DB	04H
	DB	048H
	DB	044H
	DB	048H
	DB	04H
	DB	040H
	DB	044H
	DB	040H
	DB	04H
	DB	048H
	DB	044H
	DB	040H
	DB	04H
	DB	048H
	DB	044H
	DB	048H
	DB	04H
	DB	040H
	DB	044H
	DB	048H
	DB	04H
	DB	040H
	DB	044H
	DB	040H
	DB	04H
	DB	048H
	DB	044H
	DB	048H
	DB	00H
	DB	040H
	DB	044H
	DB	040H
	DB	04H
	DB	040H
	DB	044H
	DB	040H
	DB	04H
	DB	048H
	DB	044H
	DB	048H
	DB	00H
	DB	040H
	DB	044H
	DB	040H
	DB	04H
	DB	040H
	DB	044H
	DB	040H
	DB	04H
	DB	048H
	DB	044H
	DB	048H
	DB	00H
	DB	048H
	DB	044H
	DB	040H
	DB	04H
	DB	040H
	DB	044H
	DB	048H
	DB	04H
	DB	048H
	DB	044H
	DB	048H
	DB	04H
	DB	048H
	DB	044H
	DB	040H
	DB	04H
	DB	040H
	DB	044H
	DB	048H
	DB	04H
	DB	040H
	DB	044H
	DB	040H
	DB	04H
	DB	048H
	DB	044H
	DB	040H
	DB	00H
	DB	040H
	DB	044H
	DB	048H
	DB	04H
	DB	040H
	DB	044H
	DB	040H
	DB	04H
	DB	048H
	DB	044H
	DB	040H
	DB	00H
	DB	048H
	DB	044H
	DB	048H
	DB	04H
	DB	040H
	DB	044H
	DB	048H
	DB	00H
	DB	048H
	DB	044H
	DB	040H
	DB	04H
	DB	048H
	DB	044H
	DB	048H
	DB	00H
	DB	040H
	DB	044H
	DB	040H
	DB	00H
	DB	040H
	DB	044H
	DB	040H
	DB	04H
	DB	048H
	DB	044H
	DB	048H
	DB	00H
	DB	040H
	DB	044H
	DB	040H
	DB	04H
	DB	048H
	DB	044H
	DB	040H
	DB	04H
	DB	048H
	DB	044H
	DB	048H
	DB	00H
	DB	040H
	DB	044H
	DB	040H
	DB	04H
	DB	048H
	DB	044H
	DB	040H
	DB	04H
	DB	048H
	DB	044H
	DB	048H
	DB	04H
	DB	040H
	DB	044H
	DB	040H
	DB	04H
	DB	048H
	DB	044H
	DB	040H
	DB	04H
	DB	040H
	DB	044H
	DB	048H
	DB	04H
	DB	040H
	DB	044H
	DB	040H
	DB	00H
	DB	040H
	DB	044H
	DB	048H
	DB	04H
	DB	048H
	DB	044H
	DB	040H
	DB	04H
	DB	040H
	DB	044H
	DB	040H
	DB	04H
	DB	048H
	DB	044H
	DB	048H
	DB	04H
	DB	040H
	DB	044H
	DB	048H
	DB	00H
	DB	048H
	DB	044H
	DB	040H
	DB	04H
	DB	048H
	DB	044H
	DB	040H
	DB	04H
	DB	040H
	DB	044H
	DB	048H
	DB	00H
	DB	048H
	DB	044H
	DB	040H
	DB	04H
	DB	048H
	DB	044H
	DB	048H
	DB	04H
	DB	040H
	DB	044H
	DB	040H
	DB	04H
	DB	048H
	DB	044H
	DB	040H
	DB	00H
	DB	040H
	DB	044H
	DB	040H
	DB	04H
	DB	048H
	DB	044H
	DB	040H
	DB	04H
	DB	048H
	DB	044H
	DB	048H
	DB	04H
	DB	040H
	DB	044H
	DB	040H
	DB	04H
	DB	048H
	DB	044H
	DB	040H
	DB	00H
	DB	040H
	DB	044H
	DB	048H
	DB	04H
	DB	048H
	DB	044H
	DB	040H
	DB	04H
	DB	040H
	DB	044H
	DB	048H
	DB	00H
	DB	040H
	DB	044H
	DB	040H
	DB	04H
	DB	048H
	DB	044H
	DB	040H
	DB	04H
	DB	040H
	DB	044H
	DB	048H
	DB	04H
	DB	040H
	DB	044H
	DB	040H
	DB	04H
	DB	048H
	DB	044H
	DB	040H
	DB	04H
	DB	040H
	DB	044H
	DB	048H
	DB	04H
	DB	048H
	DB	044H
	DB	040H
	DB	00H
	DB	040H
	DB	044H
	DB	040H
	DB	04H
	DB	048H
	DB	044H
	DB	040H
	DB	04H
	DB	040H
	DB	044H
	DB	040H
	DB	04H
	DB	048H
	DB	044H
	DB	048H
	DB	04H
	DB	048H
	DB	044H
	DB	040H
	DB	04H
	DB	040H
	DB	044H
	DB	048H
	DB	04H
	DB	048H
	DB	044H
	DB	040H
	DB	04H
	DB	040H
	DB	044H
	DB	048H
	DB	00H
	DB	040H
	DB	044H
	DB	040H
	DB	04H
	DB	048H
	DB	044H
	DB	040H
	DB	04H
	DB	040H
	DB	044H
	DB	048H
	DB	00H
	DB	048H
	DB	044H
	DB	040H
	DB	04H
	DB	048H
	DB	044H
	DB	040H
	DB	04H
	DB	040H
	DB	044H
	DB	048H
	DB	00H
	DB	048H
	DB	044H
	DB	040H
	DB	04H
	DB	040H
	DB	044H
	DB	040H
	DB	04H
	DB	040H
	DB	044H
	DB	048H
	DB	04H
	DB	048H
	DB	044H
	DB	040H
	DB	04H
	DB	048H
	DB	044H
	DB	040H
	DB	04H
	DB	040H
	DB	044H
	DB	048H
	DB	04H
	DB	048H
	DB	044H
	DB	040H
	DB	04H
	DB	040H
	DB	044H
	DB	040H
	DB	04H
	DB	040H
	DB	044H
	DB	048H
	DB	04H
	DB	048H
	DB	044H
	DB	040H
	DB	04H
	DB	040H
	DB	044H
	DB	040H
	DB	04H
	DB	040H
	DB	044H
	DB	048H
	DB	04H
	DB	048H
	DB	044H
	DB	040H
	DB	04H
	DB	048H
	DB	044H
	DB	048H
	DB	00H
	DB	040H
	DB	044H
	DB	040H
	DB	04H
	DB	048H
	DB	044H
	DB	040H
	DB	04H
	DB	048H
	DB	044H
	DB	048H
	DB	04H
	DB	040H
	DB	044H
	DB	040H
	DB	04H
	DB	040H
	DB	044H
	DB	040H
	DB	00H
	DB	048H
	DB	044H
	DB	040H
	DB	04H
	DB	040H
	DB	044H
	DB	048H
	DB	04H
	DB	048H
	DB	044H
	DB	040H
	DB	00H
	DB	048H
	DB	044H
	DB	040H
	DB	00H
	DB	040H
	DB	044H
	DB	048H
	DB	04H
	DB	040H
	DB	044H
	DB	040H
	DB	04H
	DB	048H
	DB	044H
	DB	040H
	DB	00H
	DB	040H
	DB	044H
	DB	048H
	DB	00H
	DB	040H
	DB	044H
	DB	040H
	DB	04H
	DB	048H
	DB	044H
	DB	048H
	DB	04H
	DB	040H
	DB	044H
	DB	040H
	DB	04H
	DB	048H
	DB	044H
	DB	040H
	DB	00H
	DB	048H
	DB	044H
	DB	048H
	DB	04H
	DB	040H
	DB	044H
	DB	040H
	DB	04H
	DB	048H
	DB	044H
	DB	048H
	DB	00H
	DB	048H
	DB	044H
	DB	040H
	DB	04H
	DB	040H
	DB	044H
	DB	040H
	DB	04H
	DB	048H
	DB	044H
	DB	040H
	DB	04H
	DB	040H
	DB	044H
	DB	040H
	DB	04H
	DB	048H
	DB	044H
	DB	048H
	DB	04H
	DB	040H
	DB	044H
	DB	040H
	DB	00H
	DB	040H
	DB	044H
	DB	040H
	DB	04H
	DB	048H
	DB	044H
	DB	048H
	DB	00H
	DB	040H
	DB	044H
	DB	040H
	DB	04H
	DB	048H
	DB	044H
	DB	040H
	DB	04H
	DB	048H
	DB	044H
	DB	040H
	DB	04H
	DB	040H
	DB	044H
	DB	048H
	DB	04H
	DB	048H
	DB	044H
	DB	040H
	DB	00H
	DB	048H
	DB	044H
	DB	040H
	DB	04H
	DB	040H
	DB	044H
	DB	048H
	DB	04H
	DB	048H
	DB	044H
	DB	040H
	DB	00H
	DB	040H
	DB	044H
	DB	040H
	DB	04H
	DB	040H
	DB	044H
	DB	048H
	DB	04H
	DB	048H
	DB	044H
	DB	040H
	DB	04H
	DB	040H
	DB	044H
	DB	040H
	DB	00H
	DB	048H
	DB	044H
	DB	040H
	DB	04H
	DB	048H
	DB	044H
	DB	040H
	DB	00H
	DB	040H
	DB	044H
	DB	048H
	DB	04H
	DB	048H
	DB	044H
	DB	040H
	DB	04H
	DB	048H
	DB	044H
	DB	040H
	DB	04H
	DB	040H
	DB	044H
	DB	048H
	DB	04H
	DB	040H
	DB	044H
	DB	040H
	DB	00H
	DB	048H
	DB	044H
	DB	040H
	DB	04H
	DB	040H
	DB	044H
	DB	048H
	DB	04H
	DB	040H
	DB	044H
	DB	040H
	DB	04H
	DB	048H
	DB	044H
	DB	040H
	DB	04H
	DB	048H
	DB	044H
	DB	048H
	DB	04H
	DB	040H
	DB	044H
	DB	040H
	DB	04H
	DB	048H
	DB	044H
	DB	048H
	DB	04H
	DB	040H
	DB	044H
	DB	048H
	DB	00H
	DB	040H
	DB	044H
	DB	040H
	DB	04H
	DB	048H
	DB	044H
	DB	048H
	DB	04H
	DB	040H
	DB	044H
	DB	040H
	DB	04H
	DB	040H
	DB	044H
	DB	040H
	DB	04H
	DB	048H
	DB	044H
	DB	048H
	DB	00H
	DB	040H
	DB	044H
	DB	040H
	DB	04H
	DB	048H
	DB	044H
	DB	040H
	DB	00H
	DB	048H
	DB	044H
	DB	048H
	DB	04H
	DB	048H
	DB	044H
	DB	040H
	DB	04H
	DB	040H
	DB	044H
	DB	040H
	DB	00H
	DB	048H
	DB	044H
	DB	048H
	DB	04H
	DB	048H
	DB	044H
	DB	040H
	DB	04H
	DB	040H
	DB	044H
	DB	040H
	DB	00H
	DB	040H
	DB	044H
	DB	048H
	DB	04H
	DB	048H
	DB	044H
	DB	040H
	DB	04H
	DB	040H
	DB	044H
	DB	040H
	DB	04H
	DB	040H
	DB	044H
	DB	048H
	DB	04H
	DB	048H
	DB	044H
	DB	040H
	DB	00H
	DB	040H
	DB	044H
	DB	040H
	DB	04H
	DB	040H
	DB	044H
	DB	048H
	DB	04H
	DB	048H
	DB	044H
	DB	048H
	DB	00H
	DB	040H
	DB	044H
	DB	040H
	DB	04H
	DB	048H
	DB	044H
	DB	048H
	DB	04H
	DB	040H
	DB	044H
	DB	048H
	DB	00H
	DB	048H
	DB	044H
	DB	040H
	DB	04H
	DB	040H
	DB	044H
	DB	040H
	DB	04H
	DB	048H
	DB	044H
	DB	048H
	DB	04H
	DB	048H
	DB	044H
	DB	040H
	DB	04H
	DB	040H
	DB	044H
	DB	040H
	DB	04H
	DB	048H
	DB	044H
	DB	048H
	DB	04H
	DB	048H
	DB	044H
	DB	040H
	DB	04H
	DB	040H
	DB	044H
	DB	048H
	DB	00H
	DB	048H
	DB	044H
	DB	040H
	DB	04H
	DB	048H
	DB	044H
	DB	048H
	DB	00H
	DB	040H
	DB	044H
	DB	040H
	DB	04H
	DB	040H
	DB	044H
	DB	040H
	DB	04H
	DB	048H
	DB	044H
	DB	048H
	DB	04H
	DB	048H
	DB	044H
	DB	048H
	DB	00H
	DB	040H
	DB	044H
	DB	040H
	DB	04H
	DB	040H
	DB	044H
	DB	040H
	DB	00H
	DB	048H
	DB	044H
	DB	040H
	DB	04H
	DB	040H
	DB	044H
	DB	040H
	DB	00H
	DB	048H
	DB	044H
	DB	040H
	DB	04H
	DB	048H
	DB	044H
	DB	048H
	DB	04H
	DB	040H
	DB	044H
	DB	040H
	DB	04H
	DB	048H
	DB	044H
	DB	040H
	DB	04H
	DB	040H
	DB	044H
	DB	048H
	DB	04H
	DB	040H
	DB	044H
	DB	040H
	DB	00H
	DB	048H
	DB	044H
	DB	048H
	DB	04H
	DB	040H
	DB	044H
	DB	040H
	DB	04H
	DB	048H
	DB	044H
	DB	040H
	DB	04H
	DB	048H
	DB	044H
	DB	048H
	DB	04H
	DB	040H
	DB	044H
	DB	040H
	DB	00H
	DB	048H
	DB	044H
	DB	048H
	DB	04H
	DB	040H
	DB	044H
	DB	040H
	DB	04H
	DB	040H
	DB	044H
	DB	040H
	DB	00H
	DB	048H
	DB	044H
	DB	048H
	DB	00H
	DB	048H
	DB	044H
	DB	040H
	DB	04H
	DB	048H
	DB	044H
	DB	040H
	DB	00H
	DB	040H
	DB	044H
	DB	048H
	DB	00H
	DB	048H
	DB	044H
	DB	040H
	DB	04H
	DB	048H
	DB	044H
	DB	048H
	DB	04H
	DB	040H
	DB	044H
	DB	040H
	DB	04H
	DB	040H
	DB	044H
	DB	040H
	DB	00H
	DB	048H
	DB	044H
	DB	048H
	DB	04H
	DB	040H
	DB	044H
	DB	040H
	DB	04H
	DB	040H
	DB	044H
	DB	040H
	DB	04H
	DB	048H
	DB	044H
	DB	048H
	DB	04H
	DB	048H
	DB	044H
	DB	040H
	DB	04H
	DB	040H
	DB	044H
	DB	040H
	DB	00H
	DB	040H
	DB	044H
	DB	048H
	DB	04H
	DB	048H
	DB	044H
	DB	040H
	DB	04H
	DB	040H
	DB	044H
	DB	048H
	DB	04H
	DB	048H
	DB	044H
	DB	040H
	DB	04H
	DB	048H
	DB	044H
	DB	048H
	DB	04H
	DB	040H
	DB	044H
	DB	040H
	DB	00H
	DB	048H
	DB	044H
	DB	040H
	DB	04H
	DB	040H
	DB	044H
	DB	040H
	DB	04H
	DB	048H
	DB	044H
	DB	048H
	DB	04H
	DB	040H
	DB	044H
	DB	040H
	DB	00H
	DB	040H
	DB	044H
	DB	040H
	DB	04H
	DB	048H
	DB	044H
	DB	048H
	DB	04H
	DB	040H
	DB	044H
	DB	040H
	DB	04H
	DB	048H
	DB	044H
	DB	040H
	DB	04H
	DB	040H
	DB	044H
	DB	048H
	DB	04H
	DB	040H
	DB	044H
	DB	048H
	DB	00H
	DB	048H
	DB	044H
	DB	040H
	DB	04H
	DB	040H
	DB	044H
	DB	048H
	DB	04H
	DB	048H
	DB	044H
	DB	040H
	DB	04H
	DB	048H
	DB	044H
	DB	048H
	DB	04H
	DB	040H
	DB	044H
	DB	040H
	DB	04H
	DB	048H
	DB	044H
	DB	040H
	DB	00H
	DB	040H
	DB	044H
	DB	048H
	DB	04H
	DB	040H
	DB	044H
	DB	040H
	DB	04H
	DB	048H
	DB	044H
	DB	040H
	DB	00H
	DB	040H
	DB	044H
	DB	048H
	DB	04H
	DB	040H
	DB	044H
	DB	040H
	DB	04H
	DB	048H
	DB	044H
	DB	048H
	DB	04H
	DB	040H
	DB	044H
	DB	040H
	DB	04H
	DB	048H
	DB	044H
	DB	048H
	DB	04H
	DB	048H
	DB	044H
	DB	040H
	DB	00H
	DB	040H
	DB	044H
	DB	048H
	DB	04H
	DB	048H
	DB	044H
	DB	040H
	DB	04H
	DB	040H
	DB	044H
	DB	040H
	DB	00H
	DB	040H
	DB	044H
	DB	048H
	DB	04H
	DB	048H
	DB	044H
	DB	040H
	DB	04H
	DB	040H
	DB	044H
	DB	040H
	DB	04H
	DB	040H
	DB	044H
	DB	048H
	DB	00H
	DB	048H
	DB	044H
	DB	040H
	DB	04H
	DB	048H
	DB	044H
	DB	048H
	DB	04H
	DB	040H
	DB	044H
	DB	040H
	DB	00H
	DB	048H
	DB	044H
	DB	048H
	DB	04H
	DB	048H
	DB	044H
	DB	040H
	DB	04H
	DB	040H
	DB	044H
	DB	040H
	DB	00H
	DB	040H
	DB	044H
	DB	040H
	DB	04H
	DB	048H
	DB	044H
	DB	048H
	DB	04H
	DB	040H
	DB	044H
	DB	040H
	DB	00H
	DB	048H
	DB	044H
	DB	040H
	DB	04H
	DB	048H
	DB	044H
	DB	040H
	DB	04H
	DB	040H
	DB	044H
	DB	040H
	DB	04H
	DB	048H
	DB	044H
	DB	040H
	DB	00H
	DB	048H
	DB	044H
	DB	048H
	DB	04H
	DB	040H
	DB	044H
	DB	040H
	DB	04H
	DB	048H
	DB	044H
	DB	048H
	DB	00H
	DB	040H
	DB	044H
	DB	048H
	DB	04H
	DB	040H
	DB	044H
	DB	040H
	DB	04H
	DB	040H
	DB	044H
	DB	040H
	DB	04H
	DB	048H
	DB	044H
	DB	048H
	DB	00H
	DB	040H
	DB	044H
	DB	040H
	DB	04H
	DB	048H
	DB	044H
	DB	040H
	DB	04H
	DB	040H
	DB	044H
	DB	048H
	DB	04H
	DB	048H
	DB	044H
	DB	040H
	DB	04H
	DB	048H
	DB	044H
	DB	040H
	DB	00H
	DB	040H
	DB	044H
	DB	048H
	DB	04H
	DB	048H
	DB	044H
	DB	040H
	DB	04H
	DB	048H
	DB	044H
	DB	040H
	DB	00H
	DB	040H
	DB	044H
	DB	048H
	DB	04H
	DB	048H
	DB	044H
	DB	040H
	DB	04H
	DB	040H
	DB	044H
	DB	040H
	DB	04H
	DB	048H
	DB	044H
	DB	040H
	DB	04H
	DB	048H
	DB	044H
	DB	048H
	DB	04H
	DB	040H
	DB	044H
	DB	040H
	DB	04H
	DB	040H
	DB	044H
	DB	040H
	DB	04H
	DB	048H
	DB	044H
	DB	048H
	DB	00H
	DB	040H
	DB	044H
	DB	040H
	DB	04H
	DB	040H
	DB	044H
	DB	040H
	DB	04H
	DB	048H
	DB	044H
	DB	048H
	DB	00H
	DB	040H
	DB	044H
	DB	040H
	DB	00H
	DB	040H
	DB	044H
	DB	040H
	DB	04H
	DB	048H
	DB	044H
	DB	048H
	DB	04H
	DB	040H
	DB	044H
	DB	040H
	DB	00H
	DB	040H
	DB	044H
	DB	040H
	DB	04H
	DB	048H
	DB	044H
	DB	048H
	DB	04H
	DB	048H
	DB	044H
	DB	040H
	DB	04H
	DB	040H
	DB	044H
	DB	048H
	DB	00H
	DB	048H
	DB	044H
	DB	040H
	DB	04H
	DB	040H
	DB	044H
	DB	040H
	DB	04H
	DB	048H
	DB	044H
	DB	048H
	DB	04H
	DB	040H
	DB	044H
	DB	048H
	DB	04H
	DB	048H
	DB	044H
	DB	040H
	DB	04H
	DB	040H
	DB	044H
	DB	048H
	DB	00H
	DB	040H
	DB	044H
	DB	048H
	DB	04H
	DB	048H
	DB	044H
	DB	040H
	DB	04H
	DB	040H
	DB	044H
	DB	040H
	DB	00H
	DB	048H
	DB	044H
	DB	048H
	DB	04H
	DB	048H
	DB	044H
	DB	040H
	DB	04H
	DB	040H
	DB	044H
	DB	040H
	DB	00H
	DB	048H
	DB	044H
	DB	048H
	DB	04H
	DB	040H
	DB	044H
	DB	040H
	DB	04H
	DB	040H
	DB	044H
	DB	048H
	DB	00H
	DB	048H
	DB	044H
	DB	040H
	DB	04H
	DB	040H
	DB	044H
	DB	040H
	DB	04H
	DB	048H
	DB	044H
	DB	048H
	DB	00H
	DB	048H
	DB	044H
	DB	040H
	DB	04H
	DB	040H
	DB	044H
	DB	048H
	DB	04H
	DB	040H
	DB	044H
	DB	040H
	DB	04H
	DB	048H
	DB	044H
	DB	048H
	DB	04H
	DB	040H
	DB	044H
	DB	040H
	DB	04H
	DB	040H
	DB	044H
	DB	048H
	DB	04H
	DB	048H
	DB	044H
	DB	040H
	DB	04H
	DB	040H
	DB	044H
	DB	040H
	DB	00H
	DB	048H
	DB	044H
	DB	048H
	DB	04H
	DB	048H
	DB	044H
	DB	040H
	DB	04H
	DB	040H
	DB	044H
	DB	040H
	DB	04H
	DB	048H
	DB	044H
	DB	048H
	DB	04H
	DB	048H
	DB	044H
	DB	040H
	DB	00H
	DB	040H
	DB	044H
	DB	048H
	DB	00H
	DB	040H
	DB	044H
	DB	040H
	DB	04H
	DB	048H
	DB	044H
	DB	048H
	DB	04H
	DB	048H
	DB	044H
	DB	048H
	DB	04H
	DB	040H
	DB	044H
	DB	040H
	DB	00H
	DB	048H
	DB	044H
	DB	040H
	DB	04H
	DB	040H
	DB	044H
	DB	040H
	DB	04H
	DB	040H
	DB	044H
	DB	048H
	DB	04H
	DB	048H
	DB	044H
	DB	040H
	DB	00H
	DB	040H
	DB	044H
	DB	048H
	DB	04H
	DB	048H
	DB	044H
	DB	048H
	DB	04H
	DB	048H
	DB	044H
	DB	040H
	DB	04H
	DB	040H
	DB	044H
	DB	040H
	DB	04H
	DB	048H
	DB	044H
	DB	048H
	DB	00H
	DB	048H
	DB	044H
	DB	040H
	DB	04H
	DB	040H
	DB	044H
	DB	048H
	DB	04H
	DB	048H
	DB	044H
	DB	040H
	DB	00H
	DB	040H
	DB	044H
	DB	040H
	DB	04H
	DB	048H
	DB	044H
	DB	048H
	DB	04H
	DB	040H
	DB	044H
	DB	040H
	DB	04H
	DB	048H
	DB	044H
	DB	040H
	DB	00H
	DB	040H
	DB	044H
	DB	048H
	DB	04H
	DB	040H
	DB	044H
	DB	040H
	DB	00H
	DB	040H
	DB	044H
	DB	040H
	DB	04H
	DB	048H
	DB	044H
	DB	048H
	DB	04H
	DB	048H
	DB	044H
	DB	040H
	DB	04H
	DB	040H
	DB	044H
	DB	048H
	DB	04H
	DB	048H
	DB	044H
	DB	040H
	DB	04H
	DB	048H
	DB	044H
	DB	048H
	DB	00H
	DB	040H
	DB	044H
	DB	040H
	DB	04H
	DB	048H
	DB	044H
	DB	040H
	DB	04H
	DB	040H
	DB	044H
	DB	048H
	DB	00H
	DB	040H
	DB	044H
	DB	040H
	DB	04H
	DB	048H
	DB	044H
	DB	040H
	DB	04H
	DB	040H
	DB	044H
	DB	048H
	DB	04H
	DB	048H
	DB	044H
	DB	040H
	DB	04H
	DB	048H
	DB	044H
	DB	040H
	DB	04H
	DB	040H
	DB	044H
	DB	048H
	DB	04H
	DB	048H
	DB	044H
	DB	048H
	DB	04H
	DB	048H
	DB	044H
	DB	040H
	DB	04H
	DB	040H
	DB	044H
	DB	048H
	DB	04H
	DB	040H
	DB	044H
	DB	040H
	DB	00H
	DB	048H
	DB	044H
	DB	040H
	DB	04H
	DB	040H
	DB	044H
	DB	048H
	DB	04H
	DB	040H
	DB	044H
	DB	040H
	DB	04H
	DB	048H
	DB	044H
	DB	040H
	DB	04H
	DB	040H
	DB	044H
	DB	048H
	DB	04H
	DB	048H
	DB	044H
	DB	048H
	DB	00H
	DB	048H
	DB	044H
	DB	040H
	DB	04H
	DB	040H
	DB	044H
	DB	048H
	DB	04H
	DB	040H
	DB	044H
	DB	040H
	DB	00H
	DB	048H
	DB	044H
	DB	048H
	DB	04H
	DB	040H
	DB	044H
	DB	048H
	DB	04H
	DB	040H
	DB	044H
	DB	040H
	DB	04H
	DB	048H
	DB	044H
	DB	040H
	DB	04H
	DB	040H
	DB	044H
	DB	048H
	DB	00H
	DB	048H
	DB	044H
	DB	040H
	DB	04H
	DB	048H
	DB	044H
	DB	040H
	DB	04H
	DB	048H
	DB	044H
	DB	040H
	DB	04H
	DB	040H
	DB	044H
	DB	048H
	DB	04H
	DB	048H
	DB	044H
	DB	040H
	DB	04H
	DB	040H
	DB	044H
	DB	048H
	DB	04H
	DB	040H
	DB	044H
	DB	040H
	DB	00H
	DB	048H
	DB	044H
	DB	048H
	DB	04H
	DB	040H
	DB	044H
	DB	040H
	DB	04H
	DB	040H
	DB	044H
	DB	048H
	DB	04H
	DB	048H
	DB	044H
	DB	040H
	DB	04H
	DB	040H
	DB	044H
	DB	040H
	DB	04H
	DB	040H
	DB	044H
	DB	048H
	DB	04H
	DB	048H
	DB	044H
	DB	040H
	DB	00H
	DB	048H
	DB	044H
	DB	048H
	DB	04H
	DB	040H
	DB	044H
	DB	048H
	DB	04H
	DB	048H
	DB	044H
	DB	040H
	DB	00H
	DB	040H
	DB	044H
	DB	040H
	DB	04H
	DB	048H
	DB	044H
	DB	048H
	DB	00H
	DB	040H
	DB	044H
	DB	040H
	DB	04H
	DB	048H
	DB	044H
	DB	040H
	DB	04H
	DB	048H
	DB	044H
	DB	048H
	DB	04H
	DB	040H
	DB	044H
	DB	040H
	DB	00H
	DB	048H
	DB	044H
	DB	040H
	DB	04H
	DB	048H
	DB	044H
	DB	048H
	DB	04H
	DB	040H
	DB	044H
	DB	048H
	DB	04H
	DB	048H
	DB	044H
	DB	040H
	DB	04H
	DB	040H
	DB	044H
	DB	040H
	DB	00H
	DB	048H
	DB	044H
	DB	048H
	DB	04H
	DB	040H
	DB	044H
	DB	040H
	DB	04H
	DB	040H
	DB	044H
	DB	040H
	DB	04H
	DB	040H
	DB	044H
	DB	040H
	DB	04H
	DB	048H
	DB	044H
	DB	048H
	DB	04H
	DB	040H
	DB	044H
	DB	040H
	DB	00H
	DB	048H
	DB	044H
	DB	040H
	DB	04H
	DB	040H
	DB	044H
	DB	040H
	DB	04H
	DB	048H
	DB	044H
	DB	040H
	DB	00H
	DB	048H
	DB	044H
	DB	048H
	DB	04H
	DB	040H
	DB	044H
	DB	040H
	DB	04H
	DB	048H
	DB	044H
	DB	040H
	DB	04H
	DB	040H
	DB	044H
	DB	048H
	DB	04H
	DB	040H
	DB	044H
	DB	040H
	DB	00H
	DB	048H
	DB	044H
	DB	048H
	DB	04H
	DB	040H
	DB	044H
	DB	040H
	DB	04H
	DB	048H
	DB	044H
	DB	040H
	DB	04H
	DB	048H
	DB	044H
	DB	048H
	DB	04H
	DB	040H
	DB	044H
	DB	040H
	DB	04H
	DB	048H
	DB	044H
	DB	040H
	DB	00H
	DB	040H
	DB	044H
	DB	048H
	DB	04H
	DB	040H
	DB	044H
	DB	040H
	DB	04H
	DB	048H
	DB	044H
	DB	040H
	DB	04H
	DB	040H
	DB	044H
	DB	048H
	DB	04H
	DB	048H
	DB	044H
	DB	040H
	DB	00H
	DB	048H
	DB	044H
	DB	040H
	DB	04H
	DB	040H
	DB	044H
	DB	040H
	DB	04H
	DB	048H
	DB	044H
	DB	048H
	DB	00H
	DB	040H
	DB	044H
	DB	040H
	DB	04H
	DB	048H
	DB	044H
	DB	040H
	DB	04H
	DB	040H
	DB	044H
	DB	048H
	DB	04H
	DB	040H
	DB	044H
	DB	040H
	DB	00H
	DB	048H
	DB	044H
	DB	048H
	DB	04H
	DB	040H
	DB	044H
	DB	040H
	DB	04H
	DB	040H
	DB	044H
	DB	040H
	DB	04H
	DB	048H
	DB	044H
	DB	048H
	DB	04H
	DB	048H
	DB	044H
	DB	040H
	DB	04H
	DB	040H
	DB	044H
	DB	040H
	DB	00H
	DB	040H
	DB	044H
	DB	040H
	DB	04H
	DB	048H
	DB	044H
	DB	048H
	DB	04H
	DB	048H
	DB	044H
	DB	040H
	DB	04H
	DB	040H
	DB	044H
	DB	040H
	DB	00H
	DB	048H
	DB	044H
	DB	048H
	DB	04H
	DB	040H
	DB	044H
	DB	040H
	DB	04H
	DB	040H
	DB	044H
	DB	040H
	DB	04H
	DB	048H
	DB	044H
	DB	040H
	DB	04H
	DB	040H
	DB	044H
	DB	048H
	DB	00H
	DB	040H
	DB	044H
	DB	040H
	DB	04H
	DB	048H
	DB	044H
	DB	040H
	DB	04H
	DB	040H
	DB	044H
	DB	048H
	DB	04H
	DB	048H
	DB	044H
	DB	040H
	DB	04H
	DB	040H
	DB	044H
	DB	040H
	DB	00H
	DB	040H
	DB	044H
	DB	048H
	DB	04H
	DB	048H
	DB	044H
	DB	040H
	DB	04H
	DB	048H
	DB	044H
	DB	040H
	DB	00H
	DB	040H
	DB	044H
	DB	040H
	DB	04H
	DB	048H
	DB	044H
	DB	040H
	DB	04H
	DB	048H
	DB	044H
	DB	040H
	DB	04H
	DB	040H
	DB	044H
	DB	040H
	DB	04H
	DB	048H
	DB	044H
	DB	048H
	DB	04H
	DB	040H
	DB	044H
	DB	040H
	DB	00H
	DB	048H
	DB	044H
	DB	040H
	DB	04H
	DB	040H
	DB	044H
	DB	048H
	DB	04H
	DB	048H
	DB	044H
	DB	040H
	DB	00H
	DB	040H
	DB	044H
	DB	040H
	DB	04H
	DB	048H
	DB	044H
	DB	048H
	DB	04H
	DB	048H
	DB	044H
	DB	040H
	DB	00H
	DB	040H
	DB	044H
	DB	040H
	DB	04H
	DB	048H
	DB	044H
	DB	048H
	DB	00H
	DB	040H
	DB	044H
	DB	040H
	DB	04H
	DB	040H
	DB	044H
	DB	040H
	DB	00H
	DB	048H
	DB	044H
	DB	048H
	DB	04H
	DB	040H
	DB	044H
	DB	040H
	DB	00H
	DB	040H
	DB	044H
	DB	040H
	DB	04H
	DB	048H
	DB	044H
	DB	040H
	DB	00H
	DB	048H
	DB	044H
	DB	048H
	DB	04H
	DB	040H
	DB	044H
	DB	040H
	DB	04H
	DB	048H
	DB	044H
	DB	040H
	DB	04H
	DB	048H
	DB	044H
	DB	048H
	DB	00H
	DB	040H
	DB	044H
	DB	040H
	DB	04H
	DB	048H
	DB	044H
	DB	040H
	DB	00H
	DB	040H
	DB	044H
	DB	048H
	DB	04H
	DB	040H
	DB	044H
	DB	040H
	DB	04H
	DB	048H
	DB	044H
	DB	040H
	DB	04H
	DB	048H
	DB	044H
	DB	048H
	DB	04H
	DB	040H
	DB	044H
	DB	040H
	DB	04H
	DB	048H
	DB	044H
	DB	040H
	DB	04H
	DB	040H
	DB	044H
	DB	040H
	DB	00H
	DB	048H
	DB	044H
	DB	048H
	DB	04H
	DB	048H
	DB	044H
	DB	040H
	DB	04H
	DB	040H
	DB	044H
	DB	048H
	DB	04H
	DB	040H
	DB	044H
	DB	040H
	DB	04H
	DB	040H
	DB	044H
	DB	040H
	DB	00H
	DB	048H
	DB	044H
	DB	048H
	DB	04H
	DB	040H
	DB	044H
	DB	040H
	DB	00H
	DB	048H
	DB	044H
	DB	040H
	DB	00H
	DB	048H
	DB	044H
	DB	048H
	DB	04H
	DB	040H
	DB	044H
	DB	040H
	DB	04H
	DB	048H
	DB	044H
	DB	040H
	DB	04H
	DB	048H
	DB	044H
	DB	040H
	DB	00H
	DB	040H
	DB	044H
	DB	048H
	DB	04H
	DB	048H
	DB	044H
	DB	040H
	DB	00H
	DB	048H
	DB	044H
	DB	048H
	DB	04H
	DB	040H
	DB	044H
	DB	040H
	DB	04H
	DB	040H
	DB	044H
	DB	040H
	DB	00H
	DB	048H
	DB	044H
	DB	048H
	DB	04H
	DB	040H
	DB	044H
	DB	040H
	DB	04H
	DB	040H
	DB	044H
	DB	040H
	DB	04H
	DB	048H
	DB	044H
	DB	048H
	DB	04H
	DB	040H
	DB	044H
	DB	040H
	DB	00H
	DB	040H
	DB	044H
	DB	040H
	DB	04H
	DB	048H
	DB	044H
	DB	048H
	DB	04H
	DB	040H
	DB	044H
	DB	040H
	DB	00H
	DB	048H
	DB	044H
	DB	040H
	DB	04H
	DB	040H
	DB	044H
	DB	048H
	DB	04H
	DB	040H
	DB	044H
	DB	040H
	DB	04H
	DB	048H
	DB	044H
	DB	040H
	DB	04H
	DB	040H
	DB	044H
	DB	048H
	DB	04H
	DB	048H
	DB	044H
	DB	040H
	DB	00H
	DB	048H
	DB	044H
	DB	040H
	DB	04H
	DB	040H
	DB	044H
	DB	048H
	DB	04H
	DB	048H
	DB	044H
	DB	048H
	DB	00H
	DB	048H
	DB	044H
	DB	040H
	DB	04H
	DB	040H
	DB	044H
	DB	048H
	DB	04H
	DB	048H
	DB	044H
	DB	040H
	DB	00H
	DB	048H
	DB	044H
	DB	048H
	DB	04H
	DB	040H
	DB	044H
	DB	048H
	DB	04H
	DB	040H
	DB	044H
	DB	040H
	DB	00H
	DB	048H
	DB	044H
	DB	040H
	DB	04H
	DB	040H
	DB	044H
	DB	048H
	DB	04H
	DB	048H
	DB	044H
	DB	040H
	DB	04H
	DB	048H
	DB	044H
	DB	040H
	DB	00H
	DB	040H
	DB	044H
	DB	048H
	DB	04H
	DB	048H
	DB	044H
	DB	040H
	DB	04H
	DB	040H
	DB	044H
	DB	040H
	DB	00H
	DB	040H
	DB	044H
	DB	048H
	DB	04H
	DB	048H
	DB	044H
	DB	040H
	DB	04H
	DB	040H
	DB	044H
	DB	040H
	DB	00H
	DB	048H
	DB	044H
	DB	048H
	DB	04H
	DB	048H
	DB	044H
	DB	040H
	DB	04H
	DB	040H
	DB	044H
	DB	048H
	DB	04H
	DB	048H
	DB	044H
	DB	040H
	DB	00H
	DB	040H
	DB	044H
	DB	040H
	DB	04H
	DB	040H
	DB	044H
	DB	048H
	DB	04H
	DB	048H
	DB	044H
	DB	040H
	DB	00H
	DB	040H
	DB	044H
	DB	048H
	DB	04H
	DB	048H
	DB	044H
	DB	040H
	DB	04H
	DB	040H
	DB	044H
	DB	048H
	DB	00H
	DB	048H
	DB	044H
	DB	040H
	DB	04H
	DB	048H
	DB	044H
	DB	048H
	DB	04H
	DB	040H
	DB	044H
	DB	040H
	DB	04H
	DB	048H
	DB	044H
	DB	040H
	DB	00H
	DB	040H
	DB	044H
	DB	048H
	DB	04H
	DB	048H
	DB	044H
	DB	040H
	DB	00H
	DB	040H
	DB	044H
	DB	040H
	DB	00H
	DB	040H
	DB	044H
	DB	048H
	DB	04H
	DB	048H
	DB	044H
	DB	040H
	DB	04H
	DB	048H
	DB	044H
	DB	040H
	DB	04H
	DB	040H
	DB	044H
	DB	048H
	DB	00H
	DB	040H
	DB	044H
	DB	040H
	DB	04H
	DB	048H
	DB	044H
	DB	040H
	DB	04H
	DB	040H
	DB	044H
	DB	048H
	DB	04H
	DB	048H
	DB	044H
	DB	048H
	DB	00H
	DB	048H
	DB	044H
	DB	040H
	DB	04H
	DB	040H
	DB	044H
	DB	040H
	DB	04H
	DB	048H
	DB	044H
	DB	048H
	DB	00H
	DB	048H
	DB	044H
	DB	040H
	DB	04H
	DB	040H
	DB	044H
	DB	040H
	DB	04H
	DB	048H
	DB	044H
	DB	048H
	DB	00H
	DB	040H
	DB	044H
	DB	040H
	DB	04H
	DB	040H
	DB	044H
	DB	040H
	DB	04H
	DB	048H
	DB	044H
	DB	048H
	DB	04H
	DB	048H
	DB	044H
	DB	040H
	DB	04H
	DB	040H
	DB	044H
	DB	048H
	DB	04H
	DB	040H
	DB	044H
	DB	048H
	DB	00H
	DB	048H
	DB	044H
	DB	048H
	DB	04H
	DB	040H
	DB	044H
	DB	040H
	DB	04H
	DB	040H
	DB	044H
	DB	048H
	DB	00H
	DB	048H
	DB	044H
	DB	040H
	DB	04H
	DB	040H
	DB	044H
	DB	048H
	DB	04H
	DB	048H
	DB	044H
	DB	040H
	DB	00H
	DB	040H
	DB	044H
	DB	040H
	DB	04H
	DB	048H
	DB	044H
	DB	048H
	DB	04H
	DB	040H
	DB	044H
	DB	040H
	DB	04H
	DB	040H
	DB	044H
	DB	040H
	DB	04H
	DB	048H
	DB	044H
	DB	048H
	DB	04H
	DB	040H
	DB	044H
	DB	040H
	DB	04H
	DB	048H
	DB	044H
	DB	040H
	DB	04H
	DB	048H
	DB	044H
	DB	048H
	DB	04H
	DB	040H
	DB	044H
	DB	040H
	DB	04H
	DB	048H
	DB	044H
	DB	040H
	DB	04H
	DB	048H
	DB	044H
	DB	048H
	DB	00H
	DB	040H
	DB	044H
	DB	048H
	DB	04H
	DB	048H
	DB	044H
	DB	040H
	DB	04H
	DB	040H
	DB	044H
	DB	040H
	DB	00H
	DB	040H
	DB	044H
	DB	048H
	DB	04H
	DB	048H
	DB	044H
	DB	040H
	DB	04H
	DB	040H
	DB	044H
	DB	040H
	DB	00H
	DB	040H
	DB	044H
	DB	048H
	DB	04H
	DB	048H
	DB	044H
	DB	040H
	DB	04H
	DB	048H
	DB	044H
	DB	048H
	DB	04H
	DB	040H
	DB	044H
	DB	040H
	DB	00H
	DB	048H
	DB	044H
	DB	040H
	DB	04H
	DB	040H
	DB	044H
	DB	040H
	DB	00H
	DB	040H
	DB	044H
	DB	048H
	DB	04H
	DB	048H
	DB	044H
	DB	040H
	DB	04H
	DB	040H
	DB	044H
	DB	040H
	DB	00H
	DB	048H
	DB	044H
	DB	048H
	DB	04H
	DB	040H
	DB	044H
	DB	040H
	DB	04H
	DB	048H
	DB	044H
	DB	040H
	DB	00H
	DB	048H
	DB	044H
	DB	048H
	DB	04H
	DB	040H
	DB	044H
	DB	040H
	DB	04H
	DB	048H
	DB	044H
	DB	048H
	DB	04H
	DB	040H
	DB	044H
	DB	040H
	DB	04H
	DB	040H
	DB	044H
	DB	048H
	DB	04H
	DB	048H
	DB	044H
	DB	040H
	DB	04H
	DB	040H
	DB	044H
	DB	040H
	DB	00H
	DB	040H
	DB	044H
	DB	048H
	DB	04H
	DB	048H
	DB	044H
	DB	040H
	DB	04H
	DB	040H
	DB	044H
	DB	048H
	DB	04H
	DB	040H
	DB	044H
	DB	040H
	DB	04H
	DB	048H
	DB	044H
	DB	040H
	DB	00H
	DB	040H
	DB	044H
	DB	048H
	DB	04H
	DB	048H
	DB	044H
	DB	040H
	DB	04H
	DB	048H
	DB	044H
	DB	040H
	DB	04H
	DB	040H
	DB	044H
	DB	048H
	DB	04H
	DB	048H
	DB	044H
	DB	040H
	DB	00H
	DB	048H
	DB	044H
	DB	040H
	DB	04H
	DB	040H
	DB	044H
	DB	048H
	DB	04H
	DB	048H
	DB	044H
	DB	040H
	DB	04H
	DB	048H
	DB	044H
	DB	040H
	DB	04H
	DB	040H
	DB	044H
	DB	048H
	DB	04H
	DB	048H
	DB	044H
	DB	040H
	DB	00H
	DB	040H
	DB	044H
	DB	040H
	DB	04H
	DB	048H
	DB	044H
	DB	048H
	DB	04H
	DB	048H
	DB	044H
	DB	040H
	DB	00H
	DB	040H
	DB	044H
	DB	040H
	DB	04H
	DB	040H
	DB	044H
	DB	048H
	DB	00H
	DB	048H
	DB	044H
	DB	040H
	DB	04H
	DB	040H
	DB	044H
	DB	040H
	DB	04H
	DB	040H
	DB	044H
	DB	048H
	DB	04H
	DB	048H
	DB	044H
	DB	040H
	DB	00H
	DB	048H
	DB	044H
	DB	040H
	DB	04H
	DB	040H
	DB	044H
	DB	040H
	DB	04H
	DB	040H
	DB	044H
	DB	040H
	DB	00H
	DB	048H
	DB	044H
	DB	040H
	DB	04H
	DB	040H
	DB	044H
	DB	048H
	DB	04H
	DB	048H
	DB	044H
	DB	040H
	DB	04H
	DB	040H
	DB	044H
	DB	048H
	DB	04H
	DB	040H
	DB	044H
	DB	040H
	DB	00H
	DB	048H
	DB	044H
	DB	040H
	DB	04H
	DB	040H
	DB	044H
	DB	048H
	DB	04H
	DB	048H
	DB	044H
	DB	040H
	DB	04H
	DB	048H
	DB	044H
	DB	040H
	DB	04H
	DB	040H
	DB	044H
	DB	048H
	DB	04H
	DB	048H
	DB	044H
	DB	048H
	DB	00H
	DB	040H
	DB	044H
	DB	040H
	DB	04H
	DB	040H
	DB	044H
	DB	040H
	DB	04H
	DB	048H
	DB	044H
	DB	048H
	DB	00H
	DB	040H
	DB	044H
	DB	040H
	DB	04H
	DB	048H
	DB	044H
	DB	040H
	DB	04H
	DB	048H
	DB	044H
	DB	048H
	DB	04H
	DB	040H
	DB	044H
	DB	040H
	DB	00H
	DB	048H
	DB	044H
	DB	040H
	DB	04H
	DB	040H
	DB	044H
	DB	048H
	DB	04H
	DB	048H
	DB	044H
	DB	040H
	DB	04H
	DB	040H
	DB	044H
	DB	040H
	DB	04H
	DB	040H
	DB	044H
	DB	040H
	DB	04H
	DB	048H
	DB	044H
	DB	048H
	DB	04H
	DB	040H
	DB	044H
	DB	040H
	DB	00H
	DB	048H
	DB	044H
	DB	040H
	DB	04H
	DB	040H
	DB	044H
	DB	048H
	DB	04H
	DB	048H
	DB	044H
	DB	040H
	DB	04H
	DB	048H
	DB	044H
	DB	048H
	DB	04H
	DB	048H
	DB	044H
	DB	040H
	DB	04H
	DB	040H
	DB	044H
	DB	048H
	DB	04H
	DB	040H
	DB	044H
	DB	040H
	DB	04H
	DB	048H
	DB	044H
	DB	048H
	DB	04H
	DB	048H
	DB	044H
	DB	048H
	DB	04H
	DB	040H
	DB	044H
	DB	040H
	DB	00H
	DB	040H
	DB	044H
	DB	040H
	DB	04H
	DB	048H
	DB	044H
	DB	048H
	DB	04H
	DB	040H
	DB	044H
	DB	040H
	DB	00H
	DB	048H
	DB	044H
	DB	040H
	DB	04H
	DB	040H
	DB	044H
	DB	048H
	DB	04H
	DB	040H
	DB	044H
	DB	048H
	DB	00H
	DB	048H
	DB	044H
	DB	040H
	DB	04H
	DB	040H
	DB	044H
	DB	040H
	DB	04H
	DB	048H
	DB	044H
	DB	048H
	DB	00H
	DB	048H
	DB	044H
	DB	040H
	DB	04H
	DB	040H
	DB	044H
	DB	048H
	DB	04H
	DB	048H
	DB	044H
	DB	040H
	DB	00H
	DB	048H
	DB	044H
	DB	040H
	DB	04H
	DB	040H
	DB	044H
	DB	040H
	DB	04H
	DB	048H
	DB	044H
	DB	040H
	DB	04H
	DB	048H
	DB	044H
	DB	040H
	DB	04H
	DB	040H
	DB	044H
	DB	048H
	DB	04H
	DB	048H
	DB	044H
	DB	040H
	DB	04H
	DB	040H
	DB	044H
	DB	040H
	DB	04H
	DB	048H
	DB	044H
	DB	048H
	DB	04H
	DB	040H
	DB	044H
	DB	040H
	DB	04H
	DB	048H
	DB	044H
	DB	048H
	DB	00H
	DB	048H
	DB	044H
	DB	040H
	DB	04H
	DB	040H
	DB	044H
	DB	048H
	DB	00H
	DB	048H
	DB	044H
	DB	040H
	DB	04H
	DB	040H
	DB	044H
	DB	048H
	DB	00H
	DB	040H
	DB	044H
	DB	040H
	DB	04H
	DB	048H
	DB	044H
	DB	048H
	DB	04H
	DB	040H
	DB	044H
	DB	040H
	DB	00H
	DB	040H
	DB	044H
	DB	048H
	DB	04H
	DB	048H
	DB	044H
	DB	040H
	DB	04H
	DB	040H
	DB	044H
	DB	040H
	DB	04H
	DB	048H
	DB	044H
	DB	048H
	DB	04H
	DB	048H
	DB	044H
	DB	040H
	DB	04H
	DB	040H
	DB	044H
	DB	040H
	DB	04H
	DB	048H
	DB	044H
	DB	048H
	DB	04H
	DB	048H
	DB	044H
	DB	040H
	DB	00H
	DB	040H
	DB	044H
	DB	048H
	DB	04H
	DB	040H
	DB	044H
	DB	040H
	DB	04H
	DB	048H
	DB	044H
	DB	040H
	DB	04H
	DB	040H
	DB	044H
	DB	048H
	DB	04H
	DB	048H
	DB	044H
	DB	040H
	DB	04H
	DB	048H
	DB	044H
	DB	048H
	DB	04H
	DB	040H
	DB	044H
	DB	048H
	DB	00H
	DB	048H
	DB	044H
	DB	040H
	DB	04H
	DB	040H
	DB	044H
	DB	040H
	DB	04H
	DB	048H
	DB	044H
	DB	048H
	DB	04H
	DB	040H
	DB	044H
	DB	048H
	DB	04H
	DB	040H
	DB	044H
	DB	040H
	DB	04H
	DB	048H
	DB	044H
	DB	040H
	DB	00H
	DB	040H
	DB	044H
	DB	040H
	DB	04H
	DB	048H
	DB	044H
	DB	048H
	DB	00H
	DB	048H
	DB	044H
	DB	040H
	DB	04H
	DB	040H
	DB	044H
	DB	040H
	DB	04H
	DB	048H
	DB	044H
	DB	048H
	DB	04H
	DB	048H
	DB	044H
	DB	040H
	DB	04H
	DB	040H
	DB	044H
	DB	040H
	DB	04H
	DB	048H
	DB	044H
	DB	048H
	DB	00H
	DB	048H
	DB	044H
	DB	040H
	DB	04H
	DB	040H
	DB	044H
	DB	040H
	DB	04H
	DB	048H
	DB	044H
	DB	048H
	DB	04H
	DB	040H
	DB	044H
	DB	040H
	DB	04H
	DB	040H
	DB	044H
	DB	040H
	DB	00H
	DB	048H
	DB	044H
	DB	048H
	DB	04H
	DB	040H
	DB	044H
	DB	040H
	DB	04H
	DB	040H
	DB	044H
	DB	040H
	DB	00H
	DB	048H
	DB	044H
	DB	048H
	DB	04H
	DB	040H
	DB	044H
	DB	040H
	DB	04H
	DB	040H
	DB	044H
	DB	048H
	DB	00H
	DB	048H
	DB	044H
	DB	040H
	DB	04H
	DB	040H
	DB	044H
	DB	048H
	DB	04H
	DB	048H
	DB	044H
	DB	040H
	DB	00H
	DB	040H
	DB	044H
	DB	048H
	DB	04H
	DB	040H
	DB	044H
	DB	048H
	DB	04H
	DB	048H
	DB	044H
	DB	040H
	DB	04H
	DB	048H
	DB	044H
	DB	048H
	DB	00H
	DB	040H
	DB	044H
	DB	040H
	DB	04H
	DB	048H
	DB	044H
	DB	040H
	DB	04H
	DB	048H
	DB	044H
	DB	048H
	DB	04H
	DB	040H
	DB	044H
	DB	040H
	DB	04H
	DB	048H
	DB	044H
	DB	040H
	DB	04H
	DB	040H
	DB	044H
	DB	048H
	DB	04H
	DB	040H
	DB	044H
	DB	040H
	DB	04H
	DB	048H
	DB	044H
	DB	048H
	DB	04H
	DB	048H
	DB	044H
	DB	048H
	DB	04H
	DB	040H
	DB	044H
	DB	040H
	DB	04H
	DB	048H
	DB	044H
	DB	040H
	DB	00H
	DB	048H
	DB	044H
	DB	048H
	DB	04H
	DB	040H
	DB	044H
	DB	040H
	DB	04H
	DB	048H
	DB	044H
	DB	040H
	DB	00H
	DB	040H
	DB	044H
	DB	048H
	DB	04H
	DB	040H
	DB	044H
	DB	040H
	DB	04H
	DB	048H
	DB	044H
	DB	040H
	DB	00H
	DB	040H
	DB	044H
	DB	048H
	DB	04H
	DB	048H
	DB	044H
	DB	040H
	DB	04H
	DB	048H
	DB	044H
	DB	040H
	DB	04H
	DB	040H
	DB	044H
	DB	048H
	DB	04H
	DB	048H
	DB	044H
	DB	040H
	DB	04H
	DB	040H
	DB	044H
	DB	040H
	DB	04H
	DB	040H
	DB	044H
	DB	048H
	DB	00H
	DB	048H
	DB	044H
	DB	040H
	DB	04H
	DB	040H
	DB	044H
	DB	048H
	DB	04H
	DB	048H
	DB	044H
	DB	040H
	DB	04H
	DB	048H
	DB	044H
	DB	040H
	DB	04H
	DB	040H
	DB	044H
	DB	048H
	DB	00H
	DB	048H
	DB	044H
	DB	040H
	DB	04H
	DB	048H
	DB	044H
	DB	048H
	DB	00H
	DB	040H
	DB	044H
	DB	040H
	DB	04H
	DB	048H
	DB	044H
	DB	040H
	DB	04H
	DB	040H
	DB	044H
	DB	048H
	DB	04H
	DB	040H
	DB	044H
	DB	040H
	DB	00H
	DB	048H
	DB	044H
	DB	040H
	DB	04H
	DB	040H
	DB	044H
	DB	048H
	DB	04H
	DB	040H
	DB	044H
	DB	040H
	DB	04H
	DB	048H
	DB	044H
	DB	040H
	DB	00H
	DB	048H
	DB	044H
	DB	040H
	DB	04H
	DB	040H
	DB	044H
	DB	048H
	DB	00H
	DB	040H
	DB	044H
	DB	040H
	DB	04H
	DB	048H
	DB	044H
	DB	040H
	DB	04H
	DB	048H
	DB	044H
	DB	040H
	DB	04H
	DB	040H
	DB	044H
	DB	048H
	DB	04H
	DB	048H
	DB	044H
	DB	040H
	DB	04H
	DB	040H
	DB	044H
	DB	040H
	DB	04H
	DB	048H
	DB	044H
	DB	048H
	DB	04H
	DB	048H
	DB	044H
	DB	040H
	DB	04H
	DB	040H
	DB	044H
	DB	040H
	DB	04H
	DB	048H
	DB	044H
	DB	048H
	DB	04H
	DB	040H
	DB	044H
	DB	040H
	DB	04H
	DB	040H
	DB	044H
	DB	040H
	DB	04H
	DB	048H
	DB	044H
	DB	048H
	DB	04H
	DB	040H
	DB	044H
	DB	040H
	DB	00H
	DB	040H
	DB	044H
	DB	048H
	DB	04H
	DB	048H
	DB	044H
	DB	040H
	DB	00H
	DB	040H
	DB	044H
	DB	048H
	DB	04H
	DB	040H
	DB	044H
	DB	040H
	DB	00H
	DB	048H
	DB	044H
	DB	040H
	DB	04H
	DB	040H
	DB	044H
	DB	048H
	DB	00H
	DB	048H
	DB	044H
	DB	040H
	DB	04H
	DB	048H
	DB	044H
	DB	040H
	DB	00H
	DB	040H
	DB	044H
	DB	040H
	DB	04H
	DB	040H
	DB	044H
	DB	048H
	DB	04H
	DB	048H
	DB	044H
	DB	040H
	DB	04H
	DB	040H
	DB	044H
	DB	040H
	DB	04H
	DB	048H
	DB	044H
	DB	040H
	DB	04H
	DB	048H
	DB	044H
	DB	048H
	DB	00H
	DB	040H
	DB	044H
	DB	040H
	DB	04H
	DB	048H
	DB	044H
	DB	040H
	DB	04H
	DB	048H
	DB	044H
	DB	048H
	DB	00H
	DB	040H
	DB	044H
	DB	040H
	DB	04H
	DB	048H
	DB	044H
	DB	040H
	DB	04H
	DB	040H
	DB	044H
	DB	048H
	DB	00H
	DB	040H
	DB	044H
	DB	040H
	DB	04H
	DB	048H
	DB	044H
	DB	040H
	DB	04H
	DB	040H
	DB	044H
	DB	048H
	DB	00H
	DB	040H
	DB	044H
	DB	040H
	DB	04H
	DB	048H
	DB	044H
	DB	040H
	DB	04H
	DB	040H
	DB	044H
	DB	048H
	DB	04H
	DB	048H
	DB	044H
	DB	040H
	DB	04H
	DB	048H
	DB	044H
	DB	040H
	DB	00H
	DB	040H
	DB	044H
	DB	048H
	DB	04H
	DB	040H
	DB	044H
	DB	040H
	DB	00H
	DB	048H
	DB	044H
	DB	040H
	DB	04H
	DB	040H
	DB	044H
	DB	040H
	DB	04H
	DB	048H
	DB	044H
	DB	048H
	DB	04H
	DB	040H
	DB	044H
	DB	040H
	DB	00H
	DB	048H
	DB	044H
	DB	040H
	DB	04H
	DB	048H
	DB	044H
	DB	048H
	DB	04H
	DB	040H
	DB	044H
	DB	040H
	DB	00H
	DB	048H
	DB	044H
	DB	040H
	DB	04H
	DB	040H
	DB	044H
	DB	048H
	DB	04H
	DB	040H
	DB	044H
	DB	040H
	DB	04H
	DB	048H
	DB	044H
	DB	040H
	DB	04H
	DB	040H
	DB	044H
	DB	048H
	DB	00H
	DB	040H
	DB	044H
	DB	040H
	DB	00H
	DB	048H
	DB	044H
	DB	040H
	DB	04H
	DB	040H
	DB	044H
	DB	048H
	DB	04H
	DB	040H
	DB	044H
	DB	040H
	DB	04H
	DB	048H
	DB	044H
	DB	048H
	DB	04H
	DB	040H
	DB	044H
	DB	040H
	DB	00H
	DB	048H
	DB	044H
	DB	040H
	DB	04H
	DB	048H
	DB	044H
	DB	048H
	DB	00H
	DB	040H
	DB	044H
	DB	040H
	DB	04H
	DB	048H
	DB	044H
	DB	048H
	DB	04H
	DB	048H
	DB	044H
	DB	048H
	DB	00H
	DB	040H
	DB	044H
	DB	040H
	DB	04H
	DB	048H
	DB	044H
	DB	040H
	DB	04H
	DB	048H
	DB	044H
	DB	048H
	DB	04H
	DB	040H
	DB	044H
	DB	040H
	DB	04H
	DB	048H
	DB	044H
	DB	040H
	DB	00H
	DB	040H
	DB	044H
	DB	048H
	DB	04H
	DB	048H
	DB	044H
	DB	040H
	DB	04H
	DB	048H
	DB	044H
	DB	040H
	DB	04H
	DB	040H
	DB	044H
	DB	040H
	DB	04H
	DB	048H
	DB	044H
	DB	040H
	DB	04H
	DB	040H
	DB	044H
	DB	040H
	DB	00H
	DB	040H
	DB	044H
	DB	048H
	DB	04H
	DB	048H
	DB	044H
	DB	040H
	DB	04H
	DB	040H
	DB	044H
	DB	040H
	DB	04H
	DB	040H
	DB	044H
	DB	048H
	DB	00H
	DB	048H
	DB	044H
	DB	040H
	DB	00H
	DB	048H
	DB	044H
	DB	040H
	DB	04H
	DB	040H
	DB	044H
	DB	048H
	DB	04H
	DB	040H
	DB	044H
	DB	040H
	DB	00H
	DB	048H
	DB	044H
	DB	040H
	DB	00H
	DB	040H
	DB	044H
	DB	048H
	DB	04H
	DB	040H
	DB	044H
	DB	040H
	DB	04H
	DB	048H
	DB	044H
	DB	040H
	DB	00H
	DB	040H
	DB	044H
	DB	048H
	DB	04H
	DB	048H
	DB	044H
	DB	040H
	DB	04H
	DB	048H
	DB	044H
	DB	048H
	DB	04H
	DB	040H
	DB	044H
	DB	040H
	DB	04H
	DB	048H
	DB	044H
	DB	048H
	DB	00H
	DB	040H
	DB	044H
	DB	040H
	DB	04H
	DB	040H
	DB	044H
	DB	048H
	DB	04H
	DB	048H
	DB	044H
	DB	040H
	DB	00H
	DB	040H
	DB	044H
	DB	040H
	DB	04H
	DB	048H
	DB	044H
	DB	048H
	DB	00H
	DB	048H
	DB	044H
	DB	040H
	DB	04H
	DB	040H
	DB	044H
	DB	048H
	DB	04H
	DB	048H
	DB	044H
	DB	040H
	DB	04H
	DB	040H
	DB	044H
	DB	040H
	DB	00H
	DB	040H
	DB	044H
	DB	048H
	DB	04H
	DB	048H
	DB	044H
	DB	040H
	DB	04H
	DB	040H
	DB	044H
	DB	048H
	DB	00H
	DB	040H
	DB	044H
	DB	040H
	DB	04H
	DB	048H
	DB	044H
	DB	040H
	DB	04H
	DB	040H
	DB	044H
	DB	048H
	DB	04H
	DB	048H
	DB	044H
	DB	048H
	DB	00H
	DB	048H
	DB	044H
	DB	040H
	DB	04H
	DB	040H
	DB	044H
	DB	048H
	DB	04H
	DB	048H
	DB	044H
	DB	040H
	DB	04H
	DB	048H
	DB	044H
	DB	040H
	DB	00H
	DB	040H
	DB	044H
	DB	048H
	DB	04H
	DB	040H
	DB	044H
	DB	040H
	DB	04H
	DB	048H
	DB	044H
	DB	048H
	DB	04H
	DB	040H
	DB	044H
	DB	040H
	DB	00H
	DB	048H
	DB	044H
	DB	040H
	DB	04H
	DB	040H
	DB	044H
	DB	048H
	DB	04H
	DB	048H
	DB	044H
	DB	040H
	DB	00H
	DB	040H
	DB	044H
	DB	048H
	DB	04H
	DB	048H
	DB	044H
	DB	040H
	DB	00H
	DB	040H
	DB	044H
	DB	040H
	DB	00H
	DB	048H
	DB	044H
	DB	048H
	DB	04H
	DB	040H
	DB	044H
	DB	040H
	DB	00H
	DB	040H
	DB	044H
	DB	040H
	DB	04H
	DB	048H
	DB	044H
	DB	040H
	DB	04H
	DB	048H
	DB	044H
	DB	048H
	DB	00H
	DB	040H
	DB	044H
	DB	040H
	DB	04H
	DB	048H
	DB	044H
	DB	040H
	DB	04H
	DB	048H
	DB	044H
	DB	048H
	DB	00H
	DB	040H
	DB	044H
	DB	040H
	DB	04H
	DB	048H
	DB	044H
	DB	040H
	DB	04H
	DB	040H
	DB	044H
	DB	048H
	DB	04H
	DB	048H
	DB	044H
	DB	048H
	DB	04H
	DB	040H
	DB	044H
	DB	040H
	DB	04H
	DB	040H
	DB	044H
	DB	048H
	DB	00H
	DB	048H
	DB	044H
	DB	040H
	DB	04H
	DB	040H
	DB	044H
	DB	040H
	DB	04H
	DB	048H
	DB	044H
	DB	040H
	DB	04H
	DB	040H
	DB	044H
	DB	048H
	DB	00H
	DB	048H
	DB	044H
	DB	040H
	DB	04H
	DB	040H
	DB	044H
	DB	040H
	DB	04H
	DB	040H
	DB	044H
	DB	048H
	DB	00H
	DB	048H
	DB	044H
	DB	040H
	DB	04H
	DB	040H
	DB	044H
	DB	040H
	DB	04H
	DB	040H
	DB	044H
	DB	048H
	DB	04H
	DB	048H
	DB	044H
	DB	040H
	DB	04H
	DB	040H
	DB	044H
	DB	040H
	DB	04H
	DB	048H
	DB	044H
	DB	048H
	DB	04H
	DB	048H
	DB	044H
	DB	040H
	DB	04H
	DB	040H
	DB	044H
	DB	048H
	DB	00H
	DB	048H
	DB	044H
	DB	040H
	DB	04H
	DB	048H
	DB	044H
	DB	040H
	DB	04H
	DB	040H
	DB	044H
	DB	048H
	DB	00H
	DB	048H
	DB	044H
	DB	040H
	DB	04H
	DB	040H
	DB	044H
	DB	040H
	DB	04H
	DB	040H
	DB	044H
	DB	048H
	DB	00H
	DB	048H
	DB	044H
	DB	040H
	DB	04H
	DB	048H
	DB	044H
	DB	048H
	DB	04H
	DB	040H
	DB	044H
	DB	040H
	DB	04H
	DB	048H
	DB	044H
	DB	048H
	DB	00H
	DB	040H
	DB	044H
	DB	040H
	DB	04H
	DB	040H
	DB	044H
	DB	040H
	DB	04H
	DB	048H
	DB	044H
	DB	048H
	DB	04H
	DB	040H
	DB	044H
	DB	040H
	DB	04H
	DB	040H
	DB	044H
	DB	040H
	DB	00H
	DB	048H
	DB	044H
	DB	048H
	DB	04H
	DB	048H
	DB	044H
	DB	040H
	DB	04H
	DB	040H
	DB	044H
	DB	040H
	DB	00H
	DB	048H
	DB	044H
	DB	048H
	DB	04H
	DB	048H
	DB	044H
	DB	048H
	DB	04H
	DB	040H
	DB	044H
	DB	040H
	DB	04H
	DB	048H
	DB	044H
	DB	048H
	DB	04H
	DB	048H
	DB	044H
	DB	040H
	DB	04H
	DB	040H
	DB	044H
	DB	040H
	DB	00H
	DB	048H
	DB	044H
	DB	048H
	DB	04H
	DB	048H
	DB	044H
	DB	040H
	DB	00H
	DB	040H
	DB	044H
	DB	040H
	DB	04H
	DB	040H
	DB	044H
	DB	048H
	DB	04H
	DB	048H
	DB	044H
	DB	040H
	DB	04H
	DB	040H
	DB	044H
	DB	040H
	DB	04H
	DB	040H
	DB	044H
	DB	048H
	DB	04H
	DB	048H
	DB	044H
	DB	040H
	DB	04H
	DB	040H
	DB	044H
	DB	040H
	DB	04H
	DB	048H
	DB	044H
	DB	048H
	DB	00H
	DB	040H
	DB	044H
	DB	040H
	DB	04H
	DB	040H
	DB	044H
	DB	040H
	DB	04H
	DB	048H
	DB	044H
	DB	048H
	DB	00H
	DB	048H
	DB	044H
	DB	040H
	DB	04H
	DB	040H
	DB	044H
	DB	040H
	DB	04H
	DB	040H
	DB	044H
	DB	048H
	DB	00H
	DB	048H
	DB	044H
	DB	048H
	DB	04H
	DB	040H
	DB	044H
	DB	040H
	DB	04H
	DB	048H
	DB	044H
	DB	040H
	DB	00H
	DB	048H
	DB	044H
	DB	048H
	DB	04H
	DB	040H
	DB	044H
	DB	040H
	DB	04H
	DB	048H
	DB	044H
	DB	048H
	DB	04H
	DB	040H
	DB	044H
	DB	040H
	DB	04H
	DB	040H
	DB	044H
	DB	048H
	DB	04H
	DB	048H
	DB	044H
	DB	040H
	DB	04H
	DB	040H
	DB	044H
	DB	048H
	DB	00H
	DB	048H
	DB	044H
	DB	040H
	DB	04H
	DB	048H
	DB	044H
	DB	040H
	DB	04H
	DB	040H
	DB	044H
	DB	048H
	DB	04H
	DB	048H
	DB	044H
	DB	040H
	DB	04H
	DB	048H
	DB	044H
	DB	040H
	DB	04H
	DB	040H
	DB	044H
	DB	048H
	DB	04H
	DB	040H
	DB	044H
	DB	040H
	DB	04H
	DB	048H
	DB	044H
	DB	040H
	DB	00H
	DB	040H
	DB	044H
	DB	040H
	DB	04H
	DB	048H
	DB	044H
	DB	048H
	DB	04H
	DB	048H
	DB	044H
	DB	040H
	DB	04H
	DB	040H
	DB	044H
	DB	040H
	DB	04H
	DB	048H
	DB	044H
	DB	048H
	DB	00H
	DB	040H
	DB	044H
	DB	040H
	DB	04H
	DB	040H
	DB	044H
	DB	040H
	DB	04H
	DB	048H
	DB	044H
	DB	048H
	DB	04H
	DB	040H
	DB	044H
	DB	040H
	DB	00H
	DB	048H
	DB	044H
	DB	040H
	DB	04H
	DB	048H
	DB	044H
	DB	048H
	DB	04H
	DB	040H
	DB	044H
	DB	040H
	DB	04H
	DB	048H
	DB	044H
	DB	040H
	DB	00H
	DB	048H
	DB	044H
	DB	048H
	DB	04H
	DB	040H
	DB	044H
	DB	040H
	DB	04H
	DB	048H
	DB	044H
	DB	040H
	DB	04H
	DB	040H
	DB	044H
	DB	048H
	DB	04H
	DB	040H
	DB	044H
	DB	040H
	DB	04H
	DB	048H
	DB	044H
	DB	040H
	DB	04H
	DB	040H
	DB	044H
	DB	040H
	DB	00H
	DB	040H
	DB	044H
	DB	048H
	DB	04H
	DB	048H
	DB	044H
	DB	040H
	DB	04H
	DB	040H
	DB	044H
	DB	048H
	DB	04H
	DB	048H
	DB	044H
	DB	040H
	DB	00H
	DB	048H
	DB	044H
	DB	040H
	DB	04H
	DB	040H
	DB	044H
	DB	048H
	DB	04H
	DB	048H
	DB	044H
	DB	040H
	DB	04H
	DB	040H
	DB	044H
	DB	040H
	DB	04H
	DB	048H
	DB	044H
	DB	048H
	DB	04H
	DB	040H
	DB	044H
	DB	040H
	DB	00H
	DB	048H
	DB	044H
	DB	040H
	DB	04H
	DB	040H
	DB	044H
	DB	048H
	DB	04H
	DB	048H
	DB	044H
	DB	040H
	DB	04H
	DB	040H
	DB	044H
	DB	048H
	DB	04H
	DB	048H
	DB	044H
	DB	040H
	DB	04H
	DB	040H
	DB	044H
	DB	048H
	DB	00H
	DB	048H
	DB	044H
	DB	048H
	DB	04H
	DB	040H
	DB	044H
	DB	040H
	DB	04H
	DB	040H
	DB	044H
	DB	048H
	DB	00H
	DB	048H
	DB	044H
	DB	040H
	DB	04H
	DB	040H
	DB	044H
	DB	040H
	DB	04H
	DB	048H
	DB	044H
	DB	048H
	DB	04H
	DB	040H
	DB	044H
	DB	040H
	DB	04H
	DB	048H
	DB	044H
	DB	040H
	DB	00H
	DB	048H
	DB	044H
	DB	040H
	DB	04H
	DB	048H
	DB	044H
	DB	040H
	DB	04H
	DB	040H
	DB	044H
	DB	048H
	DB	04H
	DB	048H
	DB	044H
	DB	040H
	DB	04H
	DB	040H
	DB	044H
	DB	040H
	DB	04H
	DB	040H
	DB	044H
	DB	040H
	DB	04H
	DB	048H
	DB	044H
	DB	048H
	DB	04H
	DB	048H
	DB	044H
	DB	040H
	DB	04H
	DB	040H
	DB	044H
	DB	048H
	DB	00H
	DB	048H
	DB	044H
	DB	048H
	DB	04H
	DB	048H
	DB	044H
	DB	040H
	DB	04H
	DB	040H
	DB	044H
	DB	040H
	DB	04H
	DB	048H
	DB	044H
	DB	048H
	DB	00H
	DB	040H
	DB	044H
	DB	040H
	DB	04H
	DB	040H
	DB	044H
	DB	040H
	DB	00H
	DB	048H
	DB	044H
	DB	048H
	DB	04H
	DB	040H
	DB	044H
	DB	040H
	DB	04H
	DB	040H
	DB	044H
	DB	040H
	DB	04H
	DB	048H
	DB	044H
	DB	048H
	DB	04H
	DB	040H
	DB	044H
	DB	040H
	DB	04H
	DB	048H
	DB	044H
	DB	048H
	DB	04H
	DB	048H
	DB	044H
	DB	040H
	DB	00H
	DB	040H
	DB	044H
	DB	048H
	DB	04H
	DB	048H
	DB	044H
	DB	040H
	DB	04H
	DB	040H
	DB	044H
	DB	040H
	DB	00H
	DB	040H
	DB	044H
	DB	048H
	DB	04H
	DB	048H
	DB	044H
	DB	040H
	DB	04H
	DB	048H
	DB	044H
	DB	040H
	DB	04H
	DB	040H
	DB	044H
	DB	048H
	DB	00H
	DB	048H
	DB	044H
	DB	040H
	DB	04H
	DB	048H
	DB	044H
	DB	048H
	DB	04H
	DB	040H
	DB	044H
	DB	040H
	DB	00H
	DB	040H
	DB	044H
	DB	040H
	DB	04H
	DB	048H
	DB	044H
	DB	048H
	DB	04H
	DB	040H
	DB	044H
	DB	040H
	DB	04H
	DB	040H
	DB	044H
	DB	040H
	DB	04H
	DB	048H
	DB	044H
	DB	048H
	DB	00H
	DB	040H
	DB	044H
	DB	040H
	DB	04H
	DB	040H
	DB	044H
	DB	040H
	DB	00H
	DB	048H
	DB	044H
	DB	048H
	DB	04H
	DB	040H
	DB	044H
	DB	040H
	DB	04H
	DB	040H
	DB	044H
	DB	048H
	DB	04H
	DB	048H
	DB	044H
	DB	040H
	DB	04H
	DB	048H
	DB	044H
	DB	040H
	DB	04H
	DB	040H
	DB	044H
	DB	048H
	DB	00H
	DB	048H
	DB	044H
	DB	048H
	DB	04H
	DB	048H
	DB	044H
	DB	040H
	DB	04H
	DB	040H
	DB	044H
	DB	040H
	DB	00H
	DB	048H
	DB	044H
	DB	048H
	DB	04H
	DB	040H
	DB	044H
	DB	040H
	DB	04H
	DB	048H
	DB	044H
	DB	040H
	DB	04H
	DB	040H
	DB	044H
	DB	048H
	DB	04H
	DB	048H
	DB	044H
	DB	040H
	DB	00H
	DB	040H
	DB	044H
	DB	040H
	DB	04H
	DB	048H
	DB	044H
	DB	048H
	DB	04H
	DB	040H
	DB	044H
	DB	040H
	DB	04H
	DB	048H
	DB	044H
	DB	040H
	DB	04H
	DB	040H
	DB	044H
	DB	048H
	DB	00H
	DB	040H
	DB	044H
	DB	040H
	DB	04H
	DB	048H
	DB	044H
	DB	048H
	DB	04H
	DB	040H
	DB	044H
	DB	048H
	DB	04H
	DB	040H
	DB	044H
	DB	040H
	DB	04H
	DB	048H
	DB	044H
	DB	040H
	DB	00H
	DB	048H
	DB	044H
	DB	048H
	DB	00H
	DB	048H
	DB	044H
	DB	040H
	DB	04H
	DB	040H
	DB	044H
	DB	040H
	DB	04H
	DB	048H
	DB	044H
	DB	048H
	DB	04H
	DB	040H
	DB	044H
	DB	040H
	DB	04H
	DB	048H
	DB	044H
	DB	040H
	DB	04H
	DB	040H
	DB	044H
	DB	048H
	DB	04H
	DB	040H
	DB	044H
	DB	040H
	DB	00H
	DB	048H
	DB	044H
	DB	040H
	DB	04H
	DB	048H
	DB	044H
	DB	048H
	DB	00H
	DB	040H
	DB	044H
	DB	040H
	DB	04H
	DB	048H
	DB	044H
	DB	048H
	DB	04H
	DB	040H
	DB	044H
	DB	040H
	DB	00H
	DB	040H
	DB	044H
	DB	040H
	DB	04H
	DB	048H
	DB	044H
	DB	048H
	DB	04H
	DB	040H
	DB	044H
	DB	040H
	DB	00H
	DB	048H
	DB	044H
	DB	040H
	DB	04H
	DB	048H
	DB	044H
	DB	048H
	DB	04H
	DB	040H
	DB	044H
	DB	040H
	DB	04H
	DB	048H
	DB	044H
	DB	040H
	DB	04H
	DB	040H
	DB	044H
	DB	048H
	DB	04H
	DB	040H
	DB	044H
	DB	040H
	DB	00H
	DB	048H
	DB	044H
	DB	040H
	DB	04H
	DB	040H
	DB	044H
	DB	048H
	DB	04H
	DB	040H
	DB	044H
	DB	040H
	DB	04H
	DB	048H
	DB	044H
	DB	040H
	DB	04H
	DB	040H
	DB	044H
	DB	048H
	DB	00H
	DB	048H
	DB	044H
	DB	040H
	DB	04H
	DB	048H
	DB	044H
	DB	048H
	DB	00H
	DB	040H
	DB	044H
	DB	040H
	DB	00H
	DB	048H
	DB	044H
	DB	040H
	DB	04H
	DB	048H
	DB	044H
	DB	048H
	DB	04H
	DB	040H
	DB	044H
	DB	040H
	DB	04H
	DB	048H
	DB	044H
	DB	040H
	DB	00H
	DB	040H
	DB	044H
	DB	048H
	DB	04H
	DB	040H
	DB	044H
	DB	040H
	DB	04H
	DB	048H
	DB	044H
	DB	040H
	DB	04H
	DB	040H
	DB	044H
	DB	048H
	DB	00H
	DB	040H
	DB	044H
	DB	040H
	DB	04H
	DB	048H
	DB	044H
	DB	048H
	DB	04H
	DB	048H
	DB	044H
	DB	040H
	DB	00H
	DB	040H
	DB	044H
	DB	040H
	DB	04H
	DB	048H
	DB	044H
	DB	048H
	DB	04H
	DB	040H
	DB	044H
	DB	040H
	DB	04H
	DB	048H
	DB	044H
	DB	040H
	DB	04H
	DB	040H
	DB	044H
	DB	048H
	DB	04H
	DB	048H
	DB	044H
	DB	040H
	DB	04H
	DB	040H
	DB	044H
	DB	040H
	DB	04H
	DB	048H
	DB	044H
	DB	040H
	DB	00H
	DB	040H
	DB	044H
	DB	040H
	DB	04H
	DB	048H
	DB	044H
	DB	040H
	DB	04H
	DB	048H
	DB	044H
	DB	048H
	DB	04H
	DB	040H
	DB	044H
	DB	040H
	DB	00H
	DB	040H
	DB	044H
	DB	040H
	DB	04H
	DB	048H
	DB	044H
	DB	048H
	DB	04H
	DB	040H
	DB	044H
	DB	040H
	DB	00H
	DB	040H
	DB	044H
	DB	048H
	DB	04H
	DB	048H
	DB	044H
	DB	040H
	DB	04H
	DB	040H
	DB	044H
	DB	040H
	DB	00H
	DB	048H
	DB	044H
	DB	048H
	DB	04H
	DB	040H
	DB	044H
	DB	048H
	DB	04H
	DB	048H
	DB	044H
	DB	040H
	DB	00H
	DB	040H
	DB	044H
	DB	040H
	DB	04H
	DB	048H
	DB	044H
	DB	040H
	DB	04H
	DB	040H
	DB	044H
	DB	040H
	DB	00H
	DB	040H
	DB	044H
	DB	040H
	DB	04H
	DB	048H
	DB	044H
	DB	048H
	DB	04H
	DB	040H
	DB	044H
	DB	040H
	DB	04H
	DB	048H
	DB	044H
	DB	048H
	DB	00H
	DB	048H
	DB	044H
	DB	040H
	DB	04H
	DB	040H
	DB	044H
	DB	048H
	DB	04H
	DB	048H
	DB	044H
	DB	040H
	DB	04H
	DB	048H
	DB	044H
	DB	040H
	DB	00H
	DB	040H
	DB	044H
	DB	048H
	DB	04H
	DB	048H
	DB	044H
	DB	040H
	DB	00H
	DB	040H
	DB	044H
	DB	040H
	DB	04H
	DB	040H
	DB	044H
	DB	048H
	DB	04H
	DB	048H
	DB	044H
	DB	040H
	DB	00H
	DB	040H
	DB	044H
	DB	040H
	DB	04H
	DB	048H
	DB	044H
	DB	048H
	DB	04H
	DB	048H
	DB	044H
	DB	040H
	DB	04H
	DB	040H
	DB	044H
	DB	040H
	DB	04H
	DB	040H
	DB	044H
	DB	048H
	DB	00H
	DB	048H
	DB	044H
	DB	040H
	DB	04H
	DB	040H
	DB	044H
	DB	040H
	DB	04H
	DB	048H
	DB	044H
	DB	048H
	DB	04H
	DB	040H
	DB	044H
	DB	040H
	DB	00H
	DB	048H
	DB	044H
	DB	040H
	DB	04H
	DB	048H
	DB	044H
	DB	048H
	DB	04H
	DB	040H
	DB	044H
	DB	040H
	DB	04H
	DB	048H
	DB	044H
	DB	048H
	DB	00H
	DB	048H
	DB	044H
	DB	040H
	DB	04H
	DB	040H
	DB	044H
	DB	040H
	DB	04H
	DB	048H
	DB	044H
	DB	048H
	DB	04H
	DB	048H
	DB	044H
	DB	040H
	DB	04H
	DB	040H
	DB	044H
	DB	040H
	DB	04H
	DB	048H
	DB	044H
	DB	040H
	DB	00H
	DB	048H
	DB	044H
	DB	048H
	DB	04H
	DB	040H
	DB	044H
	DB	040H
	DB	04H
	DB	040H
	DB	044H
	DB	040H
	DB	00H
	DB	040H
	DB	044H
	DB	048H
	DB	04H
	DB	048H
	DB	044H
	DB	040H
	DB	04H
	DB	040H
	DB	044H
	DB	040H
	DB	00H
	DB	040H
	DB	044H
	DB	048H
	DB	04H
	DB	048H
	DB	044H
	DB	040H
	DB	04H
	DB	048H
	DB	044H
	DB	040H
	DB	00H
	DB	040H
	DB	044H
	DB	048H
	DB	00H
	DB	048H
	DB	044H
	DB	040H
	DB	04H
	DB	048H
	DB	044H
	DB	040H
	DB	04H
	DB	040H
	DB	044H
	DB	048H
	DB	04H
	DB	048H
	DB	044H
	DB	040H
	DB	04H
	DB	040H
	DB	044H
	DB	048H
	DB	00H
	DB	048H
	DB	044H
	DB	040H
	DB	04H
	DB	048H
	DB	044H
	DB	040H
	DB	04H
	DB	040H
	DB	044H
	DB	040H
	DB	04H
	DB	048H
	DB	044H
	DB	040H
	DB	00H
	DB	048H
	DB	044H
	DB	040H
	DB	04H
	DB	040H
	DB	044H
	DB	048H
	DB	04H
	DB	040H
	DB	044H
	DB	040H
	DB	04H
	DB	048H
	DB	044H
	DB	040H
	DB	04H
	DB	040H
	DB	044H
	DB	048H
	DB	04H
	DB	040H
	DB	044H
	DB	040H
	DB	00H
	DB	048H
	DB	044H
	DB	040H
	DB	04H
	DB	040H
	DB	044H
	DB	048H
	DB	00H
	DB	048H
	DB	044H
	DB	040H
	DB	04H
	DB	040H
	DB	044H
	DB	048H
	DB	04H
	DB	048H
	DB	044H
	DB	040H
	DB	00H
	DB	040H
	DB	044H
	DB	048H
	DB	04H
	DB	040H
	DB	044H
	DB	040H
	DB	04H
	DB	048H
	DB	044H
	DB	040H
	DB	04H
	DB	040H
	DB	044H
	DB	048H
	DB	00H
	DB	048H
	DB	044H
	DB	040H
	DB	04H
	DB	048H
	DB	044H
	DB	048H
	DB	04H
	DB	040H
	DB	044H
	DB	040H
	DB	04H
	DB	040H
	DB	044H
	DB	048H
	DB	00H
	DB	048H
	DB	044H
	DB	040H
	DB	04H
	DB	040H
	DB	044H
	DB	048H
	DB	04H
	DB	040H
	DB	044H
	DB	040H
	DB	00H
	DB	048H
	DB	044H
	DB	048H
	DB	04H
	DB	048H
	DB	044H
	DB	040H
	DB	00H
	DB	040H
	DB	044H
	DB	048H
	DB	04H
	DB	048H
	DB	044H
	DB	040H
	DB	04H
	DB	048H
	DB	044H
	DB	048H
	DB	00H
	DB	040H
	DB	044H
	DB	040H
	DB	04H
	DB	048H
	DB	044H
	DB	048H
	DB	04H
	DB	040H
	DB	044H
	DB	040H
	DB	00H
	DB	040H
	DB	044H
	DB	040H
	DB	04H
	DB	048H
	DB	044H
	DB	048H
	DB	04H
	DB	040H
	DB	044H
	DB	040H
	DB	04H
	DB	040H
	DB	044H
	DB	040H
	DB	04H
	DB	048H
	DB	044H
	DB	048H
	DB	04H
	DB	040H
	DB	044H
	DB	048H
	DB	00H
	DB	048H
	DB	044H
	DB	040H
	DB	04H
	DB	048H
	DB	044H
	DB	040H
	DB	04H
	DB	040H
	DB	044H
	DB	048H
	DB	00H
	DB	048H
	DB	044H
	DB	040H
	DB	04H
	DB	048H
	DB	044H
	DB	048H
	DB	04H
	DB	040H
	DB	044H
	DB	040H
	DB	04H
	DB	048H
	DB	044H
	DB	040H
	DB	00H
	DB	040H
	DB	044H
	DB	048H
	DB	04H
	DB	040H
	DB	044H
	DB	040H
	DB	04H
	DB	048H
	DB	044H
	DB	048H
	DB	00H
	DB	040H
	DB	044H
	DB	048H
	DB	04H
	DB	048H
	DB	044H
	DB	040H
	DB	04H
	DB	040H
	DB	044H
	DB	040H
	DB	00H
	DB	048H
	DB	044H
	DB	048H
	DB	00H
	DB	040H
	DB	044H
	DB	040H
	DB	04H
	DB	048H
	DB	044H
	DB	048H
	DB	04H
	DB	040H
	DB	044H
	DB	048H
	DB	04H
	DB	048H
	DB	044H
	DB	040H
	DB	00H
	DB	040H
	DB	044H
	DB	040H
	DB	04H
	DB	048H
	DB	044H
	DB	048H
	DB	04H
	DB	040H
	DB	044H
	DB	040H
	DB	04H
	DB	048H
	DB	044H
	DB	048H
	DB	00H
	DB	048H
	DB	044H
	DB	040H
	DB	04H
	DB	040H
	DB	044H
	DB	040H
	DB	04H
	DB	048H
	DB	044H
	DB	048H
	DB	04H
	DB	040H
	DB	044H
	DB	048H
	DB	04H
	DB	040H
	DB	044H
	DB	040H
	DB	00H
	DB	048H
	DB	044H
	DB	040H
	DB	04H
	DB	040H
	DB	044H
	DB	040H
	DB	04H
	DB	048H
	DB	044H
	DB	048H
	DB	04H
CONST	ENDS
END
