; Listing generated by Microsoft (R) Optimizing Compiler Version 19.31.31104.0 

	TITLE	F:\MyProject\STM32F769_Keyboard\TouchGFX\build\Debug\obj\image_cn_lift_bt_pre.obj
	.686P
	.XMM
	include listing.inc
	.model	flat

INCLUDELIB MSVCRTD
INCLUDELIB OLDNAMES

PUBLIC	?image_cn_lift_bt_pre@@3QBEB			; image_cn_lift_bt_pre
msvcjmc	SEGMENT
__4DF99823_Config@hpp DB 01H
__B6435E7B_image_cn_lift_bt_pre@cpp DB 01H
msvcjmc	ENDS
CONST	SEGMENT
?image_cn_lift_bt_pre@@3QBEB DB 0f8H			; image_cn_lift_bt_pre
	DB	0fcH
	DB	0f8H
	DB	00H
	DB	0f8H
	DB	0fcH
	DB	0f8H
	DB	00H
	DB	0f8H
	DB	0fcH
	DB	0f8H
	DB	00H
	DB	0f8H
	DB	0fcH
	DB	0f8H
	DB	00H
	DB	090H
	DB	090H
	DB	090H
	DB	028H
	DB	090H
	DB	094H
	DB	090H
	DB	08eH
	DB	098H
	DB	094H
	DB	098H
	DB	0d7H
	DB	098H
	DB	098H
	DB	098H
	DB	0f7H
	DB	098H
	DB	098H
	DB	098H
	DB	0ffH
	DB	098H
	DB	098H
	DB	098H
	DB	0ffH
	DB	098H
	DB	098H
	DB	098H
	DB	0ffH
	DB	098H
	DB	098H
	DB	098H
	DB	0ffH
	DB	098H
	DB	09cH
	DB	098H
	DB	0ffH
	DB	098H
	DB	098H
	DB	098H
	DB	0ffH
	DB	098H
	DB	098H
	DB	098H
	DB	0ffH
	DB	098H
	DB	09cH
	DB	098H
	DB	0ffH
	DB	098H
	DB	098H
	DB	098H
	DB	0ffH
	DB	098H
	DB	098H
	DB	098H
	DB	0ffH
	DB	098H
	DB	09cH
	DB	098H
	DB	0ffH
	DB	098H
	DB	098H
	DB	098H
	DB	0ffH
	DB	098H
	DB	098H
	DB	098H
	DB	0ffH
	DB	098H
	DB	09cH
	DB	098H
	DB	0ffH
	DB	098H
	DB	098H
	DB	098H
	DB	0ffH
	DB	098H
	DB	098H
	DB	098H
	DB	0ffH
	DB	098H
	DB	09cH
	DB	098H
	DB	0ffH
	DB	098H
	DB	098H
	DB	098H
	DB	0ffH
	DB	098H
	DB	098H
	DB	098H
	DB	0ffH
	DB	098H
	DB	09cH
	DB	098H
	DB	0ffH
	DB	098H
	DB	098H
	DB	098H
	DB	0ffH
	DB	098H
	DB	098H
	DB	098H
	DB	0ffH
	DB	098H
	DB	09cH
	DB	098H
	DB	0ffH
	DB	098H
	DB	098H
	DB	098H
	DB	0ffH
	DB	098H
	DB	098H
	DB	098H
	DB	0ffH
	DB	098H
	DB	09cH
	DB	098H
	DB	0ffH
	DB	098H
	DB	098H
	DB	098H
	DB	0ffH
	DB	098H
	DB	098H
	DB	098H
	DB	0ffH
	DB	098H
	DB	09cH
	DB	098H
	DB	0ffH
	DB	098H
	DB	098H
	DB	098H
	DB	0ffH
	DB	098H
	DB	098H
	DB	098H
	DB	0ffH
	DB	098H
	DB	09cH
	DB	098H
	DB	0ffH
	DB	098H
	DB	098H
	DB	098H
	DB	0ffH
	DB	098H
	DB	098H
	DB	098H
	DB	0ffH
	DB	098H
	DB	09cH
	DB	098H
	DB	0ffH
	DB	098H
	DB	098H
	DB	098H
	DB	0ffH
	DB	098H
	DB	098H
	DB	098H
	DB	0ffH
	DB	098H
	DB	09cH
	DB	098H
	DB	0ffH
	DB	098H
	DB	098H
	DB	098H
	DB	0ffH
	DB	098H
	DB	098H
	DB	098H
	DB	0ffH
	DB	098H
	DB	09cH
	DB	098H
	DB	0ffH
	DB	098H
	DB	098H
	DB	098H
	DB	0ffH
	DB	098H
	DB	098H
	DB	098H
	DB	0ffH
	DB	098H
	DB	09cH
	DB	098H
	DB	0ffH
	DB	098H
	DB	098H
	DB	098H
	DB	0ffH
	DB	098H
	DB	098H
	DB	098H
	DB	0ffH
	DB	098H
	DB	09cH
	DB	098H
	DB	0ffH
	DB	098H
	DB	098H
	DB	098H
	DB	0ffH
	DB	098H
	DB	098H
	DB	098H
	DB	0ffH
	DB	098H
	DB	09cH
	DB	098H
	DB	0ffH
	DB	098H
	DB	098H
	DB	098H
	DB	0ffH
	DB	098H
	DB	098H
	DB	098H
	DB	0ffH
	DB	098H
	DB	098H
	DB	098H
	DB	0ffH
	DB	098H
	DB	098H
	DB	098H
	DB	0ffH
	DB	098H
	DB	098H
	DB	098H
	DB	0f7H
	DB	098H
	DB	094H
	DB	098H
	DB	0d7H
	DB	090H
	DB	094H
	DB	090H
	DB	08eH
	DB	090H
	DB	090H
	DB	090H
	DB	028H
	DB	0f8H
	DB	0fcH
	DB	0f8H
	DB	00H
	DB	0f8H
	DB	0fcH
	DB	0f8H
	DB	00H
	DB	0f8H
	DB	0fcH
	DB	0f8H
	DB	00H
	DB	0f8H
	DB	0fcH
	DB	0f8H
	DB	00H
	DB	0f8H
	DB	0fcH
	DB	0f8H
	DB	00H
	DB	0f8H
	DB	0fcH
	DB	0f8H
	DB	00H
	DB	088H
	DB	084H
	DB	088H
	DB	04H
	DB	088H
	DB	088H
	DB	088H
	DB	096H
	DB	090H
	DB	090H
	DB	090H
	DB	0fbH
	DB	090H
	DB	090H
	DB	090H
	DB	0ffH
	DB	090H
	DB	094H
	DB	090H
	DB	0ffH
	DB	098H
	DB	098H
	DB	098H
	DB	0ffH
	DB	098H
	DB	098H
	DB	098H
	DB	0ffH
	DB	098H
	DB	098H
	DB	098H
	DB	0ffH
	DB	098H
	DB	098H
	DB	098H
	DB	0ffH
	DB	098H
	DB	098H
	DB	098H
	DB	0ffH
	DB	098H
	DB	098H
	DB	098H
	DB	0ffH
	DB	098H
	DB	098H
	DB	098H
	DB	0ffH
	DB	098H
	DB	098H
	DB	098H
	DB	0ffH
	DB	098H
	DB	098H
	DB	098H
	DB	0ffH
	DB	098H
	DB	098H
	DB	098H
	DB	0ffH
	DB	098H
	DB	098H
	DB	098H
	DB	0ffH
	DB	098H
	DB	098H
	DB	098H
	DB	0ffH
	DB	098H
	DB	098H
	DB	098H
	DB	0ffH
	DB	098H
	DB	098H
	DB	098H
	DB	0ffH
	DB	098H
	DB	098H
	DB	098H
	DB	0ffH
	DB	098H
	DB	098H
	DB	098H
	DB	0ffH
	DB	098H
	DB	098H
	DB	098H
	DB	0ffH
	DB	098H
	DB	098H
	DB	098H
	DB	0ffH
	DB	098H
	DB	098H
	DB	098H
	DB	0ffH
	DB	098H
	DB	098H
	DB	098H
	DB	0ffH
	DB	098H
	DB	098H
	DB	098H
	DB	0ffH
	DB	098H
	DB	098H
	DB	098H
	DB	0ffH
	DB	098H
	DB	098H
	DB	098H
	DB	0ffH
	DB	098H
	DB	098H
	DB	098H
	DB	0ffH
	DB	098H
	DB	098H
	DB	098H
	DB	0ffH
	DB	098H
	DB	098H
	DB	098H
	DB	0ffH
	DB	098H
	DB	098H
	DB	098H
	DB	0ffH
	DB	098H
	DB	098H
	DB	098H
	DB	0ffH
	DB	098H
	DB	098H
	DB	098H
	DB	0ffH
	DB	098H
	DB	098H
	DB	098H
	DB	0ffH
	DB	098H
	DB	098H
	DB	098H
	DB	0ffH
	DB	098H
	DB	098H
	DB	098H
	DB	0ffH
	DB	098H
	DB	098H
	DB	098H
	DB	0ffH
	DB	098H
	DB	098H
	DB	098H
	DB	0ffH
	DB	098H
	DB	098H
	DB	098H
	DB	0ffH
	DB	098H
	DB	098H
	DB	098H
	DB	0ffH
	DB	098H
	DB	098H
	DB	098H
	DB	0ffH
	DB	098H
	DB	098H
	DB	098H
	DB	0ffH
	DB	098H
	DB	098H
	DB	098H
	DB	0ffH
	DB	098H
	DB	098H
	DB	098H
	DB	0ffH
	DB	098H
	DB	098H
	DB	098H
	DB	0ffH
	DB	098H
	DB	098H
	DB	098H
	DB	0ffH
	DB	098H
	DB	098H
	DB	098H
	DB	0ffH
	DB	098H
	DB	098H
	DB	098H
	DB	0ffH
	DB	098H
	DB	098H
	DB	098H
	DB	0ffH
	DB	098H
	DB	098H
	DB	098H
	DB	0ffH
	DB	098H
	DB	098H
	DB	098H
	DB	0ffH
	DB	098H
	DB	098H
	DB	098H
	DB	0ffH
	DB	098H
	DB	098H
	DB	098H
	DB	0ffH
	DB	098H
	DB	098H
	DB	098H
	DB	0ffH
	DB	098H
	DB	098H
	DB	098H
	DB	0ffH
	DB	098H
	DB	098H
	DB	098H
	DB	0ffH
	DB	098H
	DB	098H
	DB	098H
	DB	0ffH
	DB	098H
	DB	098H
	DB	098H
	DB	0ffH
	DB	098H
	DB	098H
	DB	098H
	DB	0ffH
	DB	098H
	DB	098H
	DB	098H
	DB	0ffH
	DB	090H
	DB	094H
	DB	090H
	DB	0ffH
	DB	090H
	DB	090H
	DB	090H
	DB	0ffH
	DB	090H
	DB	090H
	DB	090H
	DB	0fbH
	DB	088H
	DB	088H
	DB	088H
	DB	09aH
	DB	088H
	DB	084H
	DB	088H
	DB	08H
	DB	0f8H
	DB	0fcH
	DB	0f8H
	DB	00H
	DB	0f8H
	DB	0fcH
	DB	0f8H
	DB	00H
	DB	0f8H
	DB	0fcH
	DB	0f8H
	DB	00H
	DB	080H
	DB	07cH
	DB	080H
	DB	04H
	DB	080H
	DB	084H
	DB	080H
	DB	0baH
	DB	088H
	DB	088H
	DB	088H
	DB	0ffH
	DB	088H
	DB	088H
	DB	088H
	DB	0ffH
	DB	090H
	DB	090H
	DB	090H
	DB	0ffH
	DB	090H
	DB	094H
	DB	090H
	DB	0ffH
	DB	098H
	DB	094H
	DB	098H
	DB	0ffH
	DB	098H
	DB	098H
	DB	098H
	DB	0ffH
	DB	098H
	DB	098H
	DB	098H
	DB	0ffH
	DB	098H
	DB	098H
	DB	098H
	DB	0ffH
	DB	098H
	DB	098H
	DB	098H
	DB	0ffH
	DB	098H
	DB	098H
	DB	098H
	DB	0ffH
	DB	098H
	DB	098H
	DB	098H
	DB	0ffH
	DB	098H
	DB	098H
	DB	098H
	DB	0ffH
	DB	098H
	DB	098H
	DB	098H
	DB	0ffH
	DB	098H
	DB	098H
	DB	098H
	DB	0ffH
	DB	098H
	DB	098H
	DB	098H
	DB	0ffH
	DB	098H
	DB	098H
	DB	098H
	DB	0ffH
	DB	098H
	DB	098H
	DB	098H
	DB	0ffH
	DB	098H
	DB	098H
	DB	098H
	DB	0ffH
	DB	098H
	DB	098H
	DB	098H
	DB	0ffH
	DB	098H
	DB	098H
	DB	098H
	DB	0ffH
	DB	098H
	DB	098H
	DB	098H
	DB	0ffH
	DB	098H
	DB	098H
	DB	098H
	DB	0ffH
	DB	098H
	DB	098H
	DB	098H
	DB	0ffH
	DB	098H
	DB	098H
	DB	098H
	DB	0ffH
	DB	098H
	DB	098H
	DB	098H
	DB	0ffH
	DB	098H
	DB	098H
	DB	098H
	DB	0ffH
	DB	098H
	DB	098H
	DB	098H
	DB	0ffH
	DB	098H
	DB	098H
	DB	098H
	DB	0ffH
	DB	098H
	DB	098H
	DB	098H
	DB	0ffH
	DB	098H
	DB	098H
	DB	098H
	DB	0ffH
	DB	098H
	DB	098H
	DB	098H
	DB	0ffH
	DB	098H
	DB	098H
	DB	098H
	DB	0ffH
	DB	098H
	DB	098H
	DB	098H
	DB	0ffH
	DB	098H
	DB	098H
	DB	098H
	DB	0ffH
	DB	098H
	DB	098H
	DB	098H
	DB	0ffH
	DB	098H
	DB	098H
	DB	098H
	DB	0ffH
	DB	098H
	DB	098H
	DB	098H
	DB	0ffH
	DB	098H
	DB	098H
	DB	098H
	DB	0ffH
	DB	098H
	DB	098H
	DB	098H
	DB	0ffH
	DB	098H
	DB	098H
	DB	098H
	DB	0ffH
	DB	098H
	DB	098H
	DB	098H
	DB	0ffH
	DB	098H
	DB	098H
	DB	098H
	DB	0ffH
	DB	098H
	DB	098H
	DB	098H
	DB	0ffH
	DB	098H
	DB	098H
	DB	098H
	DB	0ffH
	DB	098H
	DB	098H
	DB	098H
	DB	0ffH
	DB	098H
	DB	098H
	DB	098H
	DB	0ffH
	DB	098H
	DB	098H
	DB	098H
	DB	0ffH
	DB	098H
	DB	098H
	DB	098H
	DB	0ffH
	DB	098H
	DB	098H
	DB	098H
	DB	0ffH
	DB	098H
	DB	098H
	DB	098H
	DB	0ffH
	DB	098H
	DB	098H
	DB	098H
	DB	0ffH
	DB	098H
	DB	098H
	DB	098H
	DB	0ffH
	DB	098H
	DB	098H
	DB	098H
	DB	0ffH
	DB	098H
	DB	098H
	DB	098H
	DB	0ffH
	DB	098H
	DB	098H
	DB	098H
	DB	0ffH
	DB	098H
	DB	098H
	DB	098H
	DB	0ffH
	DB	098H
	DB	098H
	DB	098H
	DB	0ffH
	DB	098H
	DB	098H
	DB	098H
	DB	0ffH
	DB	098H
	DB	098H
	DB	098H
	DB	0ffH
	DB	098H
	DB	094H
	DB	098H
	DB	0ffH
	DB	090H
	DB	094H
	DB	090H
	DB	0ffH
	DB	090H
	DB	090H
	DB	090H
	DB	0ffH
	DB	088H
	DB	088H
	DB	088H
	DB	0ffH
	DB	088H
	DB	088H
	DB	088H
	DB	0ffH
	DB	080H
	DB	084H
	DB	080H
	DB	0beH
	DB	080H
	DB	07cH
	DB	080H
	DB	04H
	DB	0f8H
	DB	0fcH
	DB	0f8H
	DB	00H
	DB	0f8H
	DB	0fcH
	DB	0f8H
	DB	00H
	DB	078H
	DB	078H
	DB	078H
	DB	096H
	DB	080H
	DB	07cH
	DB	080H
	DB	0ffH
	DB	080H
	DB	084H
	DB	080H
	DB	0ffH
	DB	088H
	DB	088H
	DB	088H
	DB	0ffH
	DB	088H
	DB	08cH
	DB	088H
	DB	0ffH
	DB	090H
	DB	090H
	DB	090H
	DB	0ffH
	DB	090H
	DB	090H
	DB	090H
	DB	0ffH
	DB	090H
	DB	094H
	DB	090H
	DB	0ffH
	DB	090H
	DB	094H
	DB	090H
	DB	0ffH
	DB	098H
	DB	094H
	DB	098H
	DB	0ffH
	DB	090H
	DB	094H
	DB	090H
	DB	0ffH
	DB	098H
	DB	094H
	DB	098H
	DB	0ffH
	DB	090H
	DB	094H
	DB	090H
	DB	0ffH
	DB	098H
	DB	094H
	DB	098H
	DB	0ffH
	DB	098H
	DB	094H
	DB	098H
	DB	0ffH
	DB	090H
	DB	094H
	DB	090H
	DB	0ffH
	DB	098H
	DB	094H
	DB	098H
	DB	0ffH
	DB	090H
	DB	094H
	DB	090H
	DB	0ffH
	DB	098H
	DB	094H
	DB	098H
	DB	0ffH
	DB	098H
	DB	094H
	DB	098H
	DB	0ffH
	DB	090H
	DB	094H
	DB	090H
	DB	0ffH
	DB	098H
	DB	094H
	DB	098H
	DB	0ffH
	DB	090H
	DB	094H
	DB	090H
	DB	0ffH
	DB	098H
	DB	094H
	DB	098H
	DB	0ffH
	DB	098H
	DB	094H
	DB	098H
	DB	0ffH
	DB	090H
	DB	094H
	DB	090H
	DB	0ffH
	DB	098H
	DB	094H
	DB	098H
	DB	0ffH
	DB	090H
	DB	094H
	DB	090H
	DB	0ffH
	DB	098H
	DB	094H
	DB	098H
	DB	0ffH
	DB	098H
	DB	094H
	DB	098H
	DB	0ffH
	DB	090H
	DB	094H
	DB	090H
	DB	0ffH
	DB	098H
	DB	094H
	DB	098H
	DB	0ffH
	DB	090H
	DB	094H
	DB	090H
	DB	0ffH
	DB	098H
	DB	094H
	DB	098H
	DB	0ffH
	DB	098H
	DB	094H
	DB	098H
	DB	0ffH
	DB	090H
	DB	094H
	DB	090H
	DB	0ffH
	DB	098H
	DB	094H
	DB	098H
	DB	0ffH
	DB	090H
	DB	094H
	DB	090H
	DB	0ffH
	DB	098H
	DB	094H
	DB	098H
	DB	0ffH
	DB	098H
	DB	094H
	DB	098H
	DB	0ffH
	DB	090H
	DB	094H
	DB	090H
	DB	0ffH
	DB	098H
	DB	094H
	DB	098H
	DB	0ffH
	DB	090H
	DB	094H
	DB	090H
	DB	0ffH
	DB	098H
	DB	094H
	DB	098H
	DB	0ffH
	DB	098H
	DB	094H
	DB	098H
	DB	0ffH
	DB	090H
	DB	094H
	DB	090H
	DB	0ffH
	DB	098H
	DB	094H
	DB	098H
	DB	0ffH
	DB	090H
	DB	094H
	DB	090H
	DB	0ffH
	DB	098H
	DB	094H
	DB	098H
	DB	0ffH
	DB	098H
	DB	094H
	DB	098H
	DB	0ffH
	DB	090H
	DB	094H
	DB	090H
	DB	0ffH
	DB	098H
	DB	094H
	DB	098H
	DB	0ffH
	DB	090H
	DB	094H
	DB	090H
	DB	0ffH
	DB	098H
	DB	094H
	DB	098H
	DB	0ffH
	DB	098H
	DB	094H
	DB	098H
	DB	0ffH
	DB	090H
	DB	094H
	DB	090H
	DB	0ffH
	DB	098H
	DB	094H
	DB	098H
	DB	0ffH
	DB	090H
	DB	094H
	DB	090H
	DB	0ffH
	DB	098H
	DB	094H
	DB	098H
	DB	0ffH
	DB	090H
	DB	094H
	DB	090H
	DB	0ffH
	DB	090H
	DB	094H
	DB	090H
	DB	0ffH
	DB	090H
	DB	090H
	DB	090H
	DB	0ffH
	DB	090H
	DB	090H
	DB	090H
	DB	0ffH
	DB	090H
	DB	08cH
	DB	090H
	DB	0ffH
	DB	088H
	DB	088H
	DB	088H
	DB	0ffH
	DB	080H
	DB	080H
	DB	080H
	DB	0ffH
	DB	080H
	DB	07cH
	DB	080H
	DB	0ffH
	DB	078H
	DB	078H
	DB	078H
	DB	092H
	DB	0f8H
	DB	0fcH
	DB	0f8H
	DB	00H
	DB	070H
	DB	06cH
	DB	070H
	DB	02cH
	DB	070H
	DB	070H
	DB	070H
	DB	0fbH
	DB	078H
	DB	078H
	DB	078H
	DB	0ffH
	DB	078H
	DB	07cH
	DB	078H
	DB	0ffH
	DB	080H
	DB	080H
	DB	080H
	DB	0ffH
	DB	088H
	DB	088H
	DB	088H
	DB	0ffH
	DB	088H
	DB	088H
	DB	088H
	DB	0ffH
	DB	090H
	DB	08cH
	DB	090H
	DB	0ffH
	DB	090H
	DB	08cH
	DB	090H
	DB	0ffH
	DB	090H
	DB	08cH
	DB	090H
	DB	0ffH
	DB	090H
	DB	08cH
	DB	090H
	DB	0ffH
	DB	090H
	DB	08cH
	DB	090H
	DB	0ffH
	DB	090H
	DB	08cH
	DB	090H
	DB	0ffH
	DB	090H
	DB	08cH
	DB	090H
	DB	0ffH
	DB	088H
	DB	08cH
	DB	088H
	DB	0ffH
	DB	090H
	DB	08cH
	DB	090H
	DB	0ffH
	DB	090H
	DB	08cH
	DB	090H
	DB	0ffH
	DB	090H
	DB	08cH
	DB	090H
	DB	0ffH
	DB	090H
	DB	08cH
	DB	090H
	DB	0ffH
	DB	088H
	DB	08cH
	DB	088H
	DB	0ffH
	DB	090H
	DB	08cH
	DB	090H
	DB	0ffH
	DB	090H
	DB	08cH
	DB	090H
	DB	0ffH
	DB	090H
	DB	08cH
	DB	090H
	DB	0ffH
	DB	090H
	DB	08cH
	DB	090H
	DB	0ffH
	DB	088H
	DB	08cH
	DB	088H
	DB	0ffH
	DB	090H
	DB	08cH
	DB	090H
	DB	0ffH
	DB	090H
	DB	08cH
	DB	090H
	DB	0ffH
	DB	090H
	DB	08cH
	DB	090H
	DB	0ffH
	DB	090H
	DB	08cH
	DB	090H
	DB	0ffH
	DB	088H
	DB	08cH
	DB	088H
	DB	0ffH
	DB	090H
	DB	08cH
	DB	090H
	DB	0ffH
	DB	090H
	DB	08cH
	DB	090H
	DB	0ffH
	DB	090H
	DB	08cH
	DB	090H
	DB	0ffH
	DB	090H
	DB	08cH
	DB	090H
	DB	0ffH
	DB	088H
	DB	08cH
	DB	088H
	DB	0ffH
	DB	090H
	DB	08cH
	DB	090H
	DB	0ffH
	DB	090H
	DB	08cH
	DB	090H
	DB	0ffH
	DB	090H
	DB	08cH
	DB	090H
	DB	0ffH
	DB	090H
	DB	08cH
	DB	090H
	DB	0ffH
	DB	088H
	DB	08cH
	DB	088H
	DB	0ffH
	DB	090H
	DB	08cH
	DB	090H
	DB	0ffH
	DB	090H
	DB	08cH
	DB	090H
	DB	0ffH
	DB	090H
	DB	08cH
	DB	090H
	DB	0ffH
	DB	090H
	DB	08cH
	DB	090H
	DB	0ffH
	DB	088H
	DB	08cH
	DB	088H
	DB	0ffH
	DB	090H
	DB	08cH
	DB	090H
	DB	0ffH
	DB	090H
	DB	08cH
	DB	090H
	DB	0ffH
	DB	090H
	DB	08cH
	DB	090H
	DB	0ffH
	DB	090H
	DB	08cH
	DB	090H
	DB	0ffH
	DB	088H
	DB	08cH
	DB	088H
	DB	0ffH
	DB	090H
	DB	08cH
	DB	090H
	DB	0ffH
	DB	090H
	DB	08cH
	DB	090H
	DB	0ffH
	DB	090H
	DB	08cH
	DB	090H
	DB	0ffH
	DB	090H
	DB	08cH
	DB	090H
	DB	0ffH
	DB	088H
	DB	08cH
	DB	088H
	DB	0ffH
	DB	090H
	DB	08cH
	DB	090H
	DB	0ffH
	DB	090H
	DB	08cH
	DB	090H
	DB	0ffH
	DB	090H
	DB	08cH
	DB	090H
	DB	0ffH
	DB	090H
	DB	08cH
	DB	090H
	DB	0ffH
	DB	090H
	DB	08cH
	DB	090H
	DB	0ffH
	DB	090H
	DB	090H
	DB	090H
	DB	0ffH
	DB	090H
	DB	08cH
	DB	090H
	DB	0ffH
	DB	090H
	DB	08cH
	DB	090H
	DB	0ffH
	DB	088H
	DB	088H
	DB	088H
	DB	0ffH
	DB	088H
	DB	088H
	DB	088H
	DB	0ffH
	DB	080H
	DB	080H
	DB	080H
	DB	0ffH
	DB	078H
	DB	07cH
	DB	078H
	DB	0ffH
	DB	078H
	DB	078H
	DB	078H
	DB	0ffH
	DB	070H
	DB	074H
	DB	070H
	DB	0fbH
	DB	070H
	DB	06cH
	DB	070H
	DB	02cH
	DB	068H
	DB	064H
	DB	068H
	DB	08eH
	DB	068H
	DB	06cH
	DB	068H
	DB	0ffH
	DB	070H
	DB	070H
	DB	070H
	DB	0ffH
	DB	078H
	DB	074H
	DB	078H
	DB	0ffH
	DB	078H
	DB	07cH
	DB	078H
	DB	0ffH
	DB	080H
	DB	080H
	DB	080H
	DB	0ffH
	DB	088H
	DB	084H
	DB	088H
	DB	0ffH
	DB	088H
	DB	088H
	DB	088H
	DB	0ffH
	DB	088H
	DB	088H
	DB	088H
	DB	0ffH
	DB	088H
	DB	088H
	DB	088H
	DB	0ffH
	DB	080H
	DB	084H
	DB	080H
	DB	0ffH
	DB	088H
	DB	084H
	DB	088H
	DB	0ffH
	DB	080H
	DB	084H
	DB	080H
	DB	0ffH
	DB	088H
	DB	084H
	DB	088H
	DB	0ffH
	DB	088H
	DB	084H
	DB	088H
	DB	0ffH
	DB	080H
	DB	084H
	DB	080H
	DB	0ffH
	DB	080H
	DB	084H
	DB	080H
	DB	0ffH
	DB	088H
	DB	084H
	DB	088H
	DB	0ffH
	DB	080H
	DB	084H
	DB	080H
	DB	0ffH
	DB	088H
	DB	084H
	DB	088H
	DB	0ffH
	DB	080H
	DB	084H
	DB	080H
	DB	0ffH
	DB	080H
	DB	084H
	DB	080H
	DB	0ffH
	DB	088H
	DB	084H
	DB	088H
	DB	0ffH
	DB	080H
	DB	084H
	DB	080H
	DB	0ffH
	DB	088H
	DB	084H
	DB	088H
	DB	0ffH
	DB	080H
	DB	084H
	DB	080H
	DB	0ffH
	DB	080H
	DB	084H
	DB	080H
	DB	0ffH
	DB	088H
	DB	084H
	DB	088H
	DB	0ffH
	DB	080H
	DB	084H
	DB	080H
	DB	0ffH
	DB	088H
	DB	084H
	DB	088H
	DB	0ffH
	DB	080H
	DB	084H
	DB	080H
	DB	0ffH
	DB	080H
	DB	084H
	DB	080H
	DB	0ffH
	DB	088H
	DB	084H
	DB	088H
	DB	0ffH
	DB	080H
	DB	084H
	DB	080H
	DB	0ffH
	DB	088H
	DB	084H
	DB	088H
	DB	0ffH
	DB	080H
	DB	084H
	DB	080H
	DB	0ffH
	DB	080H
	DB	084H
	DB	080H
	DB	0ffH
	DB	088H
	DB	084H
	DB	088H
	DB	0ffH
	DB	080H
	DB	084H
	DB	080H
	DB	0ffH
	DB	088H
	DB	084H
	DB	088H
	DB	0ffH
	DB	080H
	DB	084H
	DB	080H
	DB	0ffH
	DB	080H
	DB	084H
	DB	080H
	DB	0ffH
	DB	088H
	DB	084H
	DB	088H
	DB	0ffH
	DB	080H
	DB	084H
	DB	080H
	DB	0ffH
	DB	088H
	DB	084H
	DB	088H
	DB	0ffH
	DB	080H
	DB	084H
	DB	080H
	DB	0ffH
	DB	080H
	DB	084H
	DB	080H
	DB	0ffH
	DB	088H
	DB	084H
	DB	088H
	DB	0ffH
	DB	080H
	DB	084H
	DB	080H
	DB	0ffH
	DB	088H
	DB	084H
	DB	088H
	DB	0ffH
	DB	080H
	DB	084H
	DB	080H
	DB	0ffH
	DB	080H
	DB	084H
	DB	080H
	DB	0ffH
	DB	088H
	DB	084H
	DB	088H
	DB	0ffH
	DB	080H
	DB	084H
	DB	080H
	DB	0ffH
	DB	088H
	DB	084H
	DB	088H
	DB	0ffH
	DB	080H
	DB	084H
	DB	080H
	DB	0ffH
	DB	088H
	DB	084H
	DB	088H
	DB	0ffH
	DB	080H
	DB	084H
	DB	080H
	DB	0ffH
	DB	088H
	DB	084H
	DB	088H
	DB	0ffH
	DB	080H
	DB	084H
	DB	080H
	DB	0ffH
	DB	088H
	DB	088H
	DB	088H
	DB	0ffH
	DB	088H
	DB	088H
	DB	088H
	DB	0ffH
	DB	088H
	DB	088H
	DB	088H
	DB	0ffH
	DB	080H
	DB	084H
	DB	080H
	DB	0ffH
	DB	080H
	DB	080H
	DB	080H
	DB	0ffH
	DB	078H
	DB	07cH
	DB	078H
	DB	0ffH
	DB	078H
	DB	078H
	DB	078H
	DB	0ffH
	DB	070H
	DB	070H
	DB	070H
	DB	0ffH
	DB	068H
	DB	06cH
	DB	068H
	DB	0ffH
	DB	068H
	DB	064H
	DB	068H
	DB	08eH
	DB	060H
	DB	060H
	DB	060H
	DB	0d7H
	DB	068H
	DB	064H
	DB	068H
	DB	0ffH
	DB	068H
	DB	06cH
	DB	068H
	DB	0ffH
	DB	070H
	DB	070H
	DB	070H
	DB	0ffH
	DB	078H
	DB	074H
	DB	078H
	DB	0ffH
	DB	078H
	DB	078H
	DB	078H
	DB	0ffH
	DB	078H
	DB	07cH
	DB	078H
	DB	0ffH
	DB	080H
	DB	07cH
	DB	080H
	DB	0ffH
	DB	078H
	DB	07cH
	DB	078H
	DB	0ffH
	DB	078H
	DB	07cH
	DB	078H
	DB	0ffH
	DB	078H
	DB	078H
	DB	078H
	DB	0ffH
	DB	078H
	DB	07cH
	DB	078H
	DB	0ffH
	DB	078H
	DB	07cH
	DB	078H
	DB	0ffH
	DB	078H
	DB	078H
	DB	078H
	DB	0ffH
	DB	078H
	DB	078H
	DB	078H
	DB	0ffH
	DB	078H
	DB	078H
	DB	078H
	DB	0ffH
	DB	078H
	DB	078H
	DB	078H
	DB	0ffH
	DB	078H
	DB	078H
	DB	078H
	DB	0ffH
	DB	078H
	DB	078H
	DB	078H
	DB	0ffH
	DB	078H
	DB	078H
	DB	078H
	DB	0ffH
	DB	078H
	DB	078H
	DB	078H
	DB	0ffH
	DB	078H
	DB	078H
	DB	078H
	DB	0ffH
	DB	078H
	DB	078H
	DB	078H
	DB	0ffH
	DB	078H
	DB	078H
	DB	078H
	DB	0ffH
	DB	078H
	DB	078H
	DB	078H
	DB	0ffH
	DB	078H
	DB	078H
	DB	078H
	DB	0ffH
	DB	078H
	DB	078H
	DB	078H
	DB	0ffH
	DB	078H
	DB	078H
	DB	078H
	DB	0ffH
	DB	078H
	DB	078H
	DB	078H
	DB	0ffH
	DB	078H
	DB	078H
	DB	078H
	DB	0ffH
	DB	078H
	DB	078H
	DB	078H
	DB	0ffH
	DB	078H
	DB	078H
	DB	078H
	DB	0ffH
	DB	078H
	DB	078H
	DB	078H
	DB	0ffH
	DB	078H
	DB	078H
	DB	078H
	DB	0ffH
	DB	078H
	DB	078H
	DB	078H
	DB	0ffH
	DB	078H
	DB	078H
	DB	078H
	DB	0ffH
	DB	078H
	DB	078H
	DB	078H
	DB	0ffH
	DB	078H
	DB	078H
	DB	078H
	DB	0ffH
	DB	078H
	DB	078H
	DB	078H
	DB	0ffH
	DB	078H
	DB	078H
	DB	078H
	DB	0ffH
	DB	078H
	DB	078H
	DB	078H
	DB	0ffH
	DB	078H
	DB	078H
	DB	078H
	DB	0ffH
	DB	078H
	DB	078H
	DB	078H
	DB	0ffH
	DB	078H
	DB	078H
	DB	078H
	DB	0ffH
	DB	078H
	DB	078H
	DB	078H
	DB	0ffH
	DB	078H
	DB	078H
	DB	078H
	DB	0ffH
	DB	078H
	DB	078H
	DB	078H
	DB	0ffH
	DB	078H
	DB	078H
	DB	078H
	DB	0ffH
	DB	078H
	DB	078H
	DB	078H
	DB	0ffH
	DB	078H
	DB	078H
	DB	078H
	DB	0ffH
	DB	078H
	DB	078H
	DB	078H
	DB	0ffH
	DB	078H
	DB	078H
	DB	078H
	DB	0ffH
	DB	078H
	DB	078H
	DB	078H
	DB	0ffH
	DB	078H
	DB	078H
	DB	078H
	DB	0ffH
	DB	078H
	DB	078H
	DB	078H
	DB	0ffH
	DB	078H
	DB	078H
	DB	078H
	DB	0ffH
	DB	078H
	DB	078H
	DB	078H
	DB	0ffH
	DB	078H
	DB	07cH
	DB	078H
	DB	0ffH
	DB	078H
	DB	07cH
	DB	078H
	DB	0ffH
	DB	078H
	DB	078H
	DB	078H
	DB	0ffH
	DB	078H
	DB	07cH
	DB	078H
	DB	0ffH
	DB	078H
	DB	07cH
	DB	078H
	DB	0ffH
	DB	080H
	DB	07cH
	DB	080H
	DB	0ffH
	DB	078H
	DB	07cH
	DB	078H
	DB	0ffH
	DB	078H
	DB	078H
	DB	078H
	DB	0ffH
	DB	078H
	DB	074H
	DB	078H
	DB	0ffH
	DB	070H
	DB	070H
	DB	070H
	DB	0ffH
	DB	068H
	DB	068H
	DB	068H
	DB	0ffH
	DB	068H
	DB	064H
	DB	068H
	DB	0ffH
	DB	060H
	DB	060H
	DB	060H
	DB	0d7H
	DB	058H
	DB	058H
	DB	058H
	DB	0f7H
	DB	060H
	DB	060H
	DB	060H
	DB	0ffH
	DB	060H
	DB	060H
	DB	060H
	DB	0ffH
	DB	068H
	DB	064H
	DB	068H
	DB	0ffH
	DB	068H
	DB	06cH
	DB	068H
	DB	0ffH
	DB	070H
	DB	06cH
	DB	070H
	DB	0ffH
	DB	070H
	DB	070H
	DB	070H
	DB	0ffH
	DB	070H
	DB	070H
	DB	070H
	DB	0ffH
	DB	070H
	DB	06cH
	DB	070H
	DB	0ffH
	DB	068H
	DB	06cH
	DB	068H
	DB	0ffH
	DB	068H
	DB	06cH
	DB	068H
	DB	0ffH
	DB	068H
	DB	068H
	DB	068H
	DB	0ffH
	DB	068H
	DB	068H
	DB	068H
	DB	0ffH
	DB	068H
	DB	068H
	DB	068H
	DB	0ffH
	DB	068H
	DB	068H
	DB	068H
	DB	0ffH
	DB	068H
	DB	068H
	DB	068H
	DB	0ffH
	DB	068H
	DB	068H
	DB	068H
	DB	0ffH
	DB	068H
	DB	068H
	DB	068H
	DB	0ffH
	DB	068H
	DB	068H
	DB	068H
	DB	0ffH
	DB	068H
	DB	068H
	DB	068H
	DB	0ffH
	DB	068H
	DB	068H
	DB	068H
	DB	0ffH
	DB	068H
	DB	068H
	DB	068H
	DB	0ffH
	DB	068H
	DB	068H
	DB	068H
	DB	0ffH
	DB	068H
	DB	068H
	DB	068H
	DB	0ffH
	DB	068H
	DB	068H
	DB	068H
	DB	0ffH
	DB	068H
	DB	068H
	DB	068H
	DB	0ffH
	DB	068H
	DB	068H
	DB	068H
	DB	0ffH
	DB	068H
	DB	068H
	DB	068H
	DB	0ffH
	DB	068H
	DB	068H
	DB	068H
	DB	0ffH
	DB	068H
	DB	068H
	DB	068H
	DB	0ffH
	DB	068H
	DB	068H
	DB	068H
	DB	0ffH
	DB	068H
	DB	068H
	DB	068H
	DB	0ffH
	DB	068H
	DB	068H
	DB	068H
	DB	0ffH
	DB	068H
	DB	068H
	DB	068H
	DB	0ffH
	DB	068H
	DB	068H
	DB	068H
	DB	0ffH
	DB	068H
	DB	068H
	DB	068H
	DB	0ffH
	DB	068H
	DB	068H
	DB	068H
	DB	0ffH
	DB	068H
	DB	068H
	DB	068H
	DB	0ffH
	DB	068H
	DB	068H
	DB	068H
	DB	0ffH
	DB	068H
	DB	068H
	DB	068H
	DB	0ffH
	DB	068H
	DB	068H
	DB	068H
	DB	0ffH
	DB	068H
	DB	068H
	DB	068H
	DB	0ffH
	DB	068H
	DB	068H
	DB	068H
	DB	0ffH
	DB	068H
	DB	068H
	DB	068H
	DB	0ffH
	DB	068H
	DB	068H
	DB	068H
	DB	0ffH
	DB	068H
	DB	068H
	DB	068H
	DB	0ffH
	DB	068H
	DB	068H
	DB	068H
	DB	0ffH
	DB	068H
	DB	068H
	DB	068H
	DB	0ffH
	DB	068H
	DB	068H
	DB	068H
	DB	0ffH
	DB	068H
	DB	068H
	DB	068H
	DB	0ffH
	DB	068H
	DB	068H
	DB	068H
	DB	0ffH
	DB	068H
	DB	068H
	DB	068H
	DB	0ffH
	DB	068H
	DB	068H
	DB	068H
	DB	0ffH
	DB	068H
	DB	068H
	DB	068H
	DB	0ffH
	DB	068H
	DB	068H
	DB	068H
	DB	0ffH
	DB	068H
	DB	068H
	DB	068H
	DB	0ffH
	DB	068H
	DB	068H
	DB	068H
	DB	0ffH
	DB	068H
	DB	068H
	DB	068H
	DB	0ffH
	DB	068H
	DB	068H
	DB	068H
	DB	0ffH
	DB	068H
	DB	06cH
	DB	068H
	DB	0ffH
	DB	068H
	DB	06cH
	DB	068H
	DB	0ffH
	DB	070H
	DB	06cH
	DB	070H
	DB	0ffH
	DB	070H
	DB	070H
	DB	070H
	DB	0ffH
	DB	070H
	DB	070H
	DB	070H
	DB	0ffH
	DB	070H
	DB	06cH
	DB	070H
	DB	0ffH
	DB	068H
	DB	068H
	DB	068H
	DB	0ffH
	DB	068H
	DB	064H
	DB	068H
	DB	0ffH
	DB	060H
	DB	064H
	DB	060H
	DB	0ffH
	DB	060H
	DB	05cH
	DB	060H
	DB	0ffH
	DB	058H
	DB	05cH
	DB	058H
	DB	0fbH
	DB	058H
	DB	058H
	DB	058H
	DB	0ffH
	DB	058H
	DB	058H
	DB	058H
	DB	0ffH
	DB	058H
	DB	05cH
	DB	058H
	DB	0ffH
	DB	060H
	DB	05cH
	DB	060H
	DB	0ffH
	DB	060H
	DB	060H
	DB	060H
	DB	0ffH
	DB	060H
	DB	064H
	DB	060H
	DB	0ffH
	DB	068H
	DB	064H
	DB	068H
	DB	0ffH
	DB	068H
	DB	064H
	DB	068H
	DB	0ffH
	DB	060H
	DB	064H
	DB	060H
	DB	0ffH
	DB	060H
	DB	060H
	DB	060H
	DB	0ffH
	DB	060H
	DB	060H
	DB	060H
	DB	0ffH
	DB	060H
	DB	060H
	DB	060H
	DB	0ffH
	DB	060H
	DB	060H
	DB	060H
	DB	0ffH
	DB	060H
	DB	060H
	DB	060H
	DB	0ffH
	DB	060H
	DB	060H
	DB	060H
	DB	0ffH
	DB	060H
	DB	060H
	DB	060H
	DB	0ffH
	DB	060H
	DB	060H
	DB	060H
	DB	0ffH
	DB	060H
	DB	060H
	DB	060H
	DB	0ffH
	DB	060H
	DB	060H
	DB	060H
	DB	0ffH
	DB	060H
	DB	060H
	DB	060H
	DB	0ffH
	DB	060H
	DB	060H
	DB	060H
	DB	0ffH
	DB	060H
	DB	060H
	DB	060H
	DB	0ffH
	DB	060H
	DB	060H
	DB	060H
	DB	0ffH
	DB	060H
	DB	060H
	DB	060H
	DB	0ffH
	DB	060H
	DB	060H
	DB	060H
	DB	0ffH
	DB	060H
	DB	060H
	DB	060H
	DB	0ffH
	DB	060H
	DB	060H
	DB	060H
	DB	0ffH
	DB	060H
	DB	060H
	DB	060H
	DB	0ffH
	DB	060H
	DB	060H
	DB	060H
	DB	0ffH
	DB	060H
	DB	060H
	DB	060H
	DB	0ffH
	DB	060H
	DB	060H
	DB	060H
	DB	0ffH
	DB	060H
	DB	060H
	DB	060H
	DB	0ffH
	DB	060H
	DB	060H
	DB	060H
	DB	0ffH
	DB	060H
	DB	060H
	DB	060H
	DB	0ffH
	DB	060H
	DB	060H
	DB	060H
	DB	0ffH
	DB	060H
	DB	060H
	DB	060H
	DB	0ffH
	DB	060H
	DB	060H
	DB	060H
	DB	0ffH
	DB	060H
	DB	060H
	DB	060H
	DB	0ffH
	DB	060H
	DB	060H
	DB	060H
	DB	0ffH
	DB	060H
	DB	060H
	DB	060H
	DB	0ffH
	DB	060H
	DB	060H
	DB	060H
	DB	0ffH
	DB	060H
	DB	060H
	DB	060H
	DB	0ffH
	DB	060H
	DB	060H
	DB	060H
	DB	0ffH
	DB	060H
	DB	060H
	DB	060H
	DB	0ffH
	DB	060H
	DB	060H
	DB	060H
	DB	0ffH
	DB	060H
	DB	060H
	DB	060H
	DB	0ffH
	DB	060H
	DB	060H
	DB	060H
	DB	0ffH
	DB	060H
	DB	060H
	DB	060H
	DB	0ffH
	DB	060H
	DB	060H
	DB	060H
	DB	0ffH
	DB	060H
	DB	060H
	DB	060H
	DB	0ffH
	DB	060H
	DB	060H
	DB	060H
	DB	0ffH
	DB	060H
	DB	060H
	DB	060H
	DB	0ffH
	DB	060H
	DB	060H
	DB	060H
	DB	0ffH
	DB	060H
	DB	060H
	DB	060H
	DB	0ffH
	DB	060H
	DB	060H
	DB	060H
	DB	0ffH
	DB	060H
	DB	060H
	DB	060H
	DB	0ffH
	DB	060H
	DB	060H
	DB	060H
	DB	0ffH
	DB	060H
	DB	060H
	DB	060H
	DB	0ffH
	DB	060H
	DB	060H
	DB	060H
	DB	0ffH
	DB	060H
	DB	060H
	DB	060H
	DB	0ffH
	DB	060H
	DB	060H
	DB	060H
	DB	0ffH
	DB	068H
	DB	064H
	DB	068H
	DB	0ffH
	DB	068H
	DB	064H
	DB	068H
	DB	0ffH
	DB	068H
	DB	064H
	DB	068H
	DB	0ffH
	DB	060H
	DB	064H
	DB	060H
	DB	0ffH
	DB	060H
	DB	060H
	DB	060H
	DB	0ffH
	DB	060H
	DB	060H
	DB	060H
	DB	0ffH
	DB	058H
	DB	05cH
	DB	058H
	DB	0ffH
	DB	058H
	DB	058H
	DB	058H
	DB	0ffH
	DB	058H
	DB	054H
	DB	058H
	DB	0ffH
	DB	050H
	DB	050H
	DB	050H
	DB	0ffH
	DB	050H
	DB	054H
	DB	050H
	DB	0ffH
	DB	058H
	DB	058H
	DB	058H
	DB	0ffH
	DB	058H
	DB	05cH
	DB	058H
	DB	0ffH
	DB	060H
	DB	05cH
	DB	060H
	DB	0ffH
	DB	060H
	DB	060H
	DB	060H
	DB	0ffH
	DB	060H
	DB	060H
	DB	060H
	DB	0ffH
	DB	060H
	DB	064H
	DB	060H
	DB	0ffH
	DB	060H
	DB	060H
	DB	060H
	DB	0ffH
	DB	060H
	DB	060H
	DB	060H
	DB	0ffH
	DB	060H
	DB	060H
	DB	060H
	DB	0ffH
	DB	060H
	DB	060H
	DB	060H
	DB	0ffH
	DB	060H
	DB	060H
	DB	060H
	DB	0ffH
	DB	060H
	DB	060H
	DB	060H
	DB	0ffH
	DB	060H
	DB	060H
	DB	060H
	DB	0ffH
	DB	060H
	DB	060H
	DB	060H
	DB	0ffH
	DB	060H
	DB	060H
	DB	060H
	DB	0ffH
	DB	060H
	DB	060H
	DB	060H
	DB	0ffH
	DB	060H
	DB	060H
	DB	060H
	DB	0ffH
	DB	060H
	DB	060H
	DB	060H
	DB	0ffH
	DB	060H
	DB	060H
	DB	060H
	DB	0ffH
	DB	060H
	DB	060H
	DB	060H
	DB	0ffH
	DB	060H
	DB	060H
	DB	060H
	DB	0ffH
	DB	060H
	DB	060H
	DB	060H
	DB	0ffH
	DB	060H
	DB	060H
	DB	060H
	DB	0ffH
	DB	060H
	DB	060H
	DB	060H
	DB	0ffH
	DB	060H
	DB	060H
	DB	060H
	DB	0ffH
	DB	060H
	DB	060H
	DB	060H
	DB	0ffH
	DB	060H
	DB	060H
	DB	060H
	DB	0ffH
	DB	060H
	DB	060H
	DB	060H
	DB	0ffH
	DB	060H
	DB	060H
	DB	060H
	DB	0ffH
	DB	060H
	DB	060H
	DB	060H
	DB	0ffH
	DB	060H
	DB	060H
	DB	060H
	DB	0ffH
	DB	060H
	DB	060H
	DB	060H
	DB	0ffH
	DB	060H
	DB	060H
	DB	060H
	DB	0ffH
	DB	060H
	DB	060H
	DB	060H
	DB	0ffH
	DB	060H
	DB	060H
	DB	060H
	DB	0ffH
	DB	060H
	DB	060H
	DB	060H
	DB	0ffH
	DB	060H
	DB	060H
	DB	060H
	DB	0ffH
	DB	060H
	DB	060H
	DB	060H
	DB	0ffH
	DB	060H
	DB	060H
	DB	060H
	DB	0ffH
	DB	060H
	DB	060H
	DB	060H
	DB	0ffH
	DB	060H
	DB	060H
	DB	060H
	DB	0ffH
	DB	060H
	DB	060H
	DB	060H
	DB	0ffH
	DB	060H
	DB	060H
	DB	060H
	DB	0ffH
	DB	060H
	DB	060H
	DB	060H
	DB	0ffH
	DB	060H
	DB	060H
	DB	060H
	DB	0ffH
	DB	060H
	DB	060H
	DB	060H
	DB	0ffH
	DB	060H
	DB	060H
	DB	060H
	DB	0ffH
	DB	060H
	DB	060H
	DB	060H
	DB	0ffH
	DB	060H
	DB	060H
	DB	060H
	DB	0ffH
	DB	060H
	DB	060H
	DB	060H
	DB	0ffH
	DB	060H
	DB	060H
	DB	060H
	DB	0ffH
	DB	060H
	DB	060H
	DB	060H
	DB	0ffH
	DB	060H
	DB	060H
	DB	060H
	DB	0ffH
	DB	060H
	DB	060H
	DB	060H
	DB	0ffH
	DB	060H
	DB	060H
	DB	060H
	DB	0ffH
	DB	060H
	DB	060H
	DB	060H
	DB	0ffH
	DB	060H
	DB	060H
	DB	060H
	DB	0ffH
	DB	060H
	DB	060H
	DB	060H
	DB	0ffH
	DB	060H
	DB	060H
	DB	060H
	DB	0ffH
	DB	060H
	DB	060H
	DB	060H
	DB	0ffH
	DB	060H
	DB	064H
	DB	060H
	DB	0ffH
	DB	060H
	DB	060H
	DB	060H
	DB	0ffH
	DB	060H
	DB	060H
	DB	060H
	DB	0ffH
	DB	060H
	DB	05cH
	DB	060H
	DB	0ffH
	DB	058H
	DB	05cH
	DB	058H
	DB	0ffH
	DB	058H
	DB	058H
	DB	058H
	DB	0ffH
	DB	050H
	DB	054H
	DB	050H
	DB	0ffH
	DB	050H
	DB	050H
	DB	050H
	DB	0ffH
	DB	050H
	DB	050H
	DB	050H
	DB	0ffH
	DB	050H
	DB	050H
	DB	050H
	DB	0ffH
	DB	058H
	DB	054H
	DB	058H
	DB	0ffH
	DB	058H
	DB	058H
	DB	058H
	DB	0ffH
	DB	058H
	DB	05cH
	DB	058H
	DB	0ffH
	DB	060H
	DB	05cH
	DB	060H
	DB	0ffH
	DB	060H
	DB	060H
	DB	060H
	DB	0ffH
	DB	060H
	DB	060H
	DB	060H
	DB	0ffH
	DB	060H
	DB	060H
	DB	060H
	DB	0ffH
	DB	060H
	DB	060H
	DB	060H
	DB	0ffH
	DB	060H
	DB	060H
	DB	060H
	DB	0ffH
	DB	060H
	DB	060H
	DB	060H
	DB	0ffH
	DB	060H
	DB	05cH
	DB	060H
	DB	0ffH
	DB	060H
	DB	060H
	DB	060H
	DB	0ffH
	DB	060H
	DB	060H
	DB	060H
	DB	0ffH
	DB	060H
	DB	05cH
	DB	060H
	DB	0ffH
	DB	060H
	DB	060H
	DB	060H
	DB	0ffH
	DB	060H
	DB	060H
	DB	060H
	DB	0ffH
	DB	060H
	DB	060H
	DB	060H
	DB	0ffH
	DB	060H
	DB	060H
	DB	060H
	DB	0ffH
	DB	060H
	DB	05cH
	DB	060H
	DB	0ffH
	DB	060H
	DB	060H
	DB	060H
	DB	0ffH
	DB	060H
	DB	060H
	DB	060H
	DB	0ffH
	DB	060H
	DB	060H
	DB	060H
	DB	0ffH
	DB	060H
	DB	060H
	DB	060H
	DB	0ffH
	DB	060H
	DB	05cH
	DB	060H
	DB	0ffH
	DB	060H
	DB	060H
	DB	060H
	DB	0ffH
	DB	060H
	DB	060H
	DB	060H
	DB	0ffH
	DB	060H
	DB	060H
	DB	060H
	DB	0ffH
	DB	060H
	DB	05cH
	DB	060H
	DB	0ffH
	DB	060H
	DB	060H
	DB	060H
	DB	0ffH
	DB	060H
	DB	060H
	DB	060H
	DB	0ffH
	DB	060H
	DB	060H
	DB	060H
	DB	0ffH
	DB	060H
	DB	05cH
	DB	060H
	DB	0ffH
	DB	060H
	DB	060H
	DB	060H
	DB	0ffH
	DB	060H
	DB	060H
	DB	060H
	DB	0ffH
	DB	060H
	DB	060H
	DB	060H
	DB	0ffH
	DB	060H
	DB	05cH
	DB	060H
	DB	0ffH
	DB	060H
	DB	060H
	DB	060H
	DB	0ffH
	DB	060H
	DB	060H
	DB	060H
	DB	0ffH
	DB	060H
	DB	060H
	DB	060H
	DB	0ffH
	DB	060H
	DB	05cH
	DB	060H
	DB	0ffH
	DB	060H
	DB	060H
	DB	060H
	DB	0ffH
	DB	060H
	DB	060H
	DB	060H
	DB	0ffH
	DB	060H
	DB	060H
	DB	060H
	DB	0ffH
	DB	060H
	DB	05cH
	DB	060H
	DB	0ffH
	DB	060H
	DB	060H
	DB	060H
	DB	0ffH
	DB	060H
	DB	060H
	DB	060H
	DB	0ffH
	DB	060H
	DB	060H
	DB	060H
	DB	0ffH
	DB	060H
	DB	05cH
	DB	060H
	DB	0ffH
	DB	060H
	DB	060H
	DB	060H
	DB	0ffH
	DB	060H
	DB	060H
	DB	060H
	DB	0ffH
	DB	060H
	DB	060H
	DB	060H
	DB	0ffH
	DB	060H
	DB	060H
	DB	060H
	DB	0ffH
	DB	060H
	DB	05cH
	DB	060H
	DB	0ffH
	DB	060H
	DB	060H
	DB	060H
	DB	0ffH
	DB	060H
	DB	060H
	DB	060H
	DB	0ffH
	DB	060H
	DB	05cH
	DB	060H
	DB	0ffH
	DB	060H
	DB	060H
	DB	060H
	DB	0ffH
	DB	060H
	DB	060H
	DB	060H
	DB	0ffH
	DB	060H
	DB	060H
	DB	060H
	DB	0ffH
	DB	060H
	DB	060H
	DB	060H
	DB	0ffH
	DB	060H
	DB	060H
	DB	060H
	DB	0ffH
	DB	060H
	DB	060H
	DB	060H
	DB	0ffH
	DB	060H
	DB	05cH
	DB	060H
	DB	0ffH
	DB	058H
	DB	05cH
	DB	058H
	DB	0ffH
	DB	058H
	DB	058H
	DB	058H
	DB	0ffH
	DB	058H
	DB	054H
	DB	058H
	DB	0ffH
	DB	050H
	DB	050H
	DB	050H
	DB	0ffH
	DB	050H
	DB	050H
	DB	050H
	DB	0ffH
	DB	050H
	DB	04cH
	DB	050H
	DB	0ffH
	DB	050H
	DB	050H
	DB	050H
	DB	0ffH
	DB	050H
	DB	050H
	DB	050H
	DB	0ffH
	DB	058H
	DB	054H
	DB	058H
	DB	0ffH
	DB	058H
	DB	058H
	DB	058H
	DB	0ffH
	DB	058H
	DB	05cH
	DB	058H
	DB	0ffH
	DB	060H
	DB	060H
	DB	060H
	DB	0ffH
	DB	060H
	DB	060H
	DB	060H
	DB	0ffH
	DB	060H
	DB	060H
	DB	060H
	DB	0ffH
	DB	060H
	DB	060H
	DB	060H
	DB	0ffH
	DB	060H
	DB	05cH
	DB	060H
	DB	0ffH
	DB	060H
	DB	060H
	DB	060H
	DB	0ffH
	DB	060H
	DB	060H
	DB	060H
	DB	0ffH
	DB	060H
	DB	05cH
	DB	060H
	DB	0ffH
	DB	060H
	DB	060H
	DB	060H
	DB	0ffH
	DB	060H
	DB	060H
	DB	060H
	DB	0ffH
	DB	060H
	DB	05cH
	DB	060H
	DB	0ffH
	DB	058H
	DB	060H
	DB	058H
	DB	0ffH
	DB	060H
	DB	060H
	DB	060H
	DB	0ffH
	DB	060H
	DB	05cH
	DB	060H
	DB	0ffH
	DB	060H
	DB	060H
	DB	060H
	DB	0ffH
	DB	058H
	DB	060H
	DB	058H
	DB	0ffH
	DB	060H
	DB	05cH
	DB	060H
	DB	0ffH
	DB	060H
	DB	060H
	DB	060H
	DB	0ffH
	DB	060H
	DB	060H
	DB	060H
	DB	0ffH
	DB	060H
	DB	05cH
	DB	060H
	DB	0ffH
	DB	058H
	DB	060H
	DB	058H
	DB	0ffH
	DB	060H
	DB	060H
	DB	060H
	DB	0ffH
	DB	060H
	DB	05cH
	DB	060H
	DB	0ffH
	DB	060H
	DB	060H
	DB	060H
	DB	0ffH
	DB	060H
	DB	060H
	DB	060H
	DB	0ffH
	DB	058H
	DB	05cH
	DB	058H
	DB	0ffH
	DB	060H
	DB	060H
	DB	060H
	DB	0ffH
	DB	060H
	DB	060H
	DB	060H
	DB	0ffH
	DB	060H
	DB	05cH
	DB	060H
	DB	0ffH
	DB	060H
	DB	060H
	DB	060H
	DB	0ffH
	DB	058H
	DB	060H
	DB	058H
	DB	0ffH
	DB	060H
	DB	060H
	DB	060H
	DB	0ffH
	DB	060H
	DB	05cH
	DB	060H
	DB	0ffH
	DB	060H
	DB	060H
	DB	060H
	DB	0ffH
	DB	060H
	DB	060H
	DB	060H
	DB	0ffH
	DB	058H
	DB	05cH
	DB	058H
	DB	0ffH
	DB	058H
	DB	05cH
	DB	058H
	DB	0ffH
	DB	058H
	DB	05cH
	DB	058H
	DB	0ffH
	DB	058H
	DB	05cH
	DB	058H
	DB	0ffH
	DB	060H
	DB	05cH
	DB	060H
	DB	0ffH
	DB	060H
	DB	060H
	DB	060H
	DB	0ffH
	DB	060H
	DB	060H
	DB	060H
	DB	0ffH
	DB	060H
	DB	05cH
	DB	060H
	DB	0ffH
	DB	058H
	DB	060H
	DB	058H
	DB	0ffH
	DB	060H
	DB	060H
	DB	060H
	DB	0ffH
	DB	060H
	DB	05cH
	DB	060H
	DB	0ffH
	DB	060H
	DB	060H
	DB	060H
	DB	0ffH
	DB	058H
	DB	060H
	DB	058H
	DB	0ffH
	DB	060H
	DB	05cH
	DB	060H
	DB	0ffH
	DB	060H
	DB	060H
	DB	060H
	DB	0ffH
	DB	060H
	DB	060H
	DB	060H
	DB	0ffH
	DB	060H
	DB	05cH
	DB	060H
	DB	0ffH
	DB	060H
	DB	060H
	DB	060H
	DB	0ffH
	DB	060H
	DB	060H
	DB	060H
	DB	0ffH
	DB	060H
	DB	05cH
	DB	060H
	DB	0ffH
	DB	060H
	DB	060H
	DB	060H
	DB	0ffH
	DB	060H
	DB	060H
	DB	060H
	DB	0ffH
	DB	060H
	DB	05cH
	DB	060H
	DB	0ffH
	DB	058H
	DB	05cH
	DB	058H
	DB	0ffH
	DB	058H
	DB	058H
	DB	058H
	DB	0ffH
	DB	058H
	DB	054H
	DB	058H
	DB	0ffH
	DB	050H
	DB	050H
	DB	050H
	DB	0ffH
	DB	050H
	DB	050H
	DB	050H
	DB	0ffH
	DB	050H
	DB	04cH
	DB	050H
	DB	0ffH
	DB	048H
	DB	04cH
	DB	048H
	DB	0ffH
	DB	050H
	DB	050H
	DB	050H
	DB	0ffH
	DB	050H
	DB	050H
	DB	050H
	DB	0ffH
	DB	058H
	DB	054H
	DB	058H
	DB	0ffH
	DB	058H
	DB	058H
	DB	058H
	DB	0ffH
	DB	058H
	DB	05cH
	DB	058H
	DB	0ffH
	DB	060H
	DB	05cH
	DB	060H
	DB	0ffH
	DB	060H
	DB	060H
	DB	060H
	DB	0ffH
	DB	060H
	DB	060H
	DB	060H
	DB	0ffH
	DB	060H
	DB	060H
	DB	060H
	DB	0ffH
	DB	060H
	DB	05cH
	DB	060H
	DB	0ffH
	DB	060H
	DB	060H
	DB	060H
	DB	0ffH
	DB	060H
	DB	060H
	DB	060H
	DB	0ffH
	DB	060H
	DB	060H
	DB	060H
	DB	0ffH
	DB	060H
	DB	060H
	DB	060H
	DB	0ffH
	DB	060H
	DB	060H
	DB	060H
	DB	0ffH
	DB	060H
	DB	060H
	DB	060H
	DB	0ffH
	DB	060H
	DB	05cH
	DB	060H
	DB	0ffH
	DB	060H
	DB	060H
	DB	060H
	DB	0ffH
	DB	060H
	DB	060H
	DB	060H
	DB	0ffH
	DB	060H
	DB	060H
	DB	060H
	DB	0ffH
	DB	060H
	DB	060H
	DB	060H
	DB	0ffH
	DB	060H
	DB	05cH
	DB	060H
	DB	0ffH
	DB	060H
	DB	060H
	DB	060H
	DB	0ffH
	DB	058H
	DB	060H
	DB	058H
	DB	0ffH
	DB	060H
	DB	060H
	DB	060H
	DB	0ffH
	DB	060H
	DB	060H
	DB	060H
	DB	0ffH
	DB	060H
	DB	060H
	DB	060H
	DB	0ffH
	DB	060H
	DB	060H
	DB	060H
	DB	0ffH
	DB	060H
	DB	060H
	DB	060H
	DB	0ffH
	DB	060H
	DB	060H
	DB	060H
	DB	0ffH
	DB	060H
	DB	060H
	DB	060H
	DB	0ffH
	DB	060H
	DB	060H
	DB	060H
	DB	0ffH
	DB	060H
	DB	060H
	DB	060H
	DB	0ffH
	DB	060H
	DB	060H
	DB	060H
	DB	0ffH
	DB	060H
	DB	05cH
	DB	060H
	DB	0ffH
	DB	060H
	DB	060H
	DB	060H
	DB	0ffH
	DB	060H
	DB	060H
	DB	060H
	DB	0ffH
	DB	060H
	DB	060H
	DB	060H
	DB	0ffH
	DB	058H
	DB	05cH
	DB	058H
	DB	0ffH
	DB	058H
	DB	05cH
	DB	058H
	DB	0ffH
	DB	058H
	DB	054H
	DB	058H
	DB	0ffH
	DB	050H
	DB	050H
	DB	050H
	DB	0ffH
	DB	050H
	DB	050H
	DB	050H
	DB	0ffH
	DB	058H
	DB	054H
	DB	050H
	DB	0ffH
	DB	058H
	DB	058H
	DB	058H
	DB	0ffH
	DB	058H
	DB	05cH
	DB	060H
	DB	0ffH
	DB	060H
	DB	060H
	DB	060H
	DB	0ffH
	DB	060H
	DB	060H
	DB	060H
	DB	0ffH
	DB	060H
	DB	060H
	DB	060H
	DB	0ffH
	DB	060H
	DB	060H
	DB	060H
	DB	0ffH
	DB	060H
	DB	05cH
	DB	060H
	DB	0ffH
	DB	060H
	DB	060H
	DB	060H
	DB	0ffH
	DB	060H
	DB	060H
	DB	060H
	DB	0ffH
	DB	060H
	DB	060H
	DB	060H
	DB	0ffH
	DB	060H
	DB	060H
	DB	060H
	DB	0ffH
	DB	058H
	DB	060H
	DB	058H
	DB	0ffH
	DB	060H
	DB	060H
	DB	060H
	DB	0ffH
	DB	060H
	DB	060H
	DB	060H
	DB	0ffH
	DB	060H
	DB	05cH
	DB	060H
	DB	0ffH
	DB	060H
	DB	060H
	DB	060H
	DB	0ffH
	DB	060H
	DB	060H
	DB	060H
	DB	0ffH
	DB	060H
	DB	060H
	DB	060H
	DB	0ffH
	DB	060H
	DB	05cH
	DB	060H
	DB	0ffH
	DB	058H
	DB	05cH
	DB	058H
	DB	0ffH
	DB	058H
	DB	058H
	DB	058H
	DB	0ffH
	DB	058H
	DB	054H
	DB	058H
	DB	0ffH
	DB	050H
	DB	050H
	DB	050H
	DB	0ffH
	DB	050H
	DB	050H
	DB	050H
	DB	0ffH
	DB	048H
	DB	04cH
	DB	048H
	DB	0ffH
	DB	048H
	DB	04cH
	DB	048H
	DB	0ffH
	DB	050H
	DB	04cH
	DB	050H
	DB	0ffH
	DB	050H
	DB	050H
	DB	050H
	DB	0ffH
	DB	050H
	DB	054H
	DB	050H
	DB	0ffH
	DB	058H
	DB	058H
	DB	058H
	DB	0ffH
	DB	058H
	DB	05cH
	DB	058H
	DB	0ffH
	DB	060H
	DB	05cH
	DB	060H
	DB	0ffH
	DB	060H
	DB	060H
	DB	060H
	DB	0ffH
	DB	060H
	DB	060H
	DB	060H
	DB	0ffH
	DB	060H
	DB	05cH
	DB	060H
	DB	0ffH
	DB	060H
	DB	060H
	DB	060H
	DB	0ffH
	DB	060H
	DB	060H
	DB	060H
	DB	0ffH
	DB	060H
	DB	05cH
	DB	060H
	DB	0ffH
	DB	058H
	DB	060H
	DB	058H
	DB	0ffH
	DB	060H
	DB	05cH
	DB	060H
	DB	0ffH
	DB	060H
	DB	060H
	DB	060H
	DB	0ffH
	DB	058H
	DB	060H
	DB	058H
	DB	0ffH
	DB	060H
	DB	060H
	DB	060H
	DB	0ffH
	DB	060H
	DB	05cH
	DB	060H
	DB	0ffH
	DB	058H
	DB	060H
	DB	058H
	DB	0ffH
	DB	060H
	DB	060H
	DB	060H
	DB	0ffH
	DB	060H
	DB	05cH
	DB	060H
	DB	0ffH
	DB	060H
	DB	060H
	DB	060H
	DB	0ffH
	DB	060H
	DB	060H
	DB	060H
	DB	0ffH
	DB	060H
	DB	05cH
	DB	060H
	DB	0ffH
	DB	060H
	DB	060H
	DB	060H
	DB	0ffH
	DB	060H
	DB	05cH
	DB	060H
	DB	0ffH
	DB	060H
	DB	060H
	DB	060H
	DB	0ffH
	DB	058H
	DB	05cH
	DB	058H
	DB	0ffH
	DB	060H
	DB	060H
	DB	060H
	DB	0ffH
	DB	060H
	DB	05cH
	DB	060H
	DB	0ffH
	DB	060H
	DB	060H
	DB	060H
	DB	0ffH
	DB	058H
	DB	05cH
	DB	058H
	DB	0ffH
	DB	060H
	DB	060H
	DB	060H
	DB	0ffH
	DB	060H
	DB	060H
	DB	060H
	DB	0ffH
	DB	058H
	DB	060H
	DB	058H
	DB	0ffH
	DB	060H
	DB	05cH
	DB	060H
	DB	0ffH
	DB	060H
	DB	060H
	DB	060H
	DB	0ffH
	DB	058H
	DB	05cH
	DB	058H
	DB	0ffH
	DB	058H
	DB	058H
	DB	058H
	DB	0ffH
	DB	058H
	DB	054H
	DB	058H
	DB	0ffH
	DB	050H
	DB	054H
	DB	050H
	DB	0ffH
	DB	050H
	DB	050H
	DB	050H
	DB	0ffH
	DB	058H
	DB	054H
	DB	050H
	DB	0ffH
	DB	050H
	DB	054H
	DB	050H
	DB	0ffH
	DB	058H
	DB	054H
	DB	058H
	DB	0ffH
	DB	058H
	DB	05cH
	DB	058H
	DB	0ffH
	DB	060H
	DB	060H
	DB	060H
	DB	0ffH
	DB	060H
	DB	060H
	DB	060H
	DB	0ffH
	DB	060H
	DB	05cH
	DB	060H
	DB	0ffH
	DB	060H
	DB	060H
	DB	060H
	DB	0ffH
	DB	058H
	DB	060H
	DB	058H
	DB	0ffH
	DB	060H
	DB	060H
	DB	060H
	DB	0ffH
	DB	060H
	DB	05cH
	DB	060H
	DB	0ffH
	DB	060H
	DB	060H
	DB	060H
	DB	0ffH
	DB	060H
	DB	05cH
	DB	060H
	DB	0ffH
	DB	060H
	DB	060H
	DB	060H
	DB	0ffH
	DB	060H
	DB	060H
	DB	060H
	DB	0ffH
	DB	060H
	DB	05cH
	DB	060H
	DB	0ffH
	DB	058H
	DB	060H
	DB	058H
	DB	0ffH
	DB	060H
	DB	060H
	DB	060H
	DB	0ffH
	DB	060H
	DB	060H
	DB	060H
	DB	0ffH
	DB	060H
	DB	060H
	DB	060H
	DB	0ffH
	DB	058H
	DB	05cH
	DB	058H
	DB	0ffH
	DB	058H
	DB	05cH
	DB	058H
	DB	0ffH
	DB	058H
	DB	058H
	DB	058H
	DB	0ffH
	DB	050H
	DB	054H
	DB	050H
	DB	0ffH
	DB	050H
	DB	050H
	DB	050H
	DB	0ffH
	DB	050H
	DB	050H
	DB	050H
	DB	0ffH
	DB	048H
	DB	04cH
	DB	048H
	DB	0ffH
	DB	048H
	DB	04cH
	DB	048H
	DB	0ffH
	DB	050H
	DB	04cH
	DB	050H
	DB	0ffH
	DB	050H
	DB	050H
	DB	050H
	DB	0ffH
	DB	058H
	DB	054H
	DB	058H
	DB	0ffH
	DB	058H
	DB	058H
	DB	058H
	DB	0ffH
	DB	058H
	DB	05cH
	DB	058H
	DB	0ffH
	DB	060H
	DB	05cH
	DB	060H
	DB	0ffH
	DB	060H
	DB	060H
	DB	060H
	DB	0ffH
	DB	060H
	DB	060H
	DB	060H
	DB	0ffH
	DB	060H
	DB	060H
	DB	060H
	DB	0ffH
	DB	058H
	DB	060H
	DB	058H
	DB	0ffH
	DB	060H
	DB	060H
	DB	060H
	DB	0ffH
	DB	060H
	DB	060H
	DB	060H
	DB	0ffH
	DB	060H
	DB	060H
	DB	060H
	DB	0ffH
	DB	060H
	DB	060H
	DB	060H
	DB	0ffH
	DB	060H
	DB	05cH
	DB	060H
	DB	0ffH
	DB	060H
	DB	060H
	DB	060H
	DB	0ffH
	DB	060H
	DB	060H
	DB	060H
	DB	0ffH
	DB	060H
	DB	060H
	DB	060H
	DB	0ffH
	DB	060H
	DB	05cH
	DB	060H
	DB	0ffH
	DB	060H
	DB	060H
	DB	060H
	DB	0ffH
	DB	060H
	DB	060H
	DB	060H
	DB	0ffH
	DB	058H
	DB	060H
	DB	058H
	DB	0ffH
	DB	060H
	DB	060H
	DB	060H
	DB	0ffH
	DB	060H
	DB	060H
	DB	060H
	DB	0ffH
	DB	060H
	DB	05cH
	DB	060H
	DB	0ffH
	DB	060H
	DB	060H
	DB	060H
	DB	0ffH
	DB	060H
	DB	060H
	DB	060H
	DB	0ffH
	DB	060H
	DB	060H
	DB	060H
	DB	0ffH
	DB	060H
	DB	05cH
	DB	060H
	DB	0ffH
	DB	060H
	DB	060H
	DB	060H
	DB	0ffH
	DB	060H
	DB	060H
	DB	060H
	DB	0ffH
	DB	060H
	DB	060H
	DB	060H
	DB	0ffH
	DB	060H
	DB	05cH
	DB	060H
	DB	0ffH
	DB	060H
	DB	060H
	DB	060H
	DB	0ffH
	DB	060H
	DB	060H
	DB	060H
	DB	0ffH
	DB	060H
	DB	060H
	DB	060H
	DB	0ffH
	DB	060H
	DB	05cH
	DB	060H
	DB	0ffH
	DB	058H
	DB	058H
	DB	058H
	DB	0ffH
	DB	058H
	DB	054H
	DB	050H
	DB	0ffH
	DB	050H
	DB	054H
	DB	050H
	DB	0ffH
	DB	050H
	DB	050H
	DB	050H
	DB	0ffH
	DB	058H
	DB	054H
	DB	050H
	DB	0ffH
	DB	050H
	DB	050H
	DB	058H
	DB	0ffH
	DB	050H
	DB	050H
	DB	050H
	DB	0ffH
	DB	058H
	DB	054H
	DB	058H
	DB	0ffH
	DB	060H
	DB	05cH
	DB	058H
	DB	0ffH
	DB	060H
	DB	060H
	DB	060H
	DB	0ffH
	DB	060H
	DB	060H
	DB	060H
	DB	0ffH
	DB	060H
	DB	05cH
	DB	058H
	DB	0ffH
	DB	060H
	DB	060H
	DB	060H
	DB	0ffH
	DB	060H
	DB	060H
	DB	060H
	DB	0ffH
	DB	060H
	DB	05cH
	DB	060H
	DB	0ffH
	DB	060H
	DB	060H
	DB	060H
	DB	0ffH
	DB	058H
	DB	060H
	DB	058H
	DB	0ffH
	DB	060H
	DB	060H
	DB	060H
	DB	0ffH
	DB	060H
	DB	05cH
	DB	060H
	DB	0ffH
	DB	060H
	DB	060H
	DB	060H
	DB	0ffH
	DB	060H
	DB	060H
	DB	060H
	DB	0ffH
	DB	060H
	DB	060H
	DB	060H
	DB	0ffH
	DB	060H
	DB	05cH
	DB	060H
	DB	0ffH
	DB	060H
	DB	060H
	DB	060H
	DB	0ffH
	DB	060H
	DB	060H
	DB	060H
	DB	0ffH
	DB	058H
	DB	05cH
	DB	058H
	DB	0ffH
	DB	058H
	DB	05cH
	DB	058H
	DB	0ffH
	DB	058H
	DB	058H
	DB	058H
	DB	0ffH
	DB	058H
	DB	054H
	DB	058H
	DB	0ffH
	DB	050H
	DB	050H
	DB	050H
	DB	0ffH
	DB	050H
	DB	04cH
	DB	050H
	DB	0ffH
	DB	048H
	DB	04cH
	DB	048H
	DB	0ffH
	DB	048H
	DB	04cH
	DB	048H
	DB	0ffH
	DB	050H
	DB	04cH
	DB	050H
	DB	0ffH
	DB	050H
	DB	050H
	DB	050H
	DB	0ffH
	DB	050H
	DB	054H
	DB	050H
	DB	0ffH
	DB	058H
	DB	058H
	DB	058H
	DB	0ffH
	DB	058H
	DB	05cH
	DB	058H
	DB	0ffH
	DB	060H
	DB	05cH
	DB	060H
	DB	0ffH
	DB	060H
	DB	060H
	DB	060H
	DB	0ffH
	DB	060H
	DB	05cH
	DB	060H
	DB	0ffH
	DB	060H
	DB	060H
	DB	060H
	DB	0ffH
	DB	060H
	DB	05cH
	DB	060H
	DB	0ffH
	DB	060H
	DB	060H
	DB	060H
	DB	0ffH
	DB	060H
	DB	060H
	DB	060H
	DB	0ffH
	DB	060H
	DB	05cH
	DB	060H
	DB	0ffH
	DB	060H
	DB	060H
	DB	060H
	DB	0ffH
	DB	060H
	DB	060H
	DB	060H
	DB	0ffH
	DB	060H
	DB	05cH
	DB	060H
	DB	0ffH
	DB	060H
	DB	060H
	DB	060H
	DB	0ffH
	DB	060H
	DB	060H
	DB	060H
	DB	0ffH
	DB	060H
	DB	060H
	DB	060H
	DB	0ffH
	DB	060H
	DB	060H
	DB	060H
	DB	0ffH
	DB	060H
	DB	05cH
	DB	060H
	DB	0ffH
	DB	060H
	DB	060H
	DB	060H
	DB	0ffH
	DB	060H
	DB	060H
	DB	060H
	DB	0ffH
	DB	060H
	DB	060H
	DB	060H
	DB	0ffH
	DB	058H
	DB	060H
	DB	058H
	DB	0ffH
	DB	060H
	DB	060H
	DB	060H
	DB	0ffH
	DB	060H
	DB	060H
	DB	060H
	DB	0ffH
	DB	060H
	DB	060H
	DB	060H
	DB	0ffH
	DB	058H
	DB	060H
	DB	058H
	DB	0ffH
	DB	060H
	DB	060H
	DB	060H
	DB	0ffH
	DB	060H
	DB	060H
	DB	060H
	DB	0ffH
	DB	060H
	DB	060H
	DB	060H
	DB	0ffH
	DB	060H
	DB	05cH
	DB	060H
	DB	0ffH
	DB	060H
	DB	060H
	DB	060H
	DB	0ffH
	DB	060H
	DB	060H
	DB	060H
	DB	0ffH
	DB	058H
	DB	05cH
	DB	058H
	DB	0ffH
	DB	058H
	DB	058H
	DB	058H
	DB	0ffH
	DB	050H
	DB	054H
	DB	050H
	DB	0ffH
	DB	050H
	DB	054H
	DB	050H
	DB	0ffH
	DB	058H
	DB	050H
	DB	050H
	DB	0ffH
	DB	050H
	DB	050H
	DB	058H
	DB	0ffH
	DB	058H
	DB	054H
	DB	050H
	DB	0ffH
	DB	050H
	DB	054H
	DB	050H
	DB	0ffH
	DB	050H
	DB	050H
	DB	050H
	DB	0ffH
	DB	058H
	DB	054H
	DB	058H
	DB	0ffH
	DB	060H
	DB	05cH
	DB	058H
	DB	0ffH
	DB	060H
	DB	060H
	DB	060H
	DB	0ffH
	DB	058H
	DB	060H
	DB	060H
	DB	0ffH
	DB	060H
	DB	060H
	DB	060H
	DB	0ffH
	DB	060H
	DB	060H
	DB	060H
	DB	0ffH
	DB	060H
	DB	060H
	DB	060H
	DB	0ffH
	DB	060H
	DB	060H
	DB	060H
	DB	0ffH
	DB	060H
	DB	060H
	DB	060H
	DB	0ffH
	DB	060H
	DB	060H
	DB	060H
	DB	0ffH
	DB	060H
	DB	060H
	DB	060H
	DB	0ffH
	DB	060H
	DB	060H
	DB	060H
	DB	0ffH
	DB	058H
	DB	05cH
	DB	058H
	DB	0ffH
	DB	060H
	DB	060H
	DB	060H
	DB	0ffH
	DB	060H
	DB	060H
	DB	060H
	DB	0ffH
	DB	060H
	DB	05cH
	DB	060H
	DB	0ffH
	DB	060H
	DB	060H
	DB	060H
	DB	0ffH
	DB	060H
	DB	060H
	DB	060H
	DB	0ffH
	DB	060H
	DB	05cH
	DB	060H
	DB	0ffH
	DB	058H
	DB	05cH
	DB	058H
	DB	0ffH
	DB	058H
	DB	058H
	DB	058H
	DB	0ffH
	DB	058H
	DB	054H
	DB	058H
	DB	0ffH
	DB	050H
	DB	050H
	DB	050H
	DB	0ffH
	DB	050H
	DB	04cH
	DB	050H
	DB	0ffH
	DB	048H
	DB	04cH
	DB	048H
	DB	0ffH
	DB	048H
	DB	048H
	DB	048H
	DB	0ffH
	DB	050H
	DB	04cH
	DB	050H
	DB	0ffH
	DB	050H
	DB	050H
	DB	050H
	DB	0ffH
	DB	050H
	DB	054H
	DB	050H
	DB	0ffH
	DB	058H
	DB	058H
	DB	058H
	DB	0ffH
	DB	058H
	DB	05cH
	DB	058H
	DB	0ffH
	DB	060H
	DB	05cH
	DB	060H
	DB	0ffH
	DB	060H
	DB	060H
	DB	060H
	DB	0ffH
	DB	058H
	DB	060H
	DB	058H
	DB	0ffH
	DB	060H
	DB	060H
	DB	060H
	DB	0ffH
	DB	060H
	DB	05cH
	DB	060H
	DB	0ffH
	DB	060H
	DB	060H
	DB	060H
	DB	0ffH
	DB	058H
	DB	060H
	DB	058H
	DB	0ffH
	DB	060H
	DB	05cH
	DB	060H
	DB	0ffH
	DB	060H
	DB	060H
	DB	060H
	DB	0ffH
	DB	058H
	DB	060H
	DB	058H
	DB	0ffH
	DB	060H
	DB	060H
	DB	060H
	DB	0ffH
	DB	060H
	DB	05cH
	DB	060H
	DB	0ffH
	DB	058H
	DB	060H
	DB	058H
	DB	0ffH
	DB	060H
	DB	060H
	DB	060H
	DB	0ffH
	DB	060H
	DB	05cH
	DB	060H
	DB	0ffH
	DB	058H
	DB	060H
	DB	058H
	DB	0ffH
	DB	060H
	DB	060H
	DB	060H
	DB	0ffH
	DB	060H
	DB	05cH
	DB	060H
	DB	0ffH
	DB	060H
	DB	05cH
	DB	060H
	DB	0ffH
	DB	060H
	DB	060H
	DB	060H
	DB	0ffH
	DB	060H
	DB	05cH
	DB	060H
	DB	0ffH
	DB	060H
	DB	060H
	DB	060H
	DB	0ffH
	DB	060H
	DB	05cH
	DB	060H
	DB	0ffH
	DB	060H
	DB	060H
	DB	060H
	DB	0ffH
	DB	060H
	DB	05cH
	DB	060H
	DB	0ffH
	DB	058H
	DB	060H
	DB	058H
	DB	0ffH
	DB	060H
	DB	060H
	DB	060H
	DB	0ffH
	DB	060H
	DB	060H
	DB	060H
	DB	0ffH
	DB	058H
	DB	060H
	DB	058H
	DB	0ffH
	DB	060H
	DB	05cH
	DB	060H
	DB	0ffH
	DB	058H
	DB	058H
	DB	058H
	DB	0ffH
	DB	050H
	DB	054H
	DB	050H
	DB	0ffH
	DB	058H
	DB	050H
	DB	050H
	DB	0ffH
	DB	050H
	DB	054H
	DB	058H
	DB	0ffH
	DB	050H
	DB	050H
	DB	050H
	DB	0ffH
	DB	058H
	DB	054H
	DB	050H
	DB	0ffH
	DB	050H
	DB	050H
	DB	058H
	DB	0ffH
	DB	050H
	DB	054H
	DB	050H
	DB	0ffH
	DB	058H
	DB	054H
	DB	050H
	DB	0ffH
	DB	058H
	DB	058H
	DB	058H
	DB	0ffH
	DB	060H
	DB	05cH
	DB	060H
	DB	0ffH
	DB	060H
	DB	060H
	DB	060H
	DB	0ffH
	DB	060H
	DB	060H
	DB	060H
	DB	0ffH
	DB	060H
	DB	05cH
	DB	060H
	DB	0ffH
	DB	060H
	DB	060H
	DB	060H
	DB	0ffH
	DB	058H
	DB	05cH
	DB	060H
	DB	0ffH
	DB	060H
	DB	060H
	DB	058H
	DB	0ffH
	DB	060H
	DB	05cH
	DB	060H
	DB	0ffH
	DB	060H
	DB	05cH
	DB	060H
	DB	0ffH
	DB	060H
	DB	060H
	DB	060H
	DB	0ffH
	DB	060H
	DB	060H
	DB	060H
	DB	0ffH
	DB	060H
	DB	060H
	DB	060H
	DB	0ffH
	DB	060H
	DB	060H
	DB	060H
	DB	0ffH
	DB	060H
	DB	060H
	DB	060H
	DB	0ffH
	DB	058H
	DB	060H
	DB	058H
	DB	0ffH
	DB	060H
	DB	060H
	DB	060H
	DB	0ffH
	DB	060H
	DB	05cH
	DB	060H
	DB	0ffH
	DB	060H
	DB	05cH
	DB	060H
	DB	0ffH
	DB	058H
	DB	05cH
	DB	058H
	DB	0ffH
	DB	058H
	DB	058H
	DB	058H
	DB	0ffH
	DB	050H
	DB	054H
	DB	050H
	DB	0ffH
	DB	050H
	DB	050H
	DB	050H
	DB	0ffH
	DB	050H
	DB	04cH
	DB	050H
	DB	0ffH
	DB	048H
	DB	048H
	DB	048H
	DB	0ffH
	DB	048H
	DB	04cH
	DB	048H
	DB	0ffH
	DB	050H
	DB	04cH
	DB	050H
	DB	0ffH
	DB	050H
	DB	050H
	DB	050H
	DB	0ffH
	DB	058H
	DB	054H
	DB	058H
	DB	0ffH
	DB	058H
	DB	058H
	DB	058H
	DB	0ffH
	DB	058H
	DB	05cH
	DB	058H
	DB	0ffH
	DB	060H
	DB	05cH
	DB	060H
	DB	0ffH
	DB	060H
	DB	060H
	DB	060H
	DB	0ffH
	DB	060H
	DB	060H
	DB	060H
	DB	0ffH
	DB	060H
	DB	060H
	DB	060H
	DB	0ffH
	DB	060H
	DB	060H
	DB	060H
	DB	0ffH
	DB	060H
	DB	060H
	DB	060H
	DB	0ffH
	DB	060H
	DB	060H
	DB	060H
	DB	0ffH
	DB	060H
	DB	060H
	DB	060H
	DB	0ffH
	DB	060H
	DB	060H
	DB	060H
	DB	0ffH
	DB	060H
	DB	060H
	DB	060H
	DB	0ffH
	DB	060H
	DB	060H
	DB	060H
	DB	0ffH
	DB	060H
	DB	060H
	DB	060H
	DB	0ffH
	DB	060H
	DB	05cH
	DB	060H
	DB	0ffH
	DB	060H
	DB	060H
	DB	060H
	DB	0ffH
	DB	060H
	DB	060H
	DB	060H
	DB	0ffH
	DB	060H
	DB	060H
	DB	060H
	DB	0ffH
	DB	060H
	DB	060H
	DB	060H
	DB	0ffH
	DB	060H
	DB	060H
	DB	060H
	DB	0ffH
	DB	060H
	DB	060H
	DB	060H
	DB	0ffH
	DB	060H
	DB	060H
	DB	060H
	DB	0ffH
	DB	058H
	DB	060H
	DB	058H
	DB	0ffH
	DB	060H
	DB	05cH
	DB	060H
	DB	0ffH
	DB	060H
	DB	060H
	DB	060H
	DB	0ffH
	DB	060H
	DB	060H
	DB	060H
	DB	0ffH
	DB	060H
	DB	060H
	DB	060H
	DB	0ffH
	DB	060H
	DB	05cH
	DB	060H
	DB	0ffH
	DB	060H
	DB	060H
	DB	060H
	DB	0ffH
	DB	060H
	DB	060H
	DB	060H
	DB	0ffH
	DB	058H
	DB	05cH
	DB	058H
	DB	0ffH
	DB	058H
	DB	058H
	DB	058H
	DB	0ffH
	DB	050H
	DB	054H
	DB	050H
	DB	0ffH
	DB	058H
	DB	050H
	DB	050H
	DB	0ffH
	DB	050H
	DB	054H
	DB	058H
	DB	0ffH
	DB	058H
	DB	050H
	DB	050H
	DB	0ffH
	DB	050H
	DB	054H
	DB	050H
	DB	0ffH
	DB	050H
	DB	050H
	DB	050H
	DB	0ffH
	DB	058H
	DB	050H
	DB	050H
	DB	0ffH
	DB	050H
	DB	054H
	DB	058H
	DB	0ffH
	DB	058H
	DB	058H
	DB	058H
	DB	0ffH
	DB	060H
	DB	05cH
	DB	060H
	DB	0ffH
	DB	060H
	DB	060H
	DB	060H
	DB	0ffH
	DB	060H
	DB	060H
	DB	060H
	DB	0ffH
	DB	060H
	DB	05cH
	DB	060H
	DB	0ffH
	DB	060H
	DB	060H
	DB	060H
	DB	0ffH
	DB	060H
	DB	060H
	DB	060H
	DB	0ffH
	DB	060H
	DB	060H
	DB	060H
	DB	0ffH
	DB	060H
	DB	060H
	DB	060H
	DB	0ffH
	DB	058H
	DB	060H
	DB	060H
	DB	0ffH
	DB	060H
	DB	060H
	DB	060H
	DB	0ffH
	DB	060H
	DB	05cH
	DB	058H
	DB	0ffH
	DB	058H
	DB	060H
	DB	060H
	DB	0ffH
	DB	060H
	DB	060H
	DB	060H
	DB	0ffH
	DB	060H
	DB	05cH
	DB	060H
	DB	0ffH
	DB	060H
	DB	05cH
	DB	060H
	DB	0ffH
	DB	060H
	DB	060H
	DB	060H
	DB	0ffH
	DB	060H
	DB	060H
	DB	060H
	DB	0ffH
	DB	060H
	DB	060H
	DB	060H
	DB	0ffH
	DB	058H
	DB	05cH
	DB	058H
	DB	0ffH
	DB	058H
	DB	05cH
	DB	058H
	DB	0ffH
	DB	058H
	DB	054H
	DB	058H
	DB	0ffH
	DB	058H
	DB	054H
	DB	058H
	DB	0ffH
	DB	050H
	DB	050H
	DB	050H
	DB	0ffH
	DB	048H
	DB	04cH
	DB	048H
	DB	0ffH
	DB	048H
	DB	04cH
	DB	048H
	DB	0ffH
	DB	048H
	DB	048H
	DB	048H
	DB	0ffH
	DB	050H
	DB	04cH
	DB	050H
	DB	0ffH
	DB	050H
	DB	050H
	DB	050H
	DB	0ffH
	DB	050H
	DB	054H
	DB	050H
	DB	0ffH
	DB	058H
	DB	058H
	DB	058H
	DB	0ffH
	DB	058H
	DB	05cH
	DB	058H
	DB	0ffH
	DB	060H
	DB	05cH
	DB	060H
	DB	0ffH
	DB	060H
	DB	05cH
	DB	060H
	DB	0ffH
	DB	060H
	DB	060H
	DB	060H
	DB	0ffH
	DB	060H
	DB	05cH
	DB	060H
	DB	0ffH
	DB	058H
	DB	060H
	DB	058H
	DB	0ffH
	DB	060H
	DB	05cH
	DB	060H
	DB	0ffH
	DB	060H
	DB	060H
	DB	060H
	DB	0ffH
	DB	060H
	DB	05cH
	DB	060H
	DB	0ffH
	DB	060H
	DB	05cH
	DB	060H
	DB	0ffH
	DB	060H
	DB	060H
	DB	060H
	DB	0ffH
	DB	058H
	DB	060H
	DB	058H
	DB	0ffH
	DB	060H
	DB	05cH
	DB	060H
	DB	0ffH
	DB	060H
	DB	060H
	DB	060H
	DB	0ffH
	DB	060H
	DB	060H
	DB	060H
	DB	0ffH
	DB	060H
	DB	05cH
	DB	060H
	DB	0ffH
	DB	060H
	DB	060H
	DB	060H
	DB	0ffH
	DB	060H
	DB	05cH
	DB	060H
	DB	0ffH
	DB	058H
	DB	060H
	DB	058H
	DB	0ffH
	DB	060H
	DB	060H
	DB	060H
	DB	0ffH
	DB	060H
	DB	060H
	DB	060H
	DB	0ffH
	DB	060H
	DB	060H
	DB	060H
	DB	0ffH
	DB	060H
	DB	060H
	DB	060H
	DB	0ffH
	DB	060H
	DB	060H
	DB	060H
	DB	0ffH
	DB	058H
	DB	060H
	DB	058H
	DB	0ffH
	DB	060H
	DB	060H
	DB	060H
	DB	0ffH
	DB	060H
	DB	05cH
	DB	060H
	DB	0ffH
	DB	060H
	DB	060H
	DB	060H
	DB	0ffH
	DB	058H
	DB	05cH
	DB	058H
	DB	0ffH
	DB	058H
	DB	058H
	DB	058H
	DB	0ffH
	DB	050H
	DB	050H
	DB	050H
	DB	0ffH
	DB	058H
	DB	050H
	DB	050H
	DB	0ffH
	DB	050H
	DB	054H
	DB	050H
	DB	0ffH
	DB	050H
	DB	050H
	DB	050H
	DB	0ffH
	DB	058H
	DB	054H
	DB	050H
	DB	0ffH
	DB	050H
	DB	054H
	DB	058H
	DB	0ffH
	DB	050H
	DB	050H
	DB	050H
	DB	0ffH
	DB	058H
	DB	054H
	DB	058H
	DB	0ffH
	DB	058H
	DB	058H
	DB	058H
	DB	0ffH
	DB	060H
	DB	05cH
	DB	060H
	DB	0ffH
	DB	060H
	DB	060H
	DB	060H
	DB	0ffH
	DB	060H
	DB	060H
	DB	060H
	DB	0ffH
	DB	058H
	DB	060H
	DB	060H
	DB	0ffH
	DB	060H
	DB	060H
	DB	060H
	DB	0ffH
	DB	060H
	DB	060H
	DB	058H
	DB	0ffH
	DB	058H
	DB	05cH
	DB	060H
	DB	0ffH
	DB	060H
	DB	060H
	DB	060H
	DB	0ffH
	DB	060H
	DB	060H
	DB	060H
	DB	0ffH
	DB	060H
	DB	060H
	DB	060H
	DB	0ffH
	DB	060H
	DB	060H
	DB	060H
	DB	0ffH
	DB	060H
	DB	060H
	DB	060H
	DB	0ffH
	DB	060H
	DB	05cH
	DB	060H
	DB	0ffH
	DB	060H
	DB	060H
	DB	060H
	DB	0ffH
	DB	060H
	DB	060H
	DB	058H
	DB	0ffH
	DB	058H
	DB	060H
	DB	060H
	DB	0ffH
	DB	060H
	DB	05cH
	DB	060H
	DB	0ffH
	DB	060H
	DB	060H
	DB	060H
	DB	0ffH
	DB	060H
	DB	060H
	DB	060H
	DB	0ffH
	DB	058H
	DB	05cH
	DB	058H
	DB	0ffH
	DB	058H
	DB	05cH
	DB	058H
	DB	0ffH
	DB	058H
	DB	058H
	DB	058H
	DB	0ffH
	DB	058H
	DB	054H
	DB	058H
	DB	0ffH
	DB	050H
	DB	050H
	DB	050H
	DB	0ffH
	DB	050H
	DB	04cH
	DB	050H
	DB	0ffH
	DB	048H
	DB	04cH
	DB	048H
	DB	0ffH
	DB	048H
	DB	04cH
	DB	048H
	DB	0ffH
	DB	050H
	DB	04cH
	DB	050H
	DB	0ffH
	DB	050H
	DB	050H
	DB	050H
	DB	0ffH
	DB	050H
	DB	054H
	DB	050H
	DB	0ffH
	DB	058H
	DB	058H
	DB	058H
	DB	0ffH
	DB	058H
	DB	05cH
	DB	058H
	DB	0ffH
	DB	060H
	DB	05cH
	DB	060H
	DB	0ffH
	DB	060H
	DB	060H
	DB	060H
	DB	0ffH
	DB	060H
	DB	060H
	DB	060H
	DB	0ffH
	DB	060H
	DB	060H
	DB	060H
	DB	0ffH
	DB	060H
	DB	05cH
	DB	060H
	DB	0ffH
	DB	060H
	DB	060H
	DB	060H
	DB	0ffH
	DB	060H
	DB	060H
	DB	060H
	DB	0ffH
	DB	058H
	DB	060H
	DB	058H
	DB	0ffH
	DB	060H
	DB	060H
	DB	060H
	DB	0ffH
	DB	060H
	DB	060H
	DB	060H
	DB	0ffH
	DB	060H
	DB	05cH
	DB	060H
	DB	0ffH
	DB	060H
	DB	060H
	DB	060H
	DB	0ffH
	DB	060H
	DB	060H
	DB	060H
	DB	0ffH
	DB	058H
	DB	060H
	DB	058H
	DB	0ffH
	DB	060H
	DB	060H
	DB	060H
	DB	0ffH
	DB	060H
	DB	060H
	DB	060H
	DB	0ffH
	DB	060H
	DB	05cH
	DB	060H
	DB	0ffH
	DB	060H
	DB	060H
	DB	060H
	DB	0ffH
	DB	060H
	DB	05cH
	DB	060H
	DB	0ffH
	DB	060H
	DB	05cH
	DB	060H
	DB	0ffH
	DB	060H
	DB	060H
	DB	060H
	DB	0ffH
	DB	060H
	DB	060H
	DB	060H
	DB	0ffH
	DB	060H
	DB	05cH
	DB	060H
	DB	0ffH
	DB	060H
	DB	060H
	DB	060H
	DB	0ffH
	DB	060H
	DB	060H
	DB	060H
	DB	0ffH
	DB	060H
	DB	060H
	DB	060H
	DB	0ffH
	DB	058H
	DB	05cH
	DB	058H
	DB	0ffH
	DB	058H
	DB	058H
	DB	058H
	DB	0ffH
	DB	050H
	DB	050H
	DB	050H
	DB	0ffH
	DB	058H
	DB	050H
	DB	050H
	DB	0ffH
	DB	050H
	DB	054H
	DB	058H
	DB	0ffH
	DB	050H
	DB	054H
	DB	050H
	DB	0ffH
	DB	058H
	DB	050H
	DB	050H
	DB	0ffH
	DB	050H
	DB	050H
	DB	058H
	DB	0ffH
	DB	058H
	DB	054H
	DB	050H
	DB	0ffH
	DB	058H
	DB	054H
	DB	050H
	DB	0ffH
	DB	058H
	DB	058H
	DB	058H
	DB	0ffH
	DB	060H
	DB	060H
	DB	060H
	DB	0ffH
	DB	060H
	DB	060H
	DB	060H
	DB	0ffH
	DB	060H
	DB	060H
	DB	060H
	DB	0ffH
	DB	060H
	DB	060H
	DB	060H
	DB	0ffH
	DB	060H
	DB	05cH
	DB	060H
	DB	0ffH
	DB	060H
	DB	060H
	DB	060H
	DB	0ffH
	DB	060H
	DB	060H
	DB	060H
	DB	0ffH
	DB	060H
	DB	05cH
	DB	060H
	DB	0ffH
	DB	060H
	DB	060H
	DB	058H
	DB	0ffH
	DB	060H
	DB	05cH
	DB	060H
	DB	0ffH
	DB	060H
	DB	05cH
	DB	060H
	DB	0ffH
	DB	060H
	DB	060H
	DB	058H
	DB	0ffH
	DB	060H
	DB	060H
	DB	060H
	DB	0ffH
	DB	060H
	DB	060H
	DB	060H
	DB	0ffH
	DB	060H
	DB	060H
	DB	060H
	DB	0ffH
	DB	060H
	DB	060H
	DB	060H
	DB	0ffH
	DB	060H
	DB	060H
	DB	060H
	DB	0ffH
	DB	060H
	DB	060H
	DB	060H
	DB	0ffH
	DB	060H
	DB	05cH
	DB	060H
	DB	0ffH
	DB	060H
	DB	060H
	DB	060H
	DB	0ffH
	DB	060H
	DB	05cH
	DB	060H
	DB	0ffH
	DB	058H
	DB	05cH
	DB	058H
	DB	0ffH
	DB	058H
	DB	058H
	DB	058H
	DB	0ffH
	DB	050H
	DB	054H
	DB	050H
	DB	0ffH
	DB	050H
	DB	050H
	DB	050H
	DB	0ffH
	DB	050H
	DB	04cH
	DB	050H
	DB	0ffH
	DB	048H
	DB	048H
	DB	048H
	DB	0ffH
	DB	048H
	DB	048H
	DB	048H
	DB	0ffH
	DB	050H
	DB	04cH
	DB	050H
	DB	0ffH
	DB	050H
	DB	050H
	DB	050H
	DB	0ffH
	DB	058H
	DB	054H
	DB	058H
	DB	0ffH
	DB	058H
	DB	058H
	DB	058H
	DB	0ffH
	DB	058H
	DB	05cH
	DB	058H
	DB	0ffH
	DB	058H
	DB	05cH
	DB	058H
	DB	0ffH
	DB	060H
	DB	060H
	DB	060H
	DB	0ffH
	DB	060H
	DB	060H
	DB	060H
	DB	0ffH
	DB	060H
	DB	060H
	DB	060H
	DB	0ffH
	DB	060H
	DB	060H
	DB	060H
	DB	0ffH
	DB	060H
	DB	060H
	DB	060H
	DB	0ffH
	DB	060H
	DB	060H
	DB	060H
	DB	0ffH
	DB	060H
	DB	05cH
	DB	060H
	DB	0ffH
	DB	060H
	DB	060H
	DB	060H
	DB	0ffH
	DB	060H
	DB	060H
	DB	060H
	DB	0ffH
	DB	060H
	DB	060H
	DB	060H
	DB	0ffH
	DB	060H
	DB	060H
	DB	060H
	DB	0ffH
	DB	060H
	DB	05cH
	DB	060H
	DB	0ffH
	DB	060H
	DB	060H
	DB	060H
	DB	0ffH
	DB	060H
	DB	060H
	DB	060H
	DB	0ffH
	DB	058H
	DB	060H
	DB	058H
	DB	0ffH
	DB	060H
	DB	060H
	DB	060H
	DB	0ffH
	DB	060H
	DB	060H
	DB	060H
	DB	0ffH
	DB	060H
	DB	060H
	DB	060H
	DB	0ffH
	DB	058H
	DB	060H
	DB	058H
	DB	0ffH
	DB	060H
	DB	060H
	DB	060H
	DB	0ffH
	DB	060H
	DB	05cH
	DB	060H
	DB	0ffH
	DB	058H
	DB	060H
	DB	058H
	DB	0ffH
	DB	060H
	DB	05cH
	DB	060H
	DB	0ffH
	DB	060H
	DB	060H
	DB	060H
	DB	0ffH
	DB	058H
	DB	05cH
	DB	058H
	DB	0ffH
	DB	058H
	DB	054H
	DB	058H
	DB	0ffH
	DB	050H
	DB	050H
	DB	050H
	DB	0ffH
	DB	058H
	DB	054H
	DB	050H
	DB	0ffH
	DB	050H
	DB	054H
	DB	050H
	DB	0ffH
	DB	050H
	DB	050H
	DB	058H
	DB	0ffH
	DB	058H
	DB	054H
	DB	050H
	DB	0ffH
	DB	050H
	DB	050H
	DB	050H
	DB	0ffH
	DB	050H
	DB	050H
	DB	050H
	DB	0ffH
	DB	058H
	DB	054H
	DB	058H
	DB	0ffH
	DB	058H
	DB	058H
	DB	058H
	DB	0ffH
	DB	060H
	DB	05cH
	DB	060H
	DB	0ffH
	DB	060H
	DB	060H
	DB	060H
	DB	0ffH
	DB	060H
	DB	060H
	DB	060H
	DB	0ffH
	DB	060H
	DB	060H
	DB	060H
	DB	0ffH
	DB	060H
	DB	060H
	DB	058H
	DB	0ffH
	DB	060H
	DB	05cH
	DB	060H
	DB	0ffH
	DB	060H
	DB	060H
	DB	060H
	DB	0ffH
	DB	060H
	DB	060H
	DB	060H
	DB	0ffH
	DB	060H
	DB	060H
	DB	060H
	DB	0ffH
	DB	060H
	DB	060H
	DB	060H
	DB	0ffH
	DB	058H
	DB	060H
	DB	060H
	DB	0ffH
	DB	060H
	DB	060H
	DB	060H
	DB	0ffH
	DB	060H
	DB	05cH
	DB	060H
	DB	0ffH
	DB	058H
	DB	060H
	DB	060H
	DB	0ffH
	DB	060H
	DB	060H
	DB	060H
	DB	0ffH
	DB	060H
	DB	05cH
	DB	060H
	DB	0ffH
	DB	060H
	DB	05cH
	DB	060H
	DB	0ffH
	DB	060H
	DB	060H
	DB	058H
	DB	0ffH
	DB	060H
	DB	060H
	DB	060H
	DB	0ffH
	DB	060H
	DB	060H
	DB	060H
	DB	0ffH
	DB	060H
	DB	060H
	DB	060H
	DB	0ffH
	DB	058H
	DB	05cH
	DB	058H
	DB	0ffH
	DB	058H
	DB	05cH
	DB	058H
	DB	0ffH
	DB	058H
	DB	054H
	DB	058H
	DB	0ffH
	DB	058H
	DB	054H
	DB	058H
	DB	0ffH
	DB	050H
	DB	050H
	DB	050H
	DB	0ffH
	DB	050H
	DB	04cH
	DB	048H
	DB	0ffH
	DB	048H
	DB	04cH
	DB	048H
	DB	0ffH
	DB	048H
	DB	04cH
	DB	048H
	DB	0ffH
	DB	050H
	DB	04cH
	DB	050H
	DB	0ffH
	DB	050H
	DB	050H
	DB	050H
	DB	0ffH
	DB	050H
	DB	054H
	DB	050H
	DB	0ffH
	DB	058H
	DB	058H
	DB	058H
	DB	0ffH
	DB	058H
	DB	058H
	DB	058H
	DB	0ffH
	DB	060H
	DB	05cH
	DB	060H
	DB	0ffH
	DB	060H
	DB	060H
	DB	060H
	DB	0ffH
	DB	060H
	DB	05cH
	DB	060H
	DB	0ffH
	DB	058H
	DB	05cH
	DB	058H
	DB	0ffH
	DB	060H
	DB	060H
	DB	060H
	DB	0ffH
	DB	060H
	DB	060H
	DB	060H
	DB	0ffH
	DB	058H
	DB	05cH
	DB	058H
	DB	0ffH
	DB	060H
	DB	060H
	DB	060H
	DB	0ffH
	DB	060H
	DB	060H
	DB	060H
	DB	0ffH
	DB	058H
	DB	05cH
	DB	058H
	DB	0ffH
	DB	060H
	DB	060H
	DB	060H
	DB	0ffH
	DB	060H
	DB	060H
	DB	060H
	DB	0ffH
	DB	058H
	DB	05cH
	DB	058H
	DB	0ffH
	DB	060H
	DB	060H
	DB	060H
	DB	0ffH
	DB	060H
	DB	05cH
	DB	060H
	DB	0ffH
	DB	060H
	DB	05cH
	DB	060H
	DB	0ffH
	DB	060H
	DB	060H
	DB	060H
	DB	0ffH
	DB	060H
	DB	060H
	DB	060H
	DB	0ffH
	DB	060H
	DB	060H
	DB	060H
	DB	0ffH
	DB	060H
	DB	060H
	DB	060H
	DB	0ffH
	DB	060H
	DB	05cH
	DB	060H
	DB	0ffH
	DB	060H
	DB	060H
	DB	060H
	DB	0ffH
	DB	060H
	DB	060H
	DB	060H
	DB	0ffH
	DB	060H
	DB	060H
	DB	060H
	DB	0ffH
	DB	058H
	DB	05cH
	DB	058H
	DB	0ffH
	DB	058H
	DB	054H
	DB	058H
	DB	0ffH
	DB	050H
	DB	054H
	DB	050H
	DB	0ffH
	DB	050H
	DB	050H
	DB	050H
	DB	0ffH
	DB	058H
	DB	054H
	DB	050H
	DB	0ffH
	DB	050H
	DB	050H
	DB	058H
	DB	0ffH
	DB	050H
	DB	050H
	DB	050H
	DB	0ffH
	DB	058H
	DB	054H
	DB	050H
	DB	0ffH
	DB	050H
	DB	054H
	DB	050H
	DB	0ffH
	DB	058H
	DB	054H
	DB	058H
	DB	0ffH
	DB	058H
	DB	05cH
	DB	058H
	DB	0ffH
	DB	060H
	DB	05cH
	DB	060H
	DB	0ffH
	DB	060H
	DB	060H
	DB	060H
	DB	0ffH
	DB	060H
	DB	060H
	DB	060H
	DB	0ffH
	DB	060H
	DB	05cH
	DB	060H
	DB	0ffH
	DB	058H
	DB	060H
	DB	060H
	DB	0ffH
	DB	060H
	DB	060H
	DB	060H
	DB	0ffH
	DB	060H
	DB	060H
	DB	060H
	DB	0ffH
	DB	058H
	DB	060H
	DB	060H
	DB	0ffH
	DB	060H
	DB	05cH
	DB	058H
	DB	0ffH
	DB	060H
	DB	060H
	DB	060H
	DB	0ffH
	DB	060H
	DB	060H
	DB	060H
	DB	0ffH
	DB	060H
	DB	060H
	DB	060H
	DB	0ffH
	DB	060H
	DB	060H
	DB	060H
	DB	0ffH
	DB	060H
	DB	060H
	DB	060H
	DB	0ffH
	DB	060H
	DB	05cH
	DB	060H
	DB	0ffH
	DB	060H
	DB	060H
	DB	058H
	DB	0ffH
	DB	058H
	DB	060H
	DB	060H
	DB	0ffH
	DB	060H
	DB	060H
	DB	060H
	DB	0ffH
	DB	060H
	DB	060H
	DB	060H
	DB	0ffH
	DB	058H
	DB	05cH
	DB	060H
	DB	0ffH
	DB	060H
	DB	060H
	DB	060H
	DB	0ffH
	DB	060H
	DB	060H
	DB	060H
	DB	0ffH
	DB	060H
	DB	05cH
	DB	060H
	DB	0ffH
	DB	058H
	DB	05cH
	DB	058H
	DB	0ffH
	DB	058H
	DB	058H
	DB	058H
	DB	0ffH
	DB	050H
	DB	054H
	DB	058H
	DB	0ffH
	DB	050H
	DB	050H
	DB	050H
	DB	0ffH
	DB	050H
	DB	04cH
	DB	050H
	DB	0ffH
	DB	048H
	DB	04cH
	DB	048H
	DB	0ffH
	DB	048H
	DB	048H
	DB	048H
	DB	0ffH
	DB	050H
	DB	04cH
	DB	050H
	DB	0ffH
	DB	050H
	DB	050H
	DB	050H
	DB	0ffH
	DB	050H
	DB	054H
	DB	050H
	DB	0ffH
	DB	058H
	DB	058H
	DB	058H
	DB	0ffH
	DB	058H
	DB	05cH
	DB	058H
	DB	0ffH
	DB	060H
	DB	05cH
	DB	060H
	DB	0ffH
	DB	060H
	DB	060H
	DB	060H
	DB	0ffH
	DB	060H
	DB	060H
	DB	060H
	DB	0ffH
	DB	060H
	DB	060H
	DB	060H
	DB	0ffH
	DB	060H
	DB	060H
	DB	060H
	DB	0ffH
	DB	060H
	DB	05cH
	DB	060H
	DB	0ffH
	DB	060H
	DB	060H
	DB	060H
	DB	0ffH
	DB	060H
	DB	060H
	DB	060H
	DB	0ffH
	DB	060H
	DB	060H
	DB	060H
	DB	0ffH
	DB	060H
	DB	05cH
	DB	060H
	DB	0ffH
	DB	060H
	DB	060H
	DB	060H
	DB	0ffH
	DB	060H
	DB	060H
	DB	060H
	DB	0ffH
	DB	060H
	DB	060H
	DB	060H
	DB	0ffH
	DB	060H
	DB	060H
	DB	060H
	DB	0ffH
	DB	060H
	DB	060H
	DB	060H
	DB	0ffH
	DB	060H
	DB	060H
	DB	060H
	DB	0ffH
	DB	060H
	DB	05cH
	DB	060H
	DB	0ffH
	DB	058H
	DB	060H
	DB	058H
	DB	0ffH
	DB	060H
	DB	05cH
	DB	060H
	DB	0ffH
	DB	060H
	DB	060H
	DB	060H
	DB	0ffH
	DB	060H
	DB	060H
	DB	060H
	DB	0ffH
	DB	060H
	DB	060H
	DB	060H
	DB	0ffH
	DB	060H
	DB	05cH
	DB	058H
	DB	0ffH
	DB	058H
	DB	05cH
	DB	058H
	DB	0ffH
	DB	058H
	DB	054H
	DB	058H
	DB	0ffH
	DB	050H
	DB	050H
	DB	050H
	DB	0ffH
	DB	050H
	DB	054H
	DB	050H
	DB	0ffH
	DB	058H
	DB	054H
	DB	050H
	DB	0ffH
	DB	050H
	DB	050H
	DB	058H
	DB	0ffH
	DB	058H
	DB	054H
	DB	050H
	DB	0ffH
	DB	050H
	DB	050H
	DB	050H
	DB	0ffH
	DB	050H
	DB	054H
	DB	050H
	DB	0ffH
	DB	058H
	DB	054H
	DB	058H
	DB	0ffH
	DB	058H
	DB	05cH
	DB	060H
	DB	0ffH
	DB	060H
	DB	05cH
	DB	060H
	DB	0ffH
	DB	060H
	DB	060H
	DB	060H
	DB	0ffH
	DB	060H
	DB	060H
	DB	060H
	DB	0ffH
	DB	060H
	DB	060H
	DB	060H
	DB	0ffH
	DB	060H
	DB	060H
	DB	060H
	DB	0ffH
	DB	060H
	DB	05cH
	DB	060H
	DB	0ffH
	DB	060H
	DB	060H
	DB	060H
	DB	0ffH
	DB	060H
	DB	060H
	DB	060H
	DB	0ffH
	DB	060H
	DB	05cH
	DB	060H
	DB	0ffH
	DB	060H
	DB	060H
	DB	060H
	DB	0ffH
	DB	058H
	DB	060H
	DB	060H
	DB	0ffH
	DB	060H
	DB	05cH
	DB	060H
	DB	0ffH
	DB	060H
	DB	05cH
	DB	058H
	DB	0ffH
	DB	060H
	DB	060H
	DB	060H
	DB	0ffH
	DB	060H
	DB	060H
	DB	060H
	DB	0ffH
	DB	060H
	DB	060H
	DB	060H
	DB	0ffH
	DB	060H
	DB	060H
	DB	060H
	DB	0ffH
	DB	060H
	DB	060H
	DB	060H
	DB	0ffH
	DB	060H
	DB	060H
	DB	060H
	DB	0ffH
	DB	060H
	DB	05cH
	DB	060H
	DB	0ffH
	DB	060H
	DB	060H
	DB	060H
	DB	0ffH
	DB	060H
	DB	060H
	DB	058H
	DB	0ffH
	DB	060H
	DB	05cH
	DB	060H
	DB	0ffH
	DB	058H
	DB	05cH
	DB	060H
	DB	0ffH
	DB	058H
	DB	05cH
	DB	058H
	DB	0ffH
	DB	058H
	DB	058H
	DB	058H
	DB	0ffH
	DB	058H
	DB	054H
	DB	050H
	DB	0ffH
	DB	050H
	DB	050H
	DB	050H
	DB	0ffH
	DB	048H
	DB	04cH
	DB	050H
	DB	0ffH
	DB	048H
	DB	048H
	DB	048H
	DB	0ffH
	DB	048H
	DB	04cH
	DB	048H
	DB	0ffH
	DB	050H
	DB	04cH
	DB	050H
	DB	0ffH
	DB	050H
	DB	050H
	DB	050H
	DB	0ffH
	DB	058H
	DB	054H
	DB	058H
	DB	0ffH
	DB	058H
	DB	058H
	DB	058H
	DB	0ffH
	DB	058H
	DB	05cH
	DB	058H
	DB	0ffH
	DB	060H
	DB	05cH
	DB	060H
	DB	0ffH
	DB	060H
	DB	060H
	DB	060H
	DB	0ffH
	DB	060H
	DB	060H
	DB	060H
	DB	0ffH
	DB	060H
	DB	060H
	DB	060H
	DB	0ffH
	DB	060H
	DB	060H
	DB	060H
	DB	0ffH
	DB	060H
	DB	060H
	DB	060H
	DB	0ffH
	DB	060H
	DB	060H
	DB	060H
	DB	0ffH
	DB	060H
	DB	060H
	DB	060H
	DB	0ffH
	DB	060H
	DB	05cH
	DB	060H
	DB	0ffH
	DB	060H
	DB	060H
	DB	060H
	DB	0ffH
	DB	060H
	DB	060H
	DB	060H
	DB	0ffH
	DB	060H
	DB	05cH
	DB	060H
	DB	0ffH
	DB	060H
	DB	060H
	DB	060H
	DB	0ffH
	DB	060H
	DB	060H
	DB	060H
	DB	0ffH
	DB	058H
	DB	060H
	DB	058H
	DB	0ffH
	DB	060H
	DB	060H
	DB	060H
	DB	0ffH
	DB	060H
	DB	060H
	DB	060H
	DB	0ffH
	DB	060H
	DB	060H
	DB	060H
	DB	0ffH
	DB	060H
	DB	060H
	DB	060H
	DB	0ffH
	DB	060H
	DB	05cH
	DB	060H
	DB	0ffH
	DB	058H
	DB	060H
	DB	058H
	DB	0ffH
	DB	058H
	DB	05cH
	DB	060H
	DB	0ffH
	DB	058H
	DB	05cH
	DB	058H
	DB	0ffH
	DB	058H
	DB	054H
	DB	058H
	DB	0ffH
	DB	050H
	DB	050H
	DB	050H
	DB	0ffH
	DB	050H
	DB	054H
	DB	050H
	DB	0ffH
	DB	058H
	DB	050H
	DB	050H
	DB	0ffH
	DB	050H
	DB	050H
	DB	058H
	DB	0ffH
	DB	050H
	DB	054H
	DB	050H
	DB	0ffH
	DB	058H
	DB	054H
	DB	050H
	DB	0ffH
	DB	050H
	DB	050H
	DB	050H
	DB	0ffH
	DB	058H
	DB	054H
	DB	058H
	DB	0ffH
	DB	060H
	DB	05cH
	DB	058H
	DB	0ffH
	DB	060H
	DB	060H
	DB	060H
	DB	0ffH
	DB	060H
	DB	060H
	DB	060H
	DB	0ffH
	DB	060H
	DB	060H
	DB	060H
	DB	0ffH
	DB	060H
	DB	060H
	DB	060H
	DB	0ffH
	DB	058H
	DB	060H
	DB	060H
	DB	0ffH
	DB	060H
	DB	060H
	DB	058H
	DB	0ffH
	DB	060H
	DB	060H
	DB	060H
	DB	0ffH
	DB	060H
	DB	05cH
	DB	060H
	DB	0ffH
	DB	060H
	DB	060H
	DB	058H
	DB	0ffH
	DB	060H
	DB	060H
	DB	060H
	DB	0ffH
	DB	060H
	DB	060H
	DB	060H
	DB	0ffH
	DB	060H
	DB	060H
	DB	060H
	DB	0ffH
	DB	060H
	DB	060H
	DB	060H
	DB	0ffH
	DB	060H
	DB	060H
	DB	060H
	DB	0ffH
	DB	058H
	DB	05cH
	DB	060H
	DB	0ffH
	DB	060H
	DB	060H
	DB	058H
	DB	0ffH
	DB	060H
	DB	060H
	DB	060H
	DB	0ffH
	DB	058H
	DB	05cH
	DB	060H
	DB	0ffH
	DB	060H
	DB	05cH
	DB	060H
	DB	0ffH
	DB	060H
	DB	060H
	DB	058H
	DB	0ffH
	DB	060H
	DB	060H
	DB	060H
	DB	0ffH
	DB	060H
	DB	060H
	DB	060H
	DB	0ffH
	DB	060H
	DB	060H
	DB	060H
	DB	0ffH
	DB	060H
	DB	060H
	DB	060H
	DB	0ffH
	DB	060H
	DB	05cH
	DB	058H
	DB	0ffH
	DB	058H
	DB	05cH
	DB	058H
	DB	0ffH
	DB	058H
	DB	058H
	DB	058H
	DB	0ffH
	DB	058H
	DB	054H
	DB	058H
	DB	0ffH
	DB	050H
	DB	050H
	DB	050H
	DB	0ffH
	DB	050H
	DB	04cH
	DB	048H
	DB	0ffH
	DB	048H
	DB	04cH
	DB	048H
	DB	0ffH
	DB	048H
	DB	048H
	DB	048H
	DB	0ffH
	DB	050H
	DB	04cH
	DB	050H
	DB	0ffH
	DB	050H
	DB	050H
	DB	050H
	DB	0ffH
	DB	050H
	DB	054H
	DB	050H
	DB	0ffH
	DB	058H
	DB	058H
	DB	058H
	DB	0ffH
	DB	058H
	DB	05cH
	DB	058H
	DB	0ffH
	DB	060H
	DB	05cH
	DB	060H
	DB	0ffH
	DB	060H
	DB	05cH
	DB	060H
	DB	0ffH
	DB	058H
	DB	060H
	DB	058H
	DB	0ffH
	DB	060H
	DB	05cH
	DB	060H
	DB	0ffH
	DB	060H
	DB	05cH
	DB	060H
	DB	0ffH
	DB	058H
	DB	060H
	DB	058H
	DB	0ffH
	DB	060H
	DB	060H
	DB	060H
	DB	0ffH
	DB	060H
	DB	05cH
	DB	060H
	DB	0ffH
	DB	058H
	DB	060H
	DB	058H
	DB	0ffH
	DB	060H
	DB	060H
	DB	060H
	DB	0ffH
	DB	060H
	DB	060H
	DB	060H
	DB	0ffH
	DB	058H
	DB	060H
	DB	058H
	DB	0ffH
	DB	060H
	DB	05cH
	DB	060H
	DB	0ffH
	DB	060H
	DB	060H
	DB	060H
	DB	0ffH
	DB	060H
	DB	05cH
	DB	060H
	DB	0ffH
	DB	060H
	DB	060H
	DB	060H
	DB	0ffH
	DB	060H
	DB	060H
	DB	060H
	DB	0ffH
	DB	060H
	DB	05cH
	DB	060H
	DB	0ffH
	DB	060H
	DB	060H
	DB	060H
	DB	0ffH
	DB	060H
	DB	060H
	DB	060H
	DB	0ffH
	DB	060H
	DB	05cH
	DB	060H
	DB	0ffH
	DB	058H
	DB	058H
	DB	058H
	DB	0ffH
	DB	058H
	DB	054H
	DB	050H
	DB	0ffH
	DB	050H
	DB	054H
	DB	050H
	DB	0ffH
	DB	050H
	DB	054H
	DB	050H
	DB	0ffH
	DB	058H
	DB	050H
	DB	050H
	DB	0ffH
	DB	050H
	DB	054H
	DB	058H
	DB	0ffH
	DB	050H
	DB	050H
	DB	050H
	DB	0ffH
	DB	058H
	DB	054H
	DB	050H
	DB	0ffH
	DB	050H
	DB	050H
	DB	050H
	DB	0ffH
	DB	058H
	DB	054H
	DB	058H
	DB	0ffH
	DB	060H
	DB	05cH
	DB	060H
	DB	0ffH
	DB	060H
	DB	060H
	DB	060H
	DB	0ffH
	DB	060H
	DB	060H
	DB	060H
	DB	0ffH
	DB	060H
	DB	05cH
	DB	060H
	DB	0ffH
	DB	060H
	DB	060H
	DB	060H
	DB	0ffH
	DB	060H
	DB	05cH
	DB	060H
	DB	0ffH
	DB	060H
	DB	05cH
	DB	060H
	DB	0ffH
	DB	060H
	DB	060H
	DB	060H
	DB	0ffH
	DB	060H
	DB	060H
	DB	060H
	DB	0ffH
	DB	058H
	DB	060H
	DB	060H
	DB	0ffH
	DB	060H
	DB	05cH
	DB	060H
	DB	0ffH
	DB	060H
	DB	060H
	DB	060H
	DB	0ffH
	DB	058H
	DB	060H
	DB	060H
	DB	0ffH
	DB	060H
	DB	05cH
	DB	058H
	DB	0ffH
	DB	060H
	DB	060H
	DB	060H
	DB	0ffH
	DB	060H
	DB	060H
	DB	060H
	DB	0ffH
	DB	060H
	DB	060H
	DB	060H
	DB	0ffH
	DB	060H
	DB	05cH
	DB	060H
	DB	0ffH
	DB	060H
	DB	060H
	DB	060H
	DB	0ffH
	DB	060H
	DB	060H
	DB	060H
	DB	0ffH
	DB	060H
	DB	060H
	DB	060H
	DB	0ffH
	DB	060H
	DB	060H
	DB	060H
	DB	0ffH
	DB	058H
	DB	05cH
	DB	060H
	DB	0ffH
	DB	060H
	DB	060H
	DB	060H
	DB	0ffH
	DB	060H
	DB	060H
	DB	060H
	DB	0ffH
	DB	060H
	DB	05cH
	DB	060H
	DB	0ffH
	DB	058H
	DB	05cH
	DB	060H
	DB	0ffH
	DB	058H
	DB	05cH
	DB	058H
	DB	0ffH
	DB	058H
	DB	054H
	DB	058H
	DB	0ffH
	DB	050H
	DB	054H
	DB	058H
	DB	0ffH
	DB	050H
	DB	050H
	DB	050H
	DB	0ffH
	DB	050H
	DB	04cH
	DB	050H
	DB	0ffH
	DB	048H
	DB	048H
	DB	048H
	DB	0ffH
	DB	048H
	DB	04cH
	DB	048H
	DB	0ffH
	DB	050H
	DB	04cH
	DB	050H
	DB	0ffH
	DB	050H
	DB	050H
	DB	050H
	DB	0ffH
	DB	050H
	DB	054H
	DB	050H
	DB	0ffH
	DB	058H
	DB	058H
	DB	058H
	DB	0ffH
	DB	058H
	DB	05cH
	DB	058H
	DB	0ffH
	DB	060H
	DB	05cH
	DB	060H
	DB	0ffH
	DB	060H
	DB	060H
	DB	060H
	DB	0ffH
	DB	060H
	DB	060H
	DB	060H
	DB	0ffH
	DB	060H
	DB	060H
	DB	060H
	DB	0ffH
	DB	060H
	DB	060H
	DB	060H
	DB	0ffH
	DB	060H
	DB	060H
	DB	060H
	DB	0ffH
	DB	060H
	DB	05cH
	DB	060H
	DB	0ffH
	DB	060H
	DB	060H
	DB	060H
	DB	0ffH
	DB	060H
	DB	060H
	DB	060H
	DB	0ffH
	DB	060H
	DB	060H
	DB	060H
	DB	0ffH
	DB	060H
	DB	05cH
	DB	060H
	DB	0ffH
	DB	060H
	DB	060H
	DB	060H
	DB	0ffH
	DB	060H
	DB	060H
	DB	060H
	DB	0ffH
	DB	060H
	DB	060H
	DB	060H
	DB	0ffH
	DB	060H
	DB	05cH
	DB	060H
	DB	0ffH
	DB	060H
	DB	060H
	DB	060H
	DB	0ffH
	DB	058H
	DB	060H
	DB	058H
	DB	0ffH
	DB	060H
	DB	05cH
	DB	060H
	DB	0ffH
	DB	060H
	DB	060H
	DB	060H
	DB	0ffH
	DB	058H
	DB	05cH
	DB	058H
	DB	0ffH
	DB	058H
	DB	058H
	DB	058H
	DB	0ffH
	DB	058H
	DB	054H
	DB	058H
	DB	0ffH
	DB	050H
	DB	054H
	DB	050H
	DB	0ffH
	DB	050H
	DB	050H
	DB	050H
	DB	0ffH
	DB	058H
	DB	050H
	DB	058H
	DB	0ffH
	DB	058H
	DB	054H
	DB	050H
	DB	0ffH
	DB	050H
	DB	054H
	DB	050H
	DB	0ffH
	DB	058H
	DB	050H
	DB	050H
	DB	0ffH
	DB	050H
	DB	054H
	DB	050H
	DB	0ffH
	DB	058H
	DB	054H
	DB	058H
	DB	0ffH
	DB	058H
	DB	05cH
	DB	060H
	DB	0ffH
	DB	060H
	DB	060H
	DB	060H
	DB	0ffH
	DB	060H
	DB	060H
	DB	060H
	DB	0ffH
	DB	060H
	DB	05cH
	DB	060H
	DB	0ffH
	DB	060H
	DB	060H
	DB	060H
	DB	0ffH
	DB	058H
	DB	060H
	DB	058H
	DB	0ffH
	DB	060H
	DB	060H
	DB	060H
	DB	0ffH
	DB	060H
	DB	060H
	DB	060H
	DB	0ffH
	DB	060H
	DB	060H
	DB	060H
	DB	0ffH
	DB	060H
	DB	05cH
	DB	060H
	DB	0ffH
	DB	060H
	DB	060H
	DB	060H
	DB	0ffH
	DB	060H
	DB	060H
	DB	060H
	DB	0ffH
	DB	060H
	DB	060H
	DB	060H
	DB	0ffH
	DB	060H
	DB	05cH
	DB	060H
	DB	0ffH
	DB	060H
	DB	060H
	DB	060H
	DB	0ffH
	DB	060H
	DB	060H
	DB	060H
	DB	0ffH
	DB	060H
	DB	05cH
	DB	060H
	DB	0ffH
	DB	060H
	DB	060H
	DB	060H
	DB	0ffH
	DB	060H
	DB	060H
	DB	060H
	DB	0ffH
	DB	060H
	DB	060H
	DB	060H
	DB	0ffH
	DB	060H
	DB	060H
	DB	058H
	DB	0ffH
	DB	060H
	DB	060H
	DB	060H
	DB	0ffH
	DB	060H
	DB	05cH
	DB	060H
	DB	0ffH
	DB	060H
	DB	060H
	DB	060H
	DB	0ffH
	DB	060H
	DB	060H
	DB	058H
	DB	0ffH
	DB	060H
	DB	05cH
	DB	060H
	DB	0ffH
	DB	060H
	DB	060H
	DB	060H
	DB	0ffH
	DB	060H
	DB	05cH
	DB	058H
	DB	0ffH
	DB	058H
	DB	05cH
	DB	058H
	DB	0ffH
	DB	058H
	DB	058H
	DB	058H
	DB	0ffH
	DB	058H
	DB	054H
	DB	050H
	DB	0ffH
	DB	050H
	DB	050H
	DB	050H
	DB	0ffH
	DB	050H
	DB	04cH
	DB	050H
	DB	0ffH
	DB	048H
	DB	04cH
	DB	048H
	DB	0ffH
	DB	048H
	DB	048H
	DB	048H
	DB	0ffH
	DB	050H
	DB	04cH
	DB	050H
	DB	0ffH
	DB	050H
	DB	050H
	DB	050H
	DB	0ffH
	DB	050H
	DB	054H
	DB	050H
	DB	0ffH
	DB	058H
	DB	058H
	DB	058H
	DB	0ffH
	DB	058H
	DB	05cH
	DB	058H
	DB	0ffH
	DB	060H
	DB	05cH
	DB	060H
	DB	0ffH
	DB	060H
	DB	060H
	DB	060H
	DB	0ffH
	DB	060H
	DB	060H
	DB	060H
	DB	0ffH
	DB	060H
	DB	060H
	DB	060H
	DB	0ffH
	DB	060H
	DB	060H
	DB	060H
	DB	0ffH
	DB	060H
	DB	05cH
	DB	060H
	DB	0ffH
	DB	060H
	DB	060H
	DB	060H
	DB	0ffH
	DB	058H
	DB	060H
	DB	058H
	DB	0ffH
	DB	060H
	DB	060H
	DB	060H
	DB	0ffH
	DB	060H
	DB	05cH
	DB	060H
	DB	0ffH
	DB	060H
	DB	060H
	DB	060H
	DB	0ffH
	DB	060H
	DB	060H
	DB	060H
	DB	0ffH
	DB	060H
	DB	060H
	DB	060H
	DB	0ffH
	DB	058H
	DB	060H
	DB	058H
	DB	0ffH
	DB	060H
	DB	060H
	DB	060H
	DB	0ffH
	DB	060H
	DB	060H
	DB	060H
	DB	0ffH
	DB	060H
	DB	060H
	DB	060H
	DB	0ffH
	DB	060H
	DB	060H
	DB	060H
	DB	0ffH
	DB	060H
	DB	05cH
	DB	058H
	DB	0ffH
	DB	058H
	DB	058H
	DB	058H
	DB	0ffH
	DB	050H
	DB	054H
	DB	050H
	DB	0ffH
	DB	050H
	DB	054H
	DB	050H
	DB	0ffH
	DB	058H
	DB	050H
	DB	050H
	DB	0ffH
	DB	050H
	DB	054H
	DB	050H
	DB	0ffH
	DB	050H
	DB	050H
	DB	058H
	DB	0ffH
	DB	050H
	DB	054H
	DB	050H
	DB	0ffH
	DB	050H
	DB	050H
	DB	050H
	DB	0ffH
	DB	058H
	DB	050H
	DB	058H
	DB	0ffH
	DB	058H
	DB	058H
	DB	058H
	DB	0ffH
	DB	058H
	DB	05cH
	DB	060H
	DB	0ffH
	DB	060H
	DB	060H
	DB	060H
	DB	0ffH
	DB	060H
	DB	060H
	DB	060H
	DB	0ffH
	DB	060H
	DB	060H
	DB	060H
	DB	0ffH
	DB	060H
	DB	060H
	DB	060H
	DB	0ffH
	DB	060H
	DB	060H
	DB	060H
	DB	0ffH
	DB	060H
	DB	060H
	DB	060H
	DB	0ffH
	DB	060H
	DB	060H
	DB	060H
	DB	0ffH
	DB	060H
	DB	060H
	DB	058H
	DB	0ffH
	DB	058H
	DB	05cH
	DB	060H
	DB	0ffH
	DB	060H
	DB	060H
	DB	060H
	DB	0ffH
	DB	060H
	DB	060H
	DB	058H
	DB	0ffH
	DB	060H
	DB	060H
	DB	060H
	DB	0ffH
	DB	060H
	DB	05cH
	DB	060H
	DB	0ffH
	DB	060H
	DB	060H
	DB	058H
	DB	0ffH
	DB	060H
	DB	060H
	DB	060H
	DB	0ffH
	DB	058H
	DB	060H
	DB	060H
	DB	0ffH
	DB	060H
	DB	060H
	DB	058H
	DB	0ffH
	DB	060H
	DB	05cH
	DB	060H
	DB	0ffH
	DB	058H
	DB	060H
	DB	060H
	DB	0ffH
	DB	060H
	DB	05cH
	DB	060H
	DB	0ffH
	DB	060H
	DB	060H
	DB	060H
	DB	0ffH
	DB	058H
	DB	060H
	DB	060H
	DB	0ffH
	DB	060H
	DB	05cH
	DB	060H
	DB	0ffH
	DB	060H
	DB	060H
	DB	060H
	DB	0ffH
	DB	060H
	DB	060H
	DB	060H
	DB	0ffH
	DB	058H
	DB	060H
	DB	060H
	DB	0ffH
	DB	060H
	DB	060H
	DB	060H
	DB	0ffH
	DB	060H
	DB	05cH
	DB	060H
	DB	0ffH
	DB	058H
	DB	05cH
	DB	058H
	DB	0ffH
	DB	058H
	DB	058H
	DB	058H
	DB	0ffH
	DB	050H
	DB	054H
	DB	050H
	DB	0ffH
	DB	050H
	DB	050H
	DB	050H
	DB	0ffH
	DB	050H
	DB	04cH
	DB	050H
	DB	0ffH
	DB	048H
	DB	04cH
	DB	048H
	DB	0ffH
	DB	048H
	DB	04cH
	DB	048H
	DB	0ffH
	DB	050H
	DB	04cH
	DB	050H
	DB	0ffH
	DB	050H
	DB	050H
	DB	050H
	DB	0ffH
	DB	058H
	DB	054H
	DB	058H
	DB	0ffH
	DB	058H
	DB	058H
	DB	058H
	DB	0ffH
	DB	058H
	DB	058H
	DB	058H
	DB	0ffH
	DB	060H
	DB	05cH
	DB	060H
	DB	0ffH
	DB	060H
	DB	060H
	DB	060H
	DB	0ffH
	DB	058H
	DB	05cH
	DB	058H
	DB	0ffH
	DB	060H
	DB	060H
	DB	060H
	DB	0ffH
	DB	060H
	DB	060H
	DB	060H
	DB	0ffH
	DB	058H
	DB	05cH
	DB	058H
	DB	0ffH
	DB	060H
	DB	060H
	DB	060H
	DB	0ffH
	DB	060H
	DB	060H
	DB	060H
	DB	0ffH
	DB	060H
	DB	05cH
	DB	060H
	DB	0ffH
	DB	060H
	DB	060H
	DB	060H
	DB	0ffH
	DB	058H
	DB	060H
	DB	058H
	DB	0ffH
	DB	060H
	DB	05cH
	DB	060H
	DB	0ffH
	DB	060H
	DB	05cH
	DB	060H
	DB	0ffH
	DB	060H
	DB	060H
	DB	060H
	DB	0ffH
	DB	060H
	DB	05cH
	DB	060H
	DB	0ffH
	DB	060H
	DB	060H
	DB	060H
	DB	0ffH
	DB	060H
	DB	060H
	DB	060H
	DB	0ffH
	DB	058H
	DB	05cH
	DB	060H
	DB	0ffH
	DB	058H
	DB	058H
	DB	058H
	DB	0ffH
	DB	058H
	DB	054H
	DB	050H
	DB	0ffH
	DB	050H
	DB	054H
	DB	050H
	DB	0ffH
	DB	050H
	DB	050H
	DB	050H
	DB	0ffH
	DB	058H
	DB	054H
	DB	058H
	DB	0ffH
	DB	058H
	DB	050H
	DB	050H
	DB	0ffH
	DB	050H
	DB	054H
	DB	050H
	DB	0ffH
	DB	050H
	DB	050H
	DB	050H
	DB	0ffH
	DB	058H
	DB	054H
	DB	050H
	DB	0ffH
	DB	058H
	DB	058H
	DB	058H
	DB	0ffH
	DB	058H
	DB	05cH
	DB	060H
	DB	0ffH
	DB	060H
	DB	060H
	DB	060H
	DB	0ffH
	DB	060H
	DB	060H
	DB	060H
	DB	0ffH
	DB	060H
	DB	05cH
	DB	060H
	DB	0ffH
	DB	060H
	DB	060H
	DB	058H
	DB	0ffH
	DB	060H
	DB	060H
	DB	060H
	DB	0ffH
	DB	058H
	DB	05cH
	DB	060H
	DB	0ffH
	DB	060H
	DB	05cH
	DB	060H
	DB	0ffH
	DB	060H
	DB	060H
	DB	060H
	DB	0ffH
	DB	060H
	DB	060H
	DB	060H
	DB	0ffH
	DB	060H
	DB	05cH
	DB	060H
	DB	0ffH
	DB	060H
	DB	060H
	DB	060H
	DB	0ffH
	DB	060H
	DB	060H
	DB	060H
	DB	0ffH
	DB	058H
	DB	05cH
	DB	060H
	DB	0ffH
	DB	060H
	DB	060H
	DB	060H
	DB	0ffH
	DB	060H
	DB	060H
	DB	060H
	DB	0ffH
	DB	060H
	DB	05cH
	DB	060H
	DB	0ffH
	DB	060H
	DB	060H
	DB	060H
	DB	0ffH
	DB	060H
	DB	060H
	DB	060H
	DB	0ffH
	DB	060H
	DB	060H
	DB	060H
	DB	0ffH
	DB	060H
	DB	060H
	DB	060H
	DB	0ffH
	DB	060H
	DB	060H
	DB	058H
	DB	0ffH
	DB	060H
	DB	05cH
	DB	060H
	DB	0ffH
	DB	060H
	DB	060H
	DB	060H
	DB	0ffH
	DB	060H
	DB	060H
	DB	058H
	DB	0ffH
	DB	060H
	DB	060H
	DB	060H
	DB	0ffH
	DB	060H
	DB	05cH
	DB	060H
	DB	0ffH
	DB	060H
	DB	060H
	DB	060H
	DB	0ffH
	DB	060H
	DB	060H
	DB	060H
	DB	0ffH
	DB	058H
	DB	05cH
	DB	058H
	DB	0ffH
	DB	058H
	DB	05cH
	DB	058H
	DB	0ffH
	DB	058H
	DB	058H
	DB	058H
	DB	0ffH
	DB	058H
	DB	054H
	DB	058H
	DB	0ffH
	DB	050H
	DB	050H
	DB	050H
	DB	0ffH
	DB	048H
	DB	04cH
	DB	050H
	DB	0ffH
	DB	048H
	DB	048H
	DB	048H
	DB	0ffH
	DB	048H
	DB	048H
	DB	048H
	DB	0ffH
	DB	050H
	DB	04cH
	DB	050H
	DB	0ffH
	DB	050H
	DB	050H
	DB	050H
	DB	0ffH
	DB	050H
	DB	054H
	DB	050H
	DB	0ffH
	DB	058H
	DB	058H
	DB	058H
	DB	0ffH
	DB	058H
	DB	05cH
	DB	058H
	DB	0ffH
	DB	060H
	DB	05cH
	DB	060H
	DB	0ffH
	DB	060H
	DB	060H
	DB	060H
	DB	0ffH
	DB	060H
	DB	060H
	DB	060H
	DB	0ffH
	DB	060H
	DB	05cH
	DB	060H
	DB	0ffH
	DB	060H
	DB	060H
	DB	060H
	DB	0ffH
	DB	060H
	DB	060H
	DB	060H
	DB	0ffH
	DB	060H
	DB	060H
	DB	060H
	DB	0ffH
	DB	060H
	DB	060H
	DB	060H
	DB	0ffH
	DB	060H
	DB	060H
	DB	060H
	DB	0ffH
	DB	060H
	DB	060H
	DB	060H
	DB	0ffH
	DB	060H
	DB	060H
	DB	060H
	DB	0ffH
	DB	060H
	DB	060H
	DB	060H
	DB	0ffH
	DB	060H
	DB	060H
	DB	060H
	DB	0ffH
	DB	060H
	DB	060H
	DB	060H
	DB	0ffH
	DB	060H
	DB	060H
	DB	060H
	DB	0ffH
	DB	060H
	DB	05cH
	DB	058H
	DB	0ffH
	DB	058H
	DB	05cH
	DB	060H
	DB	0ffH
	DB	058H
	DB	058H
	DB	058H
	DB	0ffH
	DB	050H
	DB	054H
	DB	050H
	DB	0ffH
	DB	050H
	DB	054H
	DB	050H
	DB	0ffH
	DB	058H
	DB	050H
	DB	058H
	DB	0ffH
	DB	050H
	DB	050H
	DB	050H
	DB	0ffH
	DB	050H
	DB	054H
	DB	050H
	DB	0ffH
	DB	058H
	DB	054H
	DB	058H
	DB	0ffH
	DB	050H
	DB	050H
	DB	050H
	DB	0ffH
	DB	058H
	DB	054H
	DB	058H
	DB	0ffH
	DB	058H
	DB	054H
	DB	058H
	DB	0ffH
	DB	060H
	DB	05cH
	DB	058H
	DB	0ffH
	DB	060H
	DB	060H
	DB	060H
	DB	0ffH
	DB	060H
	DB	060H
	DB	060H
	DB	0ffH
	DB	060H
	DB	05cH
	DB	060H
	DB	0ffH
	DB	060H
	DB	060H
	DB	060H
	DB	0ffH
	DB	060H
	DB	060H
	DB	060H
	DB	0ffH
	DB	060H
	DB	05cH
	DB	060H
	DB	0ffH
	DB	060H
	DB	060H
	DB	060H
	DB	0ffH
	DB	060H
	DB	060H
	DB	058H
	DB	0ffH
	DB	060H
	DB	060H
	DB	060H
	DB	0ffH
	DB	060H
	DB	060H
	DB	060H
	DB	0ffH
	DB	060H
	DB	060H
	DB	060H
	DB	0ffH
	DB	060H
	DB	060H
	DB	060H
	DB	0ffH
	DB	060H
	DB	060H
	DB	060H
	DB	0ffH
	DB	060H
	DB	060H
	DB	058H
	DB	0ffH
	DB	060H
	DB	060H
	DB	060H
	DB	0ffH
	DB	058H
	DB	060H
	DB	060H
	DB	0ffH
	DB	060H
	DB	05cH
	DB	060H
	DB	0ffH
	DB	060H
	DB	060H
	DB	060H
	DB	0ffH
	DB	060H
	DB	060H
	DB	060H
	DB	0ffH
	DB	060H
	DB	05cH
	DB	060H
	DB	0ffH
	DB	060H
	DB	060H
	DB	060H
	DB	0ffH
	DB	058H
	DB	060H
	DB	060H
	DB	0ffH
	DB	060H
	DB	060H
	DB	060H
	DB	0ffH
	DB	060H
	DB	05cH
	DB	060H
	DB	0ffH
	DB	060H
	DB	060H
	DB	060H
	DB	0ffH
	DB	058H
	DB	060H
	DB	060H
	DB	0ffH
	DB	060H
	DB	060H
	DB	060H
	DB	0ffH
	DB	060H
	DB	05cH
	DB	060H
	DB	0ffH
	DB	060H
	DB	060H
	DB	060H
	DB	0ffH
	DB	060H
	DB	05cH
	DB	060H
	DB	0ffH
	DB	058H
	DB	05cH
	DB	058H
	DB	0ffH
	DB	058H
	DB	054H
	DB	058H
	DB	0ffH
	DB	058H
	DB	054H
	DB	058H
	DB	0ffH
	DB	050H
	DB	050H
	DB	050H
	DB	0ffH
	DB	050H
	DB	04cH
	DB	048H
	DB	0ffH
	DB	048H
	DB	04cH
	DB	048H
	DB	0ffH
	DB	048H
	DB	04cH
	DB	048H
	DB	0ffH
	DB	050H
	DB	04cH
	DB	050H
	DB	0ffH
	DB	050H
	DB	050H
	DB	050H
	DB	0ffH
	DB	050H
	DB	054H
	DB	050H
	DB	0ffH
	DB	058H
	DB	058H
	DB	058H
	DB	0ffH
	DB	058H
	DB	05cH
	DB	058H
	DB	0ffH
	DB	060H
	DB	05cH
	DB	060H
	DB	0ffH
	DB	060H
	DB	060H
	DB	060H
	DB	0ffH
	DB	060H
	DB	060H
	DB	060H
	DB	0ffH
	DB	060H
	DB	060H
	DB	060H
	DB	0ffH
	DB	060H
	DB	05cH
	DB	060H
	DB	0ffH
	DB	060H
	DB	060H
	DB	060H
	DB	0ffH
	DB	060H
	DB	060H
	DB	060H
	DB	0ffH
	DB	058H
	DB	05cH
	DB	058H
	DB	0ffH
	DB	060H
	DB	060H
	DB	060H
	DB	0ffH
	DB	060H
	DB	05cH
	DB	060H
	DB	0ffH
	DB	060H
	DB	060H
	DB	060H
	DB	0ffH
	DB	060H
	DB	060H
	DB	060H
	DB	0ffH
	DB	058H
	DB	05cH
	DB	058H
	DB	0ffH
	DB	060H
	DB	060H
	DB	060H
	DB	0ffH
	DB	060H
	DB	060H
	DB	060H
	DB	0ffH
	DB	058H
	DB	05cH
	DB	058H
	DB	0ffH
	DB	058H
	DB	058H
	DB	058H
	DB	0ffH
	DB	058H
	DB	054H
	DB	050H
	DB	0ffH
	DB	050H
	DB	050H
	DB	050H
	DB	0ffH
	DB	050H
	DB	050H
	DB	050H
	DB	0ffH
	DB	058H
	DB	054H
	DB	050H
	DB	0ffH
	DB	050H
	DB	050H
	DB	050H
	DB	0ffH
	DB	050H
	DB	054H
	DB	050H
	DB	0ffH
	DB	050H
	DB	050H
	DB	050H
	DB	0ffH
	DB	058H
	DB	054H
	DB	058H
	DB	0ffH
	DB	058H
	DB	058H
	DB	058H
	DB	0ffH
	DB	058H
	DB	05cH
	DB	060H
	DB	0ffH
	DB	060H
	DB	060H
	DB	060H
	DB	0ffH
	DB	060H
	DB	060H
	DB	060H
	DB	0ffH
	DB	060H
	DB	05cH
	DB	060H
	DB	0ffH
	DB	060H
	DB	060H
	DB	058H
	DB	0ffH
	DB	060H
	DB	060H
	DB	060H
	DB	0ffH
	DB	060H
	DB	060H
	DB	060H
	DB	0ffH
	DB	060H
	DB	060H
	DB	060H
	DB	0ffH
	DB	060H
	DB	060H
	DB	060H
	DB	0ffH
	DB	060H
	DB	060H
	DB	060H
	DB	0ffH
	DB	058H
	DB	05cH
	DB	060H
	DB	0ffH
	DB	060H
	DB	05cH
	DB	060H
	DB	0ffH
	DB	060H
	DB	060H
	DB	058H
	DB	0ffH
	DB	058H
	DB	05cH
	DB	060H
	DB	0ffH
	DB	060H
	DB	060H
	DB	060H
	DB	0ffH
	DB	060H
	DB	060H
	DB	060H
	DB	0ffH
	DB	060H
	DB	05cH
	DB	060H
	DB	0ffH
	DB	060H
	DB	060H
	DB	060H
	DB	0ffH
	DB	060H
	DB	060H
	DB	058H
	DB	0ffH
	DB	060H
	DB	060H
	DB	060H
	DB	0ffH
	DB	058H
	DB	05cH
	DB	060H
	DB	0ffH
	DB	060H
	DB	060H
	DB	058H
	DB	0ffH
	DB	060H
	DB	060H
	DB	060H
	DB	0ffH
	DB	060H
	DB	05cH
	DB	060H
	DB	0ffH
	DB	060H
	DB	060H
	DB	060H
	DB	0ffH
	DB	060H
	DB	060H
	DB	060H
	DB	0ffH
	DB	060H
	DB	05cH
	DB	060H
	DB	0ffH
	DB	060H
	DB	060H
	DB	060H
	DB	0ffH
	DB	060H
	DB	060H
	DB	058H
	DB	0ffH
	DB	060H
	DB	060H
	DB	060H
	DB	0ffH
	DB	060H
	DB	060H
	DB	060H
	DB	0ffH
	DB	058H
	DB	05cH
	DB	058H
	DB	0ffH
	DB	058H
	DB	05cH
	DB	058H
	DB	0ffH
	DB	058H
	DB	058H
	DB	058H
	DB	0ffH
	DB	050H
	DB	054H
	DB	050H
	DB	0ffH
	DB	050H
	DB	050H
	DB	050H
	DB	0ffH
	DB	050H
	DB	04cH
	DB	050H
	DB	0ffH
	DB	048H
	DB	048H
	DB	048H
	DB	0ffH
	DB	048H
	DB	048H
	DB	048H
	DB	0ffH
	DB	050H
	DB	04cH
	DB	050H
	DB	0ffH
	DB	050H
	DB	050H
	DB	050H
	DB	0ffH
	DB	050H
	DB	054H
	DB	050H
	DB	0ffH
	DB	058H
	DB	058H
	DB	058H
	DB	0ffH
	DB	058H
	DB	05cH
	DB	058H
	DB	0ffH
	DB	060H
	DB	05cH
	DB	060H
	DB	0ffH
	DB	060H
	DB	060H
	DB	060H
	DB	0ffH
	DB	058H
	DB	060H
	DB	058H
	DB	0ffH
	DB	060H
	DB	060H
	DB	060H
	DB	0ffH
	DB	060H
	DB	060H
	DB	060H
	DB	0ffH
	DB	060H
	DB	05cH
	DB	060H
	DB	0ffH
	DB	060H
	DB	060H
	DB	060H
	DB	0ffH
	DB	060H
	DB	060H
	DB	060H
	DB	0ffH
	DB	060H
	DB	05cH
	DB	060H
	DB	0ffH
	DB	060H
	DB	060H
	DB	060H
	DB	0ffH
	DB	058H
	DB	060H
	DB	058H
	DB	0ffH
	DB	060H
	DB	05cH
	DB	060H
	DB	0ffH
	DB	060H
	DB	060H
	DB	060H
	DB	0ffH
	DB	060H
	DB	060H
	DB	060H
	DB	0ffH
	DB	060H
	DB	05cH
	DB	060H
	DB	0ffH
	DB	058H
	DB	058H
	DB	058H
	DB	0ffH
	DB	050H
	DB	054H
	DB	050H
	DB	0ffH
	DB	058H
	DB	054H
	DB	050H
	DB	0ffH
	DB	050H
	DB	050H
	DB	058H
	DB	0ffH
	DB	058H
	DB	054H
	DB	050H
	DB	0ffH
	DB	050H
	DB	054H
	DB	058H
	DB	0ffH
	DB	058H
	DB	050H
	DB	050H
	DB	0ffH
	DB	058H
	DB	050H
	DB	050H
	DB	0ffH
	DB	050H
	DB	054H
	DB	058H
	DB	0ffH
	DB	058H
	DB	058H
	DB	058H
	DB	0ffH
	DB	060H
	DB	05cH
	DB	058H
	DB	0ffH
	DB	060H
	DB	060H
	DB	060H
	DB	0ffH
	DB	060H
	DB	060H
	DB	060H
	DB	0ffH
	DB	060H
	DB	060H
	DB	060H
	DB	0ffH
	DB	060H
	DB	060H
	DB	060H
	DB	0ffH
	DB	060H
	DB	060H
	DB	060H
	DB	0ffH
	DB	058H
	DB	05cH
	DB	060H
	DB	0ffH
	DB	060H
	DB	060H
	DB	060H
	DB	0ffH
	DB	060H
	DB	060H
	DB	058H
	DB	0ffH
	DB	058H
	DB	05cH
	DB	060H
	DB	0ffH
	DB	060H
	DB	060H
	DB	060H
	DB	0ffH
	DB	060H
	DB	060H
	DB	060H
	DB	0ffH
	DB	060H
	DB	060H
	DB	060H
	DB	0ffH
	DB	060H
	DB	060H
	DB	060H
	DB	0ffH
	DB	060H
	DB	060H
	DB	060H
	DB	0ffH
	DB	060H
	DB	05cH
	DB	060H
	DB	0ffH
	DB	060H
	DB	060H
	DB	060H
	DB	0ffH
	DB	060H
	DB	060H
	DB	060H
	DB	0ffH
	DB	060H
	DB	05cH
	DB	060H
	DB	0ffH
	DB	060H
	DB	060H
	DB	060H
	DB	0ffH
	DB	060H
	DB	060H
	DB	060H
	DB	0ffH
	DB	060H
	DB	060H
	DB	060H
	DB	0ffH
	DB	060H
	DB	060H
	DB	060H
	DB	0ffH
	DB	060H
	DB	060H
	DB	060H
	DB	0ffH
	DB	060H
	DB	05cH
	DB	060H
	DB	0ffH
	DB	060H
	DB	060H
	DB	058H
	DB	0ffH
	DB	058H
	DB	060H
	DB	060H
	DB	0ffH
	DB	060H
	DB	060H
	DB	060H
	DB	0ffH
	DB	060H
	DB	060H
	DB	060H
	DB	0ffH
	DB	060H
	DB	05cH
	DB	060H
	DB	0ffH
	DB	060H
	DB	060H
	DB	060H
	DB	0ffH
	DB	060H
	DB	060H
	DB	060H
	DB	0ffH
	DB	058H
	DB	05cH
	DB	060H
	DB	0ffH
	DB	058H
	DB	05cH
	DB	058H
	DB	0ffH
	DB	058H
	DB	058H
	DB	058H
	DB	0ffH
	DB	058H
	DB	054H
	DB	058H
	DB	0ffH
	DB	050H
	DB	050H
	DB	050H
	DB	0ffH
	DB	048H
	DB	04cH
	DB	050H
	DB	0ffH
	DB	048H
	DB	04cH
	DB	048H
	DB	0ffH
	DB	048H
	DB	04cH
	DB	048H
	DB	0ffH
	DB	050H
	DB	04cH
	DB	050H
	DB	0ffH
	DB	050H
	DB	050H
	DB	050H
	DB	0ffH
	DB	058H
	DB	054H
	DB	058H
	DB	0ffH
	DB	058H
	DB	058H
	DB	058H
	DB	0ffH
	DB	058H
	DB	05cH
	DB	058H
	DB	0ffH
	DB	060H
	DB	05cH
	DB	060H
	DB	0ffH
	DB	060H
	DB	05cH
	DB	060H
	DB	0ffH
	DB	060H
	DB	060H
	DB	060H
	DB	0ffH
	DB	060H
	DB	05cH
	DB	060H
	DB	0ffH
	DB	058H
	DB	060H
	DB	058H
	DB	0ffH
	DB	060H
	DB	060H
	DB	060H
	DB	0ffH
	DB	060H
	DB	060H
	DB	060H
	DB	0ffH
	DB	060H
	DB	060H
	DB	060H
	DB	0ffH
	DB	060H
	DB	060H
	DB	060H
	DB	0ffH
	DB	060H
	DB	060H
	DB	060H
	DB	0ffH
	DB	060H
	DB	060H
	DB	060H
	DB	0ffH
	DB	060H
	DB	060H
	DB	060H
	DB	0ffH
	DB	060H
	DB	060H
	DB	060H
	DB	0ffH
	DB	060H
	DB	060H
	DB	060H
	DB	0ffH
	DB	058H
	DB	05cH
	DB	058H
	DB	0ffH
	DB	050H
	DB	054H
	DB	050H
	DB	0ffH
	DB	050H
	DB	050H
	DB	050H
	DB	0ffH
	DB	050H
	DB	054H
	DB	050H
	DB	0ffH
	DB	058H
	DB	050H
	DB	050H
	DB	0ffH
	DB	050H
	DB	054H
	DB	050H
	DB	0ffH
	DB	050H
	DB	050H
	DB	058H
	DB	0ffH
	DB	050H
	DB	054H
	DB	050H
	DB	0ffH
	DB	058H
	DB	054H
	DB	058H
	DB	0ffH
	DB	058H
	DB	058H
	DB	058H
	DB	0ffH
	DB	060H
	DB	05cH
	DB	060H
	DB	0ffH
	DB	060H
	DB	060H
	DB	060H
	DB	0ffH
	DB	060H
	DB	060H
	DB	060H
	DB	0ffH
	DB	060H
	DB	05cH
	DB	060H
	DB	0ffH
	DB	060H
	DB	060H
	DB	060H
	DB	0ffH
	DB	060H
	DB	060H
	DB	060H
	DB	0ffH
	DB	060H
	DB	05cH
	DB	060H
	DB	0ffH
	DB	060H
	DB	060H
	DB	060H
	DB	0ffH
	DB	060H
	DB	060H
	DB	060H
	DB	0ffH
	DB	060H
	DB	05cH
	DB	060H
	DB	0ffH
	DB	060H
	DB	060H
	DB	060H
	DB	0ffH
	DB	060H
	DB	060H
	DB	060H
	DB	0ffH
	DB	060H
	DB	060H
	DB	058H
	DB	0ffH
	DB	060H
	DB	05cH
	DB	060H
	DB	0ffH
	DB	060H
	DB	060H
	DB	060H
	DB	0ffH
	DB	060H
	DB	060H
	DB	060H
	DB	0ffH
	DB	058H
	DB	060H
	DB	058H
	DB	0ffH
	DB	060H
	DB	060H
	DB	060H
	DB	0ffH
	DB	060H
	DB	060H
	DB	060H
	DB	0ffH
	DB	058H
	DB	060H
	DB	058H
	DB	0ffH
	DB	060H
	DB	05cH
	DB	060H
	DB	0ffH
	DB	060H
	DB	060H
	DB	060H
	DB	0ffH
	DB	060H
	DB	060H
	DB	060H
	DB	0ffH
	DB	058H
	DB	05cH
	DB	060H
	DB	0ffH
	DB	060H
	DB	060H
	DB	060H
	DB	0ffH
	DB	060H
	DB	060H
	DB	060H
	DB	0ffH
	DB	060H
	DB	060H
	DB	060H
	DB	0ffH
	DB	060H
	DB	060H
	DB	060H
	DB	0ffH
	DB	060H
	DB	05cH
	DB	060H
	DB	0ffH
	DB	060H
	DB	060H
	DB	058H
	DB	0ffH
	DB	058H
	DB	060H
	DB	060H
	DB	0ffH
	DB	060H
	DB	05cH
	DB	060H
	DB	0ffH
	DB	060H
	DB	060H
	DB	060H
	DB	0ffH
	DB	060H
	DB	05cH
	DB	058H
	DB	0ffH
	DB	058H
	DB	058H
	DB	058H
	DB	0ffH
	DB	058H
	DB	058H
	DB	058H
	DB	0ffH
	DB	058H
	DB	054H
	DB	058H
	DB	0ffH
	DB	050H
	DB	050H
	DB	050H
	DB	0ffH
	DB	050H
	DB	04cH
	DB	048H
	DB	0ffH
	DB	048H
	DB	04cH
	DB	048H
	DB	0ffH
	DB	048H
	DB	048H
	DB	048H
	DB	0ffH
	DB	050H
	DB	04cH
	DB	050H
	DB	0ffH
	DB	050H
	DB	050H
	DB	050H
	DB	0ffH
	DB	050H
	DB	054H
	DB	050H
	DB	0ffH
	DB	058H
	DB	058H
	DB	058H
	DB	0ffH
	DB	058H
	DB	05cH
	DB	058H
	DB	0ffH
	DB	060H
	DB	05cH
	DB	060H
	DB	0ffH
	DB	060H
	DB	060H
	DB	060H
	DB	0ffH
	DB	060H
	DB	060H
	DB	060H
	DB	0ffH
	DB	060H
	DB	060H
	DB	060H
	DB	0ffH
	DB	060H
	DB	05cH
	DB	060H
	DB	0ffH
	DB	060H
	DB	060H
	DB	060H
	DB	0ffH
	DB	058H
	DB	060H
	DB	058H
	DB	0ffH
	DB	060H
	DB	05cH
	DB	060H
	DB	0ffH
	DB	060H
	DB	060H
	DB	060H
	DB	0ffH
	DB	058H
	DB	05cH
	DB	058H
	DB	0ffH
	DB	060H
	DB	060H
	DB	060H
	DB	0ffH
	DB	060H
	DB	060H
	DB	060H
	DB	0ffH
	DB	060H
	DB	05cH
	DB	060H
	DB	0ffH
	DB	060H
	DB	060H
	DB	060H
	DB	0ffH
	DB	058H
	DB	058H
	DB	058H
	DB	0ffH
	DB	050H
	DB	050H
	DB	050H
	DB	0ffH
	DB	058H
	DB	054H
	DB	058H
	DB	0ffH
	DB	050H
	DB	050H
	DB	050H
	DB	0ffH
	DB	058H
	DB	054H
	DB	050H
	DB	0ffH
	DB	050H
	DB	050H
	DB	050H
	DB	0ffH
	DB	050H
	DB	050H
	DB	050H
	DB	0ffH
	DB	058H
	DB	054H
	DB	058H
	DB	0ffH
	DB	058H
	DB	058H
	DB	058H
	DB	0ffH
	DB	060H
	DB	060H
	DB	060H
	DB	0ffH
	DB	060H
	DB	060H
	DB	060H
	DB	0ffH
	DB	060H
	DB	060H
	DB	060H
	DB	0ffH
	DB	060H
	DB	060H
	DB	060H
	DB	0ffH
	DB	060H
	DB	05cH
	DB	060H
	DB	0ffH
	DB	058H
	DB	060H
	DB	058H
	DB	0ffH
	DB	060H
	DB	060H
	DB	060H
	DB	0ffH
	DB	060H
	DB	05cH
	DB	060H
	DB	0ffH
	DB	060H
	DB	060H
	DB	058H
	DB	0ffH
	DB	060H
	DB	060H
	DB	060H
	DB	0ffH
	DB	060H
	DB	060H
	DB	060H
	DB	0ffH
	DB	060H
	DB	05cH
	DB	060H
	DB	0ffH
	DB	060H
	DB	060H
	DB	060H
	DB	0ffH
	DB	058H
	DB	060H
	DB	060H
	DB	0ffH
	DB	060H
	DB	05cH
	DB	060H
	DB	0ffH
	DB	060H
	DB	060H
	DB	060H
	DB	0ffH
	DB	060H
	DB	060H
	DB	060H
	DB	0ffH
	DB	060H
	DB	05cH
	DB	060H
	DB	0ffH
	DB	060H
	DB	05cH
	DB	060H
	DB	0ffH
	DB	060H
	DB	060H
	DB	060H
	DB	0ffH
	DB	060H
	DB	060H
	DB	060H
	DB	0ffH
	DB	060H
	DB	060H
	DB	060H
	DB	0ffH
	DB	060H
	DB	05cH
	DB	060H
	DB	0ffH
	DB	060H
	DB	060H
	DB	058H
	DB	0ffH
	DB	060H
	DB	060H
	DB	060H
	DB	0ffH
	DB	060H
	DB	05cH
	DB	060H
	DB	0ffH
	DB	060H
	DB	060H
	DB	058H
	DB	0ffH
	DB	058H
	DB	060H
	DB	060H
	DB	0ffH
	DB	060H
	DB	05cH
	DB	060H
	DB	0ffH
	DB	060H
	DB	060H
	DB	060H
	DB	0ffH
	DB	060H
	DB	060H
	DB	060H
	DB	0ffH
	DB	060H
	DB	060H
	DB	060H
	DB	0ffH
	DB	060H
	DB	060H
	DB	060H
	DB	0ffH
	DB	060H
	DB	060H
	DB	060H
	DB	0ffH
	DB	060H
	DB	05cH
	DB	060H
	DB	0ffH
	DB	058H
	DB	05cH
	DB	058H
	DB	0ffH
	DB	058H
	DB	058H
	DB	058H
	DB	0ffH
	DB	050H
	DB	054H
	DB	050H
	DB	0ffH
	DB	050H
	DB	050H
	DB	050H
	DB	0ffH
	DB	050H
	DB	04cH
	DB	050H
	DB	0ffH
	DB	048H
	DB	048H
	DB	048H
	DB	0ffH
	DB	048H
	DB	04cH
	DB	048H
	DB	0ffH
	DB	050H
	DB	04cH
	DB	050H
	DB	0ffH
	DB	050H
	DB	050H
	DB	050H
	DB	0ffH
	DB	050H
	DB	054H
	DB	050H
	DB	0ffH
	DB	058H
	DB	058H
	DB	058H
	DB	0ffH
	DB	058H
	DB	058H
	DB	058H
	DB	0ffH
	DB	060H
	DB	05cH
	DB	060H
	DB	0ffH
	DB	060H
	DB	060H
	DB	060H
	DB	0ffH
	DB	060H
	DB	060H
	DB	060H
	DB	0ffH
	DB	060H
	DB	060H
	DB	060H
	DB	0ffH
	DB	060H
	DB	060H
	DB	060H
	DB	0ffH
	DB	060H
	DB	05cH
	DB	060H
	DB	0ffH
	DB	060H
	DB	060H
	DB	060H
	DB	0ffH
	DB	060H
	DB	060H
	DB	060H
	DB	0ffH
	DB	060H
	DB	060H
	DB	060H
	DB	0ffH
	DB	060H
	DB	05cH
	DB	060H
	DB	0ffH
	DB	060H
	DB	060H
	DB	060H
	DB	0ffH
	DB	060H
	DB	060H
	DB	060H
	DB	0ffH
	DB	060H
	DB	05cH
	DB	060H
	DB	0ffH
	DB	060H
	DB	05cH
	DB	060H
	DB	0ffH
	DB	058H
	DB	058H
	DB	058H
	DB	0ffH
	DB	050H
	DB	054H
	DB	050H
	DB	0ffH
	DB	058H
	DB	054H
	DB	050H
	DB	0ffH
	DB	050H
	DB	050H
	DB	058H
	DB	0ffH
	DB	050H
	DB	054H
	DB	058H
	DB	0ffH
	DB	058H
	DB	054H
	DB	050H
	DB	0ffH
	DB	058H
	DB	050H
	DB	050H
	DB	0ffH
	DB	058H
	DB	058H
	DB	058H
	DB	0ffH
	DB	060H
	DB	05cH
	DB	060H
	DB	0ffH
	DB	060H
	DB	060H
	DB	060H
	DB	0ffH
	DB	060H
	DB	060H
	DB	060H
	DB	0ffH
	DB	060H
	DB	05cH
	DB	060H
	DB	0ffH
	DB	060H
	DB	060H
	DB	060H
	DB	0ffH
	DB	060H
	DB	060H
	DB	060H
	DB	0ffH
	DB	060H
	DB	060H
	DB	060H
	DB	0ffH
	DB	060H
	DB	060H
	DB	060H
	DB	0ffH
	DB	060H
	DB	060H
	DB	060H
	DB	0ffH
	DB	058H
	DB	060H
	DB	060H
	DB	0ffH
	DB	060H
	DB	060H
	DB	060H
	DB	0ffH
	DB	060H
	DB	060H
	DB	060H
	DB	0ffH
	DB	058H
	DB	05cH
	DB	058H
	DB	0ffH
	DB	060H
	DB	060H
	DB	060H
	DB	0ffH
	DB	060H
	DB	060H
	DB	060H
	DB	0ffH
	DB	060H
	DB	060H
	DB	060H
	DB	0ffH
	DB	060H
	DB	060H
	DB	058H
	DB	0ffH
	DB	058H
	DB	060H
	DB	060H
	DB	0ffH
	DB	060H
	DB	060H
	DB	060H
	DB	0ffH
	DB	060H
	DB	060H
	DB	060H
	DB	0ffH
	DB	060H
	DB	05cH
	DB	060H
	DB	0ffH
	DB	060H
	DB	060H
	DB	060H
	DB	0ffH
	DB	058H
	DB	060H
	DB	060H
	DB	0ffH
	DB	060H
	DB	060H
	DB	060H
	DB	0ffH
	DB	060H
	DB	060H
	DB	060H
	DB	0ffH
	DB	060H
	DB	060H
	DB	060H
	DB	0ffH
	DB	060H
	DB	060H
	DB	060H
	DB	0ffH
	DB	060H
	DB	05cH
	DB	060H
	DB	0ffH
	DB	060H
	DB	060H
	DB	060H
	DB	0ffH
	DB	060H
	DB	060H
	DB	060H
	DB	0ffH
	DB	060H
	DB	060H
	DB	060H
	DB	0ffH
	DB	060H
	DB	05cH
	DB	060H
	DB	0ffH
	DB	060H
	DB	060H
	DB	060H
	DB	0ffH
	DB	060H
	DB	060H
	DB	060H
	DB	0ffH
	DB	060H
	DB	05cH
	DB	060H
	DB	0ffH
	DB	058H
	DB	05cH
	DB	058H
	DB	0ffH
	DB	058H
	DB	05cH
	DB	058H
	DB	0ffH
	DB	058H
	DB	058H
	DB	058H
	DB	0ffH
	DB	058H
	DB	054H
	DB	058H
	DB	0ffH
	DB	050H
	DB	050H
	DB	050H
	DB	0ffH
	DB	050H
	DB	04cH
	DB	050H
	DB	0ffH
	DB	048H
	DB	04cH
	DB	048H
	DB	0ffH
	DB	048H
	DB	048H
	DB	048H
	DB	0ffH
	DB	050H
	DB	04cH
	DB	050H
	DB	0ffH
	DB	050H
	DB	050H
	DB	050H
	DB	0ffH
	DB	058H
	DB	054H
	DB	058H
	DB	0ffH
	DB	058H
	DB	058H
	DB	058H
	DB	0ffH
	DB	058H
	DB	05cH
	DB	058H
	DB	0ffH
	DB	060H
	DB	05cH
	DB	060H
	DB	0ffH
	DB	060H
	DB	060H
	DB	060H
	DB	0ffH
	DB	058H
	DB	05cH
	DB	058H
	DB	0ffH
	DB	060H
	DB	060H
	DB	060H
	DB	0ffH
	DB	060H
	DB	060H
	DB	060H
	DB	0ffH
	DB	060H
	DB	060H
	DB	060H
	DB	0ffH
	DB	060H
	DB	05cH
	DB	060H
	DB	0ffH
	DB	060H
	DB	060H
	DB	060H
	DB	0ffH
	DB	060H
	DB	060H
	DB	060H
	DB	0ffH
	DB	060H
	DB	060H
	DB	060H
	DB	0ffH
	DB	060H
	DB	060H
	DB	060H
	DB	0ffH
	DB	058H
	DB	060H
	DB	058H
	DB	0ffH
	DB	060H
	DB	060H
	DB	060H
	DB	0ffH
	DB	060H
	DB	060H
	DB	060H
	DB	0ffH
	DB	058H
	DB	05cH
	DB	058H
	DB	0ffH
	DB	058H
	DB	054H
	DB	050H
	DB	0ffH
	DB	050H
	DB	050H
	DB	050H
	DB	0ffH
	DB	050H
	DB	050H
	DB	050H
	DB	0ffH
	DB	058H
	DB	054H
	DB	050H
	DB	0ffH
	DB	050H
	DB	050H
	DB	050H
	DB	0ffH
	DB	050H
	DB	054H
	DB	050H
	DB	0ffH
	DB	050H
	DB	054H
	DB	050H
	DB	0ffH
	DB	058H
	DB	058H
	DB	058H
	DB	0ffH
	DB	060H
	DB	05cH
	DB	060H
	DB	0ffH
	DB	060H
	DB	060H
	DB	060H
	DB	0ffH
	DB	058H
	DB	060H
	DB	058H
	DB	0ffH
	DB	060H
	DB	060H
	DB	060H
	DB	0ffH
	DB	060H
	DB	05cH
	DB	060H
	DB	0ffH
	DB	060H
	DB	060H
	DB	060H
	DB	0ffH
	DB	060H
	DB	05cH
	DB	060H
	DB	0ffH
	DB	060H
	DB	060H
	DB	060H
	DB	0ffH
	DB	060H
	DB	05cH
	DB	060H
	DB	0ffH
	DB	060H
	DB	060H
	DB	060H
	DB	0ffH
	DB	060H
	DB	060H
	DB	060H
	DB	0ffH
	DB	060H
	DB	060H
	DB	060H
	DB	0ffH
	DB	060H
	DB	060H
	DB	060H
	DB	0ffH
	DB	060H
	DB	05cH
	DB	060H
	DB	0ffH
	DB	060H
	DB	060H
	DB	060H
	DB	0ffH
	DB	060H
	DB	05cH
	DB	060H
	DB	0ffH
	DB	060H
	DB	060H
	DB	060H
	DB	0ffH
	DB	060H
	DB	060H
	DB	060H
	DB	0ffH
	DB	060H
	DB	060H
	DB	058H
	DB	0ffH
	DB	058H
	DB	060H
	DB	060H
	DB	0ffH
	DB	060H
	DB	05cH
	DB	060H
	DB	0ffH
	DB	060H
	DB	060H
	DB	058H
	DB	0ffH
	DB	060H
	DB	060H
	DB	060H
	DB	0ffH
	DB	058H
	DB	05cH
	DB	060H
	DB	0ffH
	DB	060H
	DB	060H
	DB	060H
	DB	0ffH
	DB	060H
	DB	060H
	DB	060H
	DB	0ffH
	DB	058H
	DB	060H
	DB	060H
	DB	0ffH
	DB	060H
	DB	05cH
	DB	058H
	DB	0ffH
	DB	060H
	DB	060H
	DB	060H
	DB	0ffH
	DB	058H
	DB	060H
	DB	060H
	DB	0ffH
	DB	060H
	DB	05cH
	DB	058H
	DB	0ffH
	DB	060H
	DB	060H
	DB	060H
	DB	0ffH
	DB	058H
	DB	060H
	DB	060H
	DB	0ffH
	DB	060H
	DB	060H
	DB	060H
	DB	0ffH
	DB	060H
	DB	05cH
	DB	060H
	DB	0ffH
	DB	058H
	DB	05cH
	DB	058H
	DB	0ffH
	DB	058H
	DB	054H
	DB	058H
	DB	0ffH
	DB	050H
	DB	054H
	DB	058H
	DB	0ffH
	DB	050H
	DB	050H
	DB	050H
	DB	0ffH
	DB	050H
	DB	04cH
	DB	048H
	DB	0ffH
	DB	048H
	DB	048H
	DB	048H
	DB	0ffH
	DB	048H
	DB	04cH
	DB	048H
	DB	0ffH
	DB	050H
	DB	04cH
	DB	050H
	DB	0ffH
	DB	050H
	DB	050H
	DB	050H
	DB	0ffH
	DB	050H
	DB	054H
	DB	050H
	DB	0ffH
	DB	058H
	DB	058H
	DB	058H
	DB	0ffH
	DB	058H
	DB	05cH
	DB	058H
	DB	0ffH
	DB	060H
	DB	05cH
	DB	060H
	DB	0ffH
	DB	060H
	DB	060H
	DB	060H
	DB	0ffH
	DB	060H
	DB	060H
	DB	060H
	DB	0ffH
	DB	060H
	DB	05cH
	DB	060H
	DB	0ffH
	DB	060H
	DB	060H
	DB	060H
	DB	0ffH
	DB	058H
	DB	060H
	DB	058H
	DB	0ffH
	DB	060H
	DB	060H
	DB	060H
	DB	0ffH
	DB	060H
	DB	05cH
	DB	060H
	DB	0ffH
	DB	058H
	DB	060H
	DB	058H
	DB	0ffH
	DB	060H
	DB	060H
	DB	060H
	DB	0ffH
	DB	060H
	DB	05cH
	DB	060H
	DB	0ffH
	DB	060H
	DB	060H
	DB	060H
	DB	0ffH
	DB	060H
	DB	060H
	DB	060H
	DB	0ffH
	DB	060H
	DB	060H
	DB	060H
	DB	0ffH
	DB	058H
	DB	05cH
	DB	058H
	DB	0ffH
	DB	058H
	DB	054H
	DB	058H
	DB	0ffH
	DB	050H
	DB	050H
	DB	050H
	DB	0ffH
	DB	058H
	DB	054H
	DB	050H
	DB	0ffH
	DB	050H
	DB	050H
	DB	058H
	DB	0ffH
	DB	050H
	DB	050H
	DB	050H
	DB	0ffH
	DB	058H
	DB	054H
	DB	050H
	DB	0ffH
	DB	050H
	DB	050H
	DB	050H
	DB	0ffH
	DB	050H
	DB	054H
	DB	050H
	DB	0ffH
	DB	058H
	DB	058H
	DB	058H
	DB	0ffH
	DB	060H
	DB	05cH
	DB	060H
	DB	0ffH
	DB	060H
	DB	060H
	DB	060H
	DB	0ffH
	DB	060H
	DB	060H
	DB	060H
	DB	0ffH
	DB	060H
	DB	060H
	DB	060H
	DB	0ffH
	DB	058H
	DB	060H
	DB	058H
	DB	0ffH
	DB	060H
	DB	060H
	DB	060H
	DB	0ffH
	DB	060H
	DB	05cH
	DB	060H
	DB	0ffH
	DB	060H
	DB	060H
	DB	058H
	DB	0ffH
	DB	058H
	DB	060H
	DB	060H
	DB	0ffH
	DB	060H
	DB	05cH
	DB	060H
	DB	0ffH
	DB	060H
	DB	060H
	DB	060H
	DB	0ffH
	DB	060H
	DB	060H
	DB	060H
	DB	0ffH
	DB	060H
	DB	060H
	DB	058H
	DB	0ffH
	DB	058H
	DB	05cH
	DB	060H
	DB	0ffH
	DB	060H
	DB	060H
	DB	060H
	DB	0ffH
	DB	060H
	DB	05cH
	DB	060H
	DB	0ffH
	DB	060H
	DB	060H
	DB	060H
	DB	0ffH
	DB	060H
	DB	060H
	DB	060H
	DB	0ffH
	DB	060H
	DB	05cH
	DB	060H
	DB	0ffH
	DB	060H
	DB	060H
	DB	060H
	DB	0ffH
	DB	060H
	DB	060H
	DB	060H
	DB	0ffH
	DB	060H
	DB	05cH
	DB	060H
	DB	0ffH
	DB	060H
	DB	060H
	DB	060H
	DB	0ffH
	DB	060H
	DB	060H
	DB	058H
	DB	0ffH
	DB	060H
	DB	05cH
	DB	060H
	DB	0ffH
	DB	060H
	DB	060H
	DB	060H
	DB	0ffH
	DB	060H
	DB	060H
	DB	060H
	DB	0ffH
	DB	060H
	DB	060H
	DB	060H
	DB	0ffH
	DB	060H
	DB	060H
	DB	060H
	DB	0ffH
	DB	060H
	DB	060H
	DB	060H
	DB	0ffH
	DB	060H
	DB	05cH
	DB	060H
	DB	0ffH
	DB	060H
	DB	060H
	DB	058H
	DB	0ffH
	DB	060H
	DB	060H
	DB	060H
	DB	0ffH
	DB	060H
	DB	05cH
	DB	060H
	DB	0ffH
	DB	058H
	DB	05cH
	DB	058H
	DB	0ffH
	DB	058H
	DB	058H
	DB	058H
	DB	0ffH
	DB	058H
	DB	054H
	DB	050H
	DB	0ffH
	DB	050H
	DB	050H
	DB	050H
	DB	0ffH
	DB	048H
	DB	04cH
	DB	050H
	DB	0ffH
	DB	048H
	DB	04cH
	DB	048H
	DB	0ffH
	DB	048H
	DB	048H
	DB	048H
	DB	0ffH
	DB	050H
	DB	04cH
	DB	050H
	DB	0ffH
	DB	050H
	DB	050H
	DB	050H
	DB	0ffH
	DB	050H
	DB	054H
	DB	050H
	DB	0ffH
	DB	058H
	DB	058H
	DB	058H
	DB	0ffH
	DB	058H
	DB	05cH
	DB	058H
	DB	0ffH
	DB	060H
	DB	05cH
	DB	060H
	DB	0ffH
	DB	060H
	DB	060H
	DB	060H
	DB	0ffH
	DB	060H
	DB	060H
	DB	060H
	DB	0ffH
	DB	060H
	DB	060H
	DB	060H
	DB	0ffH
	DB	060H
	DB	05cH
	DB	060H
	DB	0ffH
	DB	060H
	DB	060H
	DB	060H
	DB	0ffH
	DB	060H
	DB	060H
	DB	060H
	DB	0ffH
	DB	060H
	DB	060H
	DB	060H
	DB	0ffH
	DB	060H
	DB	05cH
	DB	060H
	DB	0ffH
	DB	060H
	DB	060H
	DB	060H
	DB	0ffH
	DB	060H
	DB	060H
	DB	060H
	DB	0ffH
	DB	060H
	DB	05cH
	DB	060H
	DB	0ffH
	DB	060H
	DB	060H
	DB	060H
	DB	0ffH
	DB	060H
	DB	05cH
	DB	060H
	DB	0ffH
	DB	060H
	DB	05cH
	DB	060H
	DB	0ffH
	DB	058H
	DB	058H
	DB	058H
	DB	0ffH
	DB	050H
	DB	054H
	DB	050H
	DB	0ffH
	DB	050H
	DB	054H
	DB	050H
	DB	0ffH
	DB	058H
	DB	050H
	DB	058H
	DB	0ffH
	DB	050H
	DB	054H
	DB	050H
	DB	0ffH
	DB	058H
	DB	054H
	DB	058H
	DB	0ffH
	DB	058H
	DB	050H
	DB	058H
	DB	0ffH
	DB	050H
	DB	054H
	DB	050H
	DB	0ffH
	DB	050H
	DB	054H
	DB	050H
	DB	0ffH
	DB	058H
	DB	058H
	DB	058H
	DB	0ffH
	DB	060H
	DB	05cH
	DB	060H
	DB	0ffH
	DB	060H
	DB	060H
	DB	060H
	DB	0ffH
	DB	060H
	DB	060H
	DB	060H
	DB	0ffH
	DB	060H
	DB	05cH
	DB	060H
	DB	0ffH
	DB	060H
	DB	060H
	DB	060H
	DB	0ffH
	DB	060H
	DB	060H
	DB	060H
	DB	0ffH
	DB	060H
	DB	060H
	DB	060H
	DB	0ffH
	DB	060H
	DB	060H
	DB	060H
	DB	0ffH
	DB	060H
	DB	05cH
	DB	058H
	DB	0ffH
	DB	060H
	DB	060H
	DB	060H
	DB	0ffH
	DB	060H
	DB	060H
	DB	060H
	DB	0ffH
	DB	060H
	DB	060H
	DB	060H
	DB	0ffH
	DB	060H
	DB	060H
	DB	060H
	DB	0ffH
	DB	060H
	DB	060H
	DB	060H
	DB	0ffH
	DB	060H
	DB	060H
	DB	058H
	DB	0ffH
	DB	058H
	DB	05cH
	DB	060H
	DB	0ffH
	DB	060H
	DB	060H
	DB	060H
	DB	0ffH
	DB	060H
	DB	060H
	DB	060H
	DB	0ffH
	DB	060H
	DB	060H
	DB	060H
	DB	0ffH
	DB	060H
	DB	060H
	DB	060H
	DB	0ffH
	DB	060H
	DB	060H
	DB	060H
	DB	0ffH
	DB	060H
	DB	060H
	DB	060H
	DB	0ffH
	DB	060H
	DB	05cH
	DB	060H
	DB	0ffH
	DB	060H
	DB	060H
	DB	060H
	DB	0ffH
	DB	060H
	DB	060H
	DB	060H
	DB	0ffH
	DB	060H
	DB	05cH
	DB	060H
	DB	0ffH
	DB	060H
	DB	060H
	DB	060H
	DB	0ffH
	DB	060H
	DB	060H
	DB	060H
	DB	0ffH
	DB	060H
	DB	060H
	DB	060H
	DB	0ffH
	DB	060H
	DB	060H
	DB	060H
	DB	0ffH
	DB	060H
	DB	05cH
	DB	060H
	DB	0ffH
	DB	060H
	DB	060H
	DB	060H
	DB	0ffH
	DB	058H
	DB	05cH
	DB	058H
	DB	0ffH
	DB	058H
	DB	05cH
	DB	058H
	DB	0ffH
	DB	058H
	DB	058H
	DB	058H
	DB	0ffH
	DB	058H
	DB	054H
	DB	058H
	DB	0ffH
	DB	050H
	DB	050H
	DB	050H
	DB	0ffH
	DB	050H
	DB	04cH
	DB	050H
	DB	0ffH
	DB	048H
	DB	04cH
	DB	048H
	DB	0ffH
	DB	048H
	DB	04cH
	DB	048H
	DB	0ffH
	DB	050H
	DB	04cH
	DB	050H
	DB	0ffH
	DB	050H
	DB	050H
	DB	050H
	DB	0ffH
	DB	050H
	DB	054H
	DB	050H
	DB	0ffH
	DB	058H
	DB	058H
	DB	058H
	DB	0ffH
	DB	058H
	DB	05cH
	DB	058H
	DB	0ffH
	DB	060H
	DB	05cH
	DB	060H
	DB	0ffH
	DB	060H
	DB	05cH
	DB	060H
	DB	0ffH
	DB	058H
	DB	060H
	DB	058H
	DB	0ffH
	DB	060H
	DB	060H
	DB	060H
	DB	0ffH
	DB	060H
	DB	060H
	DB	060H
	DB	0ffH
	DB	060H
	DB	05cH
	DB	060H
	DB	0ffH
	DB	060H
	DB	060H
	DB	060H
	DB	0ffH
	DB	058H
	DB	060H
	DB	058H
	DB	0ffH
	DB	060H
	DB	060H
	DB	060H
	DB	0ffH
	DB	060H
	DB	060H
	DB	060H
	DB	0ffH
	DB	058H
	DB	060H
	DB	058H
	DB	0ffH
	DB	060H
	DB	060H
	DB	060H
	DB	0ffH
	DB	060H
	DB	060H
	DB	060H
	DB	0ffH
	DB	060H
	DB	060H
	DB	060H
	DB	0ffH
	DB	060H
	DB	060H
	DB	060H
	DB	0ffH
	DB	060H
	DB	05cH
	DB	060H
	DB	0ffH
	DB	058H
	DB	058H
	DB	058H
	DB	0ffH
	DB	050H
	DB	054H
	DB	058H
	DB	0ffH
	DB	058H
	DB	050H
	DB	050H
	DB	0ffH
	DB	050H
	DB	054H
	DB	050H
	DB	0ffH
	DB	050H
	DB	050H
	DB	050H
	DB	0ffH
	DB	050H
	DB	050H
	DB	050H
	DB	0ffH
	DB	058H
	DB	054H
	DB	050H
	DB	0ffH
	DB	050H
	DB	050H
	DB	050H
	DB	0ffH
	DB	050H
	DB	054H
	DB	050H
	DB	0ffH
	DB	058H
	DB	058H
	DB	058H
	DB	0ffH
	DB	060H
	DB	05cH
	DB	058H
	DB	0ffH
	DB	060H
	DB	060H
	DB	060H
	DB	0ffH
	DB	060H
	DB	060H
	DB	060H
	DB	0ffH
	DB	058H
	DB	05cH
	DB	060H
	DB	0ffH
	DB	060H
	DB	060H
	DB	058H
	DB	0ffH
	DB	060H
	DB	060H
	DB	060H
	DB	0ffH
	DB	060H
	DB	05cH
	DB	060H
	DB	0ffH
	DB	058H
	DB	060H
	DB	060H
	DB	0ffH
	DB	060H
	DB	060H
	DB	060H
	DB	0ffH
	DB	060H
	DB	05cH
	DB	060H
	DB	0ffH
	DB	058H
	DB	05cH
	DB	060H
	DB	0ffH
	DB	060H
	DB	060H
	DB	060H
	DB	0ffH
	DB	060H
	DB	060H
	DB	060H
	DB	0ffH
	DB	060H
	DB	060H
	DB	060H
	DB	0ffH
	DB	060H
	DB	060H
	DB	060H
	DB	0ffH
	DB	060H
	DB	05cH
	DB	060H
	DB	0ffH
	DB	060H
	DB	060H
	DB	058H
	DB	0ffH
	DB	058H
	DB	060H
	DB	060H
	DB	0ffH
	DB	060H
	DB	05cH
	DB	060H
	DB	0ffH
	DB	060H
	DB	060H
	DB	058H
	DB	0ffH
	DB	058H
	DB	060H
	DB	060H
	DB	0ffH
	DB	060H
	DB	060H
	DB	060H
	DB	0ffH
	DB	060H
	DB	060H
	DB	060H
	DB	0ffH
	DB	058H
	DB	060H
	DB	058H
	DB	0ffH
	DB	060H
	DB	05cH
	DB	060H
	DB	0ffH
	DB	060H
	DB	060H
	DB	060H
	DB	0ffH
	DB	058H
	DB	05cH
	DB	058H
	DB	0ffH
	DB	060H
	DB	060H
	DB	060H
	DB	0ffH
	DB	060H
	DB	060H
	DB	060H
	DB	0ffH
	DB	058H
	DB	060H
	DB	060H
	DB	0ffH
	DB	060H
	DB	060H
	DB	060H
	DB	0ffH
	DB	060H
	DB	05cH
	DB	060H
	DB	0ffH
	DB	058H
	DB	05cH
	DB	058H
	DB	0ffH
	DB	058H
	DB	054H
	DB	058H
	DB	0ffH
	DB	050H
	DB	054H
	DB	050H
	DB	0ffH
	DB	050H
	DB	050H
	DB	050H
	DB	0ffH
	DB	050H
	DB	04cH
	DB	050H
	DB	0ffH
	DB	048H
	DB	048H
	DB	048H
	DB	0ffH
	DB	048H
	DB	048H
	DB	048H
	DB	0ffH
	DB	050H
	DB	04cH
	DB	050H
	DB	0ffH
	DB	050H
	DB	050H
	DB	050H
	DB	0ffH
	DB	058H
	DB	054H
	DB	058H
	DB	0ffH
	DB	058H
	DB	058H
	DB	058H
	DB	0ffH
	DB	058H
	DB	05cH
	DB	058H
	DB	0ffH
	DB	060H
	DB	05cH
	DB	060H
	DB	0ffH
	DB	060H
	DB	060H
	DB	060H
	DB	0ffH
	DB	060H
	DB	060H
	DB	060H
	DB	0ffH
	DB	060H
	DB	05cH
	DB	060H
	DB	0ffH
	DB	058H
	DB	060H
	DB	058H
	DB	0ffH
	DB	060H
	DB	060H
	DB	060H
	DB	0ffH
	DB	060H
	DB	05cH
	DB	060H
	DB	0ffH
	DB	060H
	DB	060H
	DB	060H
	DB	0ffH
	DB	060H
	DB	05cH
	DB	060H
	DB	0ffH
	DB	060H
	DB	060H
	DB	060H
	DB	0ffH
	DB	060H
	DB	05cH
	DB	060H
	DB	0ffH
	DB	060H
	DB	060H
	DB	060H
	DB	0ffH
	DB	060H
	DB	060H
	DB	060H
	DB	0ffH
	DB	058H
	DB	060H
	DB	058H
	DB	0ffH
	DB	060H
	DB	060H
	DB	060H
	DB	0ffH
	DB	060H
	DB	060H
	DB	060H
	DB	0ffH
	DB	060H
	DB	05cH
	DB	060H
	DB	0ffH
	DB	058H
	DB	058H
	DB	058H
	DB	0ffH
	DB	058H
	DB	054H
	DB	050H
	DB	0ffH
	DB	050H
	DB	050H
	DB	050H
	DB	0ffH
	DB	050H
	DB	054H
	DB	050H
	DB	0ffH
	DB	058H
	DB	054H
	DB	050H
	DB	0ffH
	DB	050H
	DB	050H
	DB	058H
	DB	0ffH
	DB	058H
	DB	050H
	DB	050H
	DB	0ffH
	DB	050H
	DB	054H
	DB	050H
	DB	0ffH
	DB	050H
	DB	050H
	DB	050H
	DB	0ffH
	DB	058H
	DB	058H
	DB	058H
	DB	0ffH
	DB	058H
	DB	05cH
	DB	058H
	DB	0ffH
	DB	060H
	DB	060H
	DB	060H
	DB	0ffH
	DB	060H
	DB	060H
	DB	060H
	DB	0ffH
	DB	060H
	DB	060H
	DB	060H
	DB	0ffH
	DB	060H
	DB	060H
	DB	060H
	DB	0ffH
	DB	060H
	DB	060H
	DB	060H
	DB	0ffH
	DB	060H
	DB	060H
	DB	060H
	DB	0ffH
	DB	060H
	DB	060H
	DB	060H
	DB	0ffH
	DB	060H
	DB	060H
	DB	058H
	DB	0ffH
	DB	060H
	DB	060H
	DB	060H
	DB	0ffH
	DB	060H
	DB	05cH
	DB	060H
	DB	0ffH
	DB	060H
	DB	060H
	DB	058H
	DB	0ffH
	DB	060H
	DB	060H
	DB	060H
	DB	0ffH
	DB	060H
	DB	060H
	DB	060H
	DB	0ffH
	DB	060H
	DB	060H
	DB	060H
	DB	0ffH
	DB	060H
	DB	05cH
	DB	060H
	DB	0ffH
	DB	060H
	DB	060H
	DB	060H
	DB	0ffH
	DB	060H
	DB	060H
	DB	060H
	DB	0ffH
	DB	060H
	DB	05cH
	DB	060H
	DB	0ffH
	DB	060H
	DB	060H
	DB	060H
	DB	0ffH
	DB	060H
	DB	05cH
	DB	060H
	DB	0ffH
	DB	060H
	DB	060H
	DB	060H
	DB	0ffH
	DB	060H
	DB	060H
	DB	060H
	DB	0ffH
	DB	060H
	DB	060H
	DB	060H
	DB	0ffH
	DB	060H
	DB	060H
	DB	060H
	DB	0ffH
	DB	060H
	DB	060H
	DB	060H
	DB	0ffH
	DB	060H
	DB	05cH
	DB	060H
	DB	0ffH
	DB	060H
	DB	060H
	DB	060H
	DB	0ffH
	DB	060H
	DB	060H
	DB	058H
	DB	0ffH
	DB	060H
	DB	05cH
	DB	060H
	DB	0ffH
	DB	060H
	DB	05cH
	DB	060H
	DB	0ffH
	DB	058H
	DB	05cH
	DB	058H
	DB	0ffH
	DB	058H
	DB	058H
	DB	058H
	DB	0ffH
	DB	050H
	DB	054H
	DB	058H
	DB	0ffH
	DB	050H
	DB	050H
	DB	050H
	DB	0ffH
	DB	050H
	DB	04cH
	DB	048H
	DB	0ffH
	DB	048H
	DB	04cH
	DB	048H
	DB	0ffH
	DB	048H
	DB	04cH
	DB	048H
	DB	0ffH
	DB	050H
	DB	04cH
	DB	050H
	DB	0ffH
	DB	050H
	DB	050H
	DB	050H
	DB	0ffH
	DB	050H
	DB	054H
	DB	050H
	DB	0ffH
	DB	058H
	DB	058H
	DB	058H
	DB	0ffH
	DB	058H
	DB	058H
	DB	058H
	DB	0ffH
	DB	060H
	DB	05cH
	DB	060H
	DB	0ffH
	DB	060H
	DB	060H
	DB	060H
	DB	0ffH
	DB	060H
	DB	060H
	DB	060H
	DB	0ffH
	DB	060H
	DB	060H
	DB	060H
	DB	0ffH
	DB	060H
	DB	060H
	DB	060H
	DB	0ffH
	DB	060H
	DB	060H
	DB	060H
	DB	0ffH
	DB	060H
	DB	060H
	DB	060H
	DB	0ffH
	DB	060H
	DB	060H
	DB	060H
	DB	0ffH
	DB	060H
	DB	060H
	DB	060H
	DB	0ffH
	DB	060H
	DB	05cH
	DB	060H
	DB	0ffH
	DB	060H
	DB	060H
	DB	060H
	DB	0ffH
	DB	060H
	DB	05cH
	DB	060H
	DB	0ffH
	DB	060H
	DB	060H
	DB	060H
	DB	0ffH
	DB	060H
	DB	05cH
	DB	060H
	DB	0ffH
	DB	060H
	DB	060H
	DB	060H
	DB	0ffH
	DB	060H
	DB	060H
	DB	060H
	DB	0ffH
	DB	060H
	DB	060H
	DB	060H
	DB	0ffH
	DB	060H
	DB	05cH
	DB	060H
	DB	0ffH
	DB	058H
	DB	058H
	DB	058H
	DB	0ffH
	DB	058H
	DB	054H
	DB	058H
	DB	0ffH
	DB	050H
	DB	050H
	DB	050H
	DB	0ffH
	DB	050H
	DB	054H
	DB	058H
	DB	0ffH
	DB	058H
	DB	054H
	DB	050H
	DB	0ffH
	DB	050H
	DB	050H
	DB	050H
	DB	0ffH
	DB	050H
	DB	054H
	DB	058H
	DB	0ffH
	DB	058H
	DB	050H
	DB	050H
	DB	0ffH
	DB	050H
	DB	050H
	DB	050H
	DB	0ffH
	DB	058H
	DB	058H
	DB	058H
	DB	0ffH
	DB	058H
	DB	05cH
	DB	060H
	DB	0ffH
	DB	060H
	DB	060H
	DB	060H
	DB	0ffH
	DB	060H
	DB	05cH
	DB	060H
	DB	0ffH
	DB	060H
	DB	060H
	DB	060H
	DB	0ffH
	DB	058H
	DB	05cH
	DB	060H
	DB	0ffH
	DB	060H
	DB	060H
	DB	060H
	DB	0ffH
	DB	060H
	DB	05cH
	DB	060H
	DB	0ffH
	DB	060H
	DB	060H
	DB	060H
	DB	0ffH
	DB	060H
	DB	060H
	DB	060H
	DB	0ffH
	DB	060H
	DB	060H
	DB	060H
	DB	0ffH
	DB	058H
	DB	05cH
	DB	060H
	DB	0ffH
	DB	060H
	DB	060H
	DB	060H
	DB	0ffH
	DB	060H
	DB	05cH
	DB	060H
	DB	0ffH
	DB	058H
	DB	060H
	DB	058H
	DB	0ffH
	DB	060H
	DB	060H
	DB	060H
	DB	0ffH
	DB	060H
	DB	060H
	DB	060H
	DB	0ffH
	DB	060H
	DB	060H
	DB	060H
	DB	0ffH
	DB	060H
	DB	060H
	DB	060H
	DB	0ffH
	DB	060H
	DB	05cH
	DB	058H
	DB	0ffH
	DB	060H
	DB	060H
	DB	060H
	DB	0ffH
	DB	058H
	DB	060H
	DB	060H
	DB	0ffH
	DB	060H
	DB	05cH
	DB	060H
	DB	0ffH
	DB	060H
	DB	060H
	DB	060H
	DB	0ffH
	DB	060H
	DB	060H
	DB	058H
	DB	0ffH
	DB	060H
	DB	060H
	DB	060H
	DB	0ffH
	DB	060H
	DB	05cH
	DB	060H
	DB	0ffH
	DB	060H
	DB	060H
	DB	060H
	DB	0ffH
	DB	060H
	DB	060H
	DB	060H
	DB	0ffH
	DB	060H
	DB	060H
	DB	060H
	DB	0ffH
	DB	058H
	DB	05cH
	DB	058H
	DB	0ffH
	DB	058H
	DB	05cH
	DB	058H
	DB	0ffH
	DB	058H
	DB	058H
	DB	058H
	DB	0ffH
	DB	058H
	DB	054H
	DB	058H
	DB	0ffH
	DB	050H
	DB	050H
	DB	050H
	DB	0ffH
	DB	050H
	DB	04cH
	DB	050H
	DB	0ffH
	DB	048H
	DB	04cH
	DB	048H
	DB	0ffH
	DB	048H
	DB	048H
	DB	048H
	DB	0ffH
	DB	050H
	DB	04cH
	DB	050H
	DB	0ffH
	DB	050H
	DB	050H
	DB	050H
	DB	0ffH
	DB	050H
	DB	054H
	DB	050H
	DB	0ffH
	DB	058H
	DB	058H
	DB	058H
	DB	0ffH
	DB	058H
	DB	05cH
	DB	058H
	DB	0ffH
	DB	060H
	DB	05cH
	DB	060H
	DB	0ffH
	DB	060H
	DB	060H
	DB	060H
	DB	0ffH
	DB	058H
	DB	05cH
	DB	058H
	DB	0ffH
	DB	060H
	DB	060H
	DB	060H
	DB	0ffH
	DB	060H
	DB	05cH
	DB	060H
	DB	0ffH
	DB	060H
	DB	060H
	DB	060H
	DB	0ffH
	DB	058H
	DB	060H
	DB	058H
	DB	0ffH
	DB	060H
	DB	05cH
	DB	060H
	DB	0ffH
	DB	060H
	DB	060H
	DB	060H
	DB	0ffH
	DB	058H
	DB	060H
	DB	058H
	DB	0ffH
	DB	060H
	DB	060H
	DB	060H
	DB	0ffH
	DB	060H
	DB	060H
	DB	060H
	DB	0ffH
	DB	058H
	DB	060H
	DB	060H
	DB	0ffH
	DB	060H
	DB	060H
	DB	060H
	DB	0ffH
	DB	060H
	DB	05cH
	DB	060H
	DB	0ffH
	DB	060H
	DB	060H
	DB	060H
	DB	0ffH
	DB	060H
	DB	060H
	DB	060H
	DB	0ffH
	DB	060H
	DB	060H
	DB	060H
	DB	0ffH
	DB	060H
	DB	060H
	DB	060H
	DB	0ffH
	DB	058H
	DB	058H
	DB	058H
	DB	0ffH
	DB	058H
	DB	054H
	DB	050H
	DB	0ffH
	DB	050H
	DB	050H
	DB	050H
	DB	0ffH
	DB	050H
	DB	050H
	DB	050H
	DB	0ffH
	DB	058H
	DB	054H
	DB	050H
	DB	0ffH
	DB	050H
	DB	054H
	DB	058H
	DB	0ffH
	DB	050H
	DB	050H
	DB	050H
	DB	0ffH
	DB	058H
	DB	054H
	DB	050H
	DB	0ffH
	DB	050H
	DB	050H
	DB	050H
	DB	0ffH
	DB	058H
	DB	054H
	DB	058H
	DB	0ffH
	DB	058H
	DB	05cH
	DB	058H
	DB	0ffH
	DB	060H
	DB	060H
	DB	060H
	DB	0ffH
	DB	060H
	DB	060H
	DB	060H
	DB	0ffH
	DB	060H
	DB	060H
	DB	058H
	DB	0ffH
	DB	060H
	DB	05cH
	DB	060H
	DB	0ffH
	DB	060H
	DB	060H
	DB	060H
	DB	0ffH
	DB	058H
	DB	060H
	DB	060H
	DB	0ffH
	DB	060H
	DB	060H
	DB	060H
	DB	0ffH
	DB	060H
	DB	05cH
	DB	060H
	DB	0ffH
	DB	060H
	DB	060H
	DB	060H
	DB	0ffH
	DB	060H
	DB	060H
	DB	060H
	DB	0ffH
	DB	060H
	DB	060H
	DB	060H
	DB	0ffH
	DB	060H
	DB	05cH
	DB	060H
	DB	0ffH
	DB	060H
	DB	060H
	DB	060H
	DB	0ffH
	DB	060H
	DB	05cH
	DB	060H
	DB	0ffH
	DB	058H
	DB	060H
	DB	058H
	DB	0ffH
	DB	060H
	DB	060H
	DB	060H
	DB	0ffH
	DB	060H
	DB	060H
	DB	060H
	DB	0ffH
	DB	060H
	DB	060H
	DB	060H
	DB	0ffH
	DB	060H
	DB	060H
	DB	058H
	DB	0ffH
	DB	060H
	DB	05cH
	DB	060H
	DB	0ffH
	DB	060H
	DB	060H
	DB	060H
	DB	0ffH
	DB	058H
	DB	060H
	DB	060H
	DB	0ffH
	DB	060H
	DB	05cH
	DB	060H
	DB	0ffH
	DB	060H
	DB	060H
	DB	060H
	DB	0ffH
	DB	058H
	DB	060H
	DB	060H
	DB	0ffH
	DB	060H
	DB	05cH
	DB	060H
	DB	0ffH
	DB	060H
	DB	060H
	DB	060H
	DB	0ffH
	DB	060H
	DB	05cH
	DB	060H
	DB	0ffH
	DB	058H
	DB	05cH
	DB	058H
	DB	0ffH
	DB	058H
	DB	058H
	DB	058H
	DB	0ffH
	DB	050H
	DB	054H
	DB	050H
	DB	0ffH
	DB	050H
	DB	050H
	DB	050H
	DB	0ffH
	DB	050H
	DB	04cH
	DB	050H
	DB	0ffH
	DB	048H
	DB	048H
	DB	048H
	DB	0ffH
	DB	048H
	DB	04cH
	DB	048H
	DB	0ffH
	DB	050H
	DB	04cH
	DB	050H
	DB	0ffH
	DB	050H
	DB	050H
	DB	050H
	DB	0ffH
	DB	050H
	DB	054H
	DB	050H
	DB	0ffH
	DB	058H
	DB	058H
	DB	058H
	DB	0ffH
	DB	058H
	DB	05cH
	DB	058H
	DB	0ffH
	DB	060H
	DB	05cH
	DB	060H
	DB	0ffH
	DB	060H
	DB	060H
	DB	060H
	DB	0ffH
	DB	060H
	DB	060H
	DB	060H
	DB	0ffH
	DB	060H
	DB	060H
	DB	060H
	DB	0ffH
	DB	060H
	DB	05cH
	DB	060H
	DB	0ffH
	DB	060H
	DB	060H
	DB	060H
	DB	0ffH
	DB	060H
	DB	060H
	DB	060H
	DB	0ffH
	DB	060H
	DB	05cH
	DB	060H
	DB	0ffH
	DB	060H
	DB	060H
	DB	060H
	DB	0ffH
	DB	060H
	DB	060H
	DB	060H
	DB	0ffH
	DB	060H
	DB	05cH
	DB	060H
	DB	0ffH
	DB	060H
	DB	060H
	DB	058H
	DB	0ffH
	DB	060H
	DB	060H
	DB	060H
	DB	0ffH
	DB	060H
	DB	060H
	DB	060H
	DB	0ffH
	DB	060H
	DB	060H
	DB	058H
	DB	0ffH
	DB	058H
	DB	05cH
	DB	060H
	DB	0ffH
	DB	060H
	DB	060H
	DB	060H
	DB	0ffH
	DB	060H
	DB	060H
	DB	060H
	DB	0ffH
	DB	060H
	DB	060H
	DB	060H
	DB	0ffH
	DB	060H
	DB	05cH
	DB	060H
	DB	0ffH
	DB	058H
	DB	05cH
	DB	058H
	DB	0ffH
	DB	058H
	DB	054H
	DB	058H
	DB	0ffH
	DB	050H
	DB	050H
	DB	050H
	DB	0ffH
	DB	058H
	DB	054H
	DB	050H
	DB	0ffH
	DB	050H
	DB	050H
	DB	050H
	DB	0ffH
	DB	050H
	DB	054H
	DB	050H
	DB	0ffH
	DB	058H
	DB	054H
	DB	050H
	DB	0ffH
	DB	050H
	DB	054H
	DB	050H
	DB	0ffH
	DB	050H
	DB	050H
	DB	050H
	DB	0ffH
	DB	058H
	DB	058H
	DB	058H
	DB	0ffH
	DB	058H
	DB	05cH
	DB	058H
	DB	0ffH
	DB	060H
	DB	060H
	DB	060H
	DB	0ffH
	DB	060H
	DB	060H
	DB	060H
	DB	0ffH
	DB	060H
	DB	060H
	DB	060H
	DB	0ffH
	DB	060H
	DB	060H
	DB	058H
	DB	0ffH
	DB	060H
	DB	060H
	DB	060H
	DB	0ffH
	DB	060H
	DB	05cH
	DB	060H
	DB	0ffH
	DB	060H
	DB	060H
	DB	058H
	DB	0ffH
	DB	060H
	DB	060H
	DB	060H
	DB	0ffH
	DB	060H
	DB	060H
	DB	060H
	DB	0ffH
	DB	060H
	DB	060H
	DB	058H
	DB	0ffH
	DB	060H
	DB	060H
	DB	060H
	DB	0ffH
	DB	060H
	DB	060H
	DB	060H
	DB	0ffH
	DB	060H
	DB	060H
	DB	060H
	DB	0ffH
	DB	060H
	DB	05cH
	DB	060H
	DB	0ffH
	DB	060H
	DB	060H
	DB	060H
	DB	0ffH
	DB	058H
	DB	060H
	DB	060H
	DB	0ffH
	DB	060H
	DB	05cH
	DB	060H
	DB	0ffH
	DB	060H
	DB	060H
	DB	060H
	DB	0ffH
	DB	060H
	DB	060H
	DB	060H
	DB	0ffH
	DB	060H
	DB	060H
	DB	060H
	DB	0ffH
	DB	060H
	DB	05cH
	DB	060H
	DB	0ffH
	DB	060H
	DB	060H
	DB	060H
	DB	0ffH
	DB	060H
	DB	060H
	DB	058H
	DB	0ffH
	DB	060H
	DB	060H
	DB	060H
	DB	0ffH
	DB	060H
	DB	060H
	DB	060H
	DB	0ffH
	DB	060H
	DB	060H
	DB	060H
	DB	0ffH
	DB	058H
	DB	05cH
	DB	058H
	DB	0ffH
	DB	058H
	DB	058H
	DB	058H
	DB	0ffH
	DB	058H
	DB	058H
	DB	058H
	DB	0ffH
	DB	058H
	DB	054H
	DB	058H
	DB	0ffH
	DB	050H
	DB	050H
	DB	050H
	DB	0ffH
	DB	048H
	DB	04cH
	DB	048H
	DB	0ffH
	DB	048H
	DB	04cH
	DB	048H
	DB	0ffH
	DB	048H
	DB	048H
	DB	048H
	DB	0ffH
	DB	050H
	DB	04cH
	DB	050H
	DB	0ffH
	DB	050H
	DB	050H
	DB	050H
	DB	0ffH
	DB	058H
	DB	054H
	DB	058H
	DB	0ffH
	DB	058H
	DB	058H
	DB	058H
	DB	0ffH
	DB	058H
	DB	05cH
	DB	058H
	DB	0ffH
	DB	060H
	DB	05cH
	DB	060H
	DB	0ffH
	DB	060H
	DB	060H
	DB	060H
	DB	0ffH
	DB	060H
	DB	060H
	DB	060H
	DB	0ffH
	DB	060H
	DB	060H
	DB	060H
	DB	0ffH
	DB	060H
	DB	060H
	DB	060H
	DB	0ffH
	DB	060H
	DB	060H
	DB	060H
	DB	0ffH
	DB	060H
	DB	060H
	DB	060H
	DB	0ffH
	DB	060H
	DB	060H
	DB	060H
	DB	0ffH
	DB	060H
	DB	060H
	DB	060H
	DB	0ffH
	DB	060H
	DB	060H
	DB	060H
	DB	0ffH
	DB	060H
	DB	05cH
	DB	060H
	DB	0ffH
	DB	060H
	DB	060H
	DB	060H
	DB	0ffH
	DB	060H
	DB	05cH
	DB	060H
	DB	0ffH
	DB	060H
	DB	060H
	DB	060H
	DB	0ffH
	DB	060H
	DB	060H
	DB	060H
	DB	0ffH
	DB	060H
	DB	060H
	DB	060H
	DB	0ffH
	DB	060H
	DB	05cH
	DB	060H
	DB	0ffH
	DB	060H
	DB	060H
	DB	058H
	DB	0ffH
	DB	060H
	DB	060H
	DB	060H
	DB	0ffH
	DB	060H
	DB	060H
	DB	060H
	DB	0ffH
	DB	060H
	DB	05cH
	DB	060H
	DB	0ffH
	DB	058H
	DB	05cH
	DB	058H
	DB	0ffH
	DB	058H
	DB	054H
	DB	058H
	DB	0ffH
	DB	050H
	DB	050H
	DB	050H
	DB	0ffH
	DB	058H
	DB	050H
	DB	058H
	DB	0ffH
	DB	050H
	DB	050H
	DB	050H
	DB	0ffH
	DB	050H
	DB	054H
	DB	058H
	DB	0ffH
	DB	058H
	DB	050H
	DB	050H
	DB	0ffH
	DB	050H
	DB	054H
	DB	050H
	DB	0ffH
	DB	058H
	DB	050H
	DB	050H
	DB	0ffH
	DB	058H
	DB	054H
	DB	058H
	DB	0ffH
	DB	058H
	DB	05cH
	DB	058H
	DB	0ffH
	DB	060H
	DB	05cH
	DB	060H
	DB	0ffH
	DB	060H
	DB	060H
	DB	060H
	DB	0ffH
	DB	060H
	DB	05cH
	DB	060H
	DB	0ffH
	DB	060H
	DB	060H
	DB	060H
	DB	0ffH
	DB	058H
	DB	060H
	DB	060H
	DB	0ffH
	DB	060H
	DB	060H
	DB	060H
	DB	0ffH
	DB	060H
	DB	05cH
	DB	060H
	DB	0ffH
	DB	058H
	DB	060H
	DB	060H
	DB	0ffH
	DB	060H
	DB	05cH
	DB	060H
	DB	0ffH
	DB	060H
	DB	060H
	DB	060H
	DB	0ffH
	DB	058H
	DB	060H
	DB	060H
	DB	0ffH
	DB	060H
	DB	060H
	DB	060H
	DB	0ffH
	DB	060H
	DB	05cH
	DB	060H
	DB	0ffH
	DB	060H
	DB	060H
	DB	060H
	DB	0ffH
	DB	060H
	DB	060H
	DB	060H
	DB	0ffH
	DB	060H
	DB	05cH
	DB	060H
	DB	0ffH
	DB	060H
	DB	060H
	DB	060H
	DB	0ffH
	DB	058H
	DB	060H
	DB	060H
	DB	0ffH
	DB	060H
	DB	05cH
	DB	058H
	DB	0ffH
	DB	060H
	DB	060H
	DB	060H
	DB	0ffH
	DB	060H
	DB	060H
	DB	060H
	DB	0ffH
	DB	058H
	DB	05cH
	DB	060H
	DB	0ffH
	DB	060H
	DB	060H
	DB	060H
	DB	0ffH
	DB	060H
	DB	060H
	DB	060H
	DB	0ffH
	DB	060H
	DB	060H
	DB	060H
	DB	0ffH
	DB	060H
	DB	05cH
	DB	058H
	DB	0ffH
	DB	058H
	DB	05cH
	DB	058H
	DB	0ffH
	DB	058H
	DB	058H
	DB	058H
	DB	0ffH
	DB	058H
	DB	054H
	DB	058H
	DB	0ffH
	DB	050H
	DB	050H
	DB	050H
	DB	0ffH
	DB	050H
	DB	04cH
	DB	050H
	DB	0ffH
	DB	048H
	DB	048H
	DB	048H
	DB	0ffH
	DB	048H
	DB	04cH
	DB	048H
	DB	0ffH
	DB	050H
	DB	04cH
	DB	050H
	DB	0ffH
	DB	050H
	DB	050H
	DB	050H
	DB	0ffH
	DB	050H
	DB	054H
	DB	050H
	DB	0ffH
	DB	058H
	DB	058H
	DB	058H
	DB	0ffH
	DB	058H
	DB	05cH
	DB	058H
	DB	0ffH
	DB	060H
	DB	05cH
	DB	060H
	DB	0ffH
	DB	060H
	DB	05cH
	DB	060H
	DB	0ffH
	DB	058H
	DB	060H
	DB	058H
	DB	0ffH
	DB	060H
	DB	05cH
	DB	060H
	DB	0ffH
	DB	060H
	DB	060H
	DB	060H
	DB	0ffH
	DB	058H
	DB	05cH
	DB	058H
	DB	0ffH
	DB	060H
	DB	060H
	DB	060H
	DB	0ffH
	DB	060H
	DB	05cH
	DB	060H
	DB	0ffH
	DB	058H
	DB	060H
	DB	058H
	DB	0ffH
	DB	060H
	DB	060H
	DB	060H
	DB	0ffH
	DB	060H
	DB	060H
	DB	060H
	DB	0ffH
	DB	058H
	DB	060H
	DB	060H
	DB	0ffH
	DB	060H
	DB	060H
	DB	060H
	DB	0ffH
	DB	060H
	DB	05cH
	DB	060H
	DB	0ffH
	DB	058H
	DB	060H
	DB	060H
	DB	0ffH
	DB	060H
	DB	060H
	DB	060H
	DB	0ffH
	DB	060H
	DB	060H
	DB	060H
	DB	0ffH
	DB	058H
	DB	05cH
	DB	060H
	DB	0ffH
	DB	060H
	DB	060H
	DB	060H
	DB	0ffH
	DB	060H
	DB	060H
	DB	060H
	DB	0ffH
	DB	060H
	DB	060H
	DB	060H
	DB	0ffH
	DB	060H
	DB	060H
	DB	060H
	DB	0ffH
	DB	058H
	DB	05cH
	DB	058H
	DB	0ffH
	DB	058H
	DB	054H
	DB	058H
	DB	0ffH
	DB	050H
	DB	054H
	DB	050H
	DB	0ffH
	DB	058H
	DB	054H
	DB	050H
	DB	0ffH
	DB	050H
	DB	050H
	DB	050H
	DB	0ffH
	DB	050H
	DB	050H
	DB	058H
	DB	0ffH
	DB	058H
	DB	054H
	DB	050H
	DB	0ffH
	DB	050H
	DB	050H
	DB	050H
	DB	0ffH
	DB	050H
	DB	050H
	DB	050H
	DB	0ffH
	DB	058H
	DB	054H
	DB	058H
	DB	0ffH
	DB	058H
	DB	05cH
	DB	058H
	DB	0ffH
	DB	058H
	DB	05cH
	DB	060H
	DB	0ffH
	DB	060H
	DB	060H
	DB	060H
	DB	0ffH
	DB	060H
	DB	060H
	DB	060H
	DB	0ffH
	DB	060H
	DB	060H
	DB	060H
	DB	0ffH
	DB	060H
	DB	05cH
	DB	060H
	DB	0ffH
	DB	060H
	DB	060H
	DB	060H
	DB	0ffH
	DB	060H
	DB	060H
	DB	060H
	DB	0ffH
	DB	060H
	DB	060H
	DB	060H
	DB	0ffH
	DB	060H
	DB	05cH
	DB	060H
	DB	0ffH
	DB	060H
	DB	060H
	DB	058H
	DB	0ffH
	DB	060H
	DB	060H
	DB	060H
	DB	0ffH
	DB	060H
	DB	060H
	DB	060H
	DB	0ffH
	DB	060H
	DB	060H
	DB	058H
	DB	0ffH
	DB	060H
	DB	060H
	DB	060H
	DB	0ffH
	DB	060H
	DB	060H
	DB	060H
	DB	0ffH
	DB	060H
	DB	060H
	DB	058H
	DB	0ffH
	DB	060H
	DB	060H
	DB	060H
	DB	0ffH
	DB	060H
	DB	060H
	DB	060H
	DB	0ffH
	DB	060H
	DB	060H
	DB	060H
	DB	0ffH
	DB	060H
	DB	060H
	DB	060H
	DB	0ffH
	DB	060H
	DB	05cH
	DB	060H
	DB	0ffH
	DB	060H
	DB	060H
	DB	058H
	DB	0ffH
	DB	060H
	DB	05cH
	DB	060H
	DB	0ffH
	DB	060H
	DB	060H
	DB	060H
	DB	0ffH
	DB	058H
	DB	05cH
	DB	060H
	DB	0ffH
	DB	058H
	DB	05cH
	DB	058H
	DB	0ffH
	DB	058H
	DB	058H
	DB	058H
	DB	0ffH
	DB	050H
	DB	054H
	DB	050H
	DB	0ffH
	DB	050H
	DB	050H
	DB	050H
	DB	0ffH
	DB	050H
	DB	04cH
	DB	050H
	DB	0ffH
	DB	048H
	DB	04cH
	DB	048H
	DB	0ffH
	DB	048H
	DB	048H
	DB	048H
	DB	0ffH
	DB	050H
	DB	04cH
	DB	050H
	DB	0ffH
	DB	050H
	DB	050H
	DB	050H
	DB	0ffH
	DB	050H
	DB	054H
	DB	050H
	DB	0ffH
	DB	058H
	DB	058H
	DB	058H
	DB	0ffH
	DB	058H
	DB	05cH
	DB	058H
	DB	0ffH
	DB	060H
	DB	05cH
	DB	060H
	DB	0ffH
	DB	060H
	DB	060H
	DB	060H
	DB	0ffH
	DB	060H
	DB	060H
	DB	060H
	DB	0ffH
	DB	060H
	DB	060H
	DB	060H
	DB	0ffH
	DB	060H
	DB	05cH
	DB	060H
	DB	0ffH
	DB	060H
	DB	060H
	DB	060H
	DB	0ffH
	DB	060H
	DB	060H
	DB	060H
	DB	0ffH
	DB	060H
	DB	060H
	DB	060H
	DB	0ffH
	DB	060H
	DB	05cH
	DB	060H
	DB	0ffH
	DB	060H
	DB	060H
	DB	060H
	DB	0ffH
	DB	060H
	DB	060H
	DB	058H
	DB	0ffH
	DB	060H
	DB	05cH
	DB	060H
	DB	0ffH
	DB	060H
	DB	060H
	DB	060H
	DB	0ffH
	DB	060H
	DB	060H
	DB	058H
	DB	0ffH
	DB	060H
	DB	05cH
	DB	060H
	DB	0ffH
	DB	060H
	DB	060H
	DB	060H
	DB	0ffH
	DB	060H
	DB	060H
	DB	058H
	DB	0ffH
	DB	060H
	DB	060H
	DB	060H
	DB	0ffH
	DB	060H
	DB	05cH
	DB	060H
	DB	0ffH
	DB	060H
	DB	060H
	DB	060H
	DB	0ffH
	DB	060H
	DB	060H
	DB	060H
	DB	0ffH
	DB	060H
	DB	060H
	DB	060H
	DB	0ffH
	DB	060H
	DB	060H
	DB	060H
	DB	0ffH
	DB	058H
	DB	05cH
	DB	060H
	DB	0ffH
	DB	058H
	DB	054H
	DB	058H
	DB	0ffH
	DB	050H
	DB	054H
	DB	050H
	DB	0ffH
	DB	058H
	DB	050H
	DB	050H
	DB	0ffH
	DB	050H
	DB	054H
	DB	050H
	DB	0ffH
	DB	050H
	DB	054H
	DB	058H
	DB	0ffH
	DB	050H
	DB	054H
	DB	050H
	DB	0ffH
	DB	050H
	DB	050H
	DB	050H
	DB	0ffH
	DB	058H
	DB	054H
	DB	050H
	DB	0ffH
	DB	058H
	DB	054H
	DB	050H
	DB	0ffH
	DB	058H
	DB	058H
	DB	058H
	DB	0ffH
	DB	060H
	DB	05cH
	DB	060H
	DB	0ffH
	DB	060H
	DB	060H
	DB	058H
	DB	0ffH
	DB	060H
	DB	060H
	DB	060H
	DB	0ffH
	DB	060H
	DB	060H
	DB	060H
	DB	0ffH
	DB	060H
	DB	060H
	DB	058H
	DB	0ffH
	DB	060H
	DB	060H
	DB	060H
	DB	0ffH
	DB	058H
	DB	05cH
	DB	060H
	DB	0ffH
	DB	060H
	DB	060H
	DB	060H
	DB	0ffH
	DB	060H
	DB	060H
	DB	060H
	DB	0ffH
	DB	060H
	DB	05cH
	DB	060H
	DB	0ffH
	DB	058H
	DB	060H
	DB	060H
	DB	0ffH
	DB	060H
	DB	05cH
	DB	060H
	DB	0ffH
	DB	060H
	DB	05cH
	DB	060H
	DB	0ffH
	DB	058H
	DB	060H
	DB	060H
	DB	0ffH
	DB	060H
	DB	05cH
	DB	060H
	DB	0ffH
	DB	060H
	DB	060H
	DB	060H
	DB	0ffH
	DB	060H
	DB	060H
	DB	060H
	DB	0ffH
	DB	058H
	DB	05cH
	DB	060H
	DB	0ffH
	DB	060H
	DB	060H
	DB	060H
	DB	0ffH
	DB	060H
	DB	060H
	DB	060H
	DB	0ffH
	DB	060H
	DB	060H
	DB	060H
	DB	0ffH
	DB	060H
	DB	060H
	DB	060H
	DB	0ffH
	DB	060H
	DB	05cH
	DB	060H
	DB	0ffH
	DB	060H
	DB	05cH
	DB	060H
	DB	0ffH
	DB	058H
	DB	05cH
	DB	058H
	DB	0ffH
	DB	058H
	DB	054H
	DB	058H
	DB	0ffH
	DB	058H
	DB	054H
	DB	058H
	DB	0ffH
	DB	050H
	DB	050H
	DB	050H
	DB	0ffH
	DB	050H
	DB	04cH
	DB	050H
	DB	0ffH
	DB	048H
	DB	048H
	DB	048H
	DB	0ffH
	DB	048H
	DB	04cH
	DB	048H
	DB	0ffH
	DB	050H
	DB	04cH
	DB	050H
	DB	0ffH
	DB	050H
	DB	050H
	DB	050H
	DB	0ffH
	DB	050H
	DB	054H
	DB	050H
	DB	0ffH
	DB	058H
	DB	058H
	DB	058H
	DB	0ffH
	DB	058H
	DB	058H
	DB	058H
	DB	0ffH
	DB	060H
	DB	05cH
	DB	060H
	DB	0ffH
	DB	060H
	DB	060H
	DB	060H
	DB	0ffH
	DB	060H
	DB	060H
	DB	060H
	DB	0ffH
	DB	060H
	DB	060H
	DB	060H
	DB	0ffH
	DB	060H
	DB	060H
	DB	060H
	DB	0ffH
	DB	060H
	DB	060H
	DB	060H
	DB	0ffH
	DB	058H
	DB	060H
	DB	058H
	DB	0ffH
	DB	060H
	DB	060H
	DB	060H
	DB	0ffH
	DB	060H
	DB	05cH
	DB	060H
	DB	0ffH
	DB	060H
	DB	060H
	DB	060H
	DB	0ffH
	DB	058H
	DB	060H
	DB	060H
	DB	0ffH
	DB	060H
	DB	05cH
	DB	060H
	DB	0ffH
	DB	060H
	DB	060H
	DB	060H
	DB	0ffH
	DB	060H
	DB	060H
	DB	060H
	DB	0ffH
	DB	060H
	DB	060H
	DB	060H
	DB	0ffH
	DB	060H
	DB	05cH
	DB	060H
	DB	0ffH
	DB	060H
	DB	060H
	DB	060H
	DB	0ffH
	DB	060H
	DB	060H
	DB	060H
	DB	0ffH
	DB	060H
	DB	060H
	DB	060H
	DB	0ffH
	DB	058H
	DB	05cH
	DB	060H
	DB	0ffH
	DB	060H
	DB	05cH
	DB	060H
	DB	0ffH
	DB	060H
	DB	060H
	DB	060H
	DB	0ffH
	DB	060H
	DB	060H
	DB	060H
	DB	0ffH
	DB	060H
	DB	05cH
	DB	060H
	DB	0ffH
	DB	058H
	DB	05cH
	DB	058H
	DB	0ffH
	DB	058H
	DB	054H
	DB	058H
	DB	0ffH
	DB	058H
	DB	050H
	DB	050H
	DB	0ffH
	DB	050H
	DB	054H
	DB	050H
	DB	0ffH
	DB	058H
	DB	050H
	DB	050H
	DB	0ffH
	DB	058H
	DB	050H
	DB	058H
	DB	0ffH
	DB	050H
	DB	054H
	DB	050H
	DB	0ffH
	DB	050H
	DB	054H
	DB	050H
	DB	0ffH
	DB	050H
	DB	050H
	DB	050H
	DB	0ffH
	DB	058H
	DB	054H
	DB	058H
	DB	0ffH
	DB	058H
	DB	058H
	DB	058H
	DB	0ffH
	DB	058H
	DB	05cH
	DB	060H
	DB	0ffH
	DB	060H
	DB	060H
	DB	060H
	DB	0ffH
	DB	060H
	DB	060H
	DB	060H
	DB	0ffH
	DB	058H
	DB	05cH
	DB	060H
	DB	0ffH
	DB	060H
	DB	060H
	DB	060H
	DB	0ffH
	DB	060H
	DB	060H
	DB	058H
	DB	0ffH
	DB	060H
	DB	060H
	DB	060H
	DB	0ffH
	DB	060H
	DB	05cH
	DB	060H
	DB	0ffH
	DB	060H
	DB	060H
	DB	060H
	DB	0ffH
	DB	060H
	DB	060H
	DB	060H
	DB	0ffH
	DB	060H
	DB	060H
	DB	060H
	DB	0ffH
	DB	060H
	DB	060H
	DB	060H
	DB	0ffH
	DB	060H
	DB	060H
	DB	060H
	DB	0ffH
	DB	060H
	DB	05cH
	DB	060H
	DB	0ffH
	DB	060H
	DB	060H
	DB	060H
	DB	0ffH
	DB	060H
	DB	060H
	DB	058H
	DB	0ffH
	DB	060H
	DB	05cH
	DB	060H
	DB	0ffH
	DB	060H
	DB	060H
	DB	060H
	DB	0ffH
	DB	060H
	DB	060H
	DB	060H
	DB	0ffH
	DB	058H
	DB	060H
	DB	060H
	DB	0ffH
	DB	060H
	DB	060H
	DB	060H
	DB	0ffH
	DB	060H
	DB	060H
	DB	060H
	DB	0ffH
	DB	058H
	DB	05cH
	DB	058H
	DB	0ffH
	DB	058H
	DB	05cH
	DB	058H
	DB	0ffH
	DB	058H
	DB	058H
	DB	058H
	DB	0ffH
	DB	050H
	DB	054H
	DB	050H
	DB	0ffH
	DB	050H
	DB	050H
	DB	050H
	DB	0ffH
	DB	050H
	DB	04cH
	DB	050H
	DB	0ffH
	DB	048H
	DB	04cH
	DB	048H
	DB	0ffH
	DB	048H
	DB	048H
	DB	048H
	DB	0ffH
	DB	050H
	DB	04cH
	DB	050H
	DB	0ffH
	DB	050H
	DB	050H
	DB	050H
	DB	0ffH
	DB	058H
	DB	054H
	DB	058H
	DB	0ffH
	DB	058H
	DB	058H
	DB	058H
	DB	0ffH
	DB	058H
	DB	05cH
	DB	058H
	DB	0ffH
	DB	060H
	DB	05cH
	DB	060H
	DB	0ffH
	DB	060H
	DB	060H
	DB	060H
	DB	0ffH
	DB	058H
	DB	05cH
	DB	058H
	DB	0ffH
	DB	060H
	DB	060H
	DB	060H
	DB	0ffH
	DB	060H
	DB	060H
	DB	060H
	DB	0ffH
	DB	060H
	DB	05cH
	DB	060H
	DB	0ffH
	DB	060H
	DB	060H
	DB	060H
	DB	0ffH
	DB	060H
	DB	060H
	DB	060H
	DB	0ffH
	DB	060H
	DB	060H
	DB	060H
	DB	0ffH
	DB	060H
	DB	060H
	DB	060H
	DB	0ffH
	DB	060H
	DB	060H
	DB	060H
	DB	0ffH
	DB	060H
	DB	060H
	DB	060H
	DB	0ffH
	DB	060H
	DB	060H
	DB	060H
	DB	0ffH
	DB	058H
	DB	060H
	DB	060H
	DB	0ffH
	DB	060H
	DB	060H
	DB	058H
	DB	0ffH
	DB	060H
	DB	060H
	DB	060H
	DB	0ffH
	DB	058H
	DB	05cH
	DB	060H
	DB	0ffH
	DB	060H
	DB	060H
	DB	060H
	DB	0ffH
	DB	060H
	DB	060H
	DB	058H
	DB	0ffH
	DB	060H
	DB	060H
	DB	060H
	DB	0ffH
	DB	060H
	DB	060H
	DB	060H
	DB	0ffH
	DB	060H
	DB	060H
	DB	060H
	DB	0ffH
	DB	060H
	DB	060H
	DB	060H
	DB	0ffH
	DB	060H
	DB	060H
	DB	060H
	DB	0ffH
	DB	060H
	DB	060H
	DB	060H
	DB	0ffH
	DB	058H
	DB	05cH
	DB	060H
	DB	0ffH
	DB	058H
	DB	058H
	DB	058H
	DB	0ffH
	DB	050H
	DB	050H
	DB	050H
	DB	0ffH
	DB	050H
	DB	050H
	DB	050H
	DB	0ffH
	DB	058H
	DB	054H
	DB	050H
	DB	0ffH
	DB	050H
	DB	050H
	DB	058H
	DB	0ffH
	DB	050H
	DB	050H
	DB	050H
	DB	0ffH
	DB	050H
	DB	054H
	DB	050H
	DB	0ffH
	DB	050H
	DB	054H
	DB	050H
	DB	0ffH
	DB	058H
	DB	054H
	DB	050H
	DB	0ffH
	DB	058H
	DB	058H
	DB	058H
	DB	0ffH
	DB	060H
	DB	05cH
	DB	060H
	DB	0ffH
	DB	060H
	DB	060H
	DB	060H
	DB	0ffH
	DB	060H
	DB	060H
	DB	060H
	DB	0ffH
	DB	060H
	DB	05cH
	DB	060H
	DB	0ffH
	DB	060H
	DB	060H
	DB	060H
	DB	0ffH
	DB	060H
	DB	060H
	DB	060H
	DB	0ffH
	DB	058H
	DB	060H
	DB	060H
	DB	0ffH
	DB	060H
	DB	060H
	DB	058H
	DB	0ffH
	DB	060H
	DB	060H
	DB	060H
	DB	0ffH
	DB	060H
	DB	05cH
	DB	060H
	DB	0ffH
	DB	060H
	DB	060H
	DB	058H
	DB	0ffH
	DB	060H
	DB	060H
	DB	060H
	DB	0ffH
	DB	058H
	DB	060H
	DB	060H
	DB	0ffH
	DB	060H
	DB	060H
	DB	060H
	DB	0ffH
	DB	060H
	DB	060H
	DB	060H
	DB	0ffH
	DB	060H
	DB	060H
	DB	060H
	DB	0ffH
	DB	060H
	DB	05cH
	DB	058H
	DB	0ffH
	DB	060H
	DB	060H
	DB	060H
	DB	0ffH
	DB	060H
	DB	05cH
	DB	060H
	DB	0ffH
	DB	060H
	DB	060H
	DB	058H
	DB	0ffH
	DB	060H
	DB	060H
	DB	060H
	DB	0ffH
	DB	060H
	DB	05cH
	DB	060H
	DB	0ffH
	DB	058H
	DB	05cH
	DB	058H
	DB	0ffH
	DB	058H
	DB	058H
	DB	058H
	DB	0ffH
	DB	058H
	DB	054H
	DB	058H
	DB	0ffH
	DB	050H
	DB	050H
	DB	050H
	DB	0ffH
	DB	048H
	DB	04cH
	DB	048H
	DB	0ffH
	DB	048H
	DB	04cH
	DB	048H
	DB	0ffH
	DB	048H
	DB	04cH
	DB	048H
	DB	0ffH
	DB	050H
	DB	04cH
	DB	050H
	DB	0ffH
	DB	050H
	DB	050H
	DB	050H
	DB	0ffH
	DB	050H
	DB	054H
	DB	050H
	DB	0ffH
	DB	058H
	DB	058H
	DB	058H
	DB	0ffH
	DB	058H
	DB	05cH
	DB	058H
	DB	0ffH
	DB	060H
	DB	05cH
	DB	060H
	DB	0ffH
	DB	060H
	DB	060H
	DB	060H
	DB	0ffH
	DB	060H
	DB	060H
	DB	060H
	DB	0ffH
	DB	060H
	DB	05cH
	DB	060H
	DB	0ffH
	DB	060H
	DB	060H
	DB	060H
	DB	0ffH
	DB	058H
	DB	060H
	DB	058H
	DB	0ffH
	DB	060H
	DB	05cH
	DB	060H
	DB	0ffH
	DB	060H
	DB	060H
	DB	060H
	DB	0ffH
	DB	058H
	DB	05cH
	DB	058H
	DB	0ffH
	DB	060H
	DB	060H
	DB	060H
	DB	0ffH
	DB	060H
	DB	05cH
	DB	060H
	DB	0ffH
	DB	060H
	DB	060H
	DB	058H
	DB	0ffH
	DB	060H
	DB	05cH
	DB	060H
	DB	0ffH
	DB	060H
	DB	05cH
	DB	060H
	DB	0ffH
	DB	060H
	DB	060H
	DB	060H
	DB	0ffH
	DB	060H
	DB	060H
	DB	060H
	DB	0ffH
	DB	060H
	DB	060H
	DB	060H
	DB	0ffH
	DB	060H
	DB	05cH
	DB	060H
	DB	0ffH
	DB	060H
	DB	060H
	DB	060H
	DB	0ffH
	DB	060H
	DB	060H
	DB	060H
	DB	0ffH
	DB	060H
	DB	05cH
	DB	060H
	DB	0ffH
	DB	060H
	DB	060H
	DB	058H
	DB	0ffH
	DB	060H
	DB	05cH
	DB	060H
	DB	0ffH
	DB	060H
	DB	060H
	DB	060H
	DB	0ffH
	DB	060H
	DB	060H
	DB	060H
	DB	0ffH
	DB	060H
	DB	060H
	DB	060H
	DB	0ffH
	DB	060H
	DB	05cH
	DB	058H
	DB	0ffH
	DB	058H
	DB	058H
	DB	058H
	DB	0ffH
	DB	050H
	DB	054H
	DB	050H
	DB	0ffH
	DB	050H
	DB	054H
	DB	050H
	DB	0ffH
	DB	058H
	DB	050H
	DB	050H
	DB	0ffH
	DB	058H
	DB	054H
	DB	058H
	DB	0ffH
	DB	050H
	DB	050H
	DB	050H
	DB	0ffH
	DB	058H
	DB	050H
	DB	050H
	DB	0ffH
	DB	050H
	DB	054H
	DB	050H
	DB	0ffH
	DB	050H
	DB	054H
	DB	050H
	DB	0ffH
	DB	058H
	DB	058H
	DB	058H
	DB	0ffH
	DB	060H
	DB	05cH
	DB	058H
	DB	0ffH
	DB	060H
	DB	060H
	DB	060H
	DB	0ffH
	DB	060H
	DB	060H
	DB	060H
	DB	0ffH
	DB	060H
	DB	05cH
	DB	060H
	DB	0ffH
	DB	060H
	DB	060H
	DB	060H
	DB	0ffH
	DB	060H
	DB	060H
	DB	060H
	DB	0ffH
	DB	060H
	DB	05cH
	DB	060H
	DB	0ffH
	DB	058H
	DB	060H
	DB	060H
	DB	0ffH
	DB	060H
	DB	060H
	DB	060H
	DB	0ffH
	DB	060H
	DB	05cH
	DB	060H
	DB	0ffH
	DB	060H
	DB	060H
	DB	060H
	DB	0ffH
	DB	060H
	DB	060H
	DB	058H
	DB	0ffH
	DB	060H
	DB	05cH
	DB	060H
	DB	0ffH
	DB	058H
	DB	060H
	DB	060H
	DB	0ffH
	DB	060H
	DB	060H
	DB	060H
	DB	0ffH
	DB	060H
	DB	060H
	DB	060H
	DB	0ffH
	DB	058H
	DB	060H
	DB	060H
	DB	0ffH
	DB	060H
	DB	05cH
	DB	060H
	DB	0ffH
	DB	060H
	DB	060H
	DB	060H
	DB	0ffH
	DB	060H
	DB	060H
	DB	060H
	DB	0ffH
	DB	058H
	DB	05cH
	DB	060H
	DB	0ffH
	DB	058H
	DB	05cH
	DB	058H
	DB	0ffH
	DB	058H
	DB	054H
	DB	058H
	DB	0ffH
	DB	058H
	DB	054H
	DB	058H
	DB	0ffH
	DB	050H
	DB	050H
	DB	050H
	DB	0ffH
	DB	050H
	DB	04cH
	DB	050H
	DB	0ffH
	DB	048H
	DB	048H
	DB	048H
	DB	0ffH
	DB	048H
	DB	048H
	DB	048H
	DB	0ffH
	DB	050H
	DB	04cH
	DB	050H
	DB	0ffH
	DB	050H
	DB	050H
	DB	050H
	DB	0ffH
	DB	050H
	DB	054H
	DB	050H
	DB	0ffH
	DB	058H
	DB	058H
	DB	058H
	DB	0ffH
	DB	058H
	DB	05cH
	DB	058H
	DB	0ffH
	DB	060H
	DB	05cH
	DB	060H
	DB	0ffH
	DB	060H
	DB	060H
	DB	060H
	DB	0ffH
	DB	060H
	DB	060H
	DB	060H
	DB	0ffH
	DB	060H
	DB	060H
	DB	060H
	DB	0ffH
	DB	060H
	DB	060H
	DB	060H
	DB	0ffH
	DB	060H
	DB	060H
	DB	060H
	DB	0ffH
	DB	060H
	DB	060H
	DB	060H
	DB	0ffH
	DB	060H
	DB	05cH
	DB	060H
	DB	0ffH
	DB	060H
	DB	060H
	DB	060H
	DB	0ffH
	DB	060H
	DB	060H
	DB	060H
	DB	0ffH
	DB	060H
	DB	060H
	DB	060H
	DB	0ffH
	DB	058H
	DB	060H
	DB	060H
	DB	0ffH
	DB	060H
	DB	060H
	DB	060H
	DB	0ffH
	DB	060H
	DB	060H
	DB	060H
	DB	0ffH
	DB	060H
	DB	05cH
	DB	060H
	DB	0ffH
	DB	060H
	DB	060H
	DB	060H
	DB	0ffH
	DB	060H
	DB	060H
	DB	058H
	DB	0ffH
	DB	058H
	DB	060H
	DB	060H
	DB	0ffH
	DB	060H
	DB	05cH
	DB	060H
	DB	0ffH
	DB	060H
	DB	060H
	DB	060H
	DB	0ffH
	DB	058H
	DB	060H
	DB	060H
	DB	0ffH
	DB	060H
	DB	060H
	DB	060H
	DB	0ffH
	DB	060H
	DB	05cH
	DB	060H
	DB	0ffH
	DB	060H
	DB	060H
	DB	060H
	DB	0ffH
	DB	060H
	DB	060H
	DB	060H
	DB	0ffH
	DB	060H
	DB	05cH
	DB	060H
	DB	0ffH
	DB	060H
	DB	060H
	DB	060H
	DB	0ffH
	DB	060H
	DB	05cH
	DB	060H
	DB	0ffH
	DB	058H
	DB	054H
	DB	058H
	DB	0ffH
	DB	050H
	DB	054H
	DB	058H
	DB	0ffH
	DB	050H
	DB	054H
	DB	050H
	DB	0ffH
	DB	058H
	DB	050H
	DB	050H
	DB	0ffH
	DB	050H
	DB	054H
	DB	058H
	DB	0ffH
	DB	050H
	DB	050H
	DB	050H
	DB	0ffH
	DB	058H
	DB	050H
	DB	050H
	DB	0ffH
	DB	050H
	DB	054H
	DB	058H
	DB	0ffH
	DB	050H
	DB	054H
	DB	050H
	DB	0ffH
	DB	058H
	DB	058H
	DB	058H
	DB	0ffH
	DB	060H
	DB	05cH
	DB	060H
	DB	0ffH
	DB	060H
	DB	060H
	DB	060H
	DB	0ffH
	DB	058H
	DB	060H
	DB	058H
	DB	0ffH
	DB	060H
	DB	060H
	DB	060H
	DB	0ffH
	DB	060H
	DB	05cH
	DB	060H
	DB	0ffH
	DB	060H
	DB	060H
	DB	060H
	DB	0ffH
	DB	060H
	DB	060H
	DB	058H
	DB	0ffH
	DB	060H
	DB	060H
	DB	060H
	DB	0ffH
	DB	060H
	DB	060H
	DB	060H
	DB	0ffH
	DB	058H
	DB	05cH
	DB	060H
	DB	0ffH
	DB	060H
	DB	060H
	DB	060H
	DB	0ffH
	DB	060H
	DB	060H
	DB	060H
	DB	0ffH
	DB	060H
	DB	05cH
	DB	060H
	DB	0ffH
	DB	060H
	DB	060H
	DB	060H
	DB	0ffH
	DB	060H
	DB	060H
	DB	060H
	DB	0ffH
	DB	060H
	DB	060H
	DB	060H
	DB	0ffH
	DB	060H
	DB	060H
	DB	060H
	DB	0ffH
	DB	060H
	DB	05cH
	DB	060H
	DB	0ffH
	DB	060H
	DB	060H
	DB	060H
	DB	0ffH
	DB	060H
	DB	05cH
	DB	058H
	DB	0ffH
	DB	058H
	DB	05cH
	DB	058H
	DB	0ffH
	DB	058H
	DB	058H
	DB	058H
	DB	0ffH
	DB	050H
	DB	054H
	DB	050H
	DB	0ffH
	DB	050H
	DB	050H
	DB	050H
	DB	0ffH
	DB	050H
	DB	04cH
	DB	050H
	DB	0ffH
	DB	048H
	DB	04cH
	DB	048H
	DB	0ffH
	DB	048H
	DB	04cH
	DB	048H
	DB	0ffH
	DB	050H
	DB	04cH
	DB	050H
	DB	0ffH
	DB	050H
	DB	050H
	DB	050H
	DB	0ffH
	DB	050H
	DB	054H
	DB	050H
	DB	0ffH
	DB	058H
	DB	058H
	DB	058H
	DB	0ffH
	DB	058H
	DB	05cH
	DB	058H
	DB	0ffH
	DB	060H
	DB	05cH
	DB	060H
	DB	0ffH
	DB	060H
	DB	05cH
	DB	060H
	DB	0ffH
	DB	058H
	DB	060H
	DB	058H
	DB	0ffH
	DB	060H
	DB	05cH
	DB	060H
	DB	0ffH
	DB	060H
	DB	05cH
	DB	060H
	DB	0ffH
	DB	060H
	DB	060H
	DB	060H
	DB	0ffH
	DB	060H
	DB	060H
	DB	060H
	DB	0ffH
	DB	060H
	DB	060H
	DB	060H
	DB	0ffH
	DB	060H
	DB	060H
	DB	060H
	DB	0ffH
	DB	060H
	DB	05cH
	DB	060H
	DB	0ffH
	DB	060H
	DB	060H
	DB	060H
	DB	0ffH
	DB	060H
	DB	060H
	DB	060H
	DB	0ffH
	DB	060H
	DB	060H
	DB	058H
	DB	0ffH
	DB	060H
	DB	060H
	DB	060H
	DB	0ffH
	DB	058H
	DB	060H
	DB	060H
	DB	0ffH
	DB	060H
	DB	05cH
	DB	060H
	DB	0ffH
	DB	060H
	DB	060H
	DB	060H
	DB	0ffH
	DB	060H
	DB	060H
	DB	060H
	DB	0ffH
	DB	060H
	DB	060H
	DB	060H
	DB	0ffH
	DB	060H
	DB	05cH
	DB	058H
	DB	0ffH
	DB	060H
	DB	060H
	DB	060H
	DB	0ffH
	DB	060H
	DB	060H
	DB	060H
	DB	0ffH
	DB	060H
	DB	060H
	DB	060H
	DB	0ffH
	DB	058H
	DB	060H
	DB	058H
	DB	0ffH
	DB	060H
	DB	05cH
	DB	060H
	DB	0ffH
	DB	060H
	DB	060H
	DB	060H
	DB	0ffH
	DB	060H
	DB	060H
	DB	060H
	DB	0ffH
	DB	060H
	DB	060H
	DB	060H
	DB	0ffH
	DB	060H
	DB	05cH
	DB	060H
	DB	0ffH
	DB	058H
	DB	058H
	DB	058H
	DB	0ffH
	DB	058H
	DB	054H
	DB	050H
	DB	0ffH
	DB	050H
	DB	050H
	DB	050H
	DB	0ffH
	DB	050H
	DB	054H
	DB	050H
	DB	0ffH
	DB	058H
	DB	054H
	DB	058H
	DB	0ffH
	DB	050H
	DB	050H
	DB	050H
	DB	0ffH
	DB	058H
	DB	050H
	DB	050H
	DB	0ffH
	DB	050H
	DB	054H
	DB	050H
	DB	0ffH
	DB	050H
	DB	054H
	DB	050H
	DB	0ffH
	DB	058H
	DB	058H
	DB	058H
	DB	0ffH
	DB	060H
	DB	05cH
	DB	060H
	DB	0ffH
	DB	060H
	DB	060H
	DB	060H
	DB	0ffH
	DB	060H
	DB	060H
	DB	060H
	DB	0ffH
	DB	060H
	DB	060H
	DB	060H
	DB	0ffH
	DB	060H
	DB	05cH
	DB	060H
	DB	0ffH
	DB	060H
	DB	060H
	DB	060H
	DB	0ffH
	DB	060H
	DB	060H
	DB	060H
	DB	0ffH
	DB	060H
	DB	060H
	DB	060H
	DB	0ffH
	DB	060H
	DB	060H
	DB	060H
	DB	0ffH
	DB	060H
	DB	060H
	DB	060H
	DB	0ffH
	DB	060H
	DB	060H
	DB	060H
	DB	0ffH
	DB	060H
	DB	05cH
	DB	058H
	DB	0ffH
	DB	060H
	DB	060H
	DB	060H
	DB	0ffH
	DB	060H
	DB	05cH
	DB	060H
	DB	0ffH
	DB	060H
	DB	060H
	DB	058H
	DB	0ffH
	DB	060H
	DB	060H
	DB	060H
	DB	0ffH
	DB	060H
	DB	060H
	DB	060H
	DB	0ffH
	DB	060H
	DB	060H
	DB	060H
	DB	0ffH
	DB	058H
	DB	05cH
	DB	058H
	DB	0ffH
	DB	058H
	DB	05cH
	DB	058H
	DB	0ffH
	DB	058H
	DB	058H
	DB	058H
	DB	0ffH
	DB	058H
	DB	054H
	DB	058H
	DB	0ffH
	DB	050H
	DB	050H
	DB	050H
	DB	0ffH
	DB	048H
	DB	04cH
	DB	048H
	DB	0ffH
	DB	048H
	DB	04cH
	DB	048H
	DB	0ffH
	DB	048H
	DB	048H
	DB	048H
	DB	0ffH
	DB	050H
	DB	04cH
	DB	050H
	DB	0ffH
	DB	050H
	DB	050H
	DB	050H
	DB	0ffH
	DB	058H
	DB	054H
	DB	058H
	DB	0ffH
	DB	058H
	DB	058H
	DB	058H
	DB	0ffH
	DB	058H
	DB	05cH
	DB	058H
	DB	0ffH
	DB	060H
	DB	05cH
	DB	060H
	DB	0ffH
	DB	060H
	DB	060H
	DB	060H
	DB	0ffH
	DB	060H
	DB	060H
	DB	060H
	DB	0ffH
	DB	060H
	DB	060H
	DB	060H
	DB	0ffH
	DB	060H
	DB	060H
	DB	060H
	DB	0ffH
	DB	058H
	DB	05cH
	DB	058H
	DB	0ffH
	DB	060H
	DB	060H
	DB	060H
	DB	0ffH
	DB	060H
	DB	060H
	DB	060H
	DB	0ffH
	DB	058H
	DB	05cH
	DB	058H
	DB	0ffH
	DB	060H
	DB	060H
	DB	060H
	DB	0ffH
	DB	060H
	DB	060H
	DB	060H
	DB	0ffH
	DB	060H
	DB	05cH
	DB	060H
	DB	0ffH
	DB	060H
	DB	05cH
	DB	060H
	DB	0ffH
	DB	060H
	DB	060H
	DB	060H
	DB	0ffH
	DB	060H
	DB	060H
	DB	060H
	DB	0ffH
	DB	060H
	DB	060H
	DB	058H
	DB	0ffH
	DB	060H
	DB	05cH
	DB	060H
	DB	0ffH
	DB	060H
	DB	060H
	DB	060H
	DB	0ffH
	DB	060H
	DB	060H
	DB	060H
	DB	0ffH
	DB	060H
	DB	060H
	DB	060H
	DB	0ffH
	DB	060H
	DB	05cH
	DB	060H
	DB	0ffH
	DB	060H
	DB	060H
	DB	060H
	DB	0ffH
	DB	060H
	DB	060H
	DB	060H
	DB	0ffH
	DB	060H
	DB	05cH
	DB	060H
	DB	0ffH
	DB	060H
	DB	060H
	DB	060H
	DB	0ffH
	DB	060H
	DB	060H
	DB	060H
	DB	0ffH
	DB	058H
	DB	060H
	DB	060H
	DB	0ffH
	DB	060H
	DB	05cH
	DB	060H
	DB	0ffH
	DB	060H
	DB	060H
	DB	060H
	DB	0ffH
	DB	058H
	DB	05cH
	DB	058H
	DB	0ffH
	DB	058H
	DB	058H
	DB	058H
	DB	0ffH
	DB	058H
	DB	054H
	DB	058H
	DB	0ffH
	DB	050H
	DB	050H
	DB	050H
	DB	0ffH
	DB	050H
	DB	054H
	DB	050H
	DB	0ffH
	DB	058H
	DB	054H
	DB	050H
	DB	0ffH
	DB	050H
	DB	050H
	DB	058H
	DB	0ffH
	DB	058H
	DB	050H
	DB	050H
	DB	0ffH
	DB	050H
	DB	054H
	DB	050H
	DB	0ffH
	DB	050H
	DB	054H
	DB	050H
	DB	0ffH
	DB	058H
	DB	058H
	DB	058H
	DB	0ffH
	DB	060H
	DB	05cH
	DB	060H
	DB	0ffH
	DB	060H
	DB	060H
	DB	060H
	DB	0ffH
	DB	058H
	DB	060H
	DB	058H
	DB	0ffH
	DB	060H
	DB	060H
	DB	060H
	DB	0ffH
	DB	060H
	DB	05cH
	DB	060H
	DB	0ffH
	DB	058H
	DB	060H
	DB	060H
	DB	0ffH
	DB	060H
	DB	05cH
	DB	058H
	DB	0ffH
	DB	060H
	DB	060H
	DB	060H
	DB	0ffH
	DB	060H
	DB	060H
	DB	060H
	DB	0ffH
	DB	060H
	DB	05cH
	DB	060H
	DB	0ffH
	DB	058H
	DB	060H
	DB	060H
	DB	0ffH
	DB	060H
	DB	060H
	DB	060H
	DB	0ffH
	DB	060H
	DB	060H
	DB	060H
	DB	0ffH
	DB	058H
	DB	05cH
	DB	060H
	DB	0ffH
	DB	060H
	DB	060H
	DB	060H
	DB	0ffH
	DB	060H
	DB	060H
	DB	060H
	DB	0ffH
	DB	060H
	DB	05cH
	DB	060H
	DB	0ffH
	DB	058H
	DB	05cH
	DB	060H
	DB	0ffH
	DB	058H
	DB	05cH
	DB	058H
	DB	0ffH
	DB	058H
	DB	058H
	DB	058H
	DB	0ffH
	DB	058H
	DB	054H
	DB	058H
	DB	0ffH
	DB	050H
	DB	050H
	DB	050H
	DB	0ffH
	DB	050H
	DB	04cH
	DB	050H
	DB	0ffH
	DB	048H
	DB	048H
	DB	048H
	DB	0ffH
	DB	048H
	DB	04cH
	DB	048H
	DB	0ffH
	DB	050H
	DB	04cH
	DB	050H
	DB	0ffH
	DB	050H
	DB	050H
	DB	050H
	DB	0ffH
	DB	050H
	DB	054H
	DB	050H
	DB	0ffH
	DB	058H
	DB	058H
	DB	058H
	DB	0ffH
	DB	058H
	DB	058H
	DB	058H
	DB	0ffH
	DB	060H
	DB	05cH
	DB	060H
	DB	0ffH
	DB	060H
	DB	060H
	DB	060H
	DB	0ffH
	DB	060H
	DB	060H
	DB	060H
	DB	0ffH
	DB	060H
	DB	060H
	DB	060H
	DB	0ffH
	DB	060H
	DB	060H
	DB	060H
	DB	0ffH
	DB	060H
	DB	060H
	DB	060H
	DB	0ffH
	DB	060H
	DB	05cH
	DB	060H
	DB	0ffH
	DB	060H
	DB	060H
	DB	060H
	DB	0ffH
	DB	060H
	DB	060H
	DB	060H
	DB	0ffH
	DB	060H
	DB	060H
	DB	060H
	DB	0ffH
	DB	058H
	DB	060H
	DB	058H
	DB	0ffH
	DB	060H
	DB	060H
	DB	060H
	DB	0ffH
	DB	060H
	DB	060H
	DB	060H
	DB	0ffH
	DB	058H
	DB	05cH
	DB	060H
	DB	0ffH
	DB	060H
	DB	060H
	DB	060H
	DB	0ffH
	DB	060H
	DB	060H
	DB	060H
	DB	0ffH
	DB	058H
	DB	060H
	DB	060H
	DB	0ffH
	DB	060H
	DB	05cH
	DB	060H
	DB	0ffH
	DB	060H
	DB	060H
	DB	060H
	DB	0ffH
	DB	058H
	DB	060H
	DB	060H
	DB	0ffH
	DB	060H
	DB	060H
	DB	058H
	DB	0ffH
	DB	060H
	DB	060H
	DB	060H
	DB	0ffH
	DB	058H
	DB	05cH
	DB	060H
	DB	0ffH
	DB	060H
	DB	060H
	DB	060H
	DB	0ffH
	DB	060H
	DB	060H
	DB	060H
	DB	0ffH
	DB	060H
	DB	060H
	DB	058H
	DB	0ffH
	DB	060H
	DB	05cH
	DB	060H
	DB	0ffH
	DB	060H
	DB	060H
	DB	060H
	DB	0ffH
	DB	060H
	DB	060H
	DB	060H
	DB	0ffH
	DB	060H
	DB	060H
	DB	060H
	DB	0ffH
	DB	060H
	DB	05cH
	DB	060H
	DB	0ffH
	DB	058H
	DB	058H
	DB	058H
	DB	0ffH
	DB	058H
	DB	054H
	DB	050H
	DB	0ffH
	DB	050H
	DB	050H
	DB	050H
	DB	0ffH
	DB	050H
	DB	054H
	DB	058H
	DB	0ffH
	DB	050H
	DB	050H
	DB	050H
	DB	0ffH
	DB	058H
	DB	050H
	DB	050H
	DB	0ffH
	DB	050H
	DB	054H
	DB	058H
	DB	0ffH
	DB	050H
	DB	050H
	DB	050H
	DB	0ffH
	DB	058H
	DB	054H
	DB	050H
	DB	0ffH
	DB	058H
	DB	05cH
	DB	058H
	DB	0ffH
	DB	060H
	DB	060H
	DB	060H
	DB	0ffH
	DB	060H
	DB	060H
	DB	060H
	DB	0ffH
	DB	060H
	DB	05cH
	DB	060H
	DB	0ffH
	DB	060H
	DB	060H
	DB	060H
	DB	0ffH
	DB	060H
	DB	060H
	DB	060H
	DB	0ffH
	DB	060H
	DB	05cH
	DB	060H
	DB	0ffH
	DB	060H
	DB	060H
	DB	060H
	DB	0ffH
	DB	058H
	DB	060H
	DB	058H
	DB	0ffH
	DB	060H
	DB	060H
	DB	060H
	DB	0ffH
	DB	060H
	DB	060H
	DB	060H
	DB	0ffH
	DB	060H
	DB	060H
	DB	060H
	DB	0ffH
	DB	060H
	DB	060H
	DB	060H
	DB	0ffH
	DB	060H
	DB	05cH
	DB	060H
	DB	0ffH
	DB	060H
	DB	060H
	DB	058H
	DB	0ffH
	DB	060H
	DB	060H
	DB	060H
	DB	0ffH
	DB	060H
	DB	060H
	DB	060H
	DB	0ffH
	DB	060H
	DB	05cH
	DB	060H
	DB	0ffH
	DB	058H
	DB	05cH
	DB	058H
	DB	0ffH
	DB	058H
	DB	054H
	DB	058H
	DB	0ffH
	DB	050H
	DB	054H
	DB	050H
	DB	0ffH
	DB	050H
	DB	050H
	DB	050H
	DB	0ffH
	DB	050H
	DB	04cH
	DB	050H
	DB	0ffH
	DB	048H
	DB	04cH
	DB	048H
	DB	0ffH
	DB	048H
	DB	048H
	DB	048H
	DB	0ffH
	DB	050H
	DB	04cH
	DB	050H
	DB	0ffH
	DB	050H
	DB	050H
	DB	050H
	DB	0ffH
	DB	050H
	DB	054H
	DB	050H
	DB	0ffH
	DB	058H
	DB	058H
	DB	058H
	DB	0ffH
	DB	058H
	DB	05cH
	DB	058H
	DB	0ffH
	DB	060H
	DB	05cH
	DB	060H
	DB	0ffH
	DB	060H
	DB	060H
	DB	060H
	DB	0ffH
	DB	058H
	DB	05cH
	DB	058H
	DB	0ffH
	DB	060H
	DB	05cH
	DB	060H
	DB	0ffH
	DB	060H
	DB	060H
	DB	060H
	DB	0ffH
	DB	060H
	DB	060H
	DB	060H
	DB	0ffH
	DB	060H
	DB	060H
	DB	060H
	DB	0ffH
	DB	060H
	DB	060H
	DB	058H
	DB	0ffH
	DB	060H
	DB	05cH
	DB	060H
	DB	0ffH
	DB	060H
	DB	060H
	DB	060H
	DB	0ffH
	DB	060H
	DB	05cH
	DB	060H
	DB	0ffH
	DB	060H
	DB	060H
	DB	060H
	DB	0ffH
	DB	060H
	DB	060H
	DB	060H
	DB	0ffH
	DB	060H
	DB	060H
	DB	058H
	DB	0ffH
	DB	060H
	DB	05cH
	DB	060H
	DB	0ffH
	DB	060H
	DB	060H
	DB	060H
	DB	0ffH
	DB	060H
	DB	060H
	DB	060H
	DB	0ffH
	DB	060H
	DB	060H
	DB	058H
	DB	0ffH
	DB	060H
	DB	05cH
	DB	060H
	DB	0ffH
	DB	060H
	DB	060H
	DB	060H
	DB	0ffH
	DB	060H
	DB	060H
	DB	060H
	DB	0ffH
	DB	060H
	DB	05cH
	DB	060H
	DB	0ffH
	DB	060H
	DB	060H
	DB	058H
	DB	0ffH
	DB	060H
	DB	060H
	DB	060H
	DB	0ffH
	DB	060H
	DB	060H
	DB	060H
	DB	0ffH
	DB	060H
	DB	05cH
	DB	060H
	DB	0ffH
	DB	060H
	DB	060H
	DB	060H
	DB	0ffH
	DB	060H
	DB	060H
	DB	060H
	DB	0ffH
	DB	060H
	DB	060H
	DB	060H
	DB	0ffH
	DB	060H
	DB	05cH
	DB	060H
	DB	0ffH
	DB	060H
	DB	060H
	DB	060H
	DB	0ffH
	DB	060H
	DB	05cH
	DB	060H
	DB	0ffH
	DB	058H
	DB	058H
	DB	058H
	DB	0ffH
	DB	058H
	DB	054H
	DB	058H
	DB	0ffH
	DB	050H
	DB	050H
	DB	050H
	DB	0ffH
	DB	058H
	DB	054H
	DB	050H
	DB	0ffH
	DB	050H
	DB	054H
	DB	050H
	DB	0ffH
	DB	058H
	DB	050H
	DB	050H
	DB	0ffH
	DB	050H
	DB	050H
	DB	058H
	DB	0ffH
	DB	050H
	DB	054H
	DB	050H
	DB	0ffH
	DB	058H
	DB	058H
	DB	058H
	DB	0ffH
	DB	060H
	DB	060H
	DB	060H
	DB	0ffH
	DB	060H
	DB	060H
	DB	060H
	DB	0ffH
	DB	060H
	DB	060H
	DB	060H
	DB	0ffH
	DB	060H
	DB	060H
	DB	060H
	DB	0ffH
	DB	060H
	DB	060H
	DB	058H
	DB	0ffH
	DB	060H
	DB	060H
	DB	060H
	DB	0ffH
	DB	060H
	DB	05cH
	DB	060H
	DB	0ffH
	DB	060H
	DB	060H
	DB	060H
	DB	0ffH
	DB	060H
	DB	05cH
	DB	060H
	DB	0ffH
	DB	060H
	DB	060H
	DB	060H
	DB	0ffH
	DB	060H
	DB	060H
	DB	058H
	DB	0ffH
	DB	060H
	DB	05cH
	DB	060H
	DB	0ffH
	DB	060H
	DB	060H
	DB	060H
	DB	0ffH
	DB	058H
	DB	060H
	DB	060H
	DB	0ffH
	DB	060H
	DB	060H
	DB	060H
	DB	0ffH
	DB	060H
	DB	05cH
	DB	060H
	DB	0ffH
	DB	060H
	DB	05cH
	DB	058H
	DB	0ffH
	DB	058H
	DB	05cH
	DB	058H
	DB	0ffH
	DB	058H
	DB	058H
	DB	058H
	DB	0ffH
	DB	058H
	DB	054H
	DB	058H
	DB	0ffH
	DB	050H
	DB	050H
	DB	050H
	DB	0ffH
	DB	050H
	DB	04cH
	DB	048H
	DB	0ffH
	DB	048H
	DB	048H
	DB	048H
	DB	0ffH
	DB	048H
	DB	04cH
	DB	048H
	DB	0ffH
	DB	050H
	DB	04cH
	DB	050H
	DB	0ffH
	DB	050H
	DB	050H
	DB	050H
	DB	0ffH
	DB	058H
	DB	054H
	DB	058H
	DB	0ffH
	DB	058H
	DB	058H
	DB	058H
	DB	0ffH
	DB	058H
	DB	05cH
	DB	058H
	DB	0ffH
	DB	060H
	DB	05cH
	DB	060H
	DB	0ffH
	DB	060H
	DB	060H
	DB	060H
	DB	0ffH
	DB	060H
	DB	060H
	DB	060H
	DB	0ffH
	DB	060H
	DB	060H
	DB	060H
	DB	0ffH
	DB	060H
	DB	060H
	DB	060H
	DB	0ffH
	DB	058H
	DB	05cH
	DB	058H
	DB	0ffH
	DB	060H
	DB	060H
	DB	060H
	DB	0ffH
	DB	060H
	DB	060H
	DB	060H
	DB	0ffH
	DB	058H
	DB	060H
	DB	060H
	DB	0ffH
	DB	060H
	DB	060H
	DB	060H
	DB	0ffH
	DB	060H
	DB	060H
	DB	060H
	DB	0ffH
	DB	060H
	DB	05cH
	DB	060H
	DB	0ffH
	DB	060H
	DB	060H
	DB	060H
	DB	0ffH
	DB	060H
	DB	060H
	DB	060H
	DB	0ffH
	DB	060H
	DB	060H
	DB	060H
	DB	0ffH
	DB	060H
	DB	05cH
	DB	060H
	DB	0ffH
	DB	060H
	DB	060H
	DB	060H
	DB	0ffH
	DB	060H
	DB	060H
	DB	060H
	DB	0ffH
	DB	060H
	DB	060H
	DB	060H
	DB	0ffH
	DB	060H
	DB	05cH
	DB	060H
	DB	0ffH
	DB	058H
	DB	060H
	DB	060H
	DB	0ffH
	DB	060H
	DB	060H
	DB	060H
	DB	0ffH
	DB	060H
	DB	060H
	DB	060H
	DB	0ffH
	DB	060H
	DB	060H
	DB	060H
	DB	0ffH
	DB	058H
	DB	05cH
	DB	060H
	DB	0ffH
	DB	060H
	DB	060H
	DB	060H
	DB	0ffH
	DB	060H
	DB	060H
	DB	058H
	DB	0ffH
	DB	058H
	DB	060H
	DB	060H
	DB	0ffH
	DB	060H
	DB	05cH
	DB	060H
	DB	0ffH
	DB	060H
	DB	060H
	DB	060H
	DB	0ffH
	DB	060H
	DB	060H
	DB	060H
	DB	0ffH
	DB	060H
	DB	060H
	DB	060H
	DB	0ffH
	DB	060H
	DB	05cH
	DB	060H
	DB	0ffH
	DB	058H
	DB	05cH
	DB	058H
	DB	0ffH
	DB	058H
	DB	054H
	DB	058H
	DB	0ffH
	DB	050H
	DB	050H
	DB	050H
	DB	0ffH
	DB	050H
	DB	054H
	DB	050H
	DB	0ffH
	DB	058H
	DB	054H
	DB	050H
	DB	0ffH
	DB	058H
	DB	050H
	DB	050H
	DB	0ffH
	DB	050H
	DB	054H
	DB	050H
	DB	0ffH
	DB	058H
	DB	05cH
	DB	060H
	DB	0ffH
	DB	060H
	DB	05cH
	DB	060H
	DB	0ffH
	DB	060H
	DB	060H
	DB	060H
	DB	0ffH
	DB	060H
	DB	060H
	DB	060H
	DB	0ffH
	DB	058H
	DB	05cH
	DB	060H
	DB	0ffH
	DB	060H
	DB	060H
	DB	060H
	DB	0ffH
	DB	060H
	DB	060H
	DB	060H
	DB	0ffH
	DB	058H
	DB	060H
	DB	060H
	DB	0ffH
	DB	060H
	DB	060H
	DB	060H
	DB	0ffH
	DB	060H
	DB	05cH
	DB	060H
	DB	0ffH
	DB	060H
	DB	060H
	DB	060H
	DB	0ffH
	DB	058H
	DB	060H
	DB	060H
	DB	0ffH
	DB	060H
	DB	060H
	DB	060H
	DB	0ffH
	DB	060H
	DB	060H
	DB	060H
	DB	0ffH
	DB	060H
	DB	05cH
	DB	060H
	DB	0ffH
	DB	060H
	DB	060H
	DB	060H
	DB	0ffH
	DB	060H
	DB	060H
	DB	060H
	DB	0ffH
	DB	058H
	DB	05cH
	DB	058H
	DB	0ffH
	DB	058H
	DB	05cH
	DB	058H
	DB	0ffH
	DB	058H
	DB	058H
	DB	058H
	DB	0ffH
	DB	050H
	DB	054H
	DB	058H
	DB	0ffH
	DB	050H
	DB	050H
	DB	050H
	DB	0ffH
	DB	050H
	DB	04cH
	DB	050H
	DB	0ffH
	DB	048H
	DB	04cH
	DB	048H
	DB	0ffH
	DB	048H
	DB	048H
	DB	048H
	DB	0ffH
	DB	050H
	DB	04cH
	DB	050H
	DB	0ffH
	DB	050H
	DB	050H
	DB	050H
	DB	0ffH
	DB	050H
	DB	054H
	DB	050H
	DB	0ffH
	DB	058H
	DB	058H
	DB	058H
	DB	0ffH
	DB	058H
	DB	05cH
	DB	058H
	DB	0ffH
	DB	060H
	DB	05cH
	DB	060H
	DB	0ffH
	DB	060H
	DB	060H
	DB	060H
	DB	0ffH
	DB	060H
	DB	060H
	DB	060H
	DB	0ffH
	DB	060H
	DB	060H
	DB	060H
	DB	0ffH
	DB	060H
	DB	060H
	DB	060H
	DB	0ffH
	DB	060H
	DB	05cH
	DB	060H
	DB	0ffH
	DB	060H
	DB	060H
	DB	060H
	DB	0ffH
	DB	060H
	DB	060H
	DB	060H
	DB	0ffH
	DB	060H
	DB	05cH
	DB	060H
	DB	0ffH
	DB	060H
	DB	060H
	DB	060H
	DB	0ffH
	DB	060H
	DB	060H
	DB	058H
	DB	0ffH
	DB	058H
	DB	060H
	DB	060H
	DB	0ffH
	DB	060H
	DB	05cH
	DB	060H
	DB	0ffH
	DB	060H
	DB	060H
	DB	060H
	DB	0ffH
	DB	058H
	DB	060H
	DB	058H
	DB	0ffH
	DB	060H
	DB	060H
	DB	060H
	DB	0ffH
	DB	060H
	DB	05cH
	DB	060H
	DB	0ffH
	DB	058H
	DB	060H
	DB	060H
	DB	0ffH
	DB	060H
	DB	060H
	DB	060H
	DB	0ffH
	DB	060H
	DB	060H
	DB	058H
	DB	0ffH
	DB	060H
	DB	060H
	DB	060H
	DB	0ffH
	DB	060H
	DB	05cH
	DB	060H
	DB	0ffH
	DB	060H
	DB	060H
	DB	060H
	DB	0ffH
	DB	060H
	DB	060H
	DB	060H
	DB	0ffH
	DB	060H
	DB	060H
	DB	060H
	DB	0ffH
	DB	060H
	DB	060H
	DB	060H
	DB	0ffH
	DB	060H
	DB	05cH
	DB	060H
	DB	0ffH
	DB	060H
	DB	060H
	DB	060H
	DB	0ffH
	DB	060H
	DB	060H
	DB	058H
	DB	0ffH
	DB	060H
	DB	060H
	DB	060H
	DB	0ffH
	DB	058H
	DB	060H
	DB	060H
	DB	0ffH
	DB	060H
	DB	060H
	DB	060H
	DB	0ffH
	DB	060H
	DB	060H
	DB	060H
	DB	0ffH
	DB	060H
	DB	05cH
	DB	060H
	DB	0ffH
	DB	058H
	DB	05cH
	DB	058H
	DB	0ffH
	DB	058H
	DB	054H
	DB	058H
	DB	0ffH
	DB	050H
	DB	050H
	DB	050H
	DB	0ffH
	DB	050H
	DB	054H
	DB	058H
	DB	0ffH
	DB	058H
	DB	050H
	DB	050H
	DB	0ffH
	DB	058H
	DB	054H
	DB	058H
	DB	0ffH
	DB	060H
	DB	05cH
	DB	060H
	DB	0ffH
	DB	060H
	DB	060H
	DB	060H
	DB	0ffH
	DB	060H
	DB	060H
	DB	060H
	DB	0ffH
	DB	060H
	DB	05cH
	DB	060H
	DB	0ffH
	DB	060H
	DB	060H
	DB	060H
	DB	0ffH
	DB	060H
	DB	060H
	DB	060H
	DB	0ffH
	DB	060H
	DB	05cH
	DB	060H
	DB	0ffH
	DB	060H
	DB	060H
	DB	058H
	DB	0ffH
	DB	060H
	DB	060H
	DB	060H
	DB	0ffH
	DB	060H
	DB	060H
	DB	060H
	DB	0ffH
	DB	060H
	DB	05cH
	DB	058H
	DB	0ffH
	DB	060H
	DB	060H
	DB	060H
	DB	0ffH
	DB	060H
	DB	060H
	DB	060H
	DB	0ffH
	DB	060H
	DB	05cH
	DB	058H
	DB	0ffH
	DB	060H
	DB	060H
	DB	060H
	DB	0ffH
	DB	060H
	DB	060H
	DB	060H
	DB	0ffH
	DB	060H
	DB	060H
	DB	060H
	DB	0ffH
	DB	058H
	DB	05cH
	DB	060H
	DB	0ffH
	DB	058H
	DB	05cH
	DB	058H
	DB	0ffH
	DB	058H
	DB	058H
	DB	058H
	DB	0ffH
	DB	058H
	DB	054H
	DB	050H
	DB	0ffH
	DB	050H
	DB	050H
	DB	050H
	DB	0ffH
	DB	048H
	DB	04cH
	DB	050H
	DB	0ffH
	DB	048H
	DB	04cH
	DB	048H
	DB	0ffH
	DB	048H
	DB	04cH
	DB	048H
	DB	0ffH
	DB	050H
	DB	04cH
	DB	050H
	DB	0ffH
	DB	050H
	DB	050H
	DB	050H
	DB	0ffH
	DB	050H
	DB	054H
	DB	050H
	DB	0ffH
	DB	058H
	DB	058H
	DB	058H
	DB	0ffH
	DB	058H
	DB	05cH
	DB	058H
	DB	0ffH
	DB	060H
	DB	05cH
	DB	060H
	DB	0ffH
	DB	060H
	DB	05cH
	DB	060H
	DB	0ffH
	DB	058H
	DB	060H
	DB	058H
	DB	0ffH
	DB	060H
	DB	05cH
	DB	060H
	DB	0ffH
	DB	060H
	DB	060H
	DB	060H
	DB	0ffH
	DB	060H
	DB	060H
	DB	060H
	DB	0ffH
	DB	058H
	DB	060H
	DB	060H
	DB	0ffH
	DB	060H
	DB	05cH
	DB	060H
	DB	0ffH
	DB	060H
	DB	060H
	DB	060H
	DB	0ffH
	DB	060H
	DB	05cH
	DB	060H
	DB	0ffH
	DB	060H
	DB	060H
	DB	060H
	DB	0ffH
	DB	060H
	DB	060H
	DB	060H
	DB	0ffH
	DB	060H
	DB	060H
	DB	060H
	DB	0ffH
	DB	060H
	DB	05cH
	DB	060H
	DB	0ffH
	DB	060H
	DB	060H
	DB	060H
	DB	0ffH
	DB	060H
	DB	060H
	DB	060H
	DB	0ffH
	DB	060H
	DB	060H
	DB	058H
	DB	0ffH
	DB	060H
	DB	05cH
	DB	060H
	DB	0ffH
	DB	060H
	DB	060H
	DB	060H
	DB	0ffH
	DB	060H
	DB	060H
	DB	060H
	DB	0ffH
	DB	060H
	DB	05cH
	DB	060H
	DB	0ffH
	DB	060H
	DB	060H
	DB	060H
	DB	0ffH
	DB	058H
	DB	060H
	DB	058H
	DB	0ffH
	DB	060H
	DB	05cH
	DB	060H
	DB	0ffH
	DB	060H
	DB	060H
	DB	060H
	DB	0ffH
	DB	060H
	DB	060H
	DB	058H
	DB	0ffH
	DB	060H
	DB	060H
	DB	060H
	DB	0ffH
	DB	060H
	DB	05cH
	DB	060H
	DB	0ffH
	DB	060H
	DB	060H
	DB	060H
	DB	0ffH
	DB	060H
	DB	060H
	DB	060H
	DB	0ffH
	DB	060H
	DB	05cH
	DB	060H
	DB	0ffH
	DB	060H
	DB	060H
	DB	058H
	DB	0ffH
	DB	060H
	DB	060H
	DB	060H
	DB	0ffH
	DB	060H
	DB	060H
	DB	060H
	DB	0ffH
	DB	060H
	DB	05cH
	DB	060H
	DB	0ffH
	DB	058H
	DB	05cH
	DB	058H
	DB	0ffH
	DB	058H
	DB	058H
	DB	058H
	DB	0ffH
	DB	058H
	DB	058H
	DB	058H
	DB	0ffH
	DB	058H
	DB	058H
	DB	058H
	DB	0ffH
	DB	058H
	DB	05cH
	DB	060H
	DB	0ffH
	DB	060H
	DB	060H
	DB	060H
	DB	0ffH
	DB	060H
	DB	060H
	DB	060H
	DB	0ffH
	DB	060H
	DB	060H
	DB	058H
	DB	0ffH
	DB	060H
	DB	060H
	DB	060H
	DB	0ffH
	DB	060H
	DB	060H
	DB	060H
	DB	0ffH
	DB	060H
	DB	05cH
	DB	058H
	DB	0ffH
	DB	060H
	DB	060H
	DB	060H
	DB	0ffH
	DB	060H
	DB	060H
	DB	060H
	DB	0ffH
	DB	060H
	DB	05cH
	DB	060H
	DB	0ffH
	DB	058H
	DB	060H
	DB	060H
	DB	0ffH
	DB	060H
	DB	060H
	DB	060H
	DB	0ffH
	DB	060H
	DB	05cH
	DB	060H
	DB	0ffH
	DB	060H
	DB	060H
	DB	060H
	DB	0ffH
	DB	058H
	DB	060H
	DB	060H
	DB	0ffH
	DB	060H
	DB	060H
	DB	060H
	DB	0ffH
	DB	060H
	DB	05cH
	DB	060H
	DB	0ffH
	DB	060H
	DB	060H
	DB	060H
	DB	0ffH
	DB	060H
	DB	05cH
	DB	058H
	DB	0ffH
	DB	058H
	DB	05cH
	DB	058H
	DB	0ffH
	DB	058H
	DB	054H
	DB	058H
	DB	0ffH
	DB	058H
	DB	054H
	DB	058H
	DB	0ffH
	DB	050H
	DB	050H
	DB	050H
	DB	0ffH
	DB	050H
	DB	04cH
	DB	050H
	DB	0ffH
	DB	048H
	DB	048H
	DB	048H
	DB	0ffH
	DB	048H
	DB	048H
	DB	048H
	DB	0ffH
	DB	050H
	DB	04cH
	DB	050H
	DB	0ffH
	DB	050H
	DB	050H
	DB	050H
	DB	0ffH
	DB	050H
	DB	054H
	DB	050H
	DB	0ffH
	DB	058H
	DB	058H
	DB	058H
	DB	0ffH
	DB	058H
	DB	058H
	DB	058H
	DB	0ffH
	DB	060H
	DB	05cH
	DB	060H
	DB	0ffH
	DB	060H
	DB	060H
	DB	060H
	DB	0ffH
	DB	060H
	DB	060H
	DB	060H
	DB	0ffH
	DB	060H
	DB	060H
	DB	060H
	DB	0ffH
	DB	060H
	DB	05cH
	DB	060H
	DB	0ffH
	DB	060H
	DB	060H
	DB	058H
	DB	0ffH
	DB	060H
	DB	060H
	DB	060H
	DB	0ffH
	DB	060H
	DB	060H
	DB	060H
	DB	0ffH
	DB	060H
	DB	060H
	DB	058H
	DB	0ffH
	DB	058H
	DB	060H
	DB	060H
	DB	0ffH
	DB	060H
	DB	05cH
	DB	060H
	DB	0ffH
	DB	060H
	DB	060H
	DB	060H
	DB	0ffH
	DB	060H
	DB	060H
	DB	058H
	DB	0ffH
	DB	060H
	DB	060H
	DB	060H
	DB	0ffH
	DB	060H
	DB	05cH
	DB	060H
	DB	0ffH
	DB	058H
	DB	060H
	DB	060H
	DB	0ffH
	DB	060H
	DB	060H
	DB	060H
	DB	0ffH
	DB	060H
	DB	060H
	DB	060H
	DB	0ffH
	DB	060H
	DB	05cH
	DB	060H
	DB	0ffH
	DB	058H
	DB	060H
	DB	060H
	DB	0ffH
	DB	060H
	DB	060H
	DB	060H
	DB	0ffH
	DB	060H
	DB	060H
	DB	060H
	DB	0ffH
	DB	060H
	DB	060H
	DB	060H
	DB	0ffH
	DB	060H
	DB	05cH
	DB	060H
	DB	0ffH
	DB	060H
	DB	060H
	DB	060H
	DB	0ffH
	DB	058H
	DB	060H
	DB	060H
	DB	0ffH
	DB	060H
	DB	05cH
	DB	060H
	DB	0ffH
	DB	060H
	DB	060H
	DB	060H
	DB	0ffH
	DB	058H
	DB	060H
	DB	060H
	DB	0ffH
	DB	060H
	DB	05cH
	DB	060H
	DB	0ffH
	DB	060H
	DB	060H
	DB	060H
	DB	0ffH
	DB	060H
	DB	060H
	DB	060H
	DB	0ffH
	DB	060H
	DB	05cH
	DB	060H
	DB	0ffH
	DB	060H
	DB	060H
	DB	060H
	DB	0ffH
	DB	060H
	DB	060H
	DB	060H
	DB	0ffH
	DB	060H
	DB	060H
	DB	060H
	DB	0ffH
	DB	060H
	DB	05cH
	DB	060H
	DB	0ffH
	DB	060H
	DB	05cH
	DB	060H
	DB	0ffH
	DB	060H
	DB	060H
	DB	060H
	DB	0ffH
	DB	060H
	DB	060H
	DB	060H
	DB	0ffH
	DB	060H
	DB	060H
	DB	060H
	DB	0ffH
	DB	060H
	DB	05cH
	DB	060H
	DB	0ffH
	DB	060H
	DB	060H
	DB	060H
	DB	0ffH
	DB	060H
	DB	060H
	DB	060H
	DB	0ffH
	DB	058H
	DB	05cH
	DB	060H
	DB	0ffH
	DB	060H
	DB	060H
	DB	060H
	DB	0ffH
	DB	060H
	DB	060H
	DB	060H
	DB	0ffH
	DB	058H
	DB	060H
	DB	060H
	DB	0ffH
	DB	060H
	DB	060H
	DB	060H
	DB	0ffH
	DB	060H
	DB	060H
	DB	060H
	DB	0ffH
	DB	060H
	DB	060H
	DB	060H
	DB	0ffH
	DB	060H
	DB	060H
	DB	060H
	DB	0ffH
	DB	060H
	DB	05cH
	DB	060H
	DB	0ffH
	DB	060H
	DB	060H
	DB	060H
	DB	0ffH
	DB	060H
	DB	060H
	DB	060H
	DB	0ffH
	DB	060H
	DB	060H
	DB	060H
	DB	0ffH
	DB	060H
	DB	05cH
	DB	060H
	DB	0ffH
	DB	060H
	DB	05cH
	DB	060H
	DB	0ffH
	DB	058H
	DB	058H
	DB	058H
	DB	0ffH
	DB	058H
	DB	058H
	DB	058H
	DB	0ffH
	DB	050H
	DB	054H
	DB	050H
	DB	0ffH
	DB	050H
	DB	050H
	DB	050H
	DB	0ffH
	DB	050H
	DB	04cH
	DB	050H
	DB	0ffH
	DB	048H
	DB	04cH
	DB	048H
	DB	0ffH
	DB	048H
	DB	04cH
	DB	048H
	DB	0ffH
	DB	048H
	DB	04cH
	DB	048H
	DB	0ffH
	DB	050H
	DB	050H
	DB	050H
	DB	0ffH
	DB	050H
	DB	054H
	DB	050H
	DB	0ffH
	DB	058H
	DB	054H
	DB	058H
	DB	0ffH
	DB	058H
	DB	058H
	DB	058H
	DB	0ffH
	DB	060H
	DB	05cH
	DB	060H
	DB	0ffH
	DB	060H
	DB	060H
	DB	060H
	DB	0ffH
	DB	060H
	DB	060H
	DB	060H
	DB	0ffH
	DB	060H
	DB	060H
	DB	060H
	DB	0ffH
	DB	058H
	DB	060H
	DB	060H
	DB	0ffH
	DB	060H
	DB	05cH
	DB	060H
	DB	0ffH
	DB	060H
	DB	060H
	DB	060H
	DB	0ffH
	DB	060H
	DB	060H
	DB	060H
	DB	0ffH
	DB	060H
	DB	05cH
	DB	060H
	DB	0ffH
	DB	060H
	DB	060H
	DB	060H
	DB	0ffH
	DB	060H
	DB	060H
	DB	060H
	DB	0ffH
	DB	060H
	DB	05cH
	DB	060H
	DB	0ffH
	DB	058H
	DB	060H
	DB	060H
	DB	0ffH
	DB	060H
	DB	060H
	DB	060H
	DB	0ffH
	DB	060H
	DB	060H
	DB	060H
	DB	0ffH
	DB	060H
	DB	05cH
	DB	060H
	DB	0ffH
	DB	060H
	DB	060H
	DB	060H
	DB	0ffH
	DB	060H
	DB	060H
	DB	060H
	DB	0ffH
	DB	060H
	DB	060H
	DB	058H
	DB	0ffH
	DB	060H
	DB	05cH
	DB	060H
	DB	0ffH
	DB	060H
	DB	060H
	DB	060H
	DB	0ffH
	DB	060H
	DB	060H
	DB	058H
	DB	0ffH
	DB	060H
	DB	05cH
	DB	060H
	DB	0ffH
	DB	060H
	DB	060H
	DB	060H
	DB	0ffH
	DB	060H
	DB	060H
	DB	060H
	DB	0ffH
	DB	060H
	DB	060H
	DB	060H
	DB	0ffH
	DB	060H
	DB	060H
	DB	060H
	DB	0ffH
	DB	060H
	DB	060H
	DB	058H
	DB	0ffH
	DB	060H
	DB	060H
	DB	060H
	DB	0ffH
	DB	060H
	DB	060H
	DB	060H
	DB	0ffH
	DB	060H
	DB	060H
	DB	060H
	DB	0ffH
	DB	058H
	DB	060H
	DB	060H
	DB	0ffH
	DB	060H
	DB	060H
	DB	060H
	DB	0ffH
	DB	060H
	DB	05cH
	DB	060H
	DB	0ffH
	DB	060H
	DB	060H
	DB	060H
	DB	0ffH
	DB	060H
	DB	060H
	DB	060H
	DB	0ffH
	DB	060H
	DB	060H
	DB	060H
	DB	0ffH
	DB	060H
	DB	060H
	DB	060H
	DB	0ffH
	DB	060H
	DB	060H
	DB	060H
	DB	0ffH
	DB	060H
	DB	060H
	DB	060H
	DB	0ffH
	DB	060H
	DB	05cH
	DB	058H
	DB	0ffH
	DB	060H
	DB	060H
	DB	060H
	DB	0ffH
	DB	060H
	DB	060H
	DB	060H
	DB	0ffH
	DB	060H
	DB	05cH
	DB	060H
	DB	0ffH
	DB	060H
	DB	060H
	DB	060H
	DB	0ffH
	DB	060H
	DB	060H
	DB	060H
	DB	0ffH
	DB	060H
	DB	05cH
	DB	060H
	DB	0ffH
	DB	060H
	DB	060H
	DB	058H
	DB	0ffH
	DB	060H
	DB	060H
	DB	060H
	DB	0ffH
	DB	060H
	DB	05cH
	DB	060H
	DB	0ffH
	DB	060H
	DB	060H
	DB	058H
	DB	0ffH
	DB	060H
	DB	060H
	DB	060H
	DB	0ffH
	DB	058H
	DB	060H
	DB	060H
	DB	0ffH
	DB	060H
	DB	05cH
	DB	058H
	DB	0ffH
	DB	060H
	DB	060H
	DB	060H
	DB	0ffH
	DB	058H
	DB	060H
	DB	060H
	DB	0ffH
	DB	060H
	DB	060H
	DB	060H
	DB	0ffH
	DB	058H
	DB	05cH
	DB	058H
	DB	0ffH
	DB	058H
	DB	05cH
	DB	058H
	DB	0ffH
	DB	058H
	DB	054H
	DB	058H
	DB	0ffH
	DB	050H
	DB	054H
	DB	050H
	DB	0ffH
	DB	050H
	DB	050H
	DB	050H
	DB	0ffH
	DB	048H
	DB	04cH
	DB	048H
	DB	0ffH
	DB	048H
	DB	048H
	DB	048H
	DB	0ffH
	DB	048H
	DB	048H
	DB	048H
	DB	0ffH
	DB	048H
	DB	04cH
	DB	048H
	DB	0ffH
	DB	050H
	DB	04cH
	DB	050H
	DB	0ffH
	DB	050H
	DB	050H
	DB	050H
	DB	0ffH
	DB	058H
	DB	054H
	DB	058H
	DB	0ffH
	DB	058H
	DB	058H
	DB	058H
	DB	0ffH
	DB	058H
	DB	05cH
	DB	058H
	DB	0ffH
	DB	060H
	DB	05cH
	DB	060H
	DB	0ffH
	DB	060H
	DB	060H
	DB	060H
	DB	0ffH
	DB	060H
	DB	060H
	DB	058H
	DB	0ffH
	DB	060H
	DB	060H
	DB	060H
	DB	0ffH
	DB	060H
	DB	060H
	DB	060H
	DB	0ffH
	DB	060H
	DB	05cH
	DB	060H
	DB	0ffH
	DB	058H
	DB	060H
	DB	060H
	DB	0ffH
	DB	060H
	DB	060H
	DB	060H
	DB	0ffH
	DB	060H
	DB	060H
	DB	058H
	DB	0ffH
	DB	060H
	DB	060H
	DB	060H
	DB	0ffH
	DB	060H
	DB	060H
	DB	060H
	DB	0ffH
	DB	060H
	DB	05cH
	DB	060H
	DB	0ffH
	DB	060H
	DB	060H
	DB	058H
	DB	0ffH
	DB	060H
	DB	060H
	DB	060H
	DB	0ffH
	DB	060H
	DB	060H
	DB	060H
	DB	0ffH
	DB	060H
	DB	05cH
	DB	060H
	DB	0ffH
	DB	058H
	DB	060H
	DB	060H
	DB	0ffH
	DB	060H
	DB	060H
	DB	060H
	DB	0ffH
	DB	060H
	DB	060H
	DB	060H
	DB	0ffH
	DB	060H
	DB	060H
	DB	060H
	DB	0ffH
	DB	058H
	DB	05cH
	DB	060H
	DB	0ffH
	DB	060H
	DB	060H
	DB	060H
	DB	0ffH
	DB	060H
	DB	060H
	DB	060H
	DB	0ffH
	DB	058H
	DB	05cH
	DB	058H
	DB	0ffH
	DB	060H
	DB	060H
	DB	060H
	DB	0ffH
	DB	060H
	DB	05cH
	DB	060H
	DB	0ffH
	DB	060H
	DB	060H
	DB	060H
	DB	0ffH
	DB	060H
	DB	05cH
	DB	060H
	DB	0ffH
	DB	060H
	DB	060H
	DB	058H
	DB	0ffH
	DB	060H
	DB	05cH
	DB	060H
	DB	0ffH
	DB	060H
	DB	060H
	DB	060H
	DB	0ffH
	DB	060H
	DB	060H
	DB	058H
	DB	0ffH
	DB	058H
	DB	060H
	DB	060H
	DB	0ffH
	DB	060H
	DB	05cH
	DB	060H
	DB	0ffH
	DB	060H
	DB	060H
	DB	060H
	DB	0ffH
	DB	060H
	DB	060H
	DB	058H
	DB	0ffH
	DB	060H
	DB	05cH
	DB	060H
	DB	0ffH
	DB	060H
	DB	060H
	DB	060H
	DB	0ffH
	DB	060H
	DB	060H
	DB	060H
	DB	0ffH
	DB	060H
	DB	060H
	DB	060H
	DB	0ffH
	DB	058H
	DB	060H
	DB	060H
	DB	0ffH
	DB	060H
	DB	060H
	DB	060H
	DB	0ffH
	DB	060H
	DB	060H
	DB	058H
	DB	0ffH
	DB	060H
	DB	060H
	DB	060H
	DB	0ffH
	DB	060H
	DB	060H
	DB	060H
	DB	0ffH
	DB	060H
	DB	05cH
	DB	060H
	DB	0ffH
	DB	060H
	DB	060H
	DB	060H
	DB	0ffH
	DB	060H
	DB	060H
	DB	060H
	DB	0ffH
	DB	058H
	DB	05cH
	DB	060H
	DB	0ffH
	DB	060H
	DB	060H
	DB	060H
	DB	0ffH
	DB	060H
	DB	060H
	DB	060H
	DB	0ffH
	DB	060H
	DB	060H
	DB	060H
	DB	0ffH
	DB	060H
	DB	060H
	DB	060H
	DB	0ffH
	DB	060H
	DB	05cH
	DB	060H
	DB	0ffH
	DB	060H
	DB	060H
	DB	060H
	DB	0ffH
	DB	060H
	DB	05cH
	DB	058H
	DB	0ffH
	DB	058H
	DB	05cH
	DB	058H
	DB	0ffH
	DB	058H
	DB	058H
	DB	058H
	DB	0ffH
	DB	058H
	DB	054H
	DB	058H
	DB	0ffH
	DB	050H
	DB	050H
	DB	050H
	DB	0ffH
	DB	050H
	DB	050H
	DB	050H
	DB	0ffH
	DB	048H
	DB	04cH
	DB	048H
	DB	0ffH
	DB	048H
	DB	048H
	DB	048H
	DB	0ffH
	DB	048H
	DB	044H
	DB	048H
	DB	0ffH
	DB	048H
	DB	048H
	DB	048H
	DB	0ffH
	DB	050H
	DB	04cH
	DB	050H
	DB	0ffH
	DB	050H
	DB	050H
	DB	050H
	DB	0ffH
	DB	050H
	DB	054H
	DB	050H
	DB	0ffH
	DB	058H
	DB	058H
	DB	058H
	DB	0ffH
	DB	058H
	DB	05cH
	DB	058H
	DB	0ffH
	DB	058H
	DB	05cH
	DB	060H
	DB	0ffH
	DB	060H
	DB	05cH
	DB	060H
	DB	0ffH
	DB	060H
	DB	060H
	DB	060H
	DB	0ffH
	DB	060H
	DB	060H
	DB	060H
	DB	0ffH
	DB	060H
	DB	05cH
	DB	058H
	DB	0ffH
	DB	060H
	DB	060H
	DB	060H
	DB	0ffH
	DB	060H
	DB	060H
	DB	060H
	DB	0ffH
	DB	060H
	DB	05cH
	DB	060H
	DB	0ffH
	DB	060H
	DB	060H
	DB	060H
	DB	0ffH
	DB	058H
	DB	060H
	DB	060H
	DB	0ffH
	DB	060H
	DB	060H
	DB	060H
	DB	0ffH
	DB	060H
	DB	060H
	DB	060H
	DB	0ffH
	DB	060H
	DB	05cH
	DB	060H
	DB	0ffH
	DB	058H
	DB	060H
	DB	060H
	DB	0ffH
	DB	060H
	DB	060H
	DB	058H
	DB	0ffH
	DB	060H
	DB	060H
	DB	060H
	DB	0ffH
	DB	060H
	DB	05cH
	DB	060H
	DB	0ffH
	DB	060H
	DB	060H
	DB	060H
	DB	0ffH
	DB	060H
	DB	060H
	DB	060H
	DB	0ffH
	DB	060H
	DB	05cH
	DB	060H
	DB	0ffH
	DB	060H
	DB	060H
	DB	060H
	DB	0ffH
	DB	060H
	DB	060H
	DB	060H
	DB	0ffH
	DB	060H
	DB	060H
	DB	060H
	DB	0ffH
	DB	060H
	DB	060H
	DB	060H
	DB	0ffH
	DB	060H
	DB	05cH
	DB	060H
	DB	0ffH
	DB	060H
	DB	060H
	DB	060H
	DB	0ffH
	DB	058H
	DB	060H
	DB	060H
	DB	0ffH
	DB	060H
	DB	060H
	DB	060H
	DB	0ffH
	DB	060H
	DB	05cH
	DB	060H
	DB	0ffH
	DB	058H
	DB	060H
	DB	060H
	DB	0ffH
	DB	060H
	DB	060H
	DB	060H
	DB	0ffH
	DB	060H
	DB	05cH
	DB	060H
	DB	0ffH
	DB	060H
	DB	060H
	DB	060H
	DB	0ffH
	DB	060H
	DB	060H
	DB	060H
	DB	0ffH
	DB	060H
	DB	060H
	DB	060H
	DB	0ffH
	DB	058H
	DB	060H
	DB	060H
	DB	0ffH
	DB	060H
	DB	05cH
	DB	060H
	DB	0ffH
	DB	060H
	DB	060H
	DB	060H
	DB	0ffH
	DB	060H
	DB	060H
	DB	060H
	DB	0ffH
	DB	060H
	DB	05cH
	DB	060H
	DB	0ffH
	DB	060H
	DB	05cH
	DB	060H
	DB	0ffH
	DB	060H
	DB	060H
	DB	060H
	DB	0ffH
	DB	058H
	DB	060H
	DB	060H
	DB	0ffH
	DB	060H
	DB	05cH
	DB	060H
	DB	0ffH
	DB	060H
	DB	060H
	DB	060H
	DB	0ffH
	DB	058H
	DB	060H
	DB	058H
	DB	0ffH
	DB	060H
	DB	060H
	DB	060H
	DB	0ffH
	DB	060H
	DB	060H
	DB	060H
	DB	0ffH
	DB	060H
	DB	060H
	DB	060H
	DB	0ffH
	DB	060H
	DB	05cH
	DB	060H
	DB	0ffH
	DB	060H
	DB	060H
	DB	060H
	DB	0ffH
	DB	060H
	DB	05cH
	DB	060H
	DB	0ffH
	DB	060H
	DB	060H
	DB	060H
	DB	0ffH
	DB	060H
	DB	060H
	DB	060H
	DB	0ffH
	DB	060H
	DB	05cH
	DB	058H
	DB	0ffH
	DB	058H
	DB	05cH
	DB	060H
	DB	0ffH
	DB	058H
	DB	05cH
	DB	058H
	DB	0ffH
	DB	058H
	DB	058H
	DB	058H
	DB	0ffH
	DB	050H
	DB	054H
	DB	058H
	DB	0ffH
	DB	050H
	DB	050H
	DB	050H
	DB	0ffH
	DB	050H
	DB	04cH
	DB	048H
	DB	0ffH
	DB	048H
	DB	048H
	DB	048H
	DB	0ffH
	DB	048H
	DB	044H
	DB	048H
	DB	0ffH
	DB	040H
	DB	044H
	DB	040H
	DB	0ffH
	DB	048H
	DB	044H
	DB	048H
	DB	0ffH
	DB	048H
	DB	048H
	DB	048H
	DB	0ffH
	DB	048H
	DB	04cH
	DB	048H
	DB	0ffH
	DB	050H
	DB	050H
	DB	050H
	DB	0ffH
	DB	058H
	DB	054H
	DB	058H
	DB	0ffH
	DB	058H
	DB	058H
	DB	058H
	DB	0ffH
	DB	058H
	DB	05cH
	DB	058H
	DB	0ffH
	DB	060H
	DB	060H
	DB	060H
	DB	0ffH
	DB	060H
	DB	060H
	DB	060H
	DB	0ffH
	DB	058H
	DB	05cH
	DB	060H
	DB	0ffH
	DB	060H
	DB	060H
	DB	060H
	DB	0ffH
	DB	060H
	DB	060H
	DB	060H
	DB	0ffH
	DB	060H
	DB	060H
	DB	060H
	DB	0ffH
	DB	060H
	DB	05cH
	DB	058H
	DB	0ffH
	DB	060H
	DB	060H
	DB	060H
	DB	0ffH
	DB	060H
	DB	05cH
	DB	060H
	DB	0ffH
	DB	060H
	DB	060H
	DB	058H
	DB	0ffH
	DB	060H
	DB	060H
	DB	060H
	DB	0ffH
	DB	060H
	DB	060H
	DB	060H
	DB	0ffH
	DB	060H
	DB	05cH
	DB	060H
	DB	0ffH
	DB	060H
	DB	060H
	DB	060H
	DB	0ffH
	DB	060H
	DB	060H
	DB	060H
	DB	0ffH
	DB	060H
	DB	060H
	DB	058H
	DB	0ffH
	DB	060H
	DB	05cH
	DB	060H
	DB	0ffH
	DB	058H
	DB	060H
	DB	060H
	DB	0ffH
	DB	060H
	DB	060H
	DB	058H
	DB	0ffH
	DB	060H
	DB	060H
	DB	060H
	DB	0ffH
	DB	060H
	DB	05cH
	DB	060H
	DB	0ffH
	DB	060H
	DB	060H
	DB	058H
	DB	0ffH
	DB	060H
	DB	060H
	DB	060H
	DB	0ffH
	DB	060H
	DB	060H
	DB	060H
	DB	0ffH
	DB	060H
	DB	060H
	DB	058H
	DB	0ffH
	DB	060H
	DB	060H
	DB	060H
	DB	0ffH
	DB	060H
	DB	060H
	DB	060H
	DB	0ffH
	DB	060H
	DB	060H
	DB	060H
	DB	0ffH
	DB	060H
	DB	060H
	DB	060H
	DB	0ffH
	DB	060H
	DB	060H
	DB	060H
	DB	0ffH
	DB	060H
	DB	060H
	DB	060H
	DB	0ffH
	DB	060H
	DB	05cH
	DB	058H
	DB	0ffH
	DB	060H
	DB	060H
	DB	060H
	DB	0ffH
	DB	060H
	DB	060H
	DB	060H
	DB	0ffH
	DB	060H
	DB	05cH
	DB	060H
	DB	0ffH
	DB	060H
	DB	060H
	DB	060H
	DB	0ffH
	DB	058H
	DB	060H
	DB	058H
	DB	0ffH
	DB	060H
	DB	060H
	DB	060H
	DB	0ffH
	DB	060H
	DB	060H
	DB	060H
	DB	0ffH
	DB	060H
	DB	060H
	DB	058H
	DB	0ffH
	DB	060H
	DB	05cH
	DB	060H
	DB	0ffH
	DB	060H
	DB	060H
	DB	060H
	DB	0ffH
	DB	060H
	DB	060H
	DB	060H
	DB	0ffH
	DB	060H
	DB	05cH
	DB	060H
	DB	0ffH
	DB	060H
	DB	060H
	DB	060H
	DB	0ffH
	DB	060H
	DB	05cH
	DB	060H
	DB	0ffH
	DB	060H
	DB	060H
	DB	060H
	DB	0ffH
	DB	060H
	DB	060H
	DB	058H
	DB	0ffH
	DB	060H
	DB	060H
	DB	060H
	DB	0ffH
	DB	058H
	DB	060H
	DB	060H
	DB	0ffH
	DB	060H
	DB	060H
	DB	058H
	DB	0ffH
	DB	060H
	DB	060H
	DB	060H
	DB	0ffH
	DB	060H
	DB	060H
	DB	060H
	DB	0ffH
	DB	058H
	DB	05cH
	DB	060H
	DB	0ffH
	DB	060H
	DB	05cH
	DB	058H
	DB	0ffH
	DB	058H
	DB	058H
	DB	058H
	DB	0ffH
	DB	058H
	DB	054H
	DB	058H
	DB	0ffH
	DB	050H
	DB	050H
	DB	050H
	DB	0ffH
	DB	048H
	DB	04cH
	DB	048H
	DB	0ffH
	DB	048H
	DB	048H
	DB	048H
	DB	0ffH
	DB	048H
	DB	044H
	DB	048H
	DB	0ffH
	DB	040H
	DB	044H
	DB	048H
	DB	0ffH
	DB	040H
	DB	040H
	DB	040H
	DB	0ffH
	DB	040H
	DB	040H
	DB	040H
	DB	0ffH
	DB	040H
	DB	044H
	DB	040H
	DB	0ffH
	DB	048H
	DB	048H
	DB	048H
	DB	0ffH
	DB	048H
	DB	048H
	DB	048H
	DB	0ffH
	DB	050H
	DB	050H
	DB	050H
	DB	0ffH
	DB	058H
	DB	054H
	DB	050H
	DB	0ffH
	DB	058H
	DB	058H
	DB	058H
	DB	0ffH
	DB	058H
	DB	05cH
	DB	058H
	DB	0ffH
	DB	060H
	DB	05cH
	DB	058H
	DB	0ffH
	DB	060H
	DB	05cH
	DB	060H
	DB	0ffH
	DB	060H
	DB	060H
	DB	060H
	DB	0ffH
	DB	058H
	DB	060H
	DB	060H
	DB	0ffH
	DB	060H
	DB	060H
	DB	060H
	DB	0ffH
	DB	060H
	DB	060H
	DB	060H
	DB	0ffH
	DB	058H
	DB	060H
	DB	060H
	DB	0ffH
	DB	060H
	DB	060H
	DB	060H
	DB	0ffH
	DB	060H
	DB	05cH
	DB	060H
	DB	0ffH
	DB	058H
	DB	060H
	DB	060H
	DB	0ffH
	DB	060H
	DB	060H
	DB	060H
	DB	0ffH
	DB	060H
	DB	060H
	DB	060H
	DB	0ffH
	DB	060H
	DB	05cH
	DB	060H
	DB	0ffH
	DB	058H
	DB	060H
	DB	060H
	DB	0ffH
	DB	060H
	DB	060H
	DB	060H
	DB	0ffH
	DB	060H
	DB	060H
	DB	060H
	DB	0ffH
	DB	060H
	DB	060H
	DB	060H
	DB	0ffH
	DB	060H
	DB	060H
	DB	060H
	DB	0ffH
	DB	060H
	DB	05cH
	DB	060H
	DB	0ffH
	DB	058H
	DB	060H
	DB	060H
	DB	0ffH
	DB	060H
	DB	060H
	DB	060H
	DB	0ffH
	DB	060H
	DB	05cH
	DB	060H
	DB	0ffH
	DB	058H
	DB	060H
	DB	060H
	DB	0ffH
	DB	060H
	DB	05cH
	DB	060H
	DB	0ffH
	DB	060H
	DB	060H
	DB	060H
	DB	0ffH
	DB	060H
	DB	05cH
	DB	060H
	DB	0ffH
	DB	060H
	DB	060H
	DB	058H
	DB	0ffH
	DB	060H
	DB	05cH
	DB	060H
	DB	0ffH
	DB	060H
	DB	060H
	DB	060H
	DB	0ffH
	DB	058H
	DB	060H
	DB	060H
	DB	0ffH
	DB	060H
	DB	060H
	DB	060H
	DB	0ffH
	DB	060H
	DB	05cH
	DB	060H
	DB	0ffH
	DB	060H
	DB	060H
	DB	058H
	DB	0ffH
	DB	060H
	DB	060H
	DB	060H
	DB	0ffH
	DB	060H
	DB	060H
	DB	060H
	DB	0ffH
	DB	060H
	DB	05cH
	DB	060H
	DB	0ffH
	DB	060H
	DB	060H
	DB	060H
	DB	0ffH
	DB	058H
	DB	060H
	DB	060H
	DB	0ffH
	DB	060H
	DB	060H
	DB	060H
	DB	0ffH
	DB	060H
	DB	060H
	DB	060H
	DB	0ffH
	DB	060H
	DB	060H
	DB	058H
	DB	0ffH
	DB	060H
	DB	060H
	DB	060H
	DB	0ffH
	DB	060H
	DB	060H
	DB	060H
	DB	0ffH
	DB	060H
	DB	060H
	DB	060H
	DB	0ffH
	DB	058H
	DB	060H
	DB	060H
	DB	0ffH
	DB	060H
	DB	05cH
	DB	060H
	DB	0ffH
	DB	060H
	DB	060H
	DB	060H
	DB	0ffH
	DB	060H
	DB	05cH
	DB	060H
	DB	0ffH
	DB	060H
	DB	060H
	DB	060H
	DB	0ffH
	DB	060H
	DB	060H
	DB	060H
	DB	0ffH
	DB	058H
	DB	05cH
	DB	058H
	DB	0ffH
	DB	058H
	DB	05cH
	DB	058H
	DB	0ffH
	DB	058H
	DB	05cH
	DB	058H
	DB	0ffH
	DB	058H
	DB	058H
	DB	058H
	DB	0ffH
	DB	058H
	DB	054H
	DB	058H
	DB	0ffH
	DB	050H
	DB	050H
	DB	050H
	DB	0ffH
	DB	048H
	DB	048H
	DB	048H
	DB	0ffH
	DB	048H
	DB	044H
	DB	048H
	DB	0ffH
	DB	040H
	DB	044H
	DB	040H
	DB	0ffH
	DB	040H
	DB	040H
	DB	040H
	DB	0ffH
	DB	040H
	DB	040H
	DB	040H
	DB	0ffH
	DB	038H
	DB	03cH
	DB	038H
	DB	0f7H
	DB	038H
	DB	03cH
	DB	038H
	DB	0ffH
	DB	040H
	DB	03cH
	DB	040H
	DB	0ffH
	DB	040H
	DB	03cH
	DB	040H
	DB	0ffH
	DB	040H
	DB	040H
	DB	040H
	DB	0ffH
	DB	048H
	DB	044H
	DB	048H
	DB	0ffH
	DB	048H
	DB	04cH
	DB	048H
	DB	0ffH
	DB	050H
	DB	050H
	DB	050H
	DB	0ffH
	DB	050H
	DB	050H
	DB	050H
	DB	0ffH
	DB	050H
	DB	054H
	DB	050H
	DB	0ffH
	DB	058H
	DB	058H
	DB	058H
	DB	0ffH
	DB	058H
	DB	054H
	DB	050H
	DB	0ffH
	DB	058H
	DB	058H
	DB	058H
	DB	0ffH
	DB	058H
	DB	054H
	DB	058H
	DB	0ffH
	DB	058H
	DB	058H
	DB	058H
	DB	0ffH
	DB	058H
	DB	058H
	DB	058H
	DB	0ffH
	DB	058H
	DB	058H
	DB	058H
	DB	0ffH
	DB	058H
	DB	054H
	DB	058H
	DB	0ffH
	DB	058H
	DB	058H
	DB	058H
	DB	0ffH
	DB	058H
	DB	058H
	DB	050H
	DB	0ffH
	DB	058H
	DB	058H
	DB	058H
	DB	0ffH
	DB	058H
	DB	058H
	DB	058H
	DB	0ffH
	DB	058H
	DB	054H
	DB	058H
	DB	0ffH
	DB	058H
	DB	058H
	DB	058H
	DB	0ffH
	DB	058H
	DB	058H
	DB	058H
	DB	0ffH
	DB	058H
	DB	054H
	DB	050H
	DB	0ffH
	DB	058H
	DB	058H
	DB	058H
	DB	0ffH
	DB	058H
	DB	058H
	DB	058H
	DB	0ffH
	DB	058H
	DB	058H
	DB	058H
	DB	0ffH
	DB	058H
	DB	058H
	DB	058H
	DB	0ffH
	DB	058H
	DB	058H
	DB	058H
	DB	0ffH
	DB	058H
	DB	058H
	DB	058H
	DB	0ffH
	DB	058H
	DB	058H
	DB	058H
	DB	0ffH
	DB	050H
	DB	054H
	DB	058H
	DB	0ffH
	DB	058H
	DB	058H
	DB	058H
	DB	0ffH
	DB	058H
	DB	058H
	DB	058H
	DB	0ffH
	DB	050H
	DB	058H
	DB	058H
	DB	0ffH
	DB	058H
	DB	054H
	DB	050H
	DB	0ffH
	DB	058H
	DB	058H
	DB	058H
	DB	0ffH
	DB	058H
	DB	058H
	DB	058H
	DB	0ffH
	DB	058H
	DB	058H
	DB	058H
	DB	0ffH
	DB	050H
	DB	058H
	DB	058H
	DB	0ffH
	DB	058H
	DB	058H
	DB	058H
	DB	0ffH
	DB	058H
	DB	054H
	DB	058H
	DB	0ffH
	DB	058H
	DB	058H
	DB	058H
	DB	0ffH
	DB	058H
	DB	054H
	DB	058H
	DB	0ffH
	DB	058H
	DB	058H
	DB	050H
	DB	0ffH
	DB	058H
	DB	054H
	DB	058H
	DB	0ffH
	DB	058H
	DB	058H
	DB	058H
	DB	0ffH
	DB	050H
	DB	054H
	DB	058H
	DB	0ffH
	DB	058H
	DB	058H
	DB	058H
	DB	0ffH
	DB	058H
	DB	058H
	DB	058H
	DB	0ffH
	DB	058H
	DB	054H
	DB	050H
	DB	0ffH
	DB	058H
	DB	058H
	DB	058H
	DB	0ffH
	DB	058H
	DB	058H
	DB	058H
	DB	0ffH
	DB	058H
	DB	058H
	DB	058H
	DB	0ffH
	DB	050H
	DB	054H
	DB	058H
	DB	0ffH
	DB	058H
	DB	058H
	DB	058H
	DB	0ffH
	DB	058H
	DB	054H
	DB	058H
	DB	0ffH
	DB	058H
	DB	054H
	DB	058H
	DB	0ffH
	DB	050H
	DB	054H
	DB	050H
	DB	0ffH
	DB	050H
	DB	054H
	DB	050H
	DB	0ffH
	DB	050H
	DB	050H
	DB	050H
	DB	0ffH
	DB	048H
	DB	048H
	DB	048H
	DB	0ffH
	DB	048H
	DB	044H
	DB	048H
	DB	0ffH
	DB	040H
	DB	040H
	DB	040H
	DB	0ffH
	DB	040H
	DB	040H
	DB	040H
	DB	0ffH
	DB	040H
	DB	03cH
	DB	040H
	DB	0ffH
	DB	038H
	DB	03cH
	DB	038H
	DB	0ffH
	DB	038H
	DB	03cH
	DB	038H
	DB	0f3H
	DB	038H
	DB	034H
	DB	038H
	DB	0d7H
	DB	038H
	DB	034H
	DB	038H
	DB	0ffH
	DB	030H
	DB	034H
	DB	030H
	DB	0ffH
	DB	038H
	DB	034H
	DB	038H
	DB	0ffH
	DB	038H
	DB	038H
	DB	038H
	DB	0ffH
	DB	038H
	DB	038H
	DB	038H
	DB	0ffH
	DB	038H
	DB	03cH
	DB	038H
	DB	0ffH
	DB	040H
	DB	03cH
	DB	040H
	DB	0ffH
	DB	040H
	DB	040H
	DB	040H
	DB	0ffH
	DB	040H
	DB	044H
	DB	048H
	DB	0ffH
	DB	048H
	DB	044H
	DB	048H
	DB	0ffH
	DB	048H
	DB	044H
	DB	048H
	DB	0ffH
	DB	040H
	DB	044H
	DB	040H
	DB	0ffH
	DB	048H
	DB	044H
	DB	048H
	DB	0ffH
	DB	040H
	DB	044H
	DB	040H
	DB	0ffH
	DB	048H
	DB	044H
	DB	040H
	DB	0ffH
	DB	048H
	DB	044H
	DB	048H
	DB	0ffH
	DB	040H
	DB	044H
	DB	040H
	DB	0ffH
	DB	048H
	DB	044H
	DB	048H
	DB	0ffH
	DB	040H
	DB	044H
	DB	048H
	DB	0ffH
	DB	040H
	DB	044H
	DB	040H
	DB	0ffH
	DB	048H
	DB	044H
	DB	040H
	DB	0ffH
	DB	048H
	DB	044H
	DB	048H
	DB	0ffH
	DB	040H
	DB	044H
	DB	040H
	DB	0ffH
	DB	040H
	DB	044H
	DB	048H
	DB	0ffH
	DB	048H
	DB	044H
	DB	048H
	DB	0ffH
	DB	040H
	DB	044H
	DB	040H
	DB	0ffH
	DB	040H
	DB	044H
	DB	048H
	DB	0ffH
	DB	048H
	DB	044H
	DB	040H
	DB	0ffH
	DB	040H
	DB	044H
	DB	040H
	DB	0ffH
	DB	048H
	DB	044H
	DB	048H
	DB	0ffH
	DB	048H
	DB	044H
	DB	040H
	DB	0ffH
	DB	040H
	DB	044H
	DB	040H
	DB	0ffH
	DB	048H
	DB	048H
	DB	048H
	DB	0ffH
	DB	048H
	DB	044H
	DB	040H
	DB	0ffH
	DB	040H
	DB	044H
	DB	048H
	DB	0ffH
	DB	048H
	DB	044H
	DB	048H
	DB	0ffH
	DB	048H
	DB	044H
	DB	040H
	DB	0ffH
	DB	048H
	DB	044H
	DB	048H
	DB	0ffH
	DB	040H
	DB	044H
	DB	048H
	DB	0ffH
	DB	048H
	DB	044H
	DB	040H
	DB	0ffH
	DB	048H
	DB	044H
	DB	048H
	DB	0ffH
	DB	040H
	DB	044H
	DB	040H
	DB	0ffH
	DB	048H
	DB	048H
	DB	040H
	DB	0ffH
	DB	040H
	DB	044H
	DB	048H
	DB	0ffH
	DB	048H
	DB	044H
	DB	048H
	DB	0ffH
	DB	048H
	DB	044H
	DB	040H
	DB	0ffH
	DB	040H
	DB	048H
	DB	048H
	DB	0ffH
	DB	048H
	DB	044H
	DB	048H
	DB	0ffH
	DB	048H
	DB	044H
	DB	040H
	DB	0ffH
	DB	040H
	DB	044H
	DB	048H
	DB	0ffH
	DB	040H
	DB	044H
	DB	048H
	DB	0ffH
	DB	048H
	DB	044H
	DB	040H
	DB	0ffH
	DB	048H
	DB	044H
	DB	048H
	DB	0ffH
	DB	040H
	DB	048H
	DB	040H
	DB	0ffH
	DB	048H
	DB	044H
	DB	040H
	DB	0ffH
	DB	048H
	DB	044H
	DB	048H
	DB	0ffH
	DB	040H
	DB	048H
	DB	040H
	DB	0ffH
	DB	048H
	DB	044H
	DB	048H
	DB	0ffH
	DB	048H
	DB	044H
	DB	048H
	DB	0ffH
	DB	048H
	DB	044H
	DB	048H
	DB	0ffH
	DB	040H
	DB	040H
	DB	040H
	DB	0ffH
	DB	040H
	DB	040H
	DB	040H
	DB	0ffH
	DB	038H
	DB	03cH
	DB	038H
	DB	0ffH
	DB	038H
	DB	038H
	DB	038H
	DB	0ffH
	DB	038H
	DB	038H
	DB	038H
	DB	0ffH
	DB	030H
	DB	034H
	DB	030H
	DB	0ffH
	DB	038H
	DB	034H
	DB	038H
	DB	0ffH
	DB	038H
	DB	034H
	DB	038H
	DB	0ffH
	DB	038H
	DB	034H
	DB	038H
	DB	0d3H
	DB	030H
	DB	030H
	DB	030H
	DB	08eH
	DB	030H
	DB	030H
	DB	030H
	DB	0ffH
	DB	030H
	DB	02cH
	DB	030H
	DB	0ffH
	DB	028H
	DB	02cH
	DB	028H
	DB	0ffH
	DB	030H
	DB	02cH
	DB	030H
	DB	0ffH
	DB	030H
	DB	02cH
	DB	030H
	DB	0ffH
	DB	028H
	DB	02cH
	DB	030H
	DB	0ffH
	DB	030H
	DB	030H
	DB	030H
	DB	0ffH
	DB	030H
	DB	034H
	DB	030H
	DB	0ffH
	DB	038H
	DB	034H
	DB	030H
	DB	0ffH
	DB	038H
	DB	034H
	DB	038H
	DB	0ffH
	DB	030H
	DB	038H
	DB	038H
	DB	0ffH
	DB	038H
	DB	038H
	DB	038H
	DB	0ffH
	DB	038H
	DB	038H
	DB	038H
	DB	0ffH
	DB	038H
	DB	038H
	DB	038H
	DB	0ffH
	DB	038H
	DB	038H
	DB	038H
	DB	0ffH
	DB	038H
	DB	038H
	DB	038H
	DB	0ffH
	DB	038H
	DB	038H
	DB	038H
	DB	0ffH
	DB	038H
	DB	038H
	DB	038H
	DB	0ffH
	DB	038H
	DB	038H
	DB	038H
	DB	0ffH
	DB	038H
	DB	038H
	DB	038H
	DB	0ffH
	DB	038H
	DB	038H
	DB	038H
	DB	0ffH
	DB	038H
	DB	038H
	DB	038H
	DB	0ffH
	DB	038H
	DB	038H
	DB	038H
	DB	0ffH
	DB	038H
	DB	038H
	DB	038H
	DB	0ffH
	DB	038H
	DB	038H
	DB	038H
	DB	0ffH
	DB	038H
	DB	038H
	DB	038H
	DB	0ffH
	DB	038H
	DB	038H
	DB	038H
	DB	0ffH
	DB	038H
	DB	038H
	DB	038H
	DB	0ffH
	DB	038H
	DB	038H
	DB	038H
	DB	0ffH
	DB	038H
	DB	038H
	DB	038H
	DB	0ffH
	DB	038H
	DB	038H
	DB	038H
	DB	0ffH
	DB	038H
	DB	038H
	DB	038H
	DB	0ffH
	DB	038H
	DB	038H
	DB	038H
	DB	0ffH
	DB	038H
	DB	038H
	DB	038H
	DB	0ffH
	DB	038H
	DB	038H
	DB	038H
	DB	0ffH
	DB	038H
	DB	038H
	DB	038H
	DB	0ffH
	DB	038H
	DB	038H
	DB	038H
	DB	0ffH
	DB	038H
	DB	038H
	DB	038H
	DB	0ffH
	DB	038H
	DB	038H
	DB	038H
	DB	0ffH
	DB	038H
	DB	038H
	DB	038H
	DB	0ffH
	DB	038H
	DB	038H
	DB	038H
	DB	0ffH
	DB	038H
	DB	038H
	DB	038H
	DB	0ffH
	DB	038H
	DB	038H
	DB	038H
	DB	0ffH
	DB	038H
	DB	038H
	DB	038H
	DB	0ffH
	DB	038H
	DB	038H
	DB	038H
	DB	0ffH
	DB	038H
	DB	038H
	DB	038H
	DB	0ffH
	DB	038H
	DB	038H
	DB	038H
	DB	0ffH
	DB	038H
	DB	038H
	DB	038H
	DB	0ffH
	DB	038H
	DB	038H
	DB	038H
	DB	0ffH
	DB	038H
	DB	038H
	DB	038H
	DB	0ffH
	DB	038H
	DB	038H
	DB	038H
	DB	0ffH
	DB	038H
	DB	038H
	DB	038H
	DB	0ffH
	DB	038H
	DB	038H
	DB	038H
	DB	0ffH
	DB	038H
	DB	038H
	DB	038H
	DB	0ffH
	DB	038H
	DB	038H
	DB	038H
	DB	0ffH
	DB	038H
	DB	038H
	DB	038H
	DB	0ffH
	DB	038H
	DB	038H
	DB	038H
	DB	0ffH
	DB	038H
	DB	038H
	DB	030H
	DB	0ffH
	DB	030H
	DB	034H
	DB	038H
	DB	0ffH
	DB	030H
	DB	034H
	DB	030H
	DB	0ffH
	DB	030H
	DB	030H
	DB	030H
	DB	0ffH
	DB	030H
	DB	030H
	DB	030H
	DB	0ffH
	DB	030H
	DB	02cH
	DB	030H
	DB	0ffH
	DB	030H
	DB	02cH
	DB	030H
	DB	0ffH
	DB	028H
	DB	02cH
	DB	028H
	DB	0ffH
	DB	030H
	DB	02cH
	DB	030H
	DB	0ffH
	DB	028H
	DB	02cH
	DB	028H
	DB	0ffH
	DB	030H
	DB	030H
	DB	030H
	DB	0ffH
	DB	030H
	DB	030H
	DB	030H
	DB	08eH
	DB	030H
	DB	030H
	DB	030H
	DB	02cH
	DB	030H
	DB	02cH
	DB	030H
	DB	0fbH
	DB	028H
	DB	02cH
	DB	028H
	DB	0ffH
	DB	030H
	DB	02cH
	DB	030H
	DB	0ffH
	DB	028H
	DB	02cH
	DB	028H
	DB	0ffH
	DB	030H
	DB	02cH
	DB	030H
	DB	0ffH
	DB	030H
	DB	02cH
	DB	030H
	DB	0ffH
	DB	030H
	DB	02cH
	DB	030H
	DB	0ffH
	DB	030H
	DB	02cH
	DB	030H
	DB	0ffH
	DB	028H
	DB	02cH
	DB	028H
	DB	0ffH
	DB	030H
	DB	02cH
	DB	030H
	DB	0ffH
	DB	028H
	DB	02cH
	DB	028H
	DB	0ffH
	DB	030H
	DB	02cH
	DB	028H
	DB	0ffH
	DB	030H
	DB	02cH
	DB	030H
	DB	0ffH
	DB	028H
	DB	02cH
	DB	030H
	DB	0ffH
	DB	028H
	DB	02cH
	DB	028H
	DB	0ffH
	DB	028H
	DB	02cH
	DB	028H
	DB	0ffH
	DB	030H
	DB	02cH
	DB	030H
	DB	0ffH
	DB	028H
	DB	02cH
	DB	028H
	DB	0ffH
	DB	030H
	DB	02cH
	DB	028H
	DB	0ffH
	DB	030H
	DB	02cH
	DB	030H
	DB	0ffH
	DB	028H
	DB	02cH
	DB	030H
	DB	0ffH
	DB	028H
	DB	02cH
	DB	028H
	DB	0ffH
	DB	030H
	DB	02cH
	DB	028H
	DB	0ffH
	DB	030H
	DB	02cH
	DB	030H
	DB	0ffH
	DB	028H
	DB	02cH
	DB	028H
	DB	0ffH
	DB	030H
	DB	02cH
	DB	028H
	DB	0ffH
	DB	030H
	DB	02cH
	DB	030H
	DB	0ffH
	DB	028H
	DB	02cH
	DB	030H
	DB	0ffH
	DB	028H
	DB	02cH
	DB	028H
	DB	0ffH
	DB	030H
	DB	02cH
	DB	030H
	DB	0ffH
	DB	028H
	DB	02cH
	DB	030H
	DB	0ffH
	DB	028H
	DB	02cH
	DB	028H
	DB	0ffH
	DB	030H
	DB	02cH
	DB	030H
	DB	0ffH
	DB	028H
	DB	02cH
	DB	028H
	DB	0ffH
	DB	028H
	DB	02cH
	DB	028H
	DB	0ffH
	DB	030H
	DB	02cH
	DB	030H
	DB	0ffH
	DB	028H
	DB	02cH
	DB	028H
	DB	0ffH
	DB	028H
	DB	02cH
	DB	028H
	DB	0ffH
	DB	030H
	DB	02cH
	DB	030H
	DB	0ffH
	DB	028H
	DB	02cH
	DB	028H
	DB	0ffH
	DB	028H
	DB	02cH
	DB	028H
	DB	0ffH
	DB	030H
	DB	02cH
	DB	030H
	DB	0ffH
	DB	028H
	DB	02cH
	DB	030H
	DB	0ffH
	DB	028H
	DB	02cH
	DB	028H
	DB	0ffH
	DB	028H
	DB	02cH
	DB	028H
	DB	0ffH
	DB	028H
	DB	02cH
	DB	030H
	DB	0ffH
	DB	030H
	DB	02cH
	DB	028H
	DB	0ffH
	DB	028H
	DB	02cH
	DB	028H
	DB	0ffH
	DB	028H
	DB	02cH
	DB	030H
	DB	0ffH
	DB	030H
	DB	02cH
	DB	028H
	DB	0ffH
	DB	028H
	DB	02cH
	DB	028H
	DB	0ffH
	DB	028H
	DB	02cH
	DB	030H
	DB	0ffH
	DB	030H
	DB	02cH
	DB	028H
	DB	0ffH
	DB	028H
	DB	02cH
	DB	030H
	DB	0ffH
	DB	028H
	DB	02cH
	DB	030H
	DB	0ffH
	DB	030H
	DB	02cH
	DB	028H
	DB	0ffH
	DB	028H
	DB	02cH
	DB	030H
	DB	0ffH
	DB	030H
	DB	02cH
	DB	030H
	DB	0ffH
	DB	030H
	DB	02cH
	DB	028H
	DB	0ffH
	DB	030H
	DB	02cH
	DB	030H
	DB	0ffH
	DB	030H
	DB	02cH
	DB	030H
	DB	0ffH
	DB	030H
	DB	02cH
	DB	030H
	DB	0ffH
	DB	030H
	DB	02cH
	DB	030H
	DB	0ffH
	DB	028H
	DB	02cH
	DB	028H
	DB	0ffH
	DB	030H
	DB	02cH
	DB	030H
	DB	0ffH
	DB	030H
	DB	02cH
	DB	030H
	DB	0ffH
	DB	030H
	DB	02cH
	DB	030H
	DB	0ffH
	DB	028H
	DB	02cH
	DB	028H
	DB	0fbH
	DB	030H
	DB	030H
	DB	030H
	DB	02cH
	DB	0f8H
	DB	0fcH
	DB	0f8H
	DB	00H
	DB	028H
	DB	02cH
	DB	028H
	DB	096H
	DB	030H
	DB	02cH
	DB	030H
	DB	0ffH
	DB	030H
	DB	030H
	DB	030H
	DB	0ffH
	DB	028H
	DB	030H
	DB	028H
	DB	0ffH
	DB	030H
	DB	02cH
	DB	028H
	DB	0ffH
	DB	028H
	DB	030H
	DB	028H
	DB	0ffH
	DB	030H
	DB	02cH
	DB	030H
	DB	0ffH
	DB	030H
	DB	02cH
	DB	030H
	DB	0ffH
	DB	028H
	DB	030H
	DB	030H
	DB	0ffH
	DB	030H
	DB	02cH
	DB	030H
	DB	0ffH
	DB	030H
	DB	02cH
	DB	030H
	DB	0ffH
	DB	028H
	DB	030H
	DB	028H
	DB	0ffH
	DB	030H
	DB	02cH
	DB	030H
	DB	0ffH
	DB	030H
	DB	02cH
	DB	030H
	DB	0ffH
	DB	030H
	DB	030H
	DB	028H
	DB	0ffH
	DB	030H
	DB	02cH
	DB	030H
	DB	0ffH
	DB	028H
	DB	02cH
	DB	030H
	DB	0ffH
	DB	030H
	DB	02cH
	DB	030H
	DB	0ffH
	DB	028H
	DB	030H
	DB	028H
	DB	0ffH
	DB	030H
	DB	02cH
	DB	030H
	DB	0ffH
	DB	030H
	DB	02cH
	DB	030H
	DB	0ffH
	DB	028H
	DB	02cH
	DB	028H
	DB	0ffH
	DB	030H
	DB	030H
	DB	030H
	DB	0ffH
	DB	028H
	DB	02cH
	DB	030H
	DB	0ffH
	DB	028H
	DB	02cH
	DB	030H
	DB	0ffH
	DB	030H
	DB	02cH
	DB	028H
	DB	0ffH
	DB	030H
	DB	02cH
	DB	030H
	DB	0ffH
	DB	028H
	DB	02cH
	DB	028H
	DB	0ffH
	DB	030H
	DB	02cH
	DB	028H
	DB	0ffH
	DB	030H
	DB	02cH
	DB	030H
	DB	0ffH
	DB	028H
	DB	02cH
	DB	028H
	DB	0ffH
	DB	030H
	DB	02cH
	DB	030H
	DB	0ffH
	DB	030H
	DB	02cH
	DB	030H
	DB	0ffH
	DB	030H
	DB	02cH
	DB	028H
	DB	0ffH
	DB	028H
	DB	02cH
	DB	030H
	DB	0ffH
	DB	030H
	DB	02cH
	DB	030H
	DB	0ffH
	DB	030H
	DB	030H
	DB	028H
	DB	0ffH
	DB	028H
	DB	02cH
	DB	030H
	DB	0ffH
	DB	030H
	DB	02cH
	DB	030H
	DB	0ffH
	DB	030H
	DB	02cH
	DB	030H
	DB	0ffH
	DB	028H
	DB	02cH
	DB	028H
	DB	0ffH
	DB	030H
	DB	02cH
	DB	030H
	DB	0ffH
	DB	030H
	DB	02cH
	DB	030H
	DB	0ffH
	DB	030H
	DB	02cH
	DB	028H
	DB	0ffH
	DB	030H
	DB	02cH
	DB	030H
	DB	0ffH
	DB	030H
	DB	02cH
	DB	030H
	DB	0ffH
	DB	028H
	DB	02cH
	DB	028H
	DB	0ffH
	DB	030H
	DB	02cH
	DB	030H
	DB	0ffH
	DB	030H
	DB	02cH
	DB	030H
	DB	0ffH
	DB	030H
	DB	02cH
	DB	028H
	DB	0ffH
	DB	030H
	DB	02cH
	DB	030H
	DB	0ffH
	DB	028H
	DB	02cH
	DB	030H
	DB	0ffH
	DB	030H
	DB	02cH
	DB	028H
	DB	0ffH
	DB	030H
	DB	02cH
	DB	030H
	DB	0ffH
	DB	028H
	DB	02cH
	DB	028H
	DB	0ffH
	DB	030H
	DB	02cH
	DB	028H
	DB	0ffH
	DB	030H
	DB	02cH
	DB	030H
	DB	0ffH
	DB	028H
	DB	02cH
	DB	030H
	DB	0ffH
	DB	030H
	DB	030H
	DB	028H
	DB	0ffH
	DB	028H
	DB	02cH
	DB	030H
	DB	0ffH
	DB	030H
	DB	030H
	DB	030H
	DB	0ffH
	DB	028H
	DB	02cH
	DB	028H
	DB	0ffH
	DB	028H
	DB	030H
	DB	028H
	DB	0ffH
	DB	030H
	DB	02cH
	DB	030H
	DB	0ffH
	DB	030H
	DB	030H
	DB	030H
	DB	0ffH
	DB	028H
	DB	030H
	DB	028H
	DB	0ffH
	DB	030H
	DB	02cH
	DB	030H
	DB	0ffH
	DB	030H
	DB	02cH
	DB	030H
	DB	096H
	DB	0f8H
	DB	0fcH
	DB	0f8H
	DB	00H
	DB	0f8H
	DB	0fcH
	DB	0f8H
	DB	00H
	DB	030H
	DB	02cH
	DB	030H
	DB	04H
	DB	030H
	DB	02cH
	DB	030H
	DB	0baH
	DB	028H
	DB	02cH
	DB	028H
	DB	0ffH
	DB	030H
	DB	02cH
	DB	030H
	DB	0ffH
	DB	030H
	DB	02cH
	DB	030H
	DB	0ffH
	DB	028H
	DB	030H
	DB	030H
	DB	0ffH
	DB	028H
	DB	02cH
	DB	028H
	DB	0ffH
	DB	030H
	DB	02cH
	DB	028H
	DB	0ffH
	DB	030H
	DB	030H
	DB	028H
	DB	0ffH
	DB	028H
	DB	02cH
	DB	030H
	DB	0ffH
	DB	030H
	DB	02cH
	DB	030H
	DB	0ffH
	DB	028H
	DB	030H
	DB	028H
	DB	0ffH
	DB	028H
	DB	02cH
	DB	030H
	DB	0ffH
	DB	030H
	DB	02cH
	DB	030H
	DB	0ffH
	DB	030H
	DB	030H
	DB	028H
	DB	0ffH
	DB	028H
	DB	02cH
	DB	030H
	DB	0ffH
	DB	030H
	DB	02cH
	DB	030H
	DB	0ffH
	DB	030H
	DB	030H
	DB	028H
	DB	0ffH
	DB	028H
	DB	02cH
	DB	030H
	DB	0ffH
	DB	030H
	DB	02cH
	DB	030H
	DB	0ffH
	DB	030H
	DB	030H
	DB	028H
	DB	0ffH
	DB	028H
	DB	02cH
	DB	030H
	DB	0ffH
	DB	030H
	DB	02cH
	DB	030H
	DB	0ffH
	DB	030H
	DB	030H
	DB	028H
	DB	0ffH
	DB	030H
	DB	02cH
	DB	030H
	DB	0ffH
	DB	028H
	DB	030H
	DB	030H
	DB	0ffH
	DB	030H
	DB	030H
	DB	030H
	DB	0ffH
	DB	030H
	DB	02cH
	DB	030H
	DB	0ffH
	DB	030H
	DB	030H
	DB	030H
	DB	0ffH
	DB	028H
	DB	030H
	DB	030H
	DB	0ffH
	DB	030H
	DB	02cH
	DB	028H
	DB	0ffH
	DB	030H
	DB	030H
	DB	030H
	DB	0ffH
	DB	028H
	DB	030H
	DB	030H
	DB	0ffH
	DB	030H
	DB	02cH
	DB	028H
	DB	0ffH
	DB	030H
	DB	02cH
	DB	030H
	DB	0ffH
	DB	028H
	DB	030H
	DB	030H
	DB	0ffH
	DB	030H
	DB	02cH
	DB	030H
	DB	0ffH
	DB	030H
	DB	02cH
	DB	028H
	DB	0ffH
	DB	028H
	DB	030H
	DB	030H
	DB	0ffH
	DB	030H
	DB	030H
	DB	030H
	DB	0ffH
	DB	030H
	DB	02cH
	DB	028H
	DB	0ffH
	DB	028H
	DB	030H
	DB	030H
	DB	0ffH
	DB	030H
	DB	02cH
	DB	030H
	DB	0ffH
	DB	030H
	DB	030H
	DB	028H
	DB	0ffH
	DB	028H
	DB	030H
	DB	030H
	DB	0ffH
	DB	030H
	DB	02cH
	DB	030H
	DB	0ffH
	DB	030H
	DB	030H
	DB	030H
	DB	0ffH
	DB	028H
	DB	030H
	DB	030H
	DB	0ffH
	DB	030H
	DB	02cH
	DB	028H
	DB	0ffH
	DB	028H
	DB	030H
	DB	030H
	DB	0ffH
	DB	030H
	DB	030H
	DB	030H
	DB	0ffH
	DB	030H
	DB	02cH
	DB	028H
	DB	0ffH
	DB	028H
	DB	030H
	DB	030H
	DB	0ffH
	DB	030H
	DB	02cH
	DB	030H
	DB	0ffH
	DB	030H
	DB	030H
	DB	030H
	DB	0ffH
	DB	028H
	DB	02cH
	DB	030H
	DB	0ffH
	DB	030H
	DB	02cH
	DB	028H
	DB	0ffH
	DB	028H
	DB	030H
	DB	030H
	DB	0ffH
	DB	030H
	DB	02cH
	DB	028H
	DB	0ffH
	DB	030H
	DB	02cH
	DB	030H
	DB	0ffH
	DB	028H
	DB	02cH
	DB	028H
	DB	0ffH
	DB	030H
	DB	030H
	DB	030H
	DB	0ffH
	DB	030H
	DB	02cH
	DB	030H
	DB	0ffH
	DB	028H
	DB	02cH
	DB	028H
	DB	0ffH
	DB	030H
	DB	02cH
	DB	030H
	DB	0ffH
	DB	028H
	DB	02cH
	DB	028H
	DB	0ffH
	DB	028H
	DB	02cH
	DB	028H
	DB	0beH
	DB	030H
	DB	02cH
	DB	030H
	DB	04H
	DB	0f8H
	DB	0fcH
	DB	0f8H
	DB	00H
	DB	0f8H
	DB	0fcH
	DB	0f8H
	DB	00H
	DB	0f8H
	DB	0fcH
	DB	0f8H
	DB	00H
	DB	028H
	DB	02cH
	DB	028H
	DB	08H
	DB	030H
	DB	02cH
	DB	030H
	DB	092H
	DB	030H
	DB	02cH
	DB	030H
	DB	0ffH
	DB	028H
	DB	02cH
	DB	030H
	DB	0ffH
	DB	030H
	DB	02cH
	DB	028H
	DB	0ffH
	DB	030H
	DB	02cH
	DB	030H
	DB	0ffH
	DB	028H
	DB	02cH
	DB	030H
	DB	0ffH
	DB	030H
	DB	02cH
	DB	028H
	DB	0ffH
	DB	030H
	DB	02cH
	DB	030H
	DB	0ffH
	DB	028H
	DB	02cH
	DB	028H
	DB	0ffH
	DB	030H
	DB	02cH
	DB	030H
	DB	0ffH
	DB	030H
	DB	02cH
	DB	028H
	DB	0ffH
	DB	028H
	DB	02cH
	DB	030H
	DB	0ffH
	DB	028H
	DB	02cH
	DB	030H
	DB	0ffH
	DB	030H
	DB	02cH
	DB	028H
	DB	0ffH
	DB	030H
	DB	030H
	DB	028H
	DB	0ffH
	DB	028H
	DB	02cH
	DB	030H
	DB	0ffH
	DB	030H
	DB	02cH
	DB	030H
	DB	0ffH
	DB	028H
	DB	02cH
	DB	028H
	DB	0ffH
	DB	030H
	DB	030H
	DB	030H
	DB	0ffH
	DB	030H
	DB	02cH
	DB	030H
	DB	0ffH
	DB	028H
	DB	02cH
	DB	028H
	DB	0ffH
	DB	030H
	DB	02cH
	DB	028H
	DB	0ffH
	DB	030H
	DB	02cH
	DB	030H
	DB	0ffH
	DB	028H
	DB	02cH
	DB	028H
	DB	0ffH
	DB	028H
	DB	02cH
	DB	028H
	DB	0ffH
	DB	030H
	DB	02cH
	DB	030H
	DB	0ffH
	DB	028H
	DB	02cH
	DB	028H
	DB	0ffH
	DB	030H
	DB	02cH
	DB	030H
	DB	0ffH
	DB	030H
	DB	02cH
	DB	030H
	DB	0ffH
	DB	028H
	DB	02cH
	DB	028H
	DB	0ffH
	DB	028H
	DB	02cH
	DB	030H
	DB	0ffH
	DB	030H
	DB	02cH
	DB	030H
	DB	0ffH
	DB	030H
	DB	030H
	DB	028H
	DB	0ffH
	DB	028H
	DB	02cH
	DB	030H
	DB	0ffH
	DB	030H
	DB	02cH
	DB	028H
	DB	0ffH
	DB	030H
	DB	02cH
	DB	030H
	DB	0ffH
	DB	028H
	DB	02cH
	DB	028H
	DB	0ffH
	DB	030H
	DB	02cH
	DB	030H
	DB	0ffH
	DB	030H
	DB	02cH
	DB	028H
	DB	0ffH
	DB	028H
	DB	02cH
	DB	030H
	DB	0ffH
	DB	028H
	DB	02cH
	DB	028H
	DB	0ffH
	DB	030H
	DB	02cH
	DB	030H
	DB	0ffH
	DB	028H
	DB	02cH
	DB	028H
	DB	0ffH
	DB	030H
	DB	02cH
	DB	028H
	DB	0ffH
	DB	030H
	DB	02cH
	DB	030H
	DB	0ffH
	DB	028H
	DB	02cH
	DB	028H
	DB	0ffH
	DB	030H
	DB	02cH
	DB	030H
	DB	0ffH
	DB	028H
	DB	02cH
	DB	030H
	DB	0ffH
	DB	030H
	DB	02cH
	DB	028H
	DB	0ffH
	DB	030H
	DB	02cH
	DB	030H
	DB	0ffH
	DB	028H
	DB	02cH
	DB	028H
	DB	0ffH
	DB	030H
	DB	030H
	DB	030H
	DB	0ffH
	DB	030H
	DB	02cH
	DB	028H
	DB	0ffH
	DB	028H
	DB	02cH
	DB	030H
	DB	0ffH
	DB	030H
	DB	030H
	DB	030H
	DB	0ffH
	DB	030H
	DB	02cH
	DB	028H
	DB	0ffH
	DB	028H
	DB	02cH
	DB	030H
	DB	0ffH
	DB	030H
	DB	02cH
	DB	030H
	DB	0ffH
	DB	030H
	DB	02cH
	DB	028H
	DB	0ffH
	DB	030H
	DB	02cH
	DB	030H
	DB	0ffH
	DB	028H
	DB	02cH
	DB	030H
	DB	0ffH
	DB	030H
	DB	02cH
	DB	028H
	DB	0ffH
	DB	030H
	DB	030H
	DB	030H
	DB	0fbH
	DB	030H
	DB	02cH
	DB	030H
	DB	096H
	DB	030H
	DB	02cH
	DB	030H
	DB	08H
	DB	0f8H
	DB	0fcH
	DB	0f8H
	DB	00H
	DB	0f8H
	DB	0fcH
	DB	0f8H
	DB	00H
	DB	0f8H
	DB	0fcH
	DB	0f8H
	DB	00H
	DB	0f8H
	DB	0fcH
	DB	0f8H
	DB	00H
	DB	0f8H
	DB	0fcH
	DB	0f8H
	DB	00H
	DB	0f8H
	DB	0fcH
	DB	0f8H
	DB	00H
	DB	028H
	DB	030H
	DB	028H
	DB	02cH
	DB	030H
	DB	030H
	DB	030H
	DB	08eH
	DB	030H
	DB	02cH
	DB	028H
	DB	0d7H
	DB	030H
	DB	030H
	DB	030H
	DB	0fbH
	DB	028H
	DB	030H
	DB	030H
	DB	0ffH
	DB	030H
	DB	02cH
	DB	030H
	DB	0ffH
	DB	030H
	DB	030H
	DB	028H
	DB	0ffH
	DB	028H
	DB	030H
	DB	030H
	DB	0ffH
	DB	030H
	DB	02cH
	DB	030H
	DB	0ffH
	DB	030H
	DB	030H
	DB	028H
	DB	0ffH
	DB	030H
	DB	02cH
	DB	030H
	DB	0ffH
	DB	030H
	DB	02cH
	DB	030H
	DB	0ffH
	DB	028H
	DB	030H
	DB	028H
	DB	0ffH
	DB	030H
	DB	02cH
	DB	030H
	DB	0ffH
	DB	030H
	DB	02cH
	DB	030H
	DB	0ffH
	DB	028H
	DB	02cH
	DB	028H
	DB	0ffH
	DB	030H
	DB	030H
	DB	028H
	DB	0ffH
	DB	028H
	DB	02cH
	DB	030H
	DB	0ffH
	DB	030H
	DB	02cH
	DB	030H
	DB	0ffH
	DB	028H
	DB	030H
	DB	028H
	DB	0ffH
	DB	030H
	DB	02cH
	DB	030H
	DB	0ffH
	DB	030H
	DB	02cH
	DB	030H
	DB	0ffH
	DB	028H
	DB	030H
	DB	030H
	DB	0ffH
	DB	030H
	DB	02cH
	DB	028H
	DB	0ffH
	DB	030H
	DB	02cH
	DB	030H
	DB	0ffH
	DB	028H
	DB	030H
	DB	028H
	DB	0ffH
	DB	030H
	DB	02cH
	DB	030H
	DB	0ffH
	DB	030H
	DB	02cH
	DB	028H
	DB	0ffH
	DB	028H
	DB	02cH
	DB	028H
	DB	0ffH
	DB	030H
	DB	02cH
	DB	030H
	DB	0ffH
	DB	030H
	DB	030H
	DB	030H
	DB	0ffH
	DB	028H
	DB	02cH
	DB	028H
	DB	0ffH
	DB	030H
	DB	02cH
	DB	030H
	DB	0ffH
	DB	028H
	DB	030H
	DB	030H
	DB	0ffH
	DB	030H
	DB	02cH
	DB	028H
	DB	0ffH
	DB	028H
	DB	02cH
	DB	030H
	DB	0ffH
	DB	030H
	DB	030H
	DB	030H
	DB	0ffH
	DB	030H
	DB	02cH
	DB	030H
	DB	0ffH
	DB	028H
	DB	02cH
	DB	028H
	DB	0ffH
	DB	030H
	DB	030H
	DB	030H
	DB	0ffH
	DB	030H
	DB	02cH
	DB	030H
	DB	0ffH
	DB	028H
	DB	02cH
	DB	030H
	DB	0ffH
	DB	030H
	DB	02cH
	DB	028H
	DB	0ffH
	DB	028H
	DB	02cH
	DB	030H
	DB	0ffH
	DB	030H
	DB	030H
	DB	030H
	DB	0ffH
	DB	030H
	DB	02cH
	DB	028H
	DB	0ffH
	DB	028H
	DB	02cH
	DB	030H
	DB	0ffH
	DB	030H
	DB	030H
	DB	030H
	DB	0ffH
	DB	030H
	DB	02cH
	DB	028H
	DB	0ffH
	DB	028H
	DB	02cH
	DB	030H
	DB	0ffH
	DB	030H
	DB	02cH
	DB	028H
	DB	0ffH
	DB	028H
	DB	02cH
	DB	030H
	DB	0ffH
	DB	030H
	DB	02cH
	DB	028H
	DB	0ffH
	DB	030H
	DB	02cH
	DB	030H
	DB	0ffH
	DB	028H
	DB	02cH
	DB	030H
	DB	0ffH
	DB	030H
	DB	030H
	DB	028H
	DB	0ffH
	DB	028H
	DB	030H
	DB	030H
	DB	0ffH
	DB	028H
	DB	02cH
	DB	030H
	DB	0ffH
	DB	030H
	DB	02cH
	DB	028H
	DB	0f3H
	DB	028H
	DB	030H
	DB	030H
	DB	0d3H
	DB	030H
	DB	02cH
	DB	030H
	DB	092H
	DB	028H
	DB	02cH
	DB	028H
	DB	02cH
	DB	0f8H
	DB	0fcH
	DB	0f8H
	DB	00H
	DB	0f8H
	DB	0fcH
	DB	0f8H
	DB	00H
	DB	0f8H
	DB	0fcH
	DB	0f8H
	DB	00H
	DB	0f8H
	DB	0fcH
	DB	0f8H
	DB	00H
CONST	ENDS
END
