; Listing generated by Microsoft (R) Optimizing Compiler Version 19.31.31104.0 

	TITLE	F:\MyProject\STM32F769_Keyboard\TouchGFX\build\Debug\obj\Kerning_MicrosoftYaHei_Bold_30_4bpp.obj
	.686P
	.XMM
	include listing.inc
	.model	flat

INCLUDELIB MSVCRTD
INCLUDELIB OLDNAMES

PUBLIC	?kerning_MicrosoftYaHei_Bold_30_4bpp@@3QBUKerningNode@touchgfx@@B ; kerning_MicrosoftYaHei_Bold_30_4bpp
msvcjmc	SEGMENT
__70B5BA90_concurrencysal@h DB 01H
__35156B19_sal@h DB 01H
__8DB56A60_vadefs@h DB 01H
__3ECF3657_vcruntime@h DB 01H
__D1309CD7_corecrt@h DB 01H
__913F199D_assert@h DB 01H
__F5B80406_stdint@h DB 01H
__4DF99823_Config@hpp DB 01H
__B2B90886_Types@hpp DB 01H
__C167BAC9_stdarg@h DB 01H
__0A1906C0_Unicode@hpp DB 01H
__BA97441C_Font@hpp DB 01H
__73088D6A_Kerning_MicrosoftYaHei_Bold_30_4bpp@cpp DB 01H
msvcjmc	ENDS
CONST	SEGMENT
?kerning_MicrosoftYaHei_Bold_30_4bpp@@3QBUKerningNode@touchgfx@@B DW 066H ; kerning_MicrosoftYaHei_Bold_30_4bpp
	DB	01H
	ORG $+1
	DW	041H
	DB	0feH
	ORG $+1
	DW	04cH
	DB	0fdH
	ORG $+1
	DW	066H
	DB	01H
	ORG $+1
	DW	066H
	DB	0ffH
	ORG $+1
	DW	06bH
	DB	0feH
	ORG $+1
	DW	072H
	DB	0feH
	ORG $+1
	DW	074H
	DB	0ffH
	ORG $+1
	DW	044H
	DB	0feH
	ORG $+1
	DW	046H
	DB	0feH
	ORG $+1
	DW	04aH
	DB	0ffH
	ORG $+1
	DW	04fH
	DB	0ffH
	ORG $+1
	DW	050H
	DB	0fbH
	ORG $+1
	DW	051H
	DB	0ffH
	ORG $+1
	DW	054H
	DB	0fdH
	ORG $+1
	DW	056H
	DB	0fdH
	ORG $+1
	DW	057H
	DB	0feH
	ORG $+1
	DW	058H
	DB	01H
	ORG $+1
	DW	059H
	DB	0fcH
	ORG $+1
	DW	066H
	DB	0feH
	ORG $+1
	DW	06bH
	DB	01H
	ORG $+1
	DW	072H
	DB	0fdH
	ORG $+1
	DW	076H
	DB	0feH
	ORG $+1
	DW	077H
	DB	0ffH
	ORG $+1
	DW	079H
	DB	0feH
	ORG $+1
	DW	04cH
	DB	0ffH
	ORG $+1
	DW	066H
	DB	01H
	ORG $+1
	DW	074H
	DB	0ffH
	ORG $+1
	DW	02aH
	DB	0feH
	ORG $+1
	DW	046H
	DB	0feH
	ORG $+1
	DW	04aH
	DB	0ffH
	ORG $+1
	DW	04cH
	DB	01H
	ORG $+1
	DW	050H
	DB	0feH
	ORG $+1
	DW	054H
	DB	0feH
	ORG $+1
	DW	055H
	DB	0ffH
	ORG $+1
	DW	056H
	DB	0feH
	ORG $+1
	DW	057H
	DB	0ffH
	ORG $+1
	DW	059H
	DB	0feH
	ORG $+1
	DW	043H
	DB	0ffH
	ORG $+1
	DW	04bH
	DB	0ffH
	ORG $+1
	DW	04cH
	DB	0ffH
	ORG $+1
	DW	054H
	DB	0ffH
	ORG $+1
	DW	056H
	DB	0ffH
	ORG $+1
	DW	059H
	DB	0ffH
	ORG $+1
	DW	043H
	DB	0ffH
	ORG $+1
	DW	04bH
	DB	0ffH
	ORG $+1
	DW	04cH
	DB	0ffH
	ORG $+1
	DW	054H
	DB	0ffH
	ORG $+1
	DW	056H
	DB	0ffH
	ORG $+1
	DW	059H
	DB	0ffH
	ORG $+1
	DW	02aH
	DB	0feH
	ORG $+1
	DW	041H
	DB	01H
	ORG $+1
	DW	045H
	DB	01H
	ORG $+1
	DW	046H
	DB	0ffH
	ORG $+1
	DW	04aH
	DB	0ffH
	ORG $+1
	DW	04bH
	DB	01H
	ORG $+1
	DW	04cH
	DB	01H
	ORG $+1
	DW	050H
	DB	0feH
	ORG $+1
	DW	052H
	DB	01H
	ORG $+1
	DW	054H
	DB	0feH
	ORG $+1
	DW	055H
	DB	0ffH
	ORG $+1
	DW	056H
	DB	0feH
	ORG $+1
	DW	058H
	DB	01H
	ORG $+1
	DW	059H
	DB	0feH
	ORG $+1
	DW	05aH
	DB	01H
	ORG $+1
	DW	063H
	DB	01H
	ORG $+1
	DW	04bH
	DB	0ffH
	ORG $+1
	DW	04cH
	DB	0ffH
	ORG $+1
	DW	054H
	DB	0ffH
	ORG $+1
	DW	059H
	DB	0ffH
	ORG $+1
	DW	043H
	DB	0ffH
	ORG $+1
	DW	04bH
	DB	0ffH
	ORG $+1
	DW	04cH
	DB	0ffH
	ORG $+1
	DW	054H
	DB	0ffH
	ORG $+1
	DW	059H
	DB	0ffH
	ORG $+1
	DW	041H
	DB	0feH
	ORG $+1
	DW	042H
	DB	0ffH
	ORG $+1
	DW	044H
	DB	0ffH
	ORG $+1
	DW	047H
	DB	0ffH
	ORG $+1
	DW	04cH
	DB	0feH
	ORG $+1
	DW	04fH
	DB	0ffH
	ORG $+1
	DW	051H
	DB	0ffH
	ORG $+1
	DW	052H
	DB	0ffH
	ORG $+1
	DW	054H
	DB	01H
	ORG $+1
	DW	056H
	DB	01H
	ORG $+1
	DW	058H
	DB	01H
	ORG $+1
	DW	059H
	DB	01H
	ORG $+1
	DW	05aH
	DB	01H
	ORG $+1
	DW	063H
	DB	0ffH
	ORG $+1
	DW	041H
	DB	0ffH
	ORG $+1
	DW	04cH
	DB	0ffH
	ORG $+1
	DW	041H
	DB	0feH
	ORG $+1
	DW	04cH
	DB	0feH
	ORG $+1
	DW	054H
	DB	01H
	ORG $+1
	DW	041H
	DB	0ffH
	ORG $+1
	DW	045H
	DB	01H
	ORG $+1
	DW	04cH
	DB	0ffH
	ORG $+1
	DW	050H
	DB	01H
	ORG $+1
	DW	054H
	DB	01H
	ORG $+1
	DW	044H
	DB	0ffH
	ORG $+1
	DW	045H
	DB	01H
	ORG $+1
	DW	04bH
	DB	01H
	ORG $+1
	DW	04fH
	DB	0ffH
	ORG $+1
	DW	050H
	DB	0ffH
	ORG $+1
	DW	051H
	DB	0ffH
	ORG $+1
	DW	041H
	DB	0feH
	ORG $+1
	DW	042H
	DB	0ffH
	ORG $+1
	DW	04cH
	DB	0feH
	ORG $+1
	DW	04fH
	DB	0ffH
	ORG $+1
	DW	054H
	DB	01H
	ORG $+1
	DW	063H
	DB	0ffH
	ORG $+1
	DW	044H
	DB	0ffH
	ORG $+1
	DW	04bH
	DB	01H
	ORG $+1
	DW	04cH
	DB	01H
	ORG $+1
	DW	04fH
	DB	0ffH
	ORG $+1
	DW	051H
	DB	0ffH
	ORG $+1
	DW	046H
	DB	0ffH
	ORG $+1
	DW	050H
	DB	0ffH
	ORG $+1
	DW	054H
	DB	0fdH
	ORG $+1
	DW	056H
	DB	0feH
	ORG $+1
	DW	057H
	DB	0ffH
	ORG $+1
	DW	059H
	DB	0fdH
	ORG $+1
	DW	02aH
	DB	0ffH
	ORG $+1
	DW	050H
	DB	0ffH
	ORG $+1
	DW	052H
	DB	0ffH
	ORG $+1
	DW	054H
	DB	0fdH
	ORG $+1
	DW	056H
	DB	0feH
	ORG $+1
	DW	057H
	DB	0ffH
	ORG $+1
	DW	059H
	DB	0fdH
	ORG $+1
	DW	078H
	DB	0ffH
	ORG $+1
	DW	02aH
	DB	0ffH
	ORG $+1
	DW	050H
	DB	0ffH
	ORG $+1
	DW	052H
	DB	0ffH
	ORG $+1
	DW	054H
	DB	0fdH
	ORG $+1
	DW	056H
	DB	0feH
	ORG $+1
	DW	057H
	DB	0ffH
	ORG $+1
	DW	059H
	DB	0fdH
	ORG $+1
	DW	078H
	DB	0ffH
	ORG $+1
	DW	02aH
	DB	0ffH
	ORG $+1
	DW	050H
	DB	0ffH
	ORG $+1
	DW	052H
	DB	0ffH
	ORG $+1
	DW	054H
	DB	0fdH
	ORG $+1
	DW	056H
	DB	0feH
	ORG $+1
	DW	057H
	DB	0ffH
	ORG $+1
	DW	059H
	DB	0fdH
	ORG $+1
	DW	078H
	DB	0ffH
	ORG $+1
	DW	054H
	DB	0ffH
	ORG $+1
	DW	072H
	DB	01H
	ORG $+1
	DW	02aH
	DB	0ffH
	ORG $+1
	DW	050H
	DB	0ffH
	ORG $+1
	DW	052H
	DB	0ffH
	ORG $+1
	DW	054H
	DB	0fdH
	ORG $+1
	DW	056H
	DB	0feH
	ORG $+1
	DW	057H
	DB	0ffH
	ORG $+1
	DW	059H
	DB	0fdH
	ORG $+1
	DW	078H
	DB	0ffH
	ORG $+1
	DW	028H
	DB	03H
	ORG $+1
	DW	071H
	DB	01H
	ORG $+1
	DW	054H
	DB	0feH
	ORG $+1
	DW	056H
	DB	0ffH
	ORG $+1
	DW	059H
	DB	0feH
	ORG $+1
	DW	054H
	DB	0feH
	ORG $+1
	DW	056H
	DB	0ffH
	ORG $+1
	DW	059H
	DB	0feH
	ORG $+1
	DW	02aH
	DB	0ffH
	ORG $+1
	DW	050H
	DB	0ffH
	ORG $+1
	DW	052H
	DB	0ffH
	ORG $+1
	DW	054H
	DB	0fdH
	ORG $+1
	DW	056H
	DB	0feH
	ORG $+1
	DW	057H
	DB	0ffH
	ORG $+1
	DW	059H
	DB	0fdH
	ORG $+1
	DW	078H
	DB	0ffH
	ORG $+1
	DW	054H
	DB	0feH
	ORG $+1
	DW	056H
	DB	0ffH
	ORG $+1
	DW	059H
	DB	0feH
	ORG $+1
	DW	02aH
	DB	0ffH
	ORG $+1
	DW	050H
	DB	0ffH
	ORG $+1
	DW	052H
	DB	0ffH
	ORG $+1
	DW	054H
	DB	0fdH
	ORG $+1
	DW	056H
	DB	0feH
	ORG $+1
	DW	057H
	DB	0ffH
	ORG $+1
	DW	059H
	DB	0fdH
	ORG $+1
	DW	078H
	DB	0ffH
	ORG $+1
	DW	054H
	DB	0feH
	ORG $+1
	DW	056H
	DB	0ffH
	ORG $+1
	DW	059H
	DB	0feH
	ORG $+1
	DW	054H
	DB	0feH
	ORG $+1
	DW	056H
	DB	0ffH
	ORG $+1
	DW	059H
	DB	0feH
	ORG $+1
	DW	041H
	DB	0ffH
	ORG $+1
	DW	04bH
	DB	0ffH
	ORG $+1
	DW	053H
	DB	0ffH
	ORG $+1
	DW	066H
	DB	01H
	ORG $+1
	DW	072H
	DB	01H
	ORG $+1
	DW	054H
	DB	0feH
	ORG $+1
	DW	056H
	DB	0ffH
	ORG $+1
	DW	059H
	DB	0feH
	ORG $+1
	DW	041H
	DB	0ffH
	ORG $+1
	DW	04bH
	DB	0ffH
	ORG $+1
	DW	04cH
	DB	0ffH
	ORG $+1
	DW	053H
	DB	0ffH
	ORG $+1
	DW	054H
	DB	0ffH
	ORG $+1
	DW	066H
	DB	01H
	ORG $+1
	DW	072H
	DB	01H
	ORG $+1
	DW	04bH
	DB	0ffH
	ORG $+1
	DW	04cH
	DB	0ffH
	ORG $+1
	DW	054H
	DB	0ffH
	ORG $+1
	DW	066H
	DB	01H
	ORG $+1
	DW	072H
	DB	01H
	ORG $+1
	DW	054H
	DB	0feH
	ORG $+1
	DW	062H
	DB	0ffH
	ORG $+1
	DW	06fH
	DB	0ffH
	ORG $+1
	DW	070H
	DB	0ffH
	ORG $+1
	DW	072H
	DB	01H
	ORG $+1
	DW	041H
	DB	0ffH
	ORG $+1
	DW	04bH
	DB	0ffH
	ORG $+1
	DW	04cH
	DB	0ffH
	ORG $+1
	DW	053H
	DB	0ffH
	ORG $+1
	DW	054H
	DB	0ffH
	ORG $+1
	DW	05aH
	DB	0ffH
	ORG $+1
	DW	066H
	DB	01H
	ORG $+1
	DW	072H
	DB	01H
	ORG $+1
	DW	054H
	DB	0ffH
	ORG $+1
	DW	072H
	DB	01H
	ORG $+1
CONST	ENDS
PUBLIC	__JustMyCode_Default
; Function compile flags: /Odt
;	COMDAT __JustMyCode_Default
_TEXT	SEGMENT
__JustMyCode_Default PROC				; COMDAT
	push	ebp
	mov	ebp, esp
	pop	ebp
	ret	0
__JustMyCode_Default ENDP
_TEXT	ENDS
END
