; Listing generated by Microsoft (R) Optimizing Compiler Version 19.31.31104.0 

	TITLE	F:\MyProject\STM32F769_Keyboard\TouchGFX\build\Debug\obj\Table_MicrosoftYaHei_Bold_40_4bpp.obj
	.686P
	.XMM
	include listing.inc
	.model	flat

INCLUDELIB MSVCRTD
INCLUDELIB OLDNAMES

PUBLIC	?glyphs_MicrosoftYaHei_Bold_40_4bpp@@3QBUGlyphNode@touchgfx@@B ; glyphs_MicrosoftYaHei_Bold_40_4bpp
PUBLIC	?unicodes_MicrosoftYaHei_Bold_40_4bpp@@3QBQBEB	; unicodes_MicrosoftYaHei_Bold_40_4bpp
EXTRN	?unicodes_MicrosoftYaHei_Bold_40_4bpp_0@@3QBEB:BYTE ; unicodes_MicrosoftYaHei_Bold_40_4bpp_0
EXTRN	?unicodes_MicrosoftYaHei_Bold_40_4bpp_4@@3QBEB:BYTE ; unicodes_MicrosoftYaHei_Bold_40_4bpp_4
EXTRN	?unicodes_MicrosoftYaHei_Bold_40_4bpp_9@@3QBEB:BYTE ; unicodes_MicrosoftYaHei_Bold_40_4bpp_9
EXTRN	?unicodes_MicrosoftYaHei_Bold_40_4bpp_10@@3QBEB:BYTE ; unicodes_MicrosoftYaHei_Bold_40_4bpp_10
EXTRN	?unicodes_MicrosoftYaHei_Bold_40_4bpp_11@@3QBEB:BYTE ; unicodes_MicrosoftYaHei_Bold_40_4bpp_11
EXTRN	?unicodes_MicrosoftYaHei_Bold_40_4bpp_12@@3QBEB:BYTE ; unicodes_MicrosoftYaHei_Bold_40_4bpp_12
EXTRN	?unicodes_MicrosoftYaHei_Bold_40_4bpp_13@@3QBEB:BYTE ; unicodes_MicrosoftYaHei_Bold_40_4bpp_13
EXTRN	?unicodes_MicrosoftYaHei_Bold_40_4bpp_14@@3QBEB:BYTE ; unicodes_MicrosoftYaHei_Bold_40_4bpp_14
EXTRN	?unicodes_MicrosoftYaHei_Bold_40_4bpp_15@@3QBEB:BYTE ; unicodes_MicrosoftYaHei_Bold_40_4bpp_15
EXTRN	?unicodes_MicrosoftYaHei_Bold_40_4bpp_16@@3QBEB:BYTE ; unicodes_MicrosoftYaHei_Bold_40_4bpp_16
EXTRN	?unicodes_MicrosoftYaHei_Bold_40_4bpp_17@@3QBEB:BYTE ; unicodes_MicrosoftYaHei_Bold_40_4bpp_17
EXTRN	?unicodes_MicrosoftYaHei_Bold_40_4bpp_18@@3QBEB:BYTE ; unicodes_MicrosoftYaHei_Bold_40_4bpp_18
EXTRN	?unicodes_MicrosoftYaHei_Bold_40_4bpp_19@@3QBEB:BYTE ; unicodes_MicrosoftYaHei_Bold_40_4bpp_19
msvcjmc	SEGMENT
__70B5BA90_concurrencysal@h DB 01H
__35156B19_sal@h DB 01H
__8DB56A60_vadefs@h DB 01H
__3ECF3657_vcruntime@h DB 01H
__D1309CD7_corecrt@h DB 01H
__913F199D_assert@h DB 01H
__F5B80406_stdint@h DB 01H
__4DF99823_Config@hpp DB 01H
__B2B90886_Types@hpp DB 01H
__C167BAC9_stdarg@h DB 01H
__0A1906C0_Unicode@hpp DB 01H
__BA97441C_Font@hpp DB 01H
__7E68CDD4_ConstFont@hpp DB 01H
__01CD29F0_GeneratedFont@hpp DB 01H
__80D241DD_Table_MicrosoftYaHei_Bold_40_4bpp@cpp DB 01H
msvcjmc	ENDS
CONST	SEGMENT
?glyphs_MicrosoftYaHei_Bold_40_4bpp@@3QBUGlyphNode@touchgfx@@B DD 00H ; glyphs_MicrosoftYaHei_Bold_40_4bpp
	DW	020H
	DB	00H
	DB	00H
	DB	00H
	DB	00H
	DB	0cH
	DB	00H
	DB	00H
	DB	00H
	DD	00H
	DW	021H
	DB	08H
	DB	01fH
	DB	01eH
	DB	03H
	DB	0eH
	DB	00H
	DB	00H
	DB	00H
	DD	07cH
	DW	022H
	DB	0fH
	DB	0aH
	DB	01eH
	DB	03H
	DB	015H
	DB	00H
	DB	05H
	DB	00H
	DD	0ccH
	DW	023H
	DB	019H
	DB	01cH
	DB	01eH
	DB	00H
	DB	01aH
	DB	00H
	DB	00H
	DB	00H
	DD	0238H
	DW	024H
	DB	015H
	DB	027H
	DB	022H
	DB	02H
	DB	019H
	DB	00H
	DB	00H
	DB	00H
	DD	03e5H
	DW	025H
	DB	023H
	DB	020H
	DB	01fH
	DB	01H
	DB	025H
	DB	00H
	DB	00H
	DB	00H
	DD	0625H
	DW	026H
	DB	023H
	DB	020H
	DB	01fH
	DB	01H
	DB	024H
	DB	00H
	DB	00H
	DB	00H
	DD	0865H
	DW	027H
	DB	06H
	DB	0aH
	DB	01eH
	DB	03H
	DB	0cH
	DB	05H
	DB	05H
	DB	00H
	DD	0883H
	DW	028H
	DB	0dH
	DB	025H
	DB	01eH
	DB	03H
	DB	010H
	DB	00H
	DB	00H
	DB	00H
	DD	0986H
	DW	029H
	DB	0dH
	DB	025H
	DB	01eH
	DB	00H
	DB	010H
	DB	0aH
	DB	01H
	DB	00H
	DD	0a89H
	DW	02aH
	DB	011H
	DB	010H
	DB	01eH
	DB	01H
	DB	014H
	DB	0bH
	DB	03H
	DB	00H
	DD	0b19H
	DW	02bH
	DB	015H
	DB	015H
	DB	017H
	DB	05H
	DB	01eH
	DB	00H
	DB	00H
	DB	00H
	DD	0c00H
	DW	02cH
	DB	09H
	DB	0bH
	DB	06H
	DB	00H
	DB	0bH
	DB	0eH
	DB	014H
	DB	00H
	DD	0c37H
	DW	02dH
	DB	0cH
	DB	05H
	DB	0eH
	DB	03H
	DB	011H
	DB	022H
	DB	04H
	DB	00H
	DD	0c55H
	DW	02eH
	DB	08H
	DB	08H
	DB	07H
	DB	02H
	DB	0bH
	DB	026H
	DB	012H
	DB	00H
	DD	0c75H
	DW	02fH
	DB	015H
	DB	023H
	DB	01eH
	DB	0ffH
	DB	013H
	DB	00H
	DB	00H
	DB	00H
	DD	0df6H
	DW	030H
	DB	017H
	DB	020H
	DB	01fH
	DB	01H
	DB	019H
	DB	00H
	DB	00H
	DB	00H
	DD	0f76H
	DW	031H
	DB	014H
	DB	01fH
	DB	01fH
	DB	03H
	DB	019H
	DB	00H
	DB	00H
	DB	00H
	DD	010acH
	DW	032H
	DB	015H
	DB	01fH
	DB	01fH
	DB	02H
	DB	019H
	DB	00H
	DB	00H
	DB	00H
	DD	01201H
	DW	033H
	DB	014H
	DB	020H
	DB	01fH
	DB	03H
	DB	019H
	DB	00H
	DB	00H
	DB	00H
	DD	01341H
	DW	034H
	DB	018H
	DB	01eH
	DB	01eH
	DB	00H
	DB	019H
	DB	00H
	DB	00H
	DB	00H
	DD	014a9H
	DW	035H
	DB	014H
	DB	01fH
	DB	01eH
	DB	03H
	DB	019H
	DB	00H
	DB	00H
	DB	00H
	DD	015dfH
	DW	036H
	DB	016H
	DB	020H
	DB	01fH
	DB	02H
	DB	019H
	DB	00H
	DB	00H
	DB	00H
	DD	0173fH
	DW	037H
	DB	015H
	DB	01eH
	DB	01eH
	DB	02H
	DB	019H
	DB	00H
	DB	00H
	DB	00H
	DD	01889H
	DW	038H
	DB	016H
	DB	020H
	DB	01fH
	DB	01H
	DB	019H
	DB	00H
	DB	00H
	DB	00H
	DD	019e9H
	DW	039H
	DB	016H
	DB	020H
	DB	01fH
	DB	01H
	DB	019H
	DB	00H
	DB	00H
	DB	00H
	DD	01b49H
	DW	03aH
	DB	08H
	DB	017H
	DB	016H
	DB	02H
	DB	0bH
	DB	038H
	DB	04H
	DB	00H
	DD	01ba5H
	DW	03bH
	DB	0aH
	DB	01cH
	DB	016H
	DB	00H
	DB	0bH
	DB	03cH
	DB	08H
	DB	00H
	DD	01c31H
	DW	03cH
	DB	014H
	DB	016H
	DB	017H
	DB	05H
	DB	01eH
	DB	00H
	DB	00H
	DB	00H
	DD	01d0dH
	DW	03dH
	DB	015H
	DB	0eH
	DB	014H
	DB	05H
	DB	01eH
	DB	00H
	DB	00H
	DB	00H
	DD	01da7H
	DW	03eH
	DB	014H
	DB	017H
	DB	018H
	DB	05H
	DB	01eH
	DB	00H
	DB	00H
	DB	00H
	DD	01e8dH
	DW	03fH
	DB	011H
	DB	020H
	DB	01fH
	DB	01H
	DB	013H
	DB	044H
	DB	03H
	DB	00H
	DD	01fadH
	DW	040H
	DB	025H
	DB	023H
	DB	01fH
	DB	02H
	DB	029H
	DB	00H
	DB	00H
	DB	00H
	DD	02246H
	DW	041H
	DB	01eH
	DB	01eH
	DB	01eH
	DB	00H
	DB	01eH
	DB	047H
	DB	0eH
	DB	00H
	DD	02408H
	DW	042H
	DB	017H
	DB	01eH
	DB	01eH
	DB	03H
	DB	01bH
	DB	00H
	DB	00H
	DB	00H
	DD	02570H
	DW	043H
	DB	019H
	DB	020H
	DB	01fH
	DB	01H
	DB	01bH
	DB	055H
	DB	08H
	DB	00H
	DD	02710H
	DW	044H
	DB	01cH
	DB	01eH
	DB	01eH
	DB	03H
	DB	020H
	DB	00H
	DB	00H
	DB	00H
	DD	028b4H
	DW	045H
	DB	013H
	DB	01eH
	DB	01eH
	DB	03H
	DB	017H
	DB	00H
	DB	00H
	DB	00H
	DD	029e0H
	DW	046H
	DB	012H
	DB	01eH
	DB	01eH
	DB	03H
	DB	016H
	DB	00H
	DB	00H
	DB	00H
	DD	02aeeH
	DW	047H
	DB	01cH
	DB	020H
	DB	01fH
	DB	01H
	DB	01fH
	DB	05dH
	DB	07H
	DB	00H
	DD	02caeH
	DW	048H
	DB	01bH
	DB	01eH
	DB	01eH
	DB	03H
	DB	021H
	DB	00H
	DB	00H
	DB	00H
	DD	02e52H
	DW	049H
	DB	0dH
	DB	01eH
	DB	01eH
	DB	00H
	DB	0dH
	DB	00H
	DB	00H
	DB	00H
	DD	02f24H
	DW	04aH
	DB	010H
	DB	01fH
	DB	01eH
	DB	00H
	DB	013H
	DB	064H
	DB	010H
	DB	00H
	DD	0301cH
	DW	04bH
	DB	019H
	DB	01eH
	DB	01eH
	DB	03H
	DB	01cH
	DB	00H
	DB	00H
	DB	00H
	DD	031a2H
	DW	04cH
	DB	013H
	DB	01eH
	DB	01eH
	DB	03H
	DB	016H
	DB	00H
	DB	00H
	DB	00H
	DD	032ceH
	DW	04dH
	DB	023H
	DB	01eH
	DB	01eH
	DB	03H
	DB	029H
	DB	00H
	DB	00H
	DB	00H
	DD	034eaH
	DW	04eH
	DB	01cH
	DB	01eH
	DB	01eH
	DB	03H
	DB	022H
	DB	00H
	DB	00H
	DB	00H
	DD	0368eH
	DW	04fH
	DB	01fH
	DB	020H
	DB	01fH
	DB	01H
	DB	021H
	DB	074H
	DB	07H
	DB	00H
	DD	0388eH
	DW	050H
	DB	017H
	DB	01eH
	DB	01eH
	DB	03H
	DB	01aH
	DB	00H
	DB	00H
	DB	00H
	DD	039f6H
	DW	051H
	DB	021H
	DB	028H
	DB	01fH
	DB	01H
	DB	021H
	DB	07bH
	DB	07H
	DB	00H
	DD	03c9eH
	DW	052H
	DB	01aH
	DB	01eH
	DB	01eH
	DB	03H
	DB	01cH
	DB	00H
	DB	00H
	DB	00H
	DD	03e24H
	DW	053H
	DB	015H
	DB	020H
	DB	01fH
	DB	02H
	DB	018H
	DB	00H
	DB	00H
	DB	00H
	DD	03f84H
	DW	054H
	DB	019H
	DB	01eH
	DB	01eH
	DB	00H
	DB	019H
	DB	082H
	DB	011H
	DB	00H
	DD	0410aH
	DW	055H
	DB	019H
	DB	01fH
	DB	01eH
	DB	03H
	DB	01fH
	DB	093H
	DB	02H
	DB	00H
	DD	0429dH
	DW	056H
	DB	01dH
	DB	01eH
	DB	01eH
	DB	00H
	DB	01dH
	DB	095H
	DB	03H
	DB	00H
	DD	0445fH
	DW	057H
	DB	02bH
	DB	01eH
	DB	01eH
	DB	00H
	DB	02bH
	DB	098H
	DB	05H
	DB	00H
	DD	046f3H
	DW	058H
	DB	01cH
	DB	01eH
	DB	01eH
	DB	00H
	DB	01cH
	DB	09dH
	DB	06H
	DB	00H
	DD	04897H
	DW	059H
	DB	01aH
	DB	01eH
	DB	01eH
	DB	00H
	DB	01aH
	DB	0a3H
	DB	07H
	DB	00H
	DD	04a1dH
	DW	05aH
	DB	019H
	DB	01eH
	DB	01eH
	DB	00H
	DB	01aH
	DB	0aaH
	DB	06H
	DB	00H
	DD	04ba3H
	DW	05bH
	DB	0bH
	DB	025H
	DB	01eH
	DB	04H
	DB	010H
	DB	00H
	DB	00H
	DB	00H
	DD	04c81H
	DW	05cH
	DB	014H
	DB	023H
	DB	01eH
	DB	00H
	DB	013H
	DB	00H
	DB	00H
	DB	00H
	DD	04ddfH
	DW	05dH
	DB	0bH
	DB	025H
	DB	01eH
	DB	01H
	DB	010H
	DB	0b0H
	DB	01H
	DB	00H
	DD	04ebdH
	DW	05eH
	DB	016H
	DB	012H
	DB	01fH
	DB	04H
	DB	01eH
	DB	00H
	DB	00H
	DB	00H
	DD	04f83H
	DW	05fH
	DB	012H
	DB	03H
	DB	0fdH
	DB	00H
	DB	012H
	DB	00H
	DB	00H
	DB	060H
	DD	04f9eH
	DW	060H
	DB	0cH
	DB	07H
	DB	020H
	DB	01H
	DB	0dH
	DB	00H
	DB	00H
	DB	00H
	DD	04fc8H
	DW	061H
	DB	014H
	DB	017H
	DB	016H
	DB	01H
	DB	017H
	DB	0b1H
	DB	07H
	DB	00H
	DD	050aeH
	DW	062H
	DB	017H
	DB	021H
	DB	020H
	DB	02H
	DB	01bH
	DB	0b8H
	DB	01H
	DB	00H
	DD	0523aH
	DW	063H
	DB	013H
	DB	017H
	DB	016H
	DB	01H
	DB	015H
	DB	0b9H
	DB	0aH
	DB	00H
	DD	05320H
	DW	064H
	DB	017H
	DB	021H
	DB	020H
	DB	01H
	DB	01bH
	DB	0c3H
	DB	09H
	DB	00H
	DD	054acH
	DW	065H
	DB	016H
	DB	017H
	DB	016H
	DB	01H
	DB	017H
	DB	0ccH
	DB	0aH
	DB	00H
	DD	055a9H
	DW	066H
	DB	010H
	DB	020H
	DB	020H
	DB	01H
	DB	010H
	DB	0d6H
	DB	05H
	DB	00H
	DD	056a9H
	DW	067H
	DB	017H
	DB	020H
	DB	016H
	DB	01H
	DB	01bH
	DB	0dbH
	DB	0aH
	DB	00H
	DD	05829H
	DW	068H
	DB	016H
	DB	020H
	DB	020H
	DB	02H
	DB	01aH
	DB	00H
	DB	00H
	DB	00H
	DD	05989H
	DW	069H
	DB	08H
	DB	020H
	DB	020H
	DB	02H
	DB	0cH
	DB	00H
	DB	00H
	DB	00H
	DD	05a09H
	DW	06aH
	DB	0dH
	DB	02aH
	DB	020H
	DB	0fdH
	DB	0cH
	DB	0e5H
	DB	05H
	DB	00H
	DD	05b2fH
	DW	06bH
	DB	016H
	DB	020H
	DB	020H
	DB	02H
	DB	018H
	DB	00H
	DB	00H
	DB	00H
	DD	05c8fH
	DW	06cH
	DB	08H
	DB	020H
	DB	020H
	DB	02H
	DB	0cH
	DB	00H
	DB	00H
	DB	00H
	DD	05d0fH
	DW	06dH
	DB	023H
	DB	016H
	DB	016H
	DB	02H
	DB	027H
	DB	0eaH
	DB	03H
	DB	00H
	DD	05e9bH
	DW	06eH
	DB	016H
	DB	016H
	DB	016H
	DB	02H
	DB	01aH
	DB	0edH
	DB	03H
	DB	00H
	DD	05f8dH
	DW	06fH
	DB	018H
	DB	017H
	DB	016H
	DB	01H
	DB	01aH
	DB	0f0H
	DB	0aH
	DB	00H
	DD	060a1H
	DW	070H
	DB	017H
	DB	020H
	DB	016H
	DB	02H
	DB	01bH
	DB	0faH
	DB	03H
	DB	00H
	DD	06221H
	DW	071H
	DB	017H
	DB	020H
	DB	016H
	DB	01H
	DB	01bH
	DB	0fdH
	DB	08H
	DB	00H
	DD	063a1H
	DW	072H
	DB	0fH
	DB	016H
	DB	016H
	DB	02H
	DB	011H
	DB	05H
	DB	05H
	DB	01H
	DD	06451H
	DW	073H
	DB	011H
	DB	017H
	DB	016H
	DB	02H
	DB	014H
	DB	0aH
	DB	06H
	DB	01H
	DD	06520H
	DW	074H
	DB	010H
	DB	01dH
	DB	01cH
	DB	00H
	DB	011H
	DB	010H
	DB	05H
	DB	01H
	DD	06608H
	DW	075H
	DB	016H
	DB	016H
	DB	015H
	DB	02H
	DB	01aH
	DB	015H
	DB	03H
	DB	01H
	DD	066faH
	DW	076H
	DB	017H
	DB	015H
	DB	015H
	DB	00H
	DB	017H
	DB	018H
	DB	07H
	DB	01H
	DD	067f6H
	DW	077H
	DB	022H
	DB	015H
	DB	015H
	DB	00H
	DB	022H
	DB	01fH
	DB	06H
	DB	01H
	DD	0695bH
	DW	078H
	DB	017H
	DB	015H
	DB	015H
	DB	00H
	DB	017H
	DB	025H
	DB	06H
	DB	01H
	DD	06a57H
	DW	079H
	DB	017H
	DB	01fH
	DB	015H
	DB	00H
	DB	017H
	DB	02bH
	DB	08H
	DB	01H
	DD	06bcbH
	DW	07aH
	DB	014H
	DB	015H
	DB	015H
	DB	00H
	DB	015H
	DB	033H
	DB	02H
	DB	01H
	DD	06c9dH
	DW	07bH
	DB	0cH
	DB	025H
	DB	01eH
	DB	02H
	DB	010H
	DB	00H
	DB	00H
	DB	00H
	DD	06d7bH
	DW	07cH
	DB	06H
	DB	02bH
	DB	021H
	DB	04H
	DB	0eH
	DB	00H
	DB	00H
	DB	00H
	DD	06dfcH
	DW	07dH
	DB	0dH
	DB	025H
	DB	01eH
	DB	01H
	DB	010H
	DB	035H
	DB	01H
	DB	01H
	DD	06effH
	DW	07eH
	DB	017H
	DB	08H
	DB	011H
	DB	04H
	DB	01eH
	DB	00H
	DB	00H
	DB	00H
	DD	06f5fH
	DW	0a1H
	DB	08H
	DB	01fH
	DB	016H
	DB	03H
	DB	0eH
	DB	00H
	DB	00H
	DB	00H
	DD	06fdbH
	DW	0a2H
	DB	013H
	DB	01fH
	DB	01eH
	DB	03H
	DB	019H
	DB	00H
	DB	00H
	DB	00H
	DD	07111H
	DW	0a3H
	DB	016H
	DB	01fH
	DB	01fH
	DB	02H
	DB	019H
	DB	00H
	DB	00H
	DB	00H
	DD	07266H
	DW	0a5H
	DB	017H
	DB	01eH
	DB	01eH
	DB	01H
	DB	019H
	DB	00H
	DB	00H
	DB	00H
	DD	073ceH
	DW	0a9H
	DB	021H
	DB	020H
	DB	01fH
	DB	02H
	DB	026H
	DB	00H
	DB	00H
	DB	00H
	DD	075eeH
	DW	0aeH
	DB	021H
	DB	020H
	DB	01fH
	DB	02H
	DB	026H
	DB	00H
	DB	00H
	DB	00H
	DD	0780eH
	DW	0b1H
	DB	015H
	DB	01bH
	DB	01bH
	DB	05H
	DB	01eH
	DB	00H
	DB	00H
	DB	00H
	DD	07937H
	DW	0b4H
	DB	0cH
	DB	07H
	DB	020H
	DB	01H
	DB	0dH
	DB	00H
	DB	00H
	DB	00H
	DD	07961H
	DW	0baH
	DB	011H
	DB	010H
	DB	01eH
	DB	01H
	DB	014H
	DB	00H
	DB	00H
	DB	00H
	DD	079f1H
	DW	0bfH
	DB	011H
	DB	020H
	DB	016H
	DB	01H
	DB	013H
	DB	00H
	DB	00H
	DB	00H
	DD	07b11H
	DW	0d7H
	DB	015H
	DB	015H
	DB	017H
	DB	05H
	DB	01eH
	DB	00H
	DB	00H
	DB	00H
	DD	07bf8H
	DW	0f7H
	DB	015H
	DB	017H
	DB	018H
	DB	05H
	DB	01eH
	DB	00H
	DB	00H
	DB	00H
	DD	00H
	DW	0201dH
	DB	011H
	DB	0aH
	DB	01fH
	DB	02H
	DB	028H
	DB	036H
	DB	09H
	DB	01H
	DD	05aH
	DW	02022H
	DB	0cH
	DB	0bH
	DB	012H
	DB	03H
	DB	012H
	DB	00H
	DB	00H
	DB	00H
	DD	09cH
	DW	020acH
	DB	015H
	DB	020H
	DB	01fH
	DB	02H
	DB	019H
	DB	00H
	DB	00H
	DB	00H
	DD	00H
	DW	04e00H
	DB	026H
	DB	06H
	DB	011H
	DB	01H
	DB	028H
	DB	00H
	DB	00H
	DB	00H
	DD	072H
	DW	04e01H
	DB	026H
	DB	024H
	DB	01fH
	DB	01H
	DB	028H
	DB	00H
	DB	00H
	DB	00H
	DD	031eH
	DW	04e02H
	DB	028H
	DB	026H
	DB	020H
	DB	00H
	DB	028H
	DB	00H
	DB	00H
	DB	00H
	DD	0616H
	DW	04e03H
	DB	027H
	DB	027H
	DB	022H
	DB	00H
	DB	028H
	DB	00H
	DB	00H
	DB	00H
	DD	0922H
	DW	04e04H
	DB	026H
	DB	026H
	DB	022H
	DB	01H
	DB	028H
	DB	00H
	DB	00H
	DB	00H
	DD	0bf4H
	DW	04e05H
	DB	026H
	DB	024H
	DB	01fH
	DB	01H
	DB	028H
	DB	00H
	DB	00H
	DB	00H
	DD	0ea0H
	DW	04e06H
	DB	027H
	DB	026H
	DB	020H
	DB	00H
	DB	028H
	DB	00H
	DB	00H
	DB	00H
	DD	01198H
	DW	04e07H
	DB	026H
	DB	025H
	DB	01fH
	DB	01H
	DB	028H
	DB	00H
	DB	00H
	DB	00H
	DD	01457H
	DW	04e08H
	DB	027H
	DB	028H
	DB	022H
	DB	00H
	DB	028H
	DB	00H
	DB	00H
	DB	00H
	DD	01777H
	DW	04e09H
	DB	026H
	DB	021H
	DB	01eH
	DB	01H
	DB	028H
	DB	00H
	DB	00H
	DB	00H
	DD	019eaH
	DW	04e0aH
	DB	026H
	DB	025H
	DB	021H
	DB	01H
	DB	028H
	DB	00H
	DB	00H
	DB	00H
	DD	01ca9H
	DW	04e0bH
	DB	026H
	DB	024H
	DB	01fH
	DB	01H
	DB	028H
	DB	00H
	DB	00H
	DB	00H
	DD	01f55H
	DW	04e0cH
	DB	027H
	DB	025H
	DB	01fH
	DB	01H
	DB	028H
	DB	00H
	DB	00H
	DB	00H
	DD	02239H
	DW	04e0dH
	DB	028H
	DB	024H
	DB	01fH
	DB	00H
	DB	028H
	DB	00H
	DB	00H
	DB	00H
	DD	02509H
	DW	04e0eH
	DB	026H
	DB	026H
	DB	021H
	DB	01H
	DB	028H
	DB	00H
	DB	00H
	DB	00H
	DD	027dbH
	DW	04e0fH
	DB	026H
	DB	026H
	DB	020H
	DB	01H
	DB	028H
	DB	00H
	DB	00H
	DB	00H
	DD	02aadH
	DW	04e10H
	DB	026H
	DB	025H
	DB	020H
	DB	01H
	DB	028H
	DB	00H
	DB	00H
	DB	00H
	DD	02d6cH
	DW	04e11H
	DB	028H
	DB	024H
	DB	020H
	DB	00H
	DB	028H
	DB	00H
	DB	00H
	DB	00H
	DD	0303cH
	DW	04e12H
	DB	028H
	DB	024H
	DB	020H
	DB	00H
	DB	028H
	DB	00H
	DB	00H
	DB	00H
	DD	0330cH
	DW	04e13H
	DB	027H
	DB	028H
	DB	022H
	DB	01H
	DB	028H
	DB	00H
	DB	00H
	DB	00H
	DD	0362cH
	DW	04e14H
	DB	028H
	DB	024H
	DB	020H
	DB	00H
	DB	028H
	DB	00H
	DB	00H
	DB	00H
	DD	038fcH
	DW	04e15H
	DB	028H
	DB	024H
	DB	020H
	DB	00H
	DB	028H
	DB	00H
	DB	00H
	DB	00H
	DD	03bccH
	DW	04e16H
	DB	026H
	DB	025H
	DB	021H
	DB	01H
	DB	028H
	DB	00H
	DB	00H
	DB	00H
	DD	03e8bH
	DW	04e17H
	DB	027H
	DB	027H
	DB	022H
	DB	00H
	DB	028H
	DB	00H
	DB	00H
	DB	00H
	DD	04197H
	DW	04e18H
	DB	028H
	DB	025H
	DB	021H
	DB	00H
	DB	028H
	DB	00H
	DB	00H
	DB	00H
	DD	0447bH
	DW	04e19H
	DB	026H
	DB	025H
	DB	020H
	DB	01H
	DB	028H
	DB	00H
	DB	00H
	DB	00H
	DD	0473aH
	DW	04e1aH
	DB	028H
	DB	025H
	DB	021H
	DB	00H
	DB	028H
	DB	00H
	DB	00H
	DB	00H
	DD	04a1eH
	DW	04e1bH
	DB	028H
	DB	025H
	DB	021H
	DB	00H
	DB	028H
	DB	00H
	DB	00H
	DB	00H
	DD	04d02H
	DW	04e1cH
	DB	028H
	DB	027H
	DB	022H
	DB	00H
	DB	028H
	DB	00H
	DB	00H
	DB	00H
	DD	0500eH
	DW	04e1dH
	DB	027H
	DB	026H
	DB	022H
	DB	01H
	DB	028H
	DB	00H
	DB	00H
	DB	00H
	DD	05306H
	DW	04e1eH
	DB	028H
	DB	025H
	DB	020H
	DB	00H
	DB	028H
	DB	00H
	DB	00H
	DB	00H
	DD	055eaH
	DW	04e1fH
	DB	028H
	DB	026H
	DB	020H
	DB	00H
	DB	028H
	DB	00H
	DB	00H
	DB	00H
	DD	058e2H
	DW	04e20H
	DB	028H
	DB	025H
	DB	021H
	DB	00H
	DB	028H
	DB	00H
	DB	00H
	DB	00H
	DD	05bc6H
	DW	04e21H
	DB	026H
	DB	025H
	DB	020H
	DB	01H
	DB	028H
	DB	00H
	DB	00H
	DB	00H
	DD	05e85H
	DW	04e22H
	DB	028H
	DB	026H
	DB	021H
	DB	00H
	DB	028H
	DB	00H
	DB	00H
	DB	00H
	DD	0617dH
	DW	04e23H
	DB	026H
	DB	026H
	DB	020H
	DB	01H
	DB	028H
	DB	00H
	DB	00H
	DB	00H
	DD	0644fH
	DW	04e24H
	DB	026H
	DB	026H
	DB	020H
	DB	01H
	DB	028H
	DB	00H
	DB	00H
	DB	00H
	DD	06721H
	DW	04e25H
	DB	027H
	DB	027H
	DB	021H
	DB	00H
	DB	028H
	DB	00H
	DB	00H
	DB	00H
	DD	06a2dH
	DW	04e26H
	DB	027H
	DB	027H
	DB	022H
	DB	00H
	DB	028H
	DB	00H
	DB	00H
	DB	00H
	DD	06d39H
	DW	04e27H
	DB	028H
	DB	028H
	DB	022H
	DB	00H
	DB	028H
	DB	00H
	DB	00H
	DB	00H
	DD	07059H
	DW	04e28H
	DB	07H
	DB	026H
	DB	021H
	DB	010H
	DB	028H
	DB	00H
	DB	00H
	DB	00H
	DD	070f1H
	DW	04e29H
	DB	014H
	DB	026H
	DB	021H
	DB	0aH
	DB	028H
	DB	00H
	DB	00H
	DB	00H
	DD	0726dH
	DW	04e2aH
	DB	028H
	DB	026H
	DB	021H
	DB	00H
	DB	028H
	DB	00H
	DB	00H
	DB	00H
	DD	07565H
	DW	04e2bH
	DB	026H
	DB	027H
	DB	022H
	DB	01H
	DB	028H
	DB	00H
	DB	00H
	DB	00H
	DD	0784aH
	DW	04e2cH
	DB	015H
	DB	027H
	DB	022H
	DB	08H
	DB	028H
	DB	00H
	DB	00H
	DB	00H
	DD	079f7H
	DW	04e2dH
	DB	024H
	DB	027H
	DB	022H
	DB	02H
	DB	028H
	DB	00H
	DB	00H
	DB	00H
	DD	07cb5H
	DW	04e2eH
	DB	027H
	DB	025H
	DB	020H
	DB	01H
	DB	028H
	DB	00H
	DB	00H
	DB	00H
	DD	07f99H
	DW	04e2fH
	DB	024H
	DB	027H
	DB	022H
	DB	03H
	DB	028H
	DB	00H
	DB	00H
	DB	00H
	DD	08257H
	DW	04e30H
	DB	028H
	DB	027H
	DB	022H
	DB	00H
	DB	028H
	DB	00H
	DB	00H
	DB	00H
	DD	08563H
	DW	04e31H
	DB	025H
	DB	027H
	DB	021H
	DB	01H
	DB	028H
	DB	00H
	DB	00H
	DB	00H
	DD	08848H
	DW	04e32H
	DB	024H
	DB	027H
	DB	022H
	DB	02H
	DB	028H
	DB	00H
	DB	00H
	DB	00H
	DD	08b06H
	DW	04e33H
	DB	024H
	DB	027H
	DB	021H
	DB	02H
	DB	028H
	DB	00H
	DB	00H
	DB	00H
	DD	08dc4H
	DW	04e34H
	DB	026H
	DB	027H
	DB	022H
	DB	02H
	DB	028H
	DB	00H
	DB	00H
	DB	00H
	DD	090a9H
	DW	04e35H
	DB	028H
	DB	027H
	DB	022H
	DB	00H
	DB	028H
	DB	00H
	DB	00H
	DB	00H
	DD	093b5H
	DW	04e36H
	DB	010H
	DB	010H
	DB	016H
	DB	04H
	DB	028H
	DB	00H
	DB	00H
	DB	00H
	DD	09435H
	DW	04e37H
	DB	021H
	DB	010H
	DB	020H
	DB	04H
	DB	028H
	DB	00H
	DB	00H
	DB	00H
	DD	09545H
	DW	04e38H
	DB	028H
	DB	027H
	DB	022H
	DB	00H
	DB	028H
	DB	00H
	DB	00H
	DB	00H
	DD	09851H
	DW	04e39H
	DB	028H
	DB	026H
	DB	020H
	DB	00H
	DB	028H
	DB	00H
	DB	00H
	DB	00H
	DD	09b49H
	DW	04e3aH
	DB	026H
	DB	028H
	DB	022H
	DB	00H
	DB	028H
	DB	00H
	DB	00H
	DB	00H
	DD	09e41H
	DW	04e3bH
	DB	028H
	DB	026H
	DB	022H
	DB	00H
	DB	028H
	DB	00H
	DB	00H
	DB	00H
	DD	0a139H
	DW	04e3cH
	DB	028H
	DB	028H
	DB	022H
	DB	00H
	DB	028H
	DB	00H
	DB	00H
	DB	00H
	DD	0a459H
	DW	04e3dH
	DB	026H
	DB	026H
	DB	020H
	DB	01H
	DB	028H
	DB	00H
	DB	00H
	DB	00H
	DD	0a72bH
	DW	04e3eH
	DB	028H
	DB	027H
	DB	022H
	DB	00H
	DB	028H
	DB	00H
	DB	00H
	DB	00H
	DD	0aa37H
	DW	04e3fH
	DB	015H
	DB	028H
	DB	022H
	DB	06H
	DB	028H
	DB	00H
	DB	00H
	DB	00H
	DD	0abefH
	DW	04e40H
	DB	027H
	DB	023H
	DB	01fH
	DB	01H
	DB	028H
	DB	00H
	DB	00H
	DB	00H
	DD	0aeabH
	DW	04e41H
	DB	026H
	DB	026H
	DB	020H
	DB	02H
	DB	028H
	DB	00H
	DB	00H
	DB	00H
	DD	0b17dH
	DW	04e42H
	DB	028H
	DB	025H
	DB	01fH
	DB	00H
	DB	028H
	DB	00H
	DB	00H
	DB	00H
	DD	0b461H
	DW	04e43H
	DB	026H
	DB	026H
	DB	020H
	DB	00H
	DB	028H
	DB	00H
	DB	00H
	DB	00H
	DD	0b733H
	DW	04e44H
	DB	026H
	DB	027H
	DB	022H
	DB	00H
	DB	028H
	DB	00H
	DB	00H
	DB	00H
	DD	0ba18H
	DW	04e45H
	DB	028H
	DB	028H
	DB	022H
	DB	00H
	DB	028H
	DB	00H
	DB	00H
	DB	00H
	DD	0bd38H
	DW	04e46H
	DB	028H
	DB	027H
	DB	021H
	DB	00H
	DB	028H
	DB	00H
	DB	00H
	DB	00H
	DD	0c044H
	DW	04e47H
	DB	028H
	DB	025H
	DB	020H
	DB	00H
	DB	028H
	DB	00H
	DB	00H
	DB	00H
	DD	0c328H
	DW	04e48H
	DB	027H
	DB	028H
	DB	022H
	DB	01H
	DB	028H
	DB	00H
	DB	00H
	DB	00H
	DD	0c648H
	DW	04e49H
	DB	028H
	DB	028H
	DB	022H
	DB	00H
	DB	028H
	DB	00H
	DB	00H
	DB	00H
	DD	0c968H
	DW	04e4aH
	DB	025H
	DB	016H
	DB	021H
	DB	02H
	DB	028H
	DB	00H
	DB	00H
	DB	00H
	DD	0cb0aH
	DW	04e4bH
	DB	028H
	DB	027H
	DB	022H
	DB	00H
	DB	028H
	DB	00H
	DB	00H
	DB	00H
	DD	0ce16H
	DW	04e4cH
	DB	027H
	DB	027H
	DB	022H
	DB	00H
	DB	028H
	DB	00H
	DB	00H
	DB	00H
	DD	0d122H
	DW	04e4dH
	DB	027H
	DB	027H
	DB	022H
	DB	00H
	DB	028H
	DB	00H
	DB	00H
	DB	00H
	DD	0d42eH
	DW	04e4eH
	DB	027H
	DB	026H
	DB	021H
	DB	01H
	DB	028H
	DB	00H
	DB	00H
	DB	00H
	DD	0d726H
	DW	04e4fH
	DB	028H
	DB	025H
	DB	020H
	DB	00H
	DB	028H
	DB	00H
	DB	00H
	DB	00H
	DD	0da0aH
	DW	04e50H
	DB	028H
	DB	026H
	DB	021H
	DB	00H
	DB	028H
	DB	00H
	DB	00H
	DB	00H
	DD	0dd02H
	DW	04e51H
	DB	028H
	DB	025H
	DB	020H
	DB	00H
	DB	028H
	DB	00H
	DB	00H
	DB	00H
	DD	0dfe6H
	DW	04e52H
	DB	028H
	DB	027H
	DB	021H
	DB	00H
	DB	028H
	DB	00H
	DB	00H
	DB	00H
	DD	0e2f2H
	DW	04e53H
	DB	028H
	DB	027H
	DB	021H
	DB	00H
	DB	028H
	DB	00H
	DB	00H
	DB	00H
	DD	0e5feH
	DW	04e54H
	DB	028H
	DB	026H
	DB	020H
	DB	00H
	DB	028H
	DB	00H
	DB	00H
	DB	00H
	DD	0e8f6H
	DW	04e55H
	DB	027H
	DB	027H
	DB	022H
	DB	00H
	DB	028H
	DB	00H
	DB	00H
	DB	00H
	DD	0ec02H
	DW	04e56H
	DB	028H
	DB	026H
	DB	021H
	DB	00H
	DB	028H
	DB	00H
	DB	00H
	DB	00H
	DD	0eefaH
	DW	04e57H
	DB	028H
	DB	026H
	DB	021H
	DB	00H
	DB	028H
	DB	00H
	DB	00H
	DB	00H
	DD	0f1f2H
	DW	04e58H
	DB	028H
	DB	026H
	DB	021H
	DB	00H
	DB	028H
	DB	00H
	DB	00H
	DB	00H
	DD	0f4eaH
	DW	04e59H
	DB	025H
	DB	023H
	DB	01fH
	DB	02H
	DB	028H
	DB	00H
	DB	00H
	DB	00H
	DD	0f783H
	DW	04e5aH
	DB	01bH
	DB	027H
	DB	022H
	DB	0dH
	DB	028H
	DB	00H
	DB	00H
	DB	00H
	DD	0f9a5H
	DW	04e5bH
	DB	026H
	DB	0fH
	DB	01fH
	DB	01H
	DB	028H
	DB	00H
	DB	00H
	DB	00H
	DD	0fac2H
	DW	04e5cH
	DB	028H
	DB	026H
	DB	021H
	DB	00H
	DB	028H
	DB	00H
	DB	00H
	DB	00H
	DD	0fdbaH
	DW	04e5dH
	DB	028H
	DB	027H
	DB	022H
	DB	00H
	DB	028H
	DB	00H
	DB	00H
	DB	00H
	DD	0100c6H
	DW	04e5eH
	DB	027H
	DB	027H
	DB	022H
	DB	00H
	DB	028H
	DB	00H
	DB	00H
	DB	00H
	DD	0103d2H
	DW	04e5fH
	DB	028H
	DB	027H
	DB	022H
	DB	00H
	DB	028H
	DB	00H
	DB	00H
	DB	00H
	DD	0106deH
	DW	04e60H
	DB	024H
	DB	024H
	DB	01fH
	DB	01H
	DB	028H
	DB	00H
	DB	00H
	DB	00H
	DD	010966H
	DW	04e61H
	DB	025H
	DB	028H
	DB	022H
	DB	00H
	DB	028H
	DB	00H
	DB	00H
	DB	00H
	DD	010c5eH
	DW	04e62H
	DB	027H
	DB	026H
	DB	021H
	DB	01H
	DB	028H
	DB	00H
	DB	00H
	DB	00H
	DD	010f56H
	DW	04e63H
	DB	028H
	DB	027H
	DB	022H
	DB	00H
	DB	028H
	DB	00H
	DB	00H
	DB	00H
	DD	011262H
	DW	04e64H
	DB	027H
	DB	025H
	DB	020H
	DB	01H
	DB	028H
	DB	00H
	DB	00H
	DB	00H
	DD	011546H
	DW	04e65H
	DB	026H
	DB	025H
	DB	020H
	DB	02H
	DB	028H
	DB	00H
	DB	00H
	DB	00H
	DD	011805H
	DW	04e66H
	DB	027H
	DB	027H
	DB	022H
	DB	01H
	DB	028H
	DB	00H
	DB	00H
	DB	00H
	DD	011b11H
	DW	04e67H
	DB	028H
	DB	027H
	DB	022H
	DB	00H
	DB	028H
	DB	00H
	DB	00H
	DB	00H
	DD	011e1dH
	DW	04e68H
	DB	028H
	DB	026H
	DB	021H
	DB	00H
	DB	028H
	DB	00H
	DB	00H
	DB	00H
	DD	012115H
	DW	04e69H
	DB	026H
	DB	027H
	DB	022H
	DB	02H
	DB	028H
	DB	00H
	DB	00H
	DB	00H
	DD	0123faH
	DW	04e6aH
	DB	027H
	DB	024H
	DB	01fH
	DB	01H
	DB	028H
	DB	00H
	DB	00H
	DB	00H
	DD	0126caH
	DW	04e6bH
	DB	028H
	DB	027H
	DB	022H
	DB	00H
	DB	028H
	DB	00H
	DB	00H
	DB	00H
	DD	0129d6H
	DW	04e6cH
	DB	026H
	DB	025H
	DB	020H
	DB	02H
	DB	028H
	DB	00H
	DB	00H
	DB	00H
	DD	012c95H
	DW	04e6dH
	DB	027H
	DB	025H
	DB	020H
	DB	00H
	DB	028H
	DB	00H
	DB	00H
	DB	00H
	DD	012f79H
	DW	04e6eH
	DB	026H
	DB	026H
	DB	021H
	DB	02H
	DB	028H
	DB	00H
	DB	00H
	DB	00H
	DD	01324bH
	DW	04e6fH
	DB	027H
	DB	026H
	DB	021H
	DB	01H
	DB	028H
	DB	00H
	DB	00H
	DB	00H
	DD	013543H
	DW	04e70H
	DB	027H
	DB	026H
	DB	020H
	DB	01H
	DB	028H
	DB	00H
	DB	00H
	DB	00H
	DD	01383bH
	DW	04e71H
	DB	028H
	DB	026H
	DB	021H
	DB	00H
	DB	028H
	DB	00H
	DB	00H
	DB	00H
	DD	013b33H
	DW	04e72H
	DB	028H
	DB	027H
	DB	022H
	DB	00H
	DB	028H
	DB	00H
	DB	00H
	DB	00H
	DD	013e3fH
	DW	04e73H
	DB	028H
	DB	026H
	DB	021H
	DB	00H
	DB	028H
	DB	00H
	DB	00H
	DB	00H
	DD	014137H
	DW	04e74H
	DB	027H
	DB	027H
	DB	022H
	DB	01H
	DB	028H
	DB	00H
	DB	00H
	DB	00H
	DD	014443H
	DW	04e75H
	DB	028H
	DB	027H
	DB	022H
	DB	00H
	DB	028H
	DB	00H
	DB	00H
	DB	00H
	DD	01474fH
	DW	04e76H
	DB	027H
	DB	027H
	DB	022H
	DB	01H
	DB	028H
	DB	00H
	DB	00H
	DB	00H
	DD	014a5bH
	DW	04e77H
	DB	028H
	DB	027H
	DB	022H
	DB	00H
	DB	028H
	DB	00H
	DB	00H
	DB	00H
	DD	014d67H
	DW	04e78H
	DB	028H
	DB	027H
	DB	022H
	DB	00H
	DB	028H
	DB	00H
	DB	00H
	DB	00H
	DD	015073H
	DW	04e79H
	DB	028H
	DB	027H
	DB	022H
	DB	00H
	DB	028H
	DB	00H
	DB	00H
	DB	00H
	DD	01537fH
	DW	04e7aH
	DB	027H
	DB	026H
	DB	021H
	DB	00H
	DB	028H
	DB	00H
	DB	00H
	DB	00H
	DD	015677H
	DW	04e7bH
	DB	028H
	DB	027H
	DB	022H
	DB	00H
	DB	028H
	DB	00H
	DB	00H
	DB	00H
	DD	015983H
	DW	04e7cH
	DB	027H
	DB	027H
	DB	022H
	DB	00H
	DB	028H
	DB	00H
	DB	00H
	DB	00H
	DD	015c8fH
	DW	04e7dH
	DB	027H
	DB	027H
	DB	022H
	DB	00H
	DB	028H
	DB	00H
	DB	00H
	DB	00H
	DD	015f9bH
	DW	04e7eH
	DB	027H
	DB	027H
	DB	022H
	DB	01H
	DB	028H
	DB	00H
	DB	00H
	DB	00H
	DD	0162a7H
	DW	04e7fH
	DB	028H
	DB	026H
	DB	021H
	DB	00H
	DB	028H
	DB	00H
	DB	00H
	DB	00H
	DD	01659fH
	DW	04e80H
	DB	028H
	DB	027H
	DB	022H
	DB	00H
	DB	028H
	DB	00H
	DB	00H
	DB	00H
	DD	0168abH
	DW	04e81H
	DB	028H
	DB	027H
	DB	022H
	DB	00H
	DB	028H
	DB	00H
	DB	00H
	DB	00H
	DD	016bb7H
	DW	04e82H
	DB	026H
	DB	028H
	DB	022H
	DB	02H
	DB	028H
	DB	00H
	DB	00H
	DB	00H
	DD	016eafH
	DW	04e83H
	DB	028H
	DB	028H
	DB	022H
	DB	00H
	DB	028H
	DB	00H
	DB	00H
	DB	00H
	DD	0171cfH
	DW	04e84H
	DB	028H
	DB	027H
	DB	022H
	DB	00H
	DB	028H
	DB	00H
	DB	00H
	DB	00H
	DD	0174dbH
	DW	04e85H
	DB	011H
	DB	027H
	DB	022H
	DB	010H
	DB	028H
	DB	00H
	DB	00H
	DB	00H
	DD	01763aH
	DW	04e86H
	DB	024H
	DB	025H
	DB	020H
	DB	02H
	DB	028H
	DB	00H
	DB	00H
	DB	00H
	DD	0178d4H
	DW	04e87H
	DB	027H
	DB	027H
	DB	022H
	DB	00H
	DB	028H
	DB	00H
	DB	00H
	DB	00H
	DD	017be0H
	DW	04e88H
	DB	026H
	DB	026H
	DB	020H
	DB	01H
	DB	028H
	DB	00H
	DB	00H
	DB	00H
	DD	017eb2H
	DW	04e89H
	DB	028H
	DB	027H
	DB	022H
	DB	00H
	DB	028H
	DB	00H
	DB	00H
	DB	00H
	DD	0181beH
	DW	04e8aH
	DB	028H
	DB	028H
	DB	022H
	DB	00H
	DB	028H
	DB	00H
	DB	00H
	DB	00H
	DD	0184deH
	DW	04e8bH
	DB	028H
	DB	027H
	DB	022H
	DB	00H
	DB	028H
	DB	00H
	DB	00H
	DB	00H
	DD	0187eaH
	DW	04e8cH
	DB	026H
	DB	01fH
	DB	01dH
	DB	01H
	DB	028H
	DB	00H
	DB	00H
	DB	00H
	DD	018a37H
	DW	04e8dH
	DB	028H
	DB	024H
	DB	01fH
	DB	00H
	DB	028H
	DB	00H
	DB	00H
	DB	00H
	DD	018d07H
	DW	04e8eH
	DB	026H
	DB	024H
	DB	01fH
	DB	01H
	DB	028H
	DB	00H
	DB	00H
	DB	00H
	DD	018fb3H
	DW	04e8fH
	DB	028H
	DB	026H
	DB	020H
	DB	00H
	DB	028H
	DB	00H
	DB	00H
	DB	00H
	DD	0192abH
	DW	04e90H
	DB	028H
	DB	026H
	DB	020H
	DB	00H
	DB	028H
	DB	00H
	DB	00H
	DB	00H
	DD	0195a3H
	DW	04e91H
	DB	026H
	DB	025H
	DB	020H
	DB	01H
	DB	028H
	DB	00H
	DB	00H
	DB	00H
	DD	019862H
	DW	04e92H
	DB	028H
	DB	023H
	DB	01fH
	DB	00H
	DB	028H
	DB	00H
	DB	00H
	DB	00H
	DD	019b1eH
	DW	04e93H
	DB	028H
	DB	025H
	DB	01fH
	DB	00H
	DB	028H
	DB	00H
	DB	00H
	DB	00H
	DD	019e02H
	DW	04e94H
	DB	028H
	DB	024H
	DB	020H
	DB	00H
	DB	028H
	DB	00H
	DB	00H
	DB	00H
	DD	01a0d2H
	DW	04e95H
	DB	028H
	DB	027H
	DB	021H
	DB	00H
	DB	028H
	DB	00H
	DB	00H
	DB	00H
	DD	01a3deH
	DW	04e96H
	DB	028H
	DB	023H
	DB	01fH
	DB	00H
	DB	028H
	DB	00H
	DB	00H
	DB	00H
	DD	01a69aH
	DW	04e97H
	DB	028H
	DB	025H
	DB	021H
	DB	00H
	DB	028H
	DB	00H
	DB	00H
	DB	00H
	DD	01a97eH
	DW	04e98H
	DB	028H
	DB	024H
	DB	020H
	DB	00H
	DB	028H
	DB	00H
	DB	00H
	DB	00H
	DD	01ac4eH
	DW	04e99H
	DB	028H
	DB	024H
	DB	020H
	DB	00H
	DB	028H
	DB	00H
	DB	00H
	DB	00H
	DD	01af1eH
	DW	04e9aH
	DB	028H
	DB	024H
	DB	020H
	DB	00H
	DB	028H
	DB	00H
	DB	00H
	DB	00H
	DD	01b1eeH
	DW	04e9bH
	DB	028H
	DB	026H
	DB	022H
	DB	00H
	DB	028H
	DB	00H
	DB	00H
	DB	00H
	DD	01b4e6H
	DW	04e9cH
	DB	028H
	DB	024H
	DB	020H
	DB	00H
	DB	028H
	DB	00H
	DB	00H
	DB	00H
	DD	01b7b6H
	DW	04e9dH
	DB	027H
	DB	026H
	DB	022H
	DB	01H
	DB	028H
	DB	00H
	DB	00H
	DB	00H
	DD	01baaeH
	DW	04e9eH
	DB	028H
	DB	024H
	DB	020H
	DB	00H
	DB	028H
	DB	00H
	DB	00H
	DB	00H
	DD	01bd7eH
	DW	04e9fH
	DB	026H
	DB	025H
	DB	020H
	DB	01H
	DB	028H
	DB	00H
	DB	00H
	DB	00H
	DD	01c03dH
	DW	04ea0H
	DB	026H
	DB	010H
	DB	020H
	DB	01H
	DB	028H
	DB	00H
	DB	00H
	DB	00H
	DD	01c16dH
	DW	04ea1H
	DB	028H
	DB	025H
	DB	022H
	DB	00H
	DB	028H
	DB	00H
	DB	00H
	DB	00H
	DD	01c451H
	DW	04ea2H
	DB	028H
	DB	028H
	DB	022H
	DB	00H
	DB	028H
	DB	00H
	DB	00H
	DB	00H
	DD	01c771H
	DW	04ea3H
	DB	027H
	DB	028H
	DB	022H
	DB	01H
	DB	028H
	DB	00H
	DB	00H
	DB	00H
	DD	01ca91H
	DW	04ea4H
	DB	028H
	DB	027H
	DB	022H
	DB	00H
	DB	028H
	DB	00H
	DB	00H
	DB	00H
	DD	01cd9dH
	DW	04ea5H
	DB	027H
	DB	028H
	DB	022H
	DB	00H
	DB	028H
	DB	00H
	DB	00H
	DB	00H
	DD	01d0bdH
	DW	04ea6H
	DB	028H
	DB	028H
	DB	022H
	DB	00H
	DB	028H
	DB	00H
	DB	00H
	DB	00H
	DD	01d3ddH
	DW	04ea7H
	DB	027H
	DB	028H
	DB	022H
	DB	00H
	DB	028H
	DB	00H
	DB	00H
	DB	00H
	DD	01d6fdH
	DW	04ea8H
	DB	026H
	DB	028H
	DB	022H
	DB	01H
	DB	028H
	DB	00H
	DB	00H
	DB	00H
	DD	01d9f5H
	DW	04ea9H
	DB	026H
	DB	028H
	DB	022H
	DB	01H
	DB	028H
	DB	00H
	DB	00H
	DB	00H
	DD	01dcedH
	DW	04eaaH
	DB	028H
	DB	028H
	DB	022H
	DB	00H
	DB	028H
	DB	00H
	DB	00H
	DB	00H
	DD	01e00dH
	DW	04eabH
	DB	028H
	DB	027H
	DB	022H
	DB	00H
	DB	028H
	DB	00H
	DB	00H
	DB	00H
	DD	01e319H
	DW	04eacH
	DB	028H
	DB	027H
	DB	022H
	DB	00H
	DB	028H
	DB	00H
	DB	00H
	DB	00H
	DD	01e625H
	DW	04eadH
	DB	026H
	DB	027H
	DB	022H
	DB	01H
	DB	028H
	DB	00H
	DB	00H
	DB	00H
	DD	01e90aH
	DW	04eaeH
	DB	027H
	DB	028H
	DB	022H
	DB	01H
	DB	028H
	DB	00H
	DB	00H
	DB	00H
	DD	01ec2aH
	DW	04eafH
	DB	026H
	DB	028H
	DB	022H
	DB	01H
	DB	028H
	DB	00H
	DB	00H
	DB	00H
	DD	01ef22H
	DW	04eb0H
	DB	028H
	DB	027H
	DB	022H
	DB	00H
	DB	028H
	DB	00H
	DB	00H
	DB	00H
	DD	01f22eH
	DW	04eb1H
	DB	028H
	DB	027H
	DB	022H
	DB	00H
	DB	028H
	DB	00H
	DB	00H
	DB	00H
	DD	01f53aH
	DW	04eb2H
	DB	028H
	DB	028H
	DB	022H
	DB	00H
	DB	028H
	DB	00H
	DB	00H
	DB	00H
	DD	01f85aH
	DW	04eb3H
	DB	027H
	DB	027H
	DB	022H
	DB	01H
	DB	028H
	DB	00H
	DB	00H
	DB	00H
	DD	01fb66H
	DW	04eb4H
	DB	028H
	DB	028H
	DB	022H
	DB	00H
	DB	028H
	DB	00H
	DB	00H
	DB	00H
	DD	01fe86H
	DW	04eb5H
	DB	027H
	DB	028H
	DB	022H
	DB	01H
	DB	028H
	DB	00H
	DB	00H
	DB	00H
	DD	0201a6H
	DW	04eb6H
	DB	027H
	DB	027H
	DB	022H
	DB	01H
	DB	028H
	DB	00H
	DB	00H
	DB	00H
	DD	0204b2H
	DW	04eb7H
	DB	028H
	DB	027H
	DB	022H
	DB	00H
	DB	028H
	DB	00H
	DB	00H
	DB	00H
	DD	0207beH
	DW	04eb8H
	DB	028H
	DB	027H
	DB	022H
	DB	00H
	DB	028H
	DB	00H
	DB	00H
	DB	00H
	DD	020acaH
	DW	04eb9H
	DB	028H
	DB	027H
	DB	022H
	DB	00H
	DB	028H
	DB	00H
	DB	00H
	DB	00H
	DD	020dd6H
	DW	04ebaH
	DB	028H
	DB	027H
	DB	022H
	DB	00H
	DB	028H
	DB	00H
	DB	00H
	DB	00H
	DD	0210e2H
	DW	04ebbH
	DB	015H
	DB	027H
	DB	022H
	DB	00H
	DB	028H
	DB	00H
	DB	00H
	DB	00H
	DD	02128fH
	DW	04ebcH
	DB	028H
	DB	026H
	DB	022H
	DB	00H
	DB	028H
	DB	00H
	DB	00H
	DB	00H
	DD	021587H
	DW	04ebdH
	DB	028H
	DB	025H
	DB	021H
	DB	00H
	DB	028H
	DB	00H
	DB	00H
	DB	00H
	DD	02186bH
	DW	04ebeH
	DB	026H
	DB	025H
	DB	021H
	DB	02H
	DB	028H
	DB	00H
	DB	00H
	DB	00H
	DD	021b2aH
	DW	04ebfH
	DB	028H
	DB	027H
	DB	022H
	DB	00H
	DB	028H
	DB	00H
	DB	00H
	DB	00H
	DD	021e36H
	DW	04ec0H
	DB	028H
	DB	027H
	DB	022H
	DB	00H
	DB	028H
	DB	00H
	DB	00H
	DB	00H
	DD	022142H
	DW	04ec1H
	DB	028H
	DB	027H
	DB	022H
	DB	00H
	DB	028H
	DB	00H
	DB	00H
	DB	00H
	DD	02244eH
	DW	04ec2H
	DB	026H
	DB	028H
	DB	022H
	DB	00H
	DB	028H
	DB	00H
	DB	00H
	DB	00H
	DD	022746H
	DW	04ec3H
	DB	028H
	DB	027H
	DB	022H
	DB	00H
	DB	028H
	DB	00H
	DB	00H
	DB	00H
	DD	022a52H
	DW	04ec4H
	DB	028H
	DB	026H
	DB	020H
	DB	00H
	DB	028H
	DB	00H
	DB	00H
	DB	00H
	DD	022d4aH
	DW	04ec5H
	DB	028H
	DB	027H
	DB	021H
	DB	00H
	DB	028H
	DB	00H
	DB	00H
	DB	00H
	DD	023056H
	DW	04ec6H
	DB	028H
	DB	028H
	DB	022H
	DB	00H
	DB	028H
	DB	00H
	DB	00H
	DB	00H
	DD	023376H
	DW	04ec7H
	DB	028H
	DB	027H
	DB	021H
	DB	00H
	DB	028H
	DB	00H
	DB	00H
	DB	00H
	DD	023682H
	DW	04ec8H
	DB	028H
	DB	027H
	DB	022H
	DB	00H
	DB	028H
	DB	00H
	DB	00H
	DB	00H
	DD	02398eH
	DW	04ec9H
	DB	028H
	DB	027H
	DB	022H
	DB	00H
	DB	028H
	DB	00H
	DB	00H
	DB	00H
	DD	023c9aH
	DW	04ecaH
	DB	028H
	DB	028H
	DB	022H
	DB	00H
	DB	028H
	DB	00H
	DB	00H
	DB	00H
	DD	023fbaH
	DW	04ecbH
	DB	028H
	DB	028H
	DB	022H
	DB	00H
	DB	028H
	DB	00H
	DB	00H
	DB	00H
	DD	0242daH
	DW	04eccH
	DB	028H
	DB	027H
	DB	021H
	DB	00H
	DB	028H
	DB	00H
	DB	00H
	DB	00H
	DD	0245e6H
	DW	04ecdH
	DB	027H
	DB	028H
	DB	022H
	DB	00H
	DB	028H
	DB	00H
	DB	00H
	DB	00H
	DD	024906H
	DW	04eceH
	DB	028H
	DB	027H
	DB	021H
	DB	00H
	DB	028H
	DB	00H
	DB	00H
	DB	00H
	DD	024c12H
	DW	04ecfH
	DB	028H
	DB	028H
	DB	022H
	DB	00H
	DB	028H
	DB	00H
	DB	00H
	DB	00H
	DD	024f32H
	DW	04ed0H
	DB	028H
	DB	027H
	DB	022H
	DB	00H
	DB	028H
	DB	00H
	DB	00H
	DB	00H
	DD	02523eH
	DW	04ed1H
	DB	028H
	DB	027H
	DB	022H
	DB	00H
	DB	028H
	DB	00H
	DB	00H
	DB	00H
	DD	02554aH
	DW	04ed2H
	DB	028H
	DB	028H
	DB	022H
	DB	00H
	DB	028H
	DB	00H
	DB	00H
	DB	00H
	DD	02586aH
	DW	04ed3H
	DB	028H
	DB	027H
	DB	022H
	DB	00H
	DB	028H
	DB	00H
	DB	00H
	DB	00H
	DD	025b76H
	DW	04ed4H
	DB	028H
	DB	027H
	DB	022H
	DB	00H
	DB	028H
	DB	00H
	DB	00H
	DB	00H
	DD	025e82H
	DW	04ed5H
	DB	028H
	DB	027H
	DB	022H
	DB	00H
	DB	028H
	DB	00H
	DB	00H
	DB	00H
	DD	02618eH
	DW	04ed6H
	DB	028H
	DB	027H
	DB	022H
	DB	00H
	DB	028H
	DB	00H
	DB	00H
	DB	00H
	DD	02649aH
	DW	04ed7H
	DB	028H
	DB	027H
	DB	022H
	DB	00H
	DB	028H
	DB	00H
	DB	00H
	DB	00H
	DD	0267a6H
	DW	04ed8H
	DB	028H
	DB	027H
	DB	022H
	DB	00H
	DB	028H
	DB	00H
	DB	00H
	DB	00H
	DD	026ab2H
	DW	04ed9H
	DB	026H
	DB	027H
	DB	022H
	DB	00H
	DB	028H
	DB	00H
	DB	00H
	DB	00H
	DD	026d97H
	DW	04edaH
	DB	027H
	DB	027H
	DB	022H
	DB	00H
	DB	028H
	DB	00H
	DB	00H
	DB	00H
	DD	0270a3H
	DW	04edbH
	DB	028H
	DB	027H
	DB	022H
	DB	00H
	DB	028H
	DB	00H
	DB	00H
	DB	00H
	DD	0273afH
	DW	04edcH
	DB	028H
	DB	027H
	DB	022H
	DB	00H
	DB	028H
	DB	00H
	DB	00H
	DB	00H
	DD	0276bbH
	DW	04eddH
	DB	028H
	DB	026H
	DB	022H
	DB	00H
	DB	028H
	DB	00H
	DB	00H
	DB	00H
	DD	0279b3H
	DW	04edeH
	DB	026H
	DB	028H
	DB	022H
	DB	00H
	DB	028H
	DB	00H
	DB	00H
	DB	00H
	DD	027cabH
	DW	04edfH
	DB	028H
	DB	027H
	DB	022H
	DB	00H
	DB	028H
	DB	00H
	DB	00H
	DB	00H
	DD	027fb7H
	DW	04ee0H
	DB	028H
	DB	028H
	DB	022H
	DB	00H
	DB	028H
	DB	00H
	DB	00H
	DB	00H
	DD	0282d7H
	DW	04ee1H
	DB	028H
	DB	027H
	DB	022H
	DB	00H
	DB	028H
	DB	00H
	DB	00H
	DB	00H
	DD	0285e3H
	DW	04ee2H
	DB	026H
	DB	027H
	DB	022H
	DB	00H
	DB	028H
	DB	00H
	DB	00H
	DB	00H
	DD	0288c8H
	DW	04ee3H
	DB	028H
	DB	028H
	DB	022H
	DB	00H
	DB	028H
	DB	00H
	DB	00H
	DB	00H
	DD	028be8H
	DW	04ee4H
	DB	028H
	DB	027H
	DB	021H
	DB	00H
	DB	028H
	DB	00H
	DB	00H
	DB	00H
	DD	028ef4H
	DW	04ee5H
	DB	027H
	DB	027H
	DB	021H
	DB	01H
	DB	028H
	DB	00H
	DB	00H
	DB	00H
	DD	029200H
	DW	04ee6H
	DB	028H
	DB	028H
	DB	022H
	DB	00H
	DB	028H
	DB	00H
	DB	00H
	DB	00H
	DD	029520H
	DW	04ee7H
	DB	028H
	DB	028H
	DB	022H
	DB	00H
	DB	028H
	DB	00H
	DB	00H
	DB	00H
	DD	029840H
	DW	04ee8H
	DB	028H
	DB	026H
	DB	021H
	DB	00H
	DB	028H
	DB	00H
	DB	00H
	DB	00H
	DD	029b38H
	DW	04ee9H
	DB	028H
	DB	027H
	DB	022H
	DB	00H
	DB	028H
	DB	00H
	DB	00H
	DB	00H
	DD	029e44H
	DW	04eeaH
	DB	028H
	DB	028H
	DB	022H
	DB	00H
	DB	028H
	DB	00H
	DB	00H
	DB	00H
	DD	02a164H
	DW	04eebH
	DB	028H
	DB	027H
	DB	022H
	DB	00H
	DB	028H
	DB	00H
	DB	00H
	DB	00H
	DD	02a470H
	DW	04eecH
	DB	026H
	DB	028H
	DB	022H
	DB	00H
	DB	028H
	DB	00H
	DB	00H
	DB	00H
	DD	02a768H
	DW	04eedH
	DB	028H
	DB	028H
	DB	022H
	DB	00H
	DB	028H
	DB	00H
	DB	00H
	DB	00H
	DD	02aa88H
	DW	04eeeH
	DB	028H
	DB	028H
	DB	022H
	DB	00H
	DB	028H
	DB	00H
	DB	00H
	DB	00H
	DD	02ada8H
	DW	04eefH
	DB	028H
	DB	028H
	DB	022H
	DB	00H
	DB	028H
	DB	00H
	DB	00H
	DB	00H
	DD	02b0c8H
	DW	04ef0H
	DB	026H
	DB	026H
	DB	021H
	DB	00H
	DB	028H
	DB	00H
	DB	00H
	DB	00H
	DD	02b39aH
	DW	04ef1H
	DB	028H
	DB	028H
	DB	022H
	DB	00H
	DB	028H
	DB	00H
	DB	00H
	DB	00H
	DD	02b6baH
	DW	04ef2H
	DB	026H
	DB	027H
	DB	021H
	DB	00H
	DB	028H
	DB	00H
	DB	00H
	DB	00H
	DD	02b99fH
	DW	04ef3H
	DB	028H
	DB	026H
	DB	021H
	DB	00H
	DB	028H
	DB	00H
	DB	00H
	DB	00H
	DD	02bc97H
	DW	04ef4H
	DB	026H
	DB	028H
	DB	022H
	DB	00H
	DB	028H
	DB	00H
	DB	00H
	DB	00H
	DD	02bf8fH
	DW	04ef5H
	DB	028H
	DB	027H
	DB	022H
	DB	00H
	DB	028H
	DB	00H
	DB	00H
	DB	00H
	DD	02c29bH
	DW	04ef6H
	DB	028H
	DB	027H
	DB	022H
	DB	00H
	DB	028H
	DB	00H
	DB	00H
	DB	00H
	DD	02c5a7H
	DW	04ef7H
	DB	028H
	DB	027H
	DB	021H
	DB	00H
	DB	028H
	DB	00H
	DB	00H
	DB	00H
	DD	02c8b3H
	DW	04ef8H
	DB	028H
	DB	027H
	DB	022H
	DB	00H
	DB	028H
	DB	00H
	DB	00H
	DB	00H
	DD	02cbbfH
	DW	04ef9H
	DB	028H
	DB	028H
	DB	022H
	DB	00H
	DB	028H
	DB	00H
	DB	00H
	DB	00H
	DD	02cedfH
	DW	04efaH
	DB	028H
	DB	026H
	DB	022H
	DB	00H
	DB	028H
	DB	00H
	DB	00H
	DB	00H
	DD	02d1d7H
	DW	04efbH
	DB	028H
	DB	026H
	DB	021H
	DB	00H
	DB	028H
	DB	00H
	DB	00H
	DB	00H
	DD	02d4cfH
	DW	04efcH
	DB	028H
	DB	027H
	DB	022H
	DB	00H
	DB	028H
	DB	00H
	DB	00H
	DB	00H
	DD	02d7dbH
	DW	04efdH
	DB	028H
	DB	027H
	DB	021H
	DB	00H
	DB	028H
	DB	00H
	DB	00H
	DB	00H
	DD	02dae7H
	DW	04efeH
	DB	028H
	DB	027H
	DB	022H
	DB	00H
	DB	028H
	DB	00H
	DB	00H
	DB	00H
	DD	02ddf3H
	DW	04effH
	DB	028H
	DB	028H
	DB	022H
	DB	00H
	DB	028H
	DB	00H
	DB	00H
	DB	00H
	DD	02e113H
	DW	04f00H
	DB	028H
	DB	028H
	DB	022H
	DB	00H
	DB	028H
	DB	00H
	DB	00H
	DB	00H
	DD	02e433H
	DW	04f01H
	DB	028H
	DB	025H
	DB	021H
	DB	00H
	DB	028H
	DB	00H
	DB	00H
	DB	00H
	DD	02e717H
	DW	04f02H
	DB	027H
	DB	027H
	DB	022H
	DB	00H
	DB	028H
	DB	00H
	DB	00H
	DB	00H
	DD	02ea23H
	DW	04f03H
	DB	028H
	DB	028H
	DB	022H
	DB	00H
	DB	028H
	DB	00H
	DB	00H
	DB	00H
	DD	02ed43H
	DW	04f04H
	DB	028H
	DB	027H
	DB	022H
	DB	00H
	DB	028H
	DB	00H
	DB	00H
	DB	00H
	DD	02f04fH
	DW	04f05H
	DB	028H
	DB	027H
	DB	022H
	DB	00H
	DB	028H
	DB	00H
	DB	00H
	DB	00H
	DD	02f35bH
	DW	04f06H
	DB	027H
	DB	027H
	DB	022H
	DB	00H
	DB	028H
	DB	00H
	DB	00H
	DB	00H
	DD	02f667H
	DW	04f07H
	DB	028H
	DB	028H
	DB	022H
	DB	00H
	DB	028H
	DB	00H
	DB	00H
	DB	00H
	DD	02f987H
	DW	04f08H
	DB	028H
	DB	027H
	DB	022H
	DB	00H
	DB	028H
	DB	00H
	DB	00H
	DB	00H
	DD	02fc93H
	DW	04f09H
	DB	028H
	DB	027H
	DB	021H
	DB	00H
	DB	028H
	DB	00H
	DB	00H
	DB	00H
	DD	02ff9fH
	DW	04f0aH
	DB	028H
	DB	027H
	DB	021H
	DB	00H
	DB	028H
	DB	00H
	DB	00H
	DB	00H
	DD	0302abH
	DW	04f0bH
	DB	028H
	DB	027H
	DB	021H
	DB	00H
	DB	028H
	DB	00H
	DB	00H
	DB	00H
	DD	0305b7H
	DW	04f0cH
	DB	028H
	DB	027H
	DB	022H
	DB	00H
	DB	028H
	DB	00H
	DB	00H
	DB	00H
	DD	0308c3H
	DW	04f0dH
	DB	028H
	DB	026H
	DB	021H
	DB	00H
	DB	028H
	DB	00H
	DB	00H
	DB	00H
	DD	030bbbH
	DW	04f0eH
	DB	028H
	DB	027H
	DB	021H
	DB	00H
	DB	028H
	DB	00H
	DB	00H
	DB	00H
	DD	030ec7H
	DW	04f0fH
	DB	028H
	DB	028H
	DB	022H
	DB	00H
	DB	028H
	DB	00H
	DB	00H
	DB	00H
	DD	0311e7H
	DW	04f10H
	DB	028H
	DB	027H
	DB	022H
	DB	00H
	DB	028H
	DB	00H
	DB	00H
	DB	00H
	DD	0314f3H
	DW	04f11H
	DB	027H
	DB	027H
	DB	021H
	DB	00H
	DB	028H
	DB	00H
	DB	00H
	DB	00H
	DD	0317ffH
	DW	04f12H
	DB	028H
	DB	028H
	DB	022H
	DB	00H
	DB	028H
	DB	00H
	DB	00H
	DB	00H
	DD	031b1fH
	DW	04f13H
	DB	028H
	DB	027H
	DB	022H
	DB	00H
	DB	028H
	DB	00H
	DB	00H
	DB	00H
	DD	031e2bH
	DW	04f14H
	DB	028H
	DB	028H
	DB	022H
	DB	00H
	DB	028H
	DB	00H
	DB	00H
	DB	00H
	DD	03214bH
	DW	04f15H
	DB	028H
	DB	028H
	DB	022H
	DB	00H
	DB	028H
	DB	00H
	DB	00H
	DB	00H
	DD	03246bH
	DW	04f16H
	DB	028H
	DB	028H
	DB	022H
	DB	00H
	DB	028H
	DB	00H
	DB	00H
	DB	00H
	DD	03278bH
	DW	04f17H
	DB	028H
	DB	028H
	DB	022H
	DB	00H
	DB	028H
	DB	00H
	DB	00H
	DB	00H
	DD	032aabH
	DW	04f18H
	DB	028H
	DB	027H
	DB	022H
	DB	00H
	DB	028H
	DB	00H
	DB	00H
	DB	00H
	DD	032db7H
	DW	04f19H
	DB	028H
	DB	027H
	DB	021H
	DB	00H
	DB	028H
	DB	00H
	DB	00H
	DB	00H
	DD	0330c3H
	DW	04f1aH
	DB	028H
	DB	028H
	DB	022H
	DB	00H
	DB	028H
	DB	00H
	DB	00H
	DB	00H
	DD	0333e3H
	DW	04f1bH
	DB	028H
	DB	027H
	DB	022H
	DB	00H
	DB	028H
	DB	00H
	DB	00H
	DB	00H
	DD	0336efH
	DW	04f1cH
	DB	028H
	DB	027H
	DB	022H
	DB	00H
	DB	028H
	DB	00H
	DB	00H
	DB	00H
	DD	0339fbH
	DW	04f1dH
	DB	028H
	DB	028H
	DB	022H
	DB	00H
	DB	028H
	DB	00H
	DB	00H
	DB	00H
	DD	033d1bH
	DW	04f1eH
	DB	028H
	DB	027H
	DB	022H
	DB	00H
	DB	028H
	DB	00H
	DB	00H
	DB	00H
	DD	034027H
	DW	04f1fH
	DB	027H
	DB	027H
	DB	022H
	DB	00H
	DB	028H
	DB	00H
	DB	00H
	DB	00H
	DD	034333H
	DW	04f20H
	DB	028H
	DB	028H
	DB	022H
	DB	00H
	DB	028H
	DB	00H
	DB	00H
	DB	00H
	DD	034653H
	DW	04f21H
	DB	028H
	DB	027H
	DB	022H
	DB	00H
	DB	028H
	DB	00H
	DB	00H
	DB	00H
	DD	03495fH
	DW	04f22H
	DB	027H
	DB	027H
	DB	021H
	DB	00H
	DB	028H
	DB	00H
	DB	00H
	DB	00H
	DD	034c6bH
	DW	04f23H
	DB	028H
	DB	028H
	DB	022H
	DB	00H
	DB	028H
	DB	00H
	DB	00H
	DB	00H
	DD	034f8bH
	DW	04f24H
	DB	028H
	DB	028H
	DB	022H
	DB	00H
	DB	028H
	DB	00H
	DB	00H
	DB	00H
	DD	0352abH
	DW	04f25H
	DB	028H
	DB	027H
	DB	022H
	DB	00H
	DB	028H
	DB	00H
	DB	00H
	DB	00H
	DD	0355b7H
	DW	04f26H
	DB	028H
	DB	027H
	DB	022H
	DB	00H
	DB	028H
	DB	00H
	DB	00H
	DB	00H
	DD	0358c3H
	DW	04f27H
	DB	027H
	DB	027H
	DB	022H
	DB	00H
	DB	028H
	DB	00H
	DB	00H
	DB	00H
	DD	035bcfH
	DW	04f28H
	DB	026H
	DB	028H
	DB	022H
	DB	00H
	DB	028H
	DB	00H
	DB	00H
	DB	00H
	DD	035ec7H
	DW	04f29H
	DB	028H
	DB	028H
	DB	022H
	DB	00H
	DB	028H
	DB	00H
	DB	00H
	DB	00H
	DD	0361e7H
	DW	04f2aH
	DB	026H
	DB	027H
	DB	021H
	DB	00H
	DB	028H
	DB	00H
	DB	00H
	DB	00H
	DD	0364ccH
	DW	04f2bH
	DB	028H
	DB	027H
	DB	022H
	DB	00H
	DB	028H
	DB	00H
	DB	00H
	DB	00H
	DD	0367d8H
	DW	04f2cH
	DB	028H
	DB	027H
	DB	022H
	DB	00H
	DB	028H
	DB	00H
	DB	00H
	DB	00H
	DD	036ae4H
	DW	04f2dH
	DB	028H
	DB	028H
	DB	022H
	DB	00H
	DB	028H
	DB	00H
	DB	00H
	DB	00H
	DD	036e04H
	DW	04f2eH
	DB	028H
	DB	028H
	DB	022H
	DB	00H
	DB	028H
	DB	00H
	DB	00H
	DB	00H
	DD	037124H
	DW	04f2fH
	DB	026H
	DB	027H
	DB	021H
	DB	00H
	DB	028H
	DB	00H
	DB	00H
	DB	00H
	DD	037409H
	DW	04f30H
	DB	028H
	DB	026H
	DB	021H
	DB	00H
	DB	028H
	DB	00H
	DB	00H
	DB	00H
	DD	037701H
	DW	04f31H
	DB	028H
	DB	027H
	DB	022H
	DB	00H
	DB	028H
	DB	00H
	DB	00H
	DB	00H
	DD	037a0dH
	DW	04f32H
	DB	028H
	DB	027H
	DB	022H
	DB	00H
	DB	028H
	DB	00H
	DB	00H
	DB	00H
	DD	037d19H
	DW	04f33H
	DB	028H
	DB	027H
	DB	022H
	DB	00H
	DB	028H
	DB	00H
	DB	00H
	DB	00H
	DD	038025H
	DW	04f34H
	DB	028H
	DB	027H
	DB	021H
	DB	00H
	DB	028H
	DB	00H
	DB	00H
	DB	00H
	DD	038331H
	DW	04f35H
	DB	027H
	DB	028H
	DB	022H
	DB	00H
	DB	028H
	DB	00H
	DB	00H
	DB	00H
	DD	038651H
	DW	04f36H
	DB	028H
	DB	028H
	DB	022H
	DB	00H
	DB	028H
	DB	00H
	DB	00H
	DB	00H
	DD	038971H
	DW	04f37H
	DB	026H
	DB	028H
	DB	022H
	DB	00H
	DB	028H
	DB	00H
	DB	00H
	DB	00H
	DD	038c69H
	DW	04f38H
	DB	026H
	DB	027H
	DB	022H
	DB	00H
	DB	028H
	DB	00H
	DB	00H
	DB	00H
	DD	038f4eH
	DW	04f39H
	DB	028H
	DB	027H
	DB	022H
	DB	00H
	DB	028H
	DB	00H
	DB	00H
	DB	00H
	DD	03925aH
	DW	04f3aH
	DB	026H
	DB	027H
	DB	021H
	DB	00H
	DB	028H
	DB	00H
	DB	00H
	DB	00H
	DD	03953fH
	DW	04f3bH
	DB	028H
	DB	026H
	DB	021H
	DB	00H
	DB	028H
	DB	00H
	DB	00H
	DB	00H
	DD	039837H
	DW	04f3cH
	DB	028H
	DB	028H
	DB	022H
	DB	00H
	DB	028H
	DB	00H
	DB	00H
	DB	00H
	DD	039b57H
	DW	04f3dH
	DB	026H
	DB	026H
	DB	021H
	DB	00H
	DB	028H
	DB	00H
	DB	00H
	DB	00H
	DD	039e29H
	DW	04f3eH
	DB	028H
	DB	027H
	DB	022H
	DB	00H
	DB	028H
	DB	00H
	DB	00H
	DB	00H
	DD	03a135H
	DW	04f3fH
	DB	028H
	DB	028H
	DB	022H
	DB	00H
	DB	028H
	DB	00H
	DB	00H
	DB	00H
	DD	03a455H
	DW	04f40H
	DB	026H
	DB	027H
	DB	021H
	DB	00H
	DB	028H
	DB	00H
	DB	00H
	DB	00H
	DD	03a73aH
	DW	04f41H
	DB	028H
	DB	027H
	DB	022H
	DB	00H
	DB	028H
	DB	00H
	DB	00H
	DB	00H
	DD	03aa46H
	DW	04f42H
	DB	028H
	DB	027H
	DB	022H
	DB	00H
	DB	028H
	DB	00H
	DB	00H
	DB	00H
	DD	03ad52H
	DW	04f43H
	DB	026H
	DB	027H
	DB	022H
	DB	00H
	DB	028H
	DB	00H
	DB	00H
	DB	00H
	DD	03b037H
	DW	04f44H
	DB	028H
	DB	027H
	DB	022H
	DB	00H
	DB	028H
	DB	00H
	DB	00H
	DB	00H
	DD	03b343H
	DW	04f45H
	DB	028H
	DB	028H
	DB	022H
	DB	00H
	DB	028H
	DB	00H
	DB	00H
	DB	00H
	DD	03b663H
	DW	04f46H
	DB	028H
	DB	027H
	DB	022H
	DB	00H
	DB	028H
	DB	00H
	DB	00H
	DB	00H
	DD	03b96fH
	DW	04f47H
	DB	028H
	DB	028H
	DB	022H
	DB	00H
	DB	028H
	DB	00H
	DB	00H
	DB	00H
	DD	03bc8fH
	DW	04f48H
	DB	028H
	DB	028H
	DB	022H
	DB	00H
	DB	028H
	DB	00H
	DB	00H
	DB	00H
	DD	03bfafH
	DW	04f49H
	DB	028H
	DB	028H
	DB	022H
	DB	00H
	DB	028H
	DB	00H
	DB	00H
	DB	00H
	DD	03c2cfH
	DW	04f4aH
	DB	028H
	DB	027H
	DB	022H
	DB	00H
	DB	028H
	DB	00H
	DB	00H
	DB	00H
	DD	03c5dbH
	DW	04f4bH
	DB	026H
	DB	027H
	DB	022H
	DB	00H
	DB	028H
	DB	00H
	DB	00H
	DB	00H
	DD	03c8c0H
	DW	04f4cH
	DB	028H
	DB	027H
	DB	022H
	DB	00H
	DB	028H
	DB	00H
	DB	00H
	DB	00H
	DD	03cbccH
	DW	04f4dH
	DB	028H
	DB	027H
	DB	022H
	DB	00H
	DB	028H
	DB	00H
	DB	00H
	DB	00H
	DD	03ced8H
	DW	04f4eH
	DB	028H
	DB	028H
	DB	022H
	DB	00H
	DB	028H
	DB	00H
	DB	00H
	DB	00H
	DD	03d1f8H
	DW	04f4fH
	DB	028H
	DB	027H
	DB	022H
	DB	00H
	DB	028H
	DB	00H
	DB	00H
	DB	00H
	DD	03d504H
	DW	04f50H
	DB	028H
	DB	027H
	DB	022H
	DB	00H
	DB	028H
	DB	00H
	DB	00H
	DB	00H
	DD	03d810H
	DW	04f51H
	DB	028H
	DB	026H
	DB	021H
	DB	00H
	DB	028H
	DB	00H
	DB	00H
	DB	00H
	DD	03db08H
	DW	04f52H
	DB	028H
	DB	028H
	DB	022H
	DB	00H
	DB	028H
	DB	00H
	DB	00H
	DB	00H
	DD	03de28H
	DW	04f53H
	DB	028H
	DB	027H
	DB	022H
	DB	00H
	DB	028H
	DB	00H
	DB	00H
	DB	00H
	DD	03e134H
	DW	04f54H
	DB	028H
	DB	028H
	DB	022H
	DB	00H
	DB	028H
	DB	00H
	DB	00H
	DB	00H
	DD	03e454H
	DW	04f55H
	DB	028H
	DB	028H
	DB	022H
	DB	00H
	DB	028H
	DB	00H
	DB	00H
	DB	00H
	DD	03e774H
	DW	04f56H
	DB	028H
	DB	027H
	DB	022H
	DB	00H
	DB	028H
	DB	00H
	DB	00H
	DB	00H
	DD	03ea80H
	DW	04f57H
	DB	026H
	DB	027H
	DB	022H
	DB	01H
	DB	028H
	DB	00H
	DB	00H
	DB	00H
	DD	03ed65H
	DW	04f58H
	DB	028H
	DB	028H
	DB	022H
	DB	00H
	DB	028H
	DB	00H
	DB	00H
	DB	00H
	DD	03f085H
	DW	04f59H
	DB	028H
	DB	028H
	DB	022H
	DB	00H
	DB	028H
	DB	00H
	DB	00H
	DB	00H
	DD	03f3a5H
	DW	04f5aH
	DB	028H
	DB	027H
	DB	021H
	DB	00H
	DB	028H
	DB	00H
	DB	00H
	DB	00H
	DD	03f6b1H
	DW	04f5bH
	DB	027H
	DB	028H
	DB	022H
	DB	00H
	DB	028H
	DB	00H
	DB	00H
	DB	00H
	DD	03f9d1H
	DW	04f5cH
	DB	028H
	DB	027H
	DB	022H
	DB	00H
	DB	028H
	DB	00H
	DB	00H
	DB	00H
	DD	03fcddH
	DW	04f5dH
	DB	026H
	DB	028H
	DB	022H
	DB	00H
	DB	028H
	DB	00H
	DB	00H
	DB	00H
	DD	03ffd5H
	DW	04f5eH
	DB	028H
	DB	028H
	DB	022H
	DB	00H
	DB	028H
	DB	00H
	DB	00H
	DB	00H
	DD	0402f5H
	DW	04f5fH
	DB	028H
	DB	028H
	DB	022H
	DB	00H
	DB	028H
	DB	00H
	DB	00H
	DB	00H
	DD	040615H
	DW	04f60H
	DB	028H
	DB	026H
	DB	021H
	DB	00H
	DB	028H
	DB	00H
	DB	00H
	DB	00H
	DD	04090dH
	DW	04f61H
	DB	028H
	DB	027H
	DB	022H
	DB	00H
	DB	028H
	DB	00H
	DB	00H
	DB	00H
	DD	040c19H
	DW	04f62H
	DB	028H
	DB	027H
	DB	022H
	DB	00H
	DB	028H
	DB	00H
	DB	00H
	DB	00H
	DD	040f25H
	DW	04f63H
	DB	026H
	DB	028H
	DB	022H
	DB	00H
	DB	028H
	DB	00H
	DB	00H
	DB	00H
	DD	04121dH
	DW	04f64H
	DB	028H
	DB	028H
	DB	022H
	DB	00H
	DB	028H
	DB	00H
	DB	00H
	DB	00H
	DD	04153dH
	DW	04f65H
	DB	028H
	DB	026H
	DB	022H
	DB	00H
	DB	028H
	DB	00H
	DB	00H
	DB	00H
	DD	041835H
	DW	04f66H
	DB	028H
	DB	027H
	DB	022H
	DB	00H
	DB	028H
	DB	00H
	DB	00H
	DB	00H
	DD	041b41H
	DW	04f67H
	DB	028H
	DB	027H
	DB	022H
	DB	00H
	DB	028H
	DB	00H
	DB	00H
	DB	00H
	DD	041e4dH
	DW	04f68H
	DB	028H
	DB	027H
	DB	022H
	DB	00H
	DB	028H
	DB	00H
	DB	00H
	DB	00H
	DD	042159H
	DW	04f69H
	DB	028H
	DB	027H
	DB	022H
	DB	00H
	DB	028H
	DB	00H
	DB	00H
	DB	00H
	DD	042465H
	DW	04f6aH
	DB	026H
	DB	027H
	DB	022H
	DB	00H
	DB	028H
	DB	00H
	DB	00H
	DB	00H
	DD	04274aH
	DW	04f6bH
	DB	028H
	DB	028H
	DB	022H
	DB	00H
	DB	028H
	DB	00H
	DB	00H
	DB	00H
	DD	042a6aH
	DW	04f6cH
	DB	028H
	DB	027H
	DB	022H
	DB	00H
	DB	028H
	DB	00H
	DB	00H
	DB	00H
	DD	042d76H
	DW	04f6dH
	DB	028H
	DB	027H
	DB	022H
	DB	00H
	DB	028H
	DB	00H
	DB	00H
	DB	00H
	DD	043082H
	DW	04f6eH
	DB	028H
	DB	028H
	DB	022H
	DB	00H
	DB	028H
	DB	00H
	DB	00H
	DB	00H
	DD	0433a2H
	DW	04f6fH
	DB	028H
	DB	027H
	DB	022H
	DB	00H
	DB	028H
	DB	00H
	DB	00H
	DB	00H
	DD	0436aeH
	DW	04f70H
	DB	027H
	DB	026H
	DB	021H
	DB	00H
	DB	028H
	DB	00H
	DB	00H
	DB	00H
	DD	0439a6H
	DW	04f71H
	DB	028H
	DB	026H
	DB	022H
	DB	00H
	DB	028H
	DB	00H
	DB	00H
	DB	00H
	DD	043c9eH
	DW	04f72H
	DB	026H
	DB	028H
	DB	022H
	DB	00H
	DB	028H
	DB	00H
	DB	00H
	DB	00H
	DD	043f96H
	DW	04f73H
	DB	028H
	DB	027H
	DB	022H
	DB	00H
	DB	028H
	DB	00H
	DB	00H
	DB	00H
	DD	0442a2H
	DW	04f74H
	DB	027H
	DB	028H
	DB	022H
	DB	00H
	DB	028H
	DB	00H
	DB	00H
	DB	00H
	DD	0445c2H
	DW	04f75H
	DB	028H
	DB	028H
	DB	022H
	DB	00H
	DB	028H
	DB	00H
	DB	00H
	DB	00H
	DD	0448e2H
	DW	04f76H
	DB	028H
	DB	027H
	DB	022H
	DB	00H
	DB	028H
	DB	00H
	DB	00H
	DB	00H
	DD	044beeH
	DW	04f77H
	DB	028H
	DB	028H
	DB	022H
	DB	00H
	DB	028H
	DB	00H
	DB	00H
	DB	00H
	DD	044f0eH
	DW	04f78H
	DB	028H
	DB	027H
	DB	022H
	DB	00H
	DB	028H
	DB	00H
	DB	00H
	DB	00H
	DD	04521aH
	DW	04f79H
	DB	028H
	DB	028H
	DB	022H
	DB	00H
	DB	028H
	DB	00H
	DB	00H
	DB	00H
	DD	04553aH
	DW	04f7aH
	DB	028H
	DB	026H
	DB	021H
	DB	00H
	DB	028H
	DB	00H
	DB	00H
	DB	00H
	DD	045832H
	DW	04f7bH
	DB	028H
	DB	028H
	DB	022H
	DB	00H
	DB	028H
	DB	00H
	DB	00H
	DB	00H
	DD	045b52H
	DW	04f7cH
	DB	028H
	DB	028H
	DB	022H
	DB	00H
	DB	028H
	DB	00H
	DB	00H
	DB	00H
	DD	045e72H
	DW	04f7dH
	DB	028H
	DB	028H
	DB	022H
	DB	00H
	DB	028H
	DB	00H
	DB	00H
	DB	00H
	DD	046192H
	DW	04f7eH
	DB	028H
	DB	027H
	DB	022H
	DB	00H
	DB	028H
	DB	00H
	DB	00H
	DB	00H
	DD	04649eH
	DW	04f7fH
	DB	028H
	DB	027H
	DB	022H
	DB	00H
	DB	028H
	DB	00H
	DB	00H
	DB	00H
	DD	0467aaH
	DW	04f80H
	DB	026H
	DB	027H
	DB	022H
	DB	00H
	DB	028H
	DB	00H
	DB	00H
	DB	00H
	DD	046a8fH
	DW	04f81H
	DB	028H
	DB	028H
	DB	022H
	DB	00H
	DB	028H
	DB	00H
	DB	00H
	DB	00H
	DD	046dafH
	DW	04f82H
	DB	028H
	DB	027H
	DB	022H
	DB	00H
	DB	028H
	DB	00H
	DB	00H
	DB	00H
	DD	0470bbH
	DW	04f83H
	DB	028H
	DB	027H
	DB	021H
	DB	00H
	DB	028H
	DB	00H
	DB	00H
	DB	00H
	DD	0473c7H
	DW	04f84H
	DB	028H
	DB	027H
	DB	022H
	DB	00H
	DB	028H
	DB	00H
	DB	00H
	DB	00H
	DD	0476d3H
	DW	04f85H
	DB	028H
	DB	028H
	DB	022H
	DB	00H
	DB	028H
	DB	00H
	DB	00H
	DB	00H
	DD	0479f3H
	DW	04f86H
	DB	028H
	DB	027H
	DB	022H
	DB	00H
	DB	028H
	DB	00H
	DB	00H
	DB	00H
	DD	047cffH
	DW	04f87H
	DB	028H
	DB	028H
	DB	022H
	DB	00H
	DB	028H
	DB	00H
	DB	00H
	DB	00H
	DD	04801fH
	DW	04f88H
	DB	027H
	DB	028H
	DB	022H
	DB	00H
	DB	028H
	DB	00H
	DB	00H
	DB	00H
	DD	04833fH
	DW	04f89H
	DB	028H
	DB	027H
	DB	022H
	DB	00H
	DB	028H
	DB	00H
	DB	00H
	DB	00H
	DD	04864bH
	DW	04f8aH
	DB	028H
	DB	027H
	DB	022H
	DB	00H
	DB	028H
	DB	00H
	DB	00H
	DB	00H
	DD	048957H
	DW	04f8bH
	DB	026H
	DB	027H
	DB	022H
	DB	00H
	DB	028H
	DB	00H
	DB	00H
	DB	00H
	DD	048c3cH
	DW	04f8cH
	DB	028H
	DB	027H
	DB	021H
	DB	00H
	DB	028H
	DB	00H
	DB	00H
	DB	00H
	DD	048f48H
	DW	04f8dH
	DB	028H
	DB	026H
	DB	021H
	DB	00H
	DB	028H
	DB	00H
	DB	00H
	DB	00H
	DD	049240H
	DW	04f8eH
	DB	028H
	DB	027H
	DB	022H
	DB	00H
	DB	028H
	DB	00H
	DB	00H
	DB	00H
	DD	04954cH
	DW	04f8fH
	DB	028H
	DB	027H
	DB	022H
	DB	00H
	DB	028H
	DB	00H
	DB	00H
	DB	00H
	DD	049858H
	DW	04f90H
	DB	028H
	DB	027H
	DB	022H
	DB	00H
	DB	028H
	DB	00H
	DB	00H
	DB	00H
	DD	049b64H
	DW	04f91H
	DB	027H
	DB	028H
	DB	022H
	DB	00H
	DB	028H
	DB	00H
	DB	00H
	DB	00H
	DD	049e84H
	DW	04f92H
	DB	028H
	DB	028H
	DB	022H
	DB	00H
	DB	028H
	DB	00H
	DB	00H
	DB	00H
	DD	04a1a4H
	DW	04f93H
	DB	028H
	DB	028H
	DB	022H
	DB	00H
	DB	028H
	DB	00H
	DB	00H
	DB	00H
	DD	04a4c4H
	DW	04f94H
	DB	028H
	DB	027H
	DB	022H
	DB	00H
	DB	028H
	DB	00H
	DB	00H
	DB	00H
	DD	04a7d0H
	DW	04f95H
	DB	027H
	DB	028H
	DB	022H
	DB	00H
	DB	028H
	DB	00H
	DB	00H
	DB	00H
	DD	04aaf0H
	DW	04f96H
	DB	028H
	DB	028H
	DB	022H
	DB	00H
	DB	028H
	DB	00H
	DB	00H
	DB	00H
	DD	04ae10H
	DW	04f97H
	DB	026H
	DB	028H
	DB	022H
	DB	00H
	DB	028H
	DB	00H
	DB	00H
	DB	00H
	DD	04b108H
	DW	04f98H
	DB	027H
	DB	027H
	DB	022H
	DB	00H
	DB	028H
	DB	00H
	DB	00H
	DB	00H
	DD	04b414H
	DW	04f99H
	DB	028H
	DB	027H
	DB	022H
	DB	00H
	DB	028H
	DB	00H
	DB	00H
	DB	00H
	DD	04b720H
	DW	04f9aH
	DB	026H
	DB	027H
	DB	022H
	DB	00H
	DB	028H
	DB	00H
	DB	00H
	DB	00H
	DD	04ba05H
	DW	04f9bH
	DB	028H
	DB	028H
	DB	022H
	DB	00H
	DB	028H
	DB	00H
	DB	00H
	DB	00H
	DD	04bd25H
	DW	04f9cH
	DB	028H
	DB	028H
	DB	022H
	DB	00H
	DB	028H
	DB	00H
	DB	00H
	DB	00H
	DD	04c045H
	DW	04f9dH
	DB	028H
	DB	028H
	DB	022H
	DB	00H
	DB	028H
	DB	00H
	DB	00H
	DB	00H
	DD	04c365H
	DW	04f9eH
	DB	026H
	DB	028H
	DB	022H
	DB	00H
	DB	028H
	DB	00H
	DB	00H
	DB	00H
	DD	04c65dH
	DW	04f9fH
	DB	028H
	DB	028H
	DB	022H
	DB	00H
	DB	028H
	DB	00H
	DB	00H
	DB	00H
	DD	04c97dH
	DW	04fa0H
	DB	028H
	DB	028H
	DB	022H
	DB	00H
	DB	028H
	DB	00H
	DB	00H
	DB	00H
	DD	04cc9dH
	DW	04fa1H
	DB	028H
	DB	027H
	DB	022H
	DB	00H
	DB	028H
	DB	00H
	DB	00H
	DB	00H
	DD	04cfa9H
	DW	04fa2H
	DB	028H
	DB	028H
	DB	022H
	DB	00H
	DB	028H
	DB	00H
	DB	00H
	DB	00H
	DD	04d2c9H
	DW	04fa3H
	DB	027H
	DB	027H
	DB	021H
	DB	00H
	DB	028H
	DB	00H
	DB	00H
	DB	00H
	DD	04d5d5H
	DW	04fa4H
	DB	028H
	DB	027H
	DB	022H
	DB	00H
	DB	028H
	DB	00H
	DB	00H
	DB	00H
	DD	04d8e1H
	DW	04fa5H
	DB	028H
	DB	028H
	DB	022H
	DB	00H
	DB	028H
	DB	00H
	DB	00H
	DB	00H
	DD	04dc01H
	DW	04fa6H
	DB	028H
	DB	028H
	DB	022H
	DB	00H
	DB	028H
	DB	00H
	DB	00H
	DB	00H
	DD	04df21H
	DW	04fa7H
	DB	026H
	DB	027H
	DB	022H
	DB	00H
	DB	028H
	DB	00H
	DB	00H
	DB	00H
	DD	04e206H
	DW	04fa8H
	DB	028H
	DB	027H
	DB	021H
	DB	00H
	DB	028H
	DB	00H
	DB	00H
	DB	00H
	DD	04e512H
	DW	04fa9H
	DB	028H
	DB	028H
	DB	022H
	DB	00H
	DB	028H
	DB	00H
	DB	00H
	DB	00H
	DD	04e832H
	DW	04faaH
	DB	028H
	DB	027H
	DB	022H
	DB	00H
	DB	028H
	DB	00H
	DB	00H
	DB	00H
	DD	04eb3eH
	DW	04fabH
	DB	028H
	DB	028H
	DB	022H
	DB	00H
	DB	028H
	DB	00H
	DB	00H
	DB	00H
	DD	04ee5eH
	DW	04facH
	DB	027H
	DB	028H
	DB	022H
	DB	00H
	DB	028H
	DB	00H
	DB	00H
	DB	00H
	DD	04f17eH
	DW	04fadH
	DB	028H
	DB	027H
	DB	022H
	DB	00H
	DB	028H
	DB	00H
	DB	00H
	DB	00H
	DD	04f48aH
	DW	04faeH
	DB	028H
	DB	028H
	DB	022H
	DB	00H
	DB	028H
	DB	00H
	DB	00H
	DB	00H
	DD	04f7aaH
	DW	04fafH
	DB	028H
	DB	027H
	DB	022H
	DB	00H
	DB	028H
	DB	00H
	DB	00H
	DB	00H
	DD	04fab6H
	DW	04fb0H
	DB	028H
	DB	027H
	DB	022H
	DB	00H
	DB	028H
	DB	00H
	DB	00H
	DB	00H
	DD	04fdc2H
	DW	04fb1H
	DB	028H
	DB	027H
	DB	022H
	DB	00H
	DB	028H
	DB	00H
	DB	00H
	DB	00H
	DD	0500ceH
	DW	04fb2H
	DB	028H
	DB	028H
	DB	022H
	DB	00H
	DB	028H
	DB	00H
	DB	00H
	DB	00H
	DD	0503eeH
	DW	04fb3H
	DB	028H
	DB	027H
	DB	022H
	DB	00H
	DB	028H
	DB	00H
	DB	00H
	DB	00H
	DD	0506faH
	DW	04fb4H
	DB	028H
	DB	027H
	DB	021H
	DB	00H
	DB	028H
	DB	00H
	DB	00H
	DB	00H
	DD	050a06H
	DW	04fb5H
	DB	027H
	DB	028H
	DB	022H
	DB	00H
	DB	028H
	DB	00H
	DB	00H
	DB	00H
	DD	050d26H
	DW	04fb6H
	DB	027H
	DB	027H
	DB	021H
	DB	00H
	DB	028H
	DB	00H
	DB	00H
	DB	00H
	DD	051032H
	DW	04fb7H
	DB	027H
	DB	027H
	DB	021H
	DB	00H
	DB	028H
	DB	00H
	DB	00H
	DB	00H
	DD	05133eH
	DW	04fb8H
	DB	028H
	DB	027H
	DB	022H
	DB	00H
	DB	028H
	DB	00H
	DB	00H
	DB	00H
	DD	05164aH
	DW	04fb9H
	DB	028H
	DB	028H
	DB	022H
	DB	00H
	DB	028H
	DB	00H
	DB	00H
	DB	00H
	DD	05196aH
	DW	04fbaH
	DB	028H
	DB	028H
	DB	022H
	DB	00H
	DB	028H
	DB	00H
	DB	00H
	DB	00H
	DD	051c8aH
	DW	04fbbH
	DB	028H
	DB	028H
	DB	022H
	DB	00H
	DB	028H
	DB	00H
	DB	00H
	DB	00H
	DD	051faaH
	DW	04fbcH
	DB	028H
	DB	026H
	DB	021H
	DB	00H
	DB	028H
	DB	00H
	DB	00H
	DB	00H
	DD	0522a2H
	DW	04fbdH
	DB	027H
	DB	028H
	DB	022H
	DB	00H
	DB	028H
	DB	00H
	DB	00H
	DB	00H
	DD	0525c2H
	DW	04fbeH
	DB	028H
	DB	027H
	DB	022H
	DB	00H
	DB	028H
	DB	00H
	DB	00H
	DB	00H
	DD	0528ceH
	DW	04fbfH
	DB	028H
	DB	027H
	DB	022H
	DB	00H
	DB	028H
	DB	00H
	DB	00H
	DB	00H
	DD	052bdaH
	DW	04fc0H
	DB	027H
	DB	028H
	DB	022H
	DB	00H
	DB	028H
	DB	00H
	DB	00H
	DB	00H
	DD	052efaH
	DW	04fc1H
	DB	028H
	DB	028H
	DB	022H
	DB	00H
	DB	028H
	DB	00H
	DB	00H
	DB	00H
	DD	05321aH
	DW	04fc2H
	DB	028H
	DB	028H
	DB	022H
	DB	00H
	DB	028H
	DB	00H
	DB	00H
	DB	00H
	DD	05353aH
	DW	04fc3H
	DB	028H
	DB	027H
	DB	021H
	DB	00H
	DB	028H
	DB	00H
	DB	00H
	DB	00H
	DD	053846H
	DW	04fc4H
	DB	028H
	DB	026H
	DB	021H
	DB	00H
	DB	028H
	DB	00H
	DB	00H
	DB	00H
	DD	053b3eH
	DW	04fc5H
	DB	028H
	DB	026H
	DB	021H
	DB	00H
	DB	028H
	DB	00H
	DB	00H
	DB	00H
	DD	053e36H
	DW	04fc6H
	DB	028H
	DB	028H
	DB	022H
	DB	00H
	DB	028H
	DB	00H
	DB	00H
	DB	00H
	DD	054156H
	DW	04fc7H
	DB	027H
	DB	027H
	DB	022H
	DB	00H
	DB	028H
	DB	00H
	DB	00H
	DB	00H
	DD	054462H
	DW	04fc8H
	DB	027H
	DB	027H
	DB	022H
	DB	00H
	DB	028H
	DB	00H
	DB	00H
	DB	00H
	DD	05476eH
	DW	04fc9H
	DB	028H
	DB	028H
	DB	022H
	DB	00H
	DB	028H
	DB	00H
	DB	00H
	DB	00H
	DD	054a8eH
	DW	04fcaH
	DB	028H
	DB	028H
	DB	022H
	DB	00H
	DB	028H
	DB	00H
	DB	00H
	DB	00H
	DD	054daeH
	DW	04fcbH
	DB	028H
	DB	027H
	DB	022H
	DB	00H
	DB	028H
	DB	00H
	DB	00H
	DB	00H
	DD	0550baH
	DW	04fccH
	DB	027H
	DB	027H
	DB	022H
	DB	01H
	DB	028H
	DB	00H
	DB	00H
	DB	00H
	DD	0553c6H
	DW	04fcdH
	DB	028H
	DB	028H
	DB	022H
	DB	00H
	DB	028H
	DB	00H
	DB	00H
	DB	00H
	DD	0556e6H
	DW	04fceH
	DB	028H
	DB	026H
	DB	021H
	DB	00H
	DB	028H
	DB	00H
	DB	00H
	DB	00H
	DD	0559deH
	DW	04fcfH
	DB	027H
	DB	027H
	DB	022H
	DB	00H
	DB	028H
	DB	00H
	DB	00H
	DB	00H
	DD	055ceaH
	DW	04fd0H
	DB	026H
	DB	028H
	DB	022H
	DB	00H
	DB	028H
	DB	00H
	DB	00H
	DB	00H
	DD	055fe2H
	DW	04fd1H
	DB	026H
	DB	027H
	DB	021H
	DB	00H
	DB	028H
	DB	00H
	DB	00H
	DB	00H
	DD	0562c7H
	DW	04fd2H
	DB	028H
	DB	028H
	DB	022H
	DB	00H
	DB	028H
	DB	00H
	DB	00H
	DB	00H
	DD	0565e7H
	DW	04fd3H
	DB	028H
	DB	027H
	DB	022H
	DB	00H
	DB	028H
	DB	00H
	DB	00H
	DB	00H
	DD	0568f3H
	DW	04fd4H
	DB	028H
	DB	028H
	DB	022H
	DB	00H
	DB	028H
	DB	00H
	DB	00H
	DB	00H
	DD	056c13H
	DW	04fd5H
	DB	028H
	DB	027H
	DB	022H
	DB	00H
	DB	028H
	DB	00H
	DB	00H
	DB	00H
	DD	056f1fH
	DW	04fd6H
	DB	028H
	DB	027H
	DB	022H
	DB	00H
	DB	028H
	DB	00H
	DB	00H
	DB	00H
	DD	05722bH
	DW	04fd7H
	DB	028H
	DB	027H
	DB	022H
	DB	00H
	DB	028H
	DB	00H
	DB	00H
	DB	00H
	DD	057537H
	DW	04fd8H
	DB	028H
	DB	026H
	DB	021H
	DB	00H
	DB	028H
	DB	00H
	DB	00H
	DB	00H
	DD	05782fH
	DW	04fd9H
	DB	028H
	DB	028H
	DB	022H
	DB	00H
	DB	028H
	DB	00H
	DB	00H
	DB	00H
	DD	057b4fH
	DW	04fdaH
	DB	028H
	DB	027H
	DB	022H
	DB	00H
	DB	028H
	DB	00H
	DB	00H
	DB	00H
	DD	057e5bH
	DW	04fdbH
	DB	028H
	DB	028H
	DB	022H
	DB	00H
	DB	028H
	DB	00H
	DB	00H
	DB	00H
	DD	05817bH
	DW	04fdcH
	DB	028H
	DB	027H
	DB	022H
	DB	00H
	DB	028H
	DB	00H
	DB	00H
	DB	00H
	DD	058487H
	DW	04fddH
	DB	028H
	DB	027H
	DB	022H
	DB	00H
	DB	028H
	DB	00H
	DB	00H
	DB	00H
	DD	058793H
	DW	04fdeH
	DB	028H
	DB	026H
	DB	021H
	DB	00H
	DB	028H
	DB	00H
	DB	00H
	DB	00H
	DD	058a8bH
	DW	04fdfH
	DB	028H
	DB	027H
	DB	022H
	DB	00H
	DB	028H
	DB	00H
	DB	00H
	DB	00H
	DD	058d97H
	DW	04fe0H
	DB	028H
	DB	028H
	DB	022H
	DB	00H
	DB	028H
	DB	00H
	DB	00H
	DB	00H
	DD	0590b7H
	DW	04fe1H
	DB	028H
	DB	027H
	DB	022H
	DB	00H
	DB	028H
	DB	00H
	DB	00H
	DB	00H
	DD	0593c3H
	DW	04fe2H
	DB	028H
	DB	028H
	DB	022H
	DB	00H
	DB	028H
	DB	00H
	DB	00H
	DB	00H
	DD	0596e3H
	DW	04fe3H
	DB	028H
	DB	028H
	DB	022H
	DB	00H
	DB	028H
	DB	00H
	DB	00H
	DB	00H
	DD	059a03H
	DW	04fe4H
	DB	027H
	DB	027H
	DB	022H
	DB	00H
	DB	028H
	DB	00H
	DB	00H
	DB	00H
	DD	059d0fH
	DW	04fe5H
	DB	028H
	DB	028H
	DB	022H
	DB	00H
	DB	028H
	DB	00H
	DB	00H
	DB	00H
	DD	05a02fH
	DW	04fe6H
	DB	027H
	DB	028H
	DB	022H
	DB	00H
	DB	028H
	DB	00H
	DB	00H
	DB	00H
	DD	05a34fH
	DW	04fe7H
	DB	028H
	DB	027H
	DB	022H
	DB	00H
	DB	028H
	DB	00H
	DB	00H
	DB	00H
	DD	05a65bH
	DW	04fe8H
	DB	028H
	DB	027H
	DB	022H
	DB	00H
	DB	028H
	DB	00H
	DB	00H
	DB	00H
	DD	05a967H
	DW	04fe9H
	DB	027H
	DB	027H
	DB	022H
	DB	00H
	DB	028H
	DB	00H
	DB	00H
	DB	00H
	DD	05ac73H
	DW	04feaH
	DB	027H
	DB	028H
	DB	022H
	DB	00H
	DB	028H
	DB	00H
	DB	00H
	DB	00H
	DD	05af93H
	DW	04febH
	DB	028H
	DB	028H
	DB	022H
	DB	00H
	DB	028H
	DB	00H
	DB	00H
	DB	00H
	DD	05b2b3H
	DW	04fecH
	DB	028H
	DB	027H
	DB	021H
	DB	00H
	DB	028H
	DB	00H
	DB	00H
	DB	00H
	DD	05b5bfH
	DW	04fedH
	DB	028H
	DB	027H
	DB	022H
	DB	00H
	DB	028H
	DB	00H
	DB	00H
	DB	00H
	DD	05b8cbH
	DW	04feeH
	DB	028H
	DB	028H
	DB	022H
	DB	00H
	DB	028H
	DB	00H
	DB	00H
	DB	00H
	DD	05bbebH
	DW	04fefH
	DB	028H
	DB	028H
	DB	022H
	DB	00H
	DB	028H
	DB	00H
	DB	00H
	DB	00H
	DD	05bf0bH
	DW	04ff0H
	DB	026H
	DB	028H
	DB	022H
	DB	00H
	DB	028H
	DB	00H
	DB	00H
	DB	00H
	DD	05c203H
	DW	04ff1H
	DB	028H
	DB	028H
	DB	022H
	DB	00H
	DB	028H
	DB	00H
	DB	00H
	DB	00H
	DD	05c523H
	DW	04ff2H
	DB	027H
	DB	027H
	DB	022H
	DB	00H
	DB	028H
	DB	00H
	DB	00H
	DB	00H
	DD	05c82fH
	DW	04ff3H
	DB	027H
	DB	028H
	DB	022H
	DB	01H
	DB	028H
	DB	00H
	DB	00H
	DB	00H
	DD	05cb4fH
	DW	04ff4H
	DB	028H
	DB	028H
	DB	022H
	DB	00H
	DB	028H
	DB	00H
	DB	00H
	DB	00H
	DD	05ce6fH
	DW	04ff5H
	DB	028H
	DB	027H
	DB	022H
	DB	00H
	DB	028H
	DB	00H
	DB	00H
	DB	00H
	DD	05d17bH
	DW	04ff6H
	DB	028H
	DB	028H
	DB	022H
	DB	00H
	DB	028H
	DB	00H
	DB	00H
	DB	00H
	DD	05d49bH
	DW	04ff7H
	DB	028H
	DB	027H
	DB	021H
	DB	00H
	DB	028H
	DB	00H
	DB	00H
	DB	00H
	DD	05d7a7H
	DW	04ff8H
	DB	028H
	DB	028H
	DB	022H
	DB	00H
	DB	028H
	DB	00H
	DB	00H
	DB	00H
	DD	05dac7H
	DW	04ff9H
	DB	028H
	DB	027H
	DB	022H
	DB	00H
	DB	028H
	DB	00H
	DB	00H
	DB	00H
	DD	05ddd3H
	DW	04ffaH
	DB	028H
	DB	027H
	DB	022H
	DB	00H
	DB	028H
	DB	00H
	DB	00H
	DB	00H
	DD	05e0dfH
	DW	04ffbH
	DB	028H
	DB	028H
	DB	022H
	DB	00H
	DB	028H
	DB	00H
	DB	00H
	DB	00H
	DD	05e3ffH
	DW	04ffcH
	DB	028H
	DB	027H
	DB	022H
	DB	00H
	DB	028H
	DB	00H
	DB	00H
	DB	00H
	DD	05e70bH
	DW	04ffdH
	DB	028H
	DB	028H
	DB	022H
	DB	00H
	DB	028H
	DB	00H
	DB	00H
	DB	00H
	DD	05ea2bH
	DW	04ffeH
	DB	028H
	DB	027H
	DB	022H
	DB	00H
	DB	028H
	DB	00H
	DB	00H
	DB	00H
	DD	05ed37H
	DW	04fffH
	DB	028H
	DB	028H
	DB	022H
	DB	00H
	DB	028H
	DB	00H
	DB	00H
	DB	00H
	DD	00H
	DW	05000H
	DB	028H
	DB	028H
	DB	022H
	DB	00H
	DB	028H
	DB	00H
	DB	00H
	DB	00H
	DD	0320H
	DW	05001H
	DB	027H
	DB	027H
	DB	022H
	DB	00H
	DB	028H
	DB	00H
	DB	00H
	DB	00H
	DD	062cH
	DW	05002H
	DB	028H
	DB	028H
	DB	022H
	DB	00H
	DB	028H
	DB	00H
	DB	00H
	DB	00H
	DD	094cH
	DW	05003H
	DB	028H
	DB	028H
	DB	022H
	DB	00H
	DB	028H
	DB	00H
	DB	00H
	DB	00H
	DD	0c6cH
	DW	05004H
	DB	027H
	DB	028H
	DB	022H
	DB	00H
	DB	028H
	DB	00H
	DB	00H
	DB	00H
	DD	0f8cH
	DW	05005H
	DB	028H
	DB	027H
	DB	022H
	DB	00H
	DB	028H
	DB	00H
	DB	00H
	DB	00H
	DD	01298H
	DW	05006H
	DB	027H
	DB	028H
	DB	022H
	DB	00H
	DB	028H
	DB	00H
	DB	00H
	DB	00H
	DD	015b8H
	DW	05007H
	DB	028H
	DB	027H
	DB	022H
	DB	00H
	DB	028H
	DB	00H
	DB	00H
	DB	00H
	DD	018c4H
	DW	05008H
	DB	028H
	DB	027H
	DB	022H
	DB	00H
	DB	028H
	DB	00H
	DB	00H
	DB	00H
	DD	01bd0H
	DW	05009H
	DB	028H
	DB	028H
	DB	022H
	DB	00H
	DB	028H
	DB	00H
	DB	00H
	DB	00H
	DD	01ef0H
	DW	0500aH
	DB	028H
	DB	027H
	DB	022H
	DB	00H
	DB	028H
	DB	00H
	DB	00H
	DB	00H
	DD	021fcH
	DW	0500bH
	DB	026H
	DB	028H
	DB	022H
	DB	00H
	DB	028H
	DB	00H
	DB	00H
	DB	00H
	DD	024f4H
	DW	0500cH
	DB	027H
	DB	028H
	DB	022H
	DB	00H
	DB	028H
	DB	00H
	DB	00H
	DB	00H
	DD	02814H
	DW	0500dH
	DB	028H
	DB	027H
	DB	022H
	DB	00H
	DB	028H
	DB	00H
	DB	00H
	DB	00H
	DD	02b20H
	DW	0500eH
	DB	028H
	DB	027H
	DB	021H
	DB	00H
	DB	028H
	DB	00H
	DB	00H
	DB	00H
	DD	02e2cH
	DW	0500fH
	DB	028H
	DB	028H
	DB	022H
	DB	00H
	DB	028H
	DB	00H
	DB	00H
	DB	00H
	DD	0314cH
	DW	05010H
	DB	028H
	DB	028H
	DB	022H
	DB	00H
	DB	028H
	DB	00H
	DB	00H
	DB	00H
	DD	0346cH
	DW	05011H
	DB	027H
	DB	028H
	DB	022H
	DB	00H
	DB	028H
	DB	00H
	DB	00H
	DB	00H
	DD	0378cH
	DW	05012H
	DB	026H
	DB	027H
	DB	022H
	DB	00H
	DB	028H
	DB	00H
	DB	00H
	DB	00H
	DD	03a71H
	DW	05013H
	DB	028H
	DB	027H
	DB	022H
	DB	00H
	DB	028H
	DB	00H
	DB	00H
	DB	00H
	DD	03d7dH
	DW	05014H
	DB	027H
	DB	027H
	DB	022H
	DB	00H
	DB	028H
	DB	00H
	DB	00H
	DB	00H
	DD	04089H
	DW	05015H
	DB	028H
	DB	027H
	DB	022H
	DB	00H
	DB	028H
	DB	00H
	DB	00H
	DB	00H
	DD	04395H
	DW	05016H
	DB	027H
	DB	027H
	DB	022H
	DB	00H
	DB	028H
	DB	00H
	DB	00H
	DB	00H
	DD	046a1H
	DW	05017H
	DB	026H
	DB	027H
	DB	022H
	DB	00H
	DB	028H
	DB	00H
	DB	00H
	DB	00H
	DD	04986H
	DW	05018H
	DB	027H
	DB	027H
	DB	022H
	DB	00H
	DB	028H
	DB	00H
	DB	00H
	DB	00H
	DD	04c92H
	DW	05019H
	DB	028H
	DB	028H
	DB	022H
	DB	00H
	DB	028H
	DB	00H
	DB	00H
	DB	00H
	DD	04fb2H
	DW	0501aH
	DB	028H
	DB	028H
	DB	022H
	DB	00H
	DB	028H
	DB	00H
	DB	00H
	DB	00H
	DD	052d2H
	DW	0501bH
	DB	028H
	DB	028H
	DB	022H
	DB	00H
	DB	028H
	DB	00H
	DB	00H
	DB	00H
	DD	055f2H
	DW	0501cH
	DB	026H
	DB	028H
	DB	022H
	DB	00H
	DB	028H
	DB	00H
	DB	00H
	DB	00H
	DD	058eaH
	DW	0501dH
	DB	026H
	DB	028H
	DB	022H
	DB	01H
	DB	028H
	DB	00H
	DB	00H
	DB	00H
	DD	05be2H
	DW	0501eH
	DB	028H
	DB	028H
	DB	022H
	DB	00H
	DB	028H
	DB	00H
	DB	00H
	DB	00H
	DD	05f02H
	DW	0501fH
	DB	028H
	DB	028H
	DB	022H
	DB	00H
	DB	028H
	DB	00H
	DB	00H
	DB	00H
	DD	06222H
	DW	05020H
	DB	028H
	DB	027H
	DB	022H
	DB	00H
	DB	028H
	DB	00H
	DB	00H
	DB	00H
	DD	0652eH
	DW	05021H
	DB	026H
	DB	028H
	DB	022H
	DB	01H
	DB	028H
	DB	00H
	DB	00H
	DB	00H
	DD	06826H
	DW	05022H
	DB	028H
	DB	027H
	DB	022H
	DB	00H
	DB	028H
	DB	00H
	DB	00H
	DB	00H
	DD	06b32H
	DW	05023H
	DB	028H
	DB	027H
	DB	022H
	DB	00H
	DB	028H
	DB	00H
	DB	00H
	DB	00H
	DD	06e3eH
	DW	05024H
	DB	028H
	DB	027H
	DB	022H
	DB	00H
	DB	028H
	DB	00H
	DB	00H
	DB	00H
	DD	0714aH
	DW	05025H
	DB	028H
	DB	027H
	DB	022H
	DB	00H
	DB	028H
	DB	00H
	DB	00H
	DB	00H
	DD	07456H
	DW	05026H
	DB	028H
	DB	027H
	DB	022H
	DB	00H
	DB	028H
	DB	00H
	DB	00H
	DB	00H
	DD	07762H
	DW	05027H
	DB	028H
	DB	028H
	DB	022H
	DB	00H
	DB	028H
	DB	00H
	DB	00H
	DB	00H
	DD	07a82H
	DW	05028H
	DB	027H
	DB	027H
	DB	022H
	DB	00H
	DB	028H
	DB	00H
	DB	00H
	DB	00H
	DD	07d8eH
	DW	05029H
	DB	028H
	DB	028H
	DB	022H
	DB	00H
	DB	028H
	DB	00H
	DB	00H
	DB	00H
	DD	080aeH
	DW	0502aH
	DB	028H
	DB	028H
	DB	022H
	DB	00H
	DB	028H
	DB	00H
	DB	00H
	DB	00H
	DD	083ceH
	DW	0502bH
	DB	028H
	DB	028H
	DB	022H
	DB	00H
	DB	028H
	DB	00H
	DB	00H
	DB	00H
	DD	086eeH
	DW	0502cH
	DB	028H
	DB	027H
	DB	022H
	DB	00H
	DB	028H
	DB	00H
	DB	00H
	DB	00H
	DD	089faH
	DW	0502dH
	DB	028H
	DB	028H
	DB	022H
	DB	00H
	DB	028H
	DB	00H
	DB	00H
	DB	00H
	DD	08d1aH
	DW	0502eH
	DB	028H
	DB	027H
	DB	022H
	DB	00H
	DB	028H
	DB	00H
	DB	00H
	DB	00H
	DD	09026H
	DW	0502fH
	DB	028H
	DB	028H
	DB	022H
	DB	00H
	DB	028H
	DB	00H
	DB	00H
	DB	00H
	DD	09346H
	DW	05030H
	DB	028H
	DB	027H
	DB	022H
	DB	00H
	DB	028H
	DB	00H
	DB	00H
	DB	00H
	DD	09652H
	DW	05031H
	DB	028H
	DB	027H
	DB	022H
	DB	00H
	DB	028H
	DB	00H
	DB	00H
	DB	00H
	DD	0995eH
	DW	05032H
	DB	028H
	DB	027H
	DB	022H
	DB	00H
	DB	028H
	DB	00H
	DB	00H
	DB	00H
	DD	09c6aH
	DW	05033H
	DB	028H
	DB	027H
	DB	022H
	DB	00H
	DB	028H
	DB	00H
	DB	00H
	DB	00H
	DD	09f76H
	DW	05034H
	DB	028H
	DB	028H
	DB	022H
	DB	00H
	DB	028H
	DB	00H
	DB	00H
	DB	00H
	DD	0a296H
	DW	05035H
	DB	028H
	DB	028H
	DB	022H
	DB	00H
	DB	028H
	DB	00H
	DB	00H
	DB	00H
	DD	0a5b6H
	DW	05036H
	DB	028H
	DB	028H
	DB	022H
	DB	00H
	DB	028H
	DB	00H
	DB	00H
	DB	00H
	DD	0a8d6H
	DW	05037H
	DB	028H
	DB	028H
	DB	022H
	DB	00H
	DB	028H
	DB	00H
	DB	00H
	DB	00H
	DD	0abf6H
	DW	05038H
	DB	028H
	DB	027H
	DB	022H
	DB	00H
	DB	028H
	DB	00H
	DB	00H
	DB	00H
	DD	0af02H
	DW	05039H
	DB	028H
	DB	028H
	DB	022H
	DB	00H
	DB	028H
	DB	00H
	DB	00H
	DB	00H
	DD	0b222H
	DW	0503aH
	DB	028H
	DB	027H
	DB	021H
	DB	00H
	DB	028H
	DB	00H
	DB	00H
	DB	00H
	DD	0b52eH
	DW	0503bH
	DB	028H
	DB	027H
	DB	022H
	DB	00H
	DB	028H
	DB	00H
	DB	00H
	DB	00H
	DD	0b83aH
	DW	0503cH
	DB	028H
	DB	027H
	DB	022H
	DB	00H
	DB	028H
	DB	00H
	DB	00H
	DB	00H
	DD	0bb46H
	DW	0503dH
	DB	028H
	DB	028H
	DB	022H
	DB	00H
	DB	028H
	DB	00H
	DB	00H
	DB	00H
	DD	0be66H
	DW	0503eH
	DB	028H
	DB	028H
	DB	022H
	DB	00H
	DB	028H
	DB	00H
	DB	00H
	DB	00H
	DD	0c186H
	DW	0503fH
	DB	028H
	DB	028H
	DB	022H
	DB	00H
	DB	028H
	DB	00H
	DB	00H
	DB	00H
	DD	0c4a6H
	DW	05040H
	DB	028H
	DB	028H
	DB	022H
	DB	00H
	DB	028H
	DB	00H
	DB	00H
	DB	00H
	DD	0c7c6H
	DW	05041H
	DB	028H
	DB	028H
	DB	022H
	DB	00H
	DB	028H
	DB	00H
	DB	00H
	DB	00H
	DD	0cae6H
	DW	05042H
	DB	028H
	DB	028H
	DB	022H
	DB	00H
	DB	028H
	DB	00H
	DB	00H
	DB	00H
	DD	0ce06H
	DW	05043H
	DB	028H
	DB	027H
	DB	022H
	DB	00H
	DB	028H
	DB	00H
	DB	00H
	DB	00H
	DD	0d112H
	DW	05044H
	DB	028H
	DB	027H
	DB	022H
	DB	00H
	DB	028H
	DB	00H
	DB	00H
	DB	00H
	DD	0d41eH
	DW	05045H
	DB	027H
	DB	027H
	DB	022H
	DB	00H
	DB	028H
	DB	00H
	DB	00H
	DB	00H
	DD	0d72aH
	DW	05046H
	DB	028H
	DB	026H
	DB	021H
	DB	00H
	DB	028H
	DB	00H
	DB	00H
	DB	00H
	DD	0da22H
	DW	05047H
	DB	027H
	DB	028H
	DB	022H
	DB	00H
	DB	028H
	DB	00H
	DB	00H
	DB	00H
	DD	0dd42H
	DW	05048H
	DB	027H
	DB	027H
	DB	022H
	DB	00H
	DB	028H
	DB	00H
	DB	00H
	DB	00H
	DD	0e04eH
	DW	05049H
	DB	028H
	DB	027H
	DB	022H
	DB	00H
	DB	028H
	DB	00H
	DB	00H
	DB	00H
	DD	0e35aH
	DW	0504aH
	DB	027H
	DB	027H
	DB	021H
	DB	00H
	DB	028H
	DB	00H
	DB	00H
	DB	00H
	DD	0e666H
	DW	0504bH
	DB	028H
	DB	028H
	DB	022H
	DB	00H
	DB	028H
	DB	00H
	DB	00H
	DB	00H
	DD	0e986H
	DW	0504cH
	DB	028H
	DB	028H
	DB	022H
	DB	00H
	DB	028H
	DB	00H
	DB	00H
	DB	00H
	DD	0eca6H
	DW	0504dH
	DB	028H
	DB	028H
	DB	022H
	DB	00H
	DB	028H
	DB	00H
	DB	00H
	DB	00H
	DD	0efc6H
	DW	0504eH
	DB	028H
	DB	028H
	DB	022H
	DB	00H
	DB	028H
	DB	00H
	DB	00H
	DB	00H
	DD	0f2e6H
	DW	0504fH
	DB	027H
	DB	027H
	DB	022H
	DB	00H
	DB	028H
	DB	00H
	DB	00H
	DB	00H
	DD	0f5f2H
	DW	05050H
	DB	027H
	DB	028H
	DB	022H
	DB	00H
	DB	028H
	DB	00H
	DB	00H
	DB	00H
	DD	0f912H
	DW	05051H
	DB	028H
	DB	028H
	DB	022H
	DB	00H
	DB	028H
	DB	00H
	DB	00H
	DB	00H
	DD	0fc32H
	DW	05052H
	DB	028H
	DB	028H
	DB	022H
	DB	00H
	DB	028H
	DB	00H
	DB	00H
	DB	00H
	DD	0ff52H
	DW	05053H
	DB	028H
	DB	027H
	DB	022H
	DB	00H
	DB	028H
	DB	00H
	DB	00H
	DB	00H
	DD	01025eH
	DW	05054H
	DB	028H
	DB	027H
	DB	022H
	DB	00H
	DB	028H
	DB	00H
	DB	00H
	DB	00H
	DD	01056aH
	DW	05055H
	DB	028H
	DB	028H
	DB	022H
	DB	00H
	DB	028H
	DB	00H
	DB	00H
	DB	00H
	DD	01088aH
	DW	05056H
	DB	027H
	DB	027H
	DB	022H
	DB	00H
	DB	028H
	DB	00H
	DB	00H
	DB	00H
	DD	010b96H
	DW	05057H
	DB	028H
	DB	027H
	DB	022H
	DB	00H
	DB	028H
	DB	00H
	DB	00H
	DB	00H
	DD	010ea2H
	DW	05058H
	DB	027H
	DB	028H
	DB	022H
	DB	00H
	DB	028H
	DB	00H
	DB	00H
	DB	00H
	DD	0111c2H
	DW	05059H
	DB	028H
	DB	027H
	DB	022H
	DB	00H
	DB	028H
	DB	00H
	DB	00H
	DB	00H
	DD	0114ceH
	DW	0505aH
	DB	028H
	DB	027H
	DB	022H
	DB	00H
	DB	028H
	DB	00H
	DB	00H
	DB	00H
	DD	0117daH
	DW	0505bH
	DB	028H
	DB	027H
	DB	022H
	DB	00H
	DB	028H
	DB	00H
	DB	00H
	DB	00H
	DD	011ae6H
	DW	0505cH
	DB	028H
	DB	028H
	DB	022H
	DB	00H
	DB	028H
	DB	00H
	DB	00H
	DB	00H
	DD	011e06H
	DW	0505dH
	DB	028H
	DB	028H
	DB	022H
	DB	00H
	DB	028H
	DB	00H
	DB	00H
	DB	00H
	DD	012126H
	DW	0505eH
	DB	028H
	DB	027H
	DB	022H
	DB	00H
	DB	028H
	DB	00H
	DB	00H
	DB	00H
	DD	012432H
	DW	0505fH
	DB	028H
	DB	027H
	DB	022H
	DB	00H
	DB	028H
	DB	00H
	DB	00H
	DB	00H
	DD	01273eH
	DW	05060H
	DB	028H
	DB	027H
	DB	022H
	DB	00H
	DB	028H
	DB	00H
	DB	00H
	DB	00H
	DD	012a4aH
	DW	05061H
	DB	028H
	DB	027H
	DB	022H
	DB	00H
	DB	028H
	DB	00H
	DB	00H
	DB	00H
	DD	012d56H
	DW	05062H
	DB	028H
	DB	027H
	DB	022H
	DB	00H
	DB	028H
	DB	00H
	DB	00H
	DB	00H
	DD	013062H
	DW	05063H
	DB	028H
	DB	028H
	DB	022H
	DB	00H
	DB	028H
	DB	00H
	DB	00H
	DB	00H
	DD	013382H
	DW	05064H
	DB	027H
	DB	028H
	DB	022H
	DB	00H
	DB	028H
	DB	00H
	DB	00H
	DB	00H
	DD	0136a2H
	DW	05065H
	DB	028H
	DB	028H
	DB	022H
	DB	00H
	DB	028H
	DB	00H
	DB	00H
	DB	00H
	DD	0139c2H
	DW	05066H
	DB	027H
	DB	027H
	DB	022H
	DB	00H
	DB	028H
	DB	00H
	DB	00H
	DB	00H
	DD	013cceH
	DW	05067H
	DB	028H
	DB	027H
	DB	022H
	DB	00H
	DB	028H
	DB	00H
	DB	00H
	DB	00H
	DD	013fdaH
	DW	05068H
	DB	028H
	DB	027H
	DB	022H
	DB	00H
	DB	028H
	DB	00H
	DB	00H
	DB	00H
	DD	0142e6H
	DW	05069H
	DB	028H
	DB	027H
	DB	022H
	DB	00H
	DB	028H
	DB	00H
	DB	00H
	DB	00H
	DD	0145f2H
	DW	0506aH
	DB	026H
	DB	027H
	DB	022H
	DB	00H
	DB	028H
	DB	00H
	DB	00H
	DB	00H
	DD	0148d7H
	DW	0506bH
	DB	028H
	DB	027H
	DB	022H
	DB	00H
	DB	028H
	DB	00H
	DB	00H
	DB	00H
	DD	014be3H
	DW	0506cH
	DB	028H
	DB	027H
	DB	022H
	DB	00H
	DB	028H
	DB	00H
	DB	00H
	DB	00H
	DD	014eefH
	DW	0506dH
	DB	028H
	DB	027H
	DB	021H
	DB	00H
	DB	028H
	DB	00H
	DB	00H
	DB	00H
	DD	0151fbH
	DW	0506eH
	DB	028H
	DB	027H
	DB	022H
	DB	00H
	DB	028H
	DB	00H
	DB	00H
	DB	00H
	DD	015507H
	DW	0506fH
	DB	028H
	DB	028H
	DB	022H
	DB	00H
	DB	028H
	DB	00H
	DB	00H
	DB	00H
	DD	015827H
	DW	05070H
	DB	028H
	DB	028H
	DB	022H
	DB	00H
	DB	028H
	DB	00H
	DB	00H
	DB	00H
	DD	015b47H
	DW	05071H
	DB	027H
	DB	027H
	DB	022H
	DB	00H
	DB	028H
	DB	00H
	DB	00H
	DB	00H
	DD	015e53H
	DW	05072H
	DB	028H
	DB	027H
	DB	022H
	DB	00H
	DB	028H
	DB	00H
	DB	00H
	DB	00H
	DD	01615fH
	DW	05073H
	DB	028H
	DB	027H
	DB	022H
	DB	00H
	DB	028H
	DB	00H
	DB	00H
	DB	00H
	DD	01646bH
	DW	05074H
	DB	026H
	DB	028H
	DB	022H
	DB	00H
	DB	028H
	DB	00H
	DB	00H
	DB	00H
	DD	016763H
	DW	05075H
	DB	028H
	DB	028H
	DB	022H
	DB	00H
	DB	028H
	DB	00H
	DB	00H
	DB	00H
	DD	016a83H
	DW	05076H
	DB	027H
	DB	027H
	DB	022H
	DB	00H
	DB	028H
	DB	00H
	DB	00H
	DB	00H
	DD	016d8fH
	DW	05077H
	DB	028H
	DB	028H
	DB	022H
	DB	00H
	DB	028H
	DB	00H
	DB	00H
	DB	00H
	DD	0170afH
	DW	05078H
	DB	028H
	DB	028H
	DB	022H
	DB	00H
	DB	028H
	DB	00H
	DB	00H
	DB	00H
	DD	0173cfH
	DW	05079H
	DB	028H
	DB	027H
	DB	022H
	DB	00H
	DB	028H
	DB	00H
	DB	00H
	DB	00H
	DD	0176dbH
	DW	0507aH
	DB	028H
	DB	028H
	DB	022H
	DB	00H
	DB	028H
	DB	00H
	DB	00H
	DB	00H
	DD	0179fbH
	DW	0507bH
	DB	028H
	DB	028H
	DB	022H
	DB	00H
	DB	028H
	DB	00H
	DB	00H
	DB	00H
	DD	017d1bH
	DW	0507cH
	DB	028H
	DB	028H
	DB	022H
	DB	00H
	DB	028H
	DB	00H
	DB	00H
	DB	00H
	DD	01803bH
	DW	0507dH
	DB	027H
	DB	028H
	DB	022H
	DB	00H
	DB	028H
	DB	00H
	DB	00H
	DB	00H
	DD	01835bH
	DW	0507eH
	DB	028H
	DB	027H
	DB	022H
	DB	00H
	DB	028H
	DB	00H
	DB	00H
	DB	00H
	DD	018667H
	DW	0507fH
	DB	028H
	DB	028H
	DB	022H
	DB	00H
	DB	028H
	DB	00H
	DB	00H
	DB	00H
	DD	018987H
	DW	05080H
	DB	027H
	DB	027H
	DB	022H
	DB	00H
	DB	028H
	DB	00H
	DB	00H
	DB	00H
	DD	018c93H
	DW	05081H
	DB	028H
	DB	028H
	DB	022H
	DB	00H
	DB	028H
	DB	00H
	DB	00H
	DB	00H
	DD	018fb3H
	DW	05082H
	DB	028H
	DB	028H
	DB	022H
	DB	00H
	DB	028H
	DB	00H
	DB	00H
	DB	00H
	DD	0192d3H
	DW	05083H
	DB	028H
	DB	027H
	DB	022H
	DB	00H
	DB	028H
	DB	00H
	DB	00H
	DB	00H
	DD	0195dfH
	DW	05084H
	DB	028H
	DB	027H
	DB	022H
	DB	00H
	DB	028H
	DB	00H
	DB	00H
	DB	00H
	DD	0198ebH
	DW	05085H
	DB	028H
	DB	028H
	DB	022H
	DB	00H
	DB	028H
	DB	00H
	DB	00H
	DB	00H
	DD	019c0bH
	DW	05086H
	DB	028H
	DB	028H
	DB	022H
	DB	00H
	DB	028H
	DB	00H
	DB	00H
	DB	00H
	DD	019f2bH
	DW	05087H
	DB	028H
	DB	027H
	DB	022H
	DB	00H
	DB	028H
	DB	00H
	DB	00H
	DB	00H
	DD	01a237H
	DW	05088H
	DB	028H
	DB	027H
	DB	022H
	DB	00H
	DB	028H
	DB	00H
	DB	00H
	DB	00H
	DD	01a543H
	DW	05089H
	DB	027H
	DB	028H
	DB	022H
	DB	01H
	DB	028H
	DB	00H
	DB	00H
	DB	00H
	DD	01a863H
	DW	0508aH
	DB	028H
	DB	028H
	DB	022H
	DB	00H
	DB	028H
	DB	00H
	DB	00H
	DB	00H
	DD	01ab83H
	DW	0508bH
	DB	028H
	DB	027H
	DB	022H
	DB	00H
	DB	028H
	DB	00H
	DB	00H
	DB	00H
	DD	01ae8fH
	DW	0508cH
	DB	027H
	DB	027H
	DB	022H
	DB	00H
	DB	028H
	DB	00H
	DB	00H
	DB	00H
	DD	01b19bH
	DW	0508dH
	DB	027H
	DB	027H
	DB	021H
	DB	00H
	DB	028H
	DB	00H
	DB	00H
	DB	00H
	DD	01b4a7H
	DW	0508eH
	DB	028H
	DB	028H
	DB	022H
	DB	00H
	DB	028H
	DB	00H
	DB	00H
	DB	00H
	DD	01b7c7H
	DW	0508fH
	DB	028H
	DB	027H
	DB	022H
	DB	00H
	DB	028H
	DB	00H
	DB	00H
	DB	00H
	DD	01bad3H
	DW	05090H
	DB	027H
	DB	027H
	DB	022H
	DB	00H
	DB	028H
	DB	00H
	DB	00H
	DB	00H
	DD	01bddfH
	DW	05091H
	DB	028H
	DB	027H
	DB	022H
	DB	00H
	DB	028H
	DB	00H
	DB	00H
	DB	00H
	DD	01c0ebH
	DW	05092H
	DB	028H
	DB	028H
	DB	022H
	DB	00H
	DB	028H
	DB	00H
	DB	00H
	DB	00H
	DD	01c40bH
	DW	05093H
	DB	026H
	DB	028H
	DB	022H
	DB	00H
	DB	028H
	DB	00H
	DB	00H
	DB	00H
	DD	01c703H
	DW	05094H
	DB	028H
	DB	027H
	DB	022H
	DB	00H
	DB	028H
	DB	00H
	DB	00H
	DB	00H
	DD	01ca0fH
	DW	05095H
	DB	027H
	DB	027H
	DB	022H
	DB	00H
	DB	028H
	DB	00H
	DB	00H
	DB	00H
	DD	01cd1bH
	DW	05096H
	DB	028H
	DB	027H
	DB	021H
	DB	00H
	DB	028H
	DB	00H
	DB	00H
	DB	00H
	DD	01d027H
	DW	05097H
	DB	028H
	DB	027H
	DB	022H
	DB	00H
	DB	028H
	DB	00H
	DB	00H
	DB	00H
	DD	01d333H
	DW	05098H
	DB	028H
	DB	027H
	DB	022H
	DB	00H
	DB	028H
	DB	00H
	DB	00H
	DB	00H
	DD	01d63fH
	DW	05099H
	DB	028H
	DB	028H
	DB	022H
	DB	00H
	DB	028H
	DB	00H
	DB	00H
	DB	00H
	DD	01d95fH
	DW	0509aH
	DB	028H
	DB	027H
	DB	022H
	DB	00H
	DB	028H
	DB	00H
	DB	00H
	DB	00H
	DD	01dc6bH
	DW	0509bH
	DB	028H
	DB	027H
	DB	022H
	DB	00H
	DB	028H
	DB	00H
	DB	00H
	DB	00H
	DD	01df77H
	DW	0509cH
	DB	028H
	DB	026H
	DB	021H
	DB	00H
	DB	028H
	DB	00H
	DB	00H
	DB	00H
	DD	01e26fH
	DW	0509dH
	DB	027H
	DB	028H
	DB	022H
	DB	00H
	DB	028H
	DB	00H
	DB	00H
	DB	00H
	DD	01e58fH
	DW	0509eH
	DB	028H
	DB	027H
	DB	022H
	DB	00H
	DB	028H
	DB	00H
	DB	00H
	DB	00H
	DD	01e89bH
	DW	0509fH
	DB	028H
	DB	028H
	DB	022H
	DB	00H
	DB	028H
	DB	00H
	DB	00H
	DB	00H
	DD	01ebbbH
	DW	050a0H
	DB	028H
	DB	027H
	DB	022H
	DB	00H
	DB	028H
	DB	00H
	DB	00H
	DB	00H
	DD	01eec7H
	DW	050a1H
	DB	028H
	DB	027H
	DB	022H
	DB	00H
	DB	028H
	DB	00H
	DB	00H
	DB	00H
	DD	01f1d3H
	DW	050a2H
	DB	028H
	DB	027H
	DB	022H
	DB	00H
	DB	028H
	DB	00H
	DB	00H
	DB	00H
	DD	01f4dfH
	DW	050a3H
	DB	028H
	DB	027H
	DB	022H
	DB	00H
	DB	028H
	DB	00H
	DB	00H
	DB	00H
	DD	01f7ebH
	DW	050a4H
	DB	028H
	DB	027H
	DB	022H
	DB	00H
	DB	028H
	DB	00H
	DB	00H
	DB	00H
	DD	01faf7H
	DW	050a5H
	DB	028H
	DB	028H
	DB	022H
	DB	00H
	DB	028H
	DB	00H
	DB	00H
	DB	00H
	DD	01fe17H
	DW	050a6H
	DB	027H
	DB	028H
	DB	022H
	DB	00H
	DB	028H
	DB	00H
	DB	00H
	DB	00H
	DD	020137H
	DW	050a7H
	DB	028H
	DB	028H
	DB	022H
	DB	00H
	DB	028H
	DB	00H
	DB	00H
	DB	00H
	DD	020457H
	DW	050a8H
	DB	028H
	DB	028H
	DB	022H
	DB	00H
	DB	028H
	DB	00H
	DB	00H
	DB	00H
	DD	020777H
	DW	050a9H
	DB	028H
	DB	027H
	DB	022H
	DB	00H
	DB	028H
	DB	00H
	DB	00H
	DB	00H
	DD	020a83H
	DW	050aaH
	DB	028H
	DB	028H
	DB	022H
	DB	00H
	DB	028H
	DB	00H
	DB	00H
	DB	00H
	DD	020da3H
	DW	050abH
	DB	027H
	DB	028H
	DB	022H
	DB	00H
	DB	028H
	DB	00H
	DB	00H
	DB	00H
	DD	0210c3H
	DW	050acH
	DB	028H
	DB	027H
	DB	022H
	DB	00H
	DB	028H
	DB	00H
	DB	00H
	DB	00H
	DD	0213cfH
	DW	050adH
	DB	028H
	DB	028H
	DB	022H
	DB	00H
	DB	028H
	DB	00H
	DB	00H
	DB	00H
	DD	0216efH
	DW	050aeH
	DB	028H
	DB	027H
	DB	022H
	DB	00H
	DB	028H
	DB	00H
	DB	00H
	DB	00H
	DD	0219fbH
	DW	050afH
	DB	028H
	DB	027H
	DB	022H
	DB	00H
	DB	028H
	DB	00H
	DB	00H
	DB	00H
	DD	021d07H
	DW	050b0H
	DB	026H
	DB	028H
	DB	022H
	DB	00H
	DB	028H
	DB	00H
	DB	00H
	DB	00H
	DD	021fffH
	DW	050b1H
	DB	028H
	DB	028H
	DB	022H
	DB	00H
	DB	028H
	DB	00H
	DB	00H
	DB	00H
	DD	02231fH
	DW	050b2H
	DB	028H
	DB	027H
	DB	022H
	DB	00H
	DB	028H
	DB	00H
	DB	00H
	DB	00H
	DD	02262bH
	DW	050b3H
	DB	027H
	DB	028H
	DB	022H
	DB	00H
	DB	028H
	DB	00H
	DB	00H
	DB	00H
	DD	02294bH
	DW	050b4H
	DB	028H
	DB	027H
	DB	022H
	DB	00H
	DB	028H
	DB	00H
	DB	00H
	DB	00H
	DD	022c57H
	DW	050b5H
	DB	028H
	DB	028H
	DB	022H
	DB	00H
	DB	028H
	DB	00H
	DB	00H
	DB	00H
	DD	022f77H
	DW	050b6H
	DB	028H
	DB	028H
	DB	022H
	DB	00H
	DB	028H
	DB	00H
	DB	00H
	DB	00H
	DD	023297H
	DW	050b7H
	DB	028H
	DB	028H
	DB	022H
	DB	00H
	DB	028H
	DB	00H
	DB	00H
	DB	00H
	DD	0235b7H
	DW	050b8H
	DB	028H
	DB	028H
	DB	022H
	DB	00H
	DB	028H
	DB	00H
	DB	00H
	DB	00H
	DD	0238d7H
	DW	050b9H
	DB	027H
	DB	028H
	DB	022H
	DB	00H
	DB	028H
	DB	00H
	DB	00H
	DB	00H
	DD	023bf7H
	DW	050baH
	DB	028H
	DB	028H
	DB	022H
	DB	00H
	DB	028H
	DB	00H
	DB	00H
	DB	00H
	DD	023f17H
	DW	050bbH
	DB	028H
	DB	028H
	DB	022H
	DB	00H
	DB	028H
	DB	00H
	DB	00H
	DB	00H
	DD	024237H
	DW	050bcH
	DB	028H
	DB	028H
	DB	022H
	DB	00H
	DB	028H
	DB	00H
	DB	00H
	DB	00H
	DD	024557H
	DW	050bdH
	DB	028H
	DB	027H
	DB	022H
	DB	00H
	DB	028H
	DB	00H
	DB	00H
	DB	00H
	DD	024863H
	DW	050beH
	DB	028H
	DB	028H
	DB	022H
	DB	00H
	DB	028H
	DB	00H
	DB	00H
	DB	00H
	DD	024b83H
	DW	050bfH
	DB	027H
	DB	028H
	DB	022H
	DB	00H
	DB	028H
	DB	00H
	DB	00H
	DB	00H
	DD	024ea3H
	DW	050c0H
	DB	028H
	DB	027H
	DB	022H
	DB	00H
	DB	028H
	DB	00H
	DB	00H
	DB	00H
	DD	0251afH
	DW	050c1H
	DB	028H
	DB	027H
	DB	022H
	DB	00H
	DB	028H
	DB	00H
	DB	00H
	DB	00H
	DD	0254bbH
	DW	050c2H
	DB	028H
	DB	027H
	DB	022H
	DB	00H
	DB	028H
	DB	00H
	DB	00H
	DB	00H
	DD	0257c7H
	DW	050c3H
	DB	027H
	DB	028H
	DB	022H
	DB	00H
	DB	028H
	DB	00H
	DB	00H
	DB	00H
	DD	025ae7H
	DW	050c4H
	DB	028H
	DB	028H
	DB	022H
	DB	00H
	DB	028H
	DB	00H
	DB	00H
	DB	00H
	DD	025e07H
	DW	050c5H
	DB	028H
	DB	027H
	DB	022H
	DB	00H
	DB	028H
	DB	00H
	DB	00H
	DB	00H
	DD	026113H
	DW	050c6H
	DB	028H
	DB	028H
	DB	022H
	DB	00H
	DB	028H
	DB	00H
	DB	00H
	DB	00H
	DD	026433H
	DW	050c7H
	DB	028H
	DB	027H
	DB	022H
	DB	00H
	DB	028H
	DB	00H
	DB	00H
	DB	00H
	DD	02673fH
	DW	050c8H
	DB	028H
	DB	027H
	DB	022H
	DB	00H
	DB	028H
	DB	00H
	DB	00H
	DB	00H
	DD	026a4bH
	DW	050c9H
	DB	028H
	DB	028H
	DB	022H
	DB	00H
	DB	028H
	DB	00H
	DB	00H
	DB	00H
	DD	026d6bH
	DW	050caH
	DB	028H
	DB	027H
	DB	022H
	DB	00H
	DB	028H
	DB	00H
	DB	00H
	DB	00H
	DD	027077H
	DW	050cbH
	DB	028H
	DB	027H
	DB	022H
	DB	00H
	DB	028H
	DB	00H
	DB	00H
	DB	00H
	DD	027383H
	DW	050ccH
	DB	028H
	DB	027H
	DB	022H
	DB	00H
	DB	028H
	DB	00H
	DB	00H
	DB	00H
	DD	02768fH
	DW	050cdH
	DB	027H
	DB	027H
	DB	022H
	DB	00H
	DB	028H
	DB	00H
	DB	00H
	DB	00H
	DD	02799bH
	DW	050ceH
	DB	028H
	DB	027H
	DB	022H
	DB	00H
	DB	028H
	DB	00H
	DB	00H
	DB	00H
	DD	027ca7H
	DW	050cfH
	DB	028H
	DB	028H
	DB	022H
	DB	00H
	DB	028H
	DB	00H
	DB	00H
	DB	00H
	DD	027fc7H
	DW	050d0H
	DB	028H
	DB	027H
	DB	022H
	DB	00H
	DB	028H
	DB	00H
	DB	00H
	DB	00H
	DD	0282d3H
	DW	050d1H
	DB	028H
	DB	028H
	DB	022H
	DB	00H
	DB	028H
	DB	00H
	DB	00H
	DB	00H
	DD	0285f3H
	DW	050d2H
	DB	028H
	DB	027H
	DB	022H
	DB	00H
	DB	028H
	DB	00H
	DB	00H
	DB	00H
	DD	0288ffH
	DW	050d3H
	DB	028H
	DB	028H
	DB	022H
	DB	00H
	DB	028H
	DB	00H
	DB	00H
	DB	00H
	DD	028c1fH
	DW	050d4H
	DB	028H
	DB	028H
	DB	022H
	DB	00H
	DB	028H
	DB	00H
	DB	00H
	DB	00H
	DD	028f3fH
	DW	050d5H
	DB	028H
	DB	027H
	DB	022H
	DB	00H
	DB	028H
	DB	00H
	DB	00H
	DB	00H
	DD	02924bH
	DW	050d6H
	DB	028H
	DB	027H
	DB	022H
	DB	00H
	DB	028H
	DB	00H
	DB	00H
	DB	00H
	DD	029557H
	DW	050d7H
	DB	028H
	DB	028H
	DB	022H
	DB	00H
	DB	028H
	DB	00H
	DB	00H
	DB	00H
	DD	029877H
	DW	050d8H
	DB	028H
	DB	028H
	DB	022H
	DB	00H
	DB	028H
	DB	00H
	DB	00H
	DB	00H
	DD	029b97H
	DW	050d9H
	DB	028H
	DB	028H
	DB	022H
	DB	00H
	DB	028H
	DB	00H
	DB	00H
	DB	00H
	DD	029eb7H
	DW	050daH
	DB	028H
	DB	028H
	DB	022H
	DB	00H
	DB	028H
	DB	00H
	DB	00H
	DB	00H
	DD	02a1d7H
	DW	050dbH
	DB	028H
	DB	027H
	DB	022H
	DB	00H
	DB	028H
	DB	00H
	DB	00H
	DB	00H
	DD	02a4e3H
	DW	050dcH
	DB	028H
	DB	027H
	DB	022H
	DB	00H
	DB	028H
	DB	00H
	DB	00H
	DB	00H
	DD	02a7efH
	DW	050ddH
	DB	028H
	DB	027H
	DB	022H
	DB	00H
	DB	028H
	DB	00H
	DB	00H
	DB	00H
	DD	02aafbH
	DW	050deH
	DB	027H
	DB	028H
	DB	022H
	DB	00H
	DB	028H
	DB	00H
	DB	00H
	DB	00H
	DD	02ae1bH
	DW	050dfH
	DB	028H
	DB	027H
	DB	022H
	DB	00H
	DB	028H
	DB	00H
	DB	00H
	DB	00H
	DD	02b127H
	DW	050e0H
	DB	028H
	DB	027H
	DB	022H
	DB	00H
	DB	028H
	DB	00H
	DB	00H
	DB	00H
	DD	02b433H
	DW	050e1H
	DB	028H
	DB	027H
	DB	022H
	DB	00H
	DB	028H
	DB	00H
	DB	00H
	DB	00H
	DD	02b73fH
	DW	050e2H
	DB	028H
	DB	028H
	DB	022H
	DB	00H
	DB	028H
	DB	00H
	DB	00H
	DB	00H
	DD	02ba5fH
	DW	050e3H
	DB	028H
	DB	027H
	DB	022H
	DB	00H
	DB	028H
	DB	00H
	DB	00H
	DB	00H
	DD	02bd6bH
	DW	050e4H
	DB	028H
	DB	027H
	DB	022H
	DB	00H
	DB	028H
	DB	00H
	DB	00H
	DB	00H
	DD	02c077H
	DW	050e5H
	DB	028H
	DB	028H
	DB	022H
	DB	00H
	DB	028H
	DB	00H
	DB	00H
	DB	00H
	DD	02c397H
	DW	050e6H
	DB	028H
	DB	028H
	DB	022H
	DB	00H
	DB	028H
	DB	00H
	DB	00H
	DB	00H
	DD	02c6b7H
	DW	050e7H
	DB	026H
	DB	027H
	DB	022H
	DB	00H
	DB	028H
	DB	00H
	DB	00H
	DB	00H
	DD	02c99cH
	DW	050e8H
	DB	027H
	DB	028H
	DB	022H
	DB	00H
	DB	028H
	DB	00H
	DB	00H
	DB	00H
	DD	02ccbcH
	DW	050e9H
	DB	026H
	DB	028H
	DB	022H
	DB	00H
	DB	028H
	DB	00H
	DB	00H
	DB	00H
	DD	02cfb4H
	DW	050eaH
	DB	027H
	DB	028H
	DB	022H
	DB	00H
	DB	028H
	DB	00H
	DB	00H
	DB	00H
	DD	02d2d4H
	DW	050ebH
	DB	028H
	DB	027H
	DB	022H
	DB	00H
	DB	028H
	DB	00H
	DB	00H
	DB	00H
	DD	02d5e0H
	DW	050ecH
	DB	028H
	DB	028H
	DB	022H
	DB	00H
	DB	028H
	DB	00H
	DB	00H
	DB	00H
	DD	02d900H
	DW	050edH
	DB	028H
	DB	027H
	DB	022H
	DB	00H
	DB	028H
	DB	00H
	DB	00H
	DB	00H
	DD	02dc0cH
	DW	050eeH
	DB	028H
	DB	027H
	DB	022H
	DB	00H
	DB	028H
	DB	00H
	DB	00H
	DB	00H
	DD	02df18H
	DW	050efH
	DB	028H
	DB	028H
	DB	022H
	DB	00H
	DB	028H
	DB	00H
	DB	00H
	DB	00H
	DD	02e238H
	DW	050f0H
	DB	028H
	DB	027H
	DB	021H
	DB	00H
	DB	028H
	DB	00H
	DB	00H
	DB	00H
	DD	02e544H
	DW	050f1H
	DB	027H
	DB	027H
	DB	022H
	DB	00H
	DB	028H
	DB	00H
	DB	00H
	DB	00H
	DD	02e850H
	DW	050f2H
	DB	028H
	DB	028H
	DB	022H
	DB	00H
	DB	028H
	DB	00H
	DB	00H
	DB	00H
	DD	02eb70H
	DW	050f3H
	DB	028H
	DB	027H
	DB	022H
	DB	00H
	DB	028H
	DB	00H
	DB	00H
	DB	00H
	DD	02ee7cH
	DW	050f4H
	DB	026H
	DB	028H
	DB	022H
	DB	00H
	DB	028H
	DB	00H
	DB	00H
	DB	00H
	DD	02f174H
	DW	050f5H
	DB	028H
	DB	027H
	DB	022H
	DB	00H
	DB	028H
	DB	00H
	DB	00H
	DB	00H
	DD	02f480H
	DW	050f6H
	DB	028H
	DB	027H
	DB	022H
	DB	00H
	DB	028H
	DB	00H
	DB	00H
	DB	00H
	DD	02f78cH
	DW	050f7H
	DB	028H
	DB	027H
	DB	022H
	DB	00H
	DB	028H
	DB	00H
	DB	00H
	DB	00H
	DD	02fa98H
	DW	050f8H
	DB	028H
	DB	028H
	DB	022H
	DB	00H
	DB	028H
	DB	00H
	DB	00H
	DB	00H
	DD	02fdb8H
	DW	050f9H
	DB	028H
	DB	028H
	DB	022H
	DB	00H
	DB	028H
	DB	00H
	DB	00H
	DB	00H
	DD	0300d8H
	DW	050faH
	DB	028H
	DB	027H
	DB	022H
	DB	00H
	DB	028H
	DB	00H
	DB	00H
	DB	00H
	DD	0303e4H
	DW	050fbH
	DB	028H
	DB	027H
	DB	022H
	DB	00H
	DB	028H
	DB	00H
	DB	00H
	DB	00H
	DD	0306f0H
	DW	050fcH
	DB	028H
	DB	027H
	DB	022H
	DB	00H
	DB	028H
	DB	00H
	DB	00H
	DB	00H
	DD	0309fcH
	DW	050fdH
	DB	028H
	DB	027H
	DB	022H
	DB	00H
	DB	028H
	DB	00H
	DB	00H
	DB	00H
	DD	030d08H
	DW	050feH
	DB	028H
	DB	027H
	DB	022H
	DB	00H
	DB	028H
	DB	00H
	DB	00H
	DB	00H
	DD	031014H
	DW	050ffH
	DB	028H
	DB	027H
	DB	022H
	DB	00H
	DB	028H
	DB	00H
	DB	00H
	DB	00H
	DD	031320H
	DW	05100H
	DB	028H
	DB	027H
	DB	022H
	DB	00H
	DB	028H
	DB	00H
	DB	00H
	DB	00H
	DD	03162cH
	DW	05101H
	DB	027H
	DB	027H
	DB	022H
	DB	00H
	DB	028H
	DB	00H
	DB	00H
	DB	00H
	DD	031938H
	DW	05102H
	DB	028H
	DB	028H
	DB	022H
	DB	00H
	DB	028H
	DB	00H
	DB	00H
	DB	00H
	DD	031c58H
	DW	05103H
	DB	028H
	DB	027H
	DB	022H
	DB	00H
	DB	028H
	DB	00H
	DB	00H
	DB	00H
	DD	031f64H
	DW	05104H
	DB	028H
	DB	027H
	DB	022H
	DB	00H
	DB	028H
	DB	00H
	DB	00H
	DB	00H
	DD	032270H
	DW	05105H
	DB	027H
	DB	028H
	DB	022H
	DB	00H
	DB	028H
	DB	00H
	DB	00H
	DB	00H
	DD	032590H
	DW	05106H
	DB	028H
	DB	027H
	DB	022H
	DB	00H
	DB	028H
	DB	00H
	DB	00H
	DB	00H
	DD	03289cH
	DW	05107H
	DB	028H
	DB	027H
	DB	022H
	DB	00H
	DB	028H
	DB	00H
	DB	00H
	DB	00H
	DD	032ba8H
	DW	05108H
	DB	027H
	DB	027H
	DB	022H
	DB	00H
	DB	028H
	DB	00H
	DB	00H
	DB	00H
	DD	032eb4H
	DW	05109H
	DB	028H
	DB	028H
	DB	022H
	DB	00H
	DB	028H
	DB	00H
	DB	00H
	DB	00H
	DD	0331d4H
	DW	0510aH
	DB	028H
	DB	027H
	DB	021H
	DB	00H
	DB	028H
	DB	00H
	DB	00H
	DB	00H
	DD	0334e0H
	DW	0510bH
	DB	028H
	DB	027H
	DB	022H
	DB	00H
	DB	028H
	DB	00H
	DB	00H
	DB	00H
	DD	0337ecH
	DW	0510cH
	DB	028H
	DB	027H
	DB	022H
	DB	00H
	DB	028H
	DB	00H
	DB	00H
	DB	00H
	DD	033af8H
	DW	0510dH
	DB	028H
	DB	027H
	DB	021H
	DB	00H
	DB	028H
	DB	00H
	DB	00H
	DB	00H
	DD	033e04H
	DW	0510eH
	DB	028H
	DB	027H
	DB	022H
	DB	00H
	DB	028H
	DB	00H
	DB	00H
	DB	00H
	DD	034110H
	DW	0510fH
	DB	028H
	DB	027H
	DB	022H
	DB	00H
	DB	028H
	DB	00H
	DB	00H
	DB	00H
	DD	03441cH
	DW	05110H
	DB	028H
	DB	028H
	DB	022H
	DB	00H
	DB	028H
	DB	00H
	DB	00H
	DB	00H
	DD	03473cH
	DW	05111H
	DB	028H
	DB	028H
	DB	022H
	DB	00H
	DB	028H
	DB	00H
	DB	00H
	DB	00H
	DD	034a5cH
	DW	05112H
	DB	028H
	DB	028H
	DB	022H
	DB	00H
	DB	028H
	DB	00H
	DB	00H
	DB	00H
	DD	034d7cH
	DW	05113H
	DB	028H
	DB	027H
	DB	022H
	DB	00H
	DB	028H
	DB	00H
	DB	00H
	DB	00H
	DD	035088H
	DW	05114H
	DB	027H
	DB	028H
	DB	022H
	DB	00H
	DB	028H
	DB	00H
	DB	00H
	DB	00H
	DD	0353a8H
	DW	05115H
	DB	028H
	DB	028H
	DB	022H
	DB	00H
	DB	028H
	DB	00H
	DB	00H
	DB	00H
	DD	0356c8H
	DW	05116H
	DB	028H
	DB	027H
	DB	022H
	DB	00H
	DB	028H
	DB	00H
	DB	00H
	DB	00H
	DD	0359d4H
	DW	05117H
	DB	028H
	DB	028H
	DB	022H
	DB	00H
	DB	028H
	DB	00H
	DB	00H
	DB	00H
	DD	035cf4H
	DW	05118H
	DB	028H
	DB	027H
	DB	022H
	DB	00H
	DB	028H
	DB	00H
	DB	00H
	DB	00H
	DD	036000H
	DW	05119H
	DB	028H
	DB	028H
	DB	022H
	DB	00H
	DB	028H
	DB	00H
	DB	00H
	DB	00H
	DD	036320H
	DW	0511aH
	DB	027H
	DB	027H
	DB	021H
	DB	00H
	DB	028H
	DB	00H
	DB	00H
	DB	00H
	DD	03662cH
	DW	0511bH
	DB	028H
	DB	028H
	DB	022H
	DB	00H
	DB	028H
	DB	00H
	DB	00H
	DB	00H
	DD	03694cH
	DW	0511cH
	DB	028H
	DB	028H
	DB	022H
	DB	00H
	DB	028H
	DB	00H
	DB	00H
	DB	00H
	DD	036c6cH
	DW	0511dH
	DB	028H
	DB	027H
	DB	022H
	DB	00H
	DB	028H
	DB	00H
	DB	00H
	DB	00H
	DD	036f78H
	DW	0511eH
	DB	028H
	DB	027H
	DB	022H
	DB	00H
	DB	028H
	DB	00H
	DB	00H
	DB	00H
	DD	037284H
	DW	0511fH
	DB	027H
	DB	028H
	DB	022H
	DB	00H
	DB	028H
	DB	00H
	DB	00H
	DB	00H
	DD	0375a4H
	DW	05120H
	DB	028H
	DB	027H
	DB	022H
	DB	00H
	DB	028H
	DB	00H
	DB	00H
	DB	00H
	DD	0378b0H
	DW	05121H
	DB	027H
	DB	027H
	DB	021H
	DB	00H
	DB	028H
	DB	00H
	DB	00H
	DB	00H
	DD	037bbcH
	DW	05122H
	DB	028H
	DB	028H
	DB	022H
	DB	00H
	DB	028H
	DB	00H
	DB	00H
	DB	00H
	DD	037edcH
	DW	05123H
	DB	028H
	DB	027H
	DB	022H
	DB	00H
	DB	028H
	DB	00H
	DB	00H
	DB	00H
	DD	0381e8H
	DW	05124H
	DB	028H
	DB	027H
	DB	022H
	DB	00H
	DB	028H
	DB	00H
	DB	00H
	DB	00H
	DD	0384f4H
	DW	05125H
	DB	028H
	DB	028H
	DB	022H
	DB	00H
	DB	028H
	DB	00H
	DB	00H
	DB	00H
	DD	038814H
	DW	05126H
	DB	028H
	DB	028H
	DB	022H
	DB	00H
	DB	028H
	DB	00H
	DB	00H
	DB	00H
	DD	038b34H
	DW	05127H
	DB	028H
	DB	028H
	DB	022H
	DB	00H
	DB	028H
	DB	00H
	DB	00H
	DB	00H
	DD	038e54H
	DW	05128H
	DB	028H
	DB	027H
	DB	021H
	DB	00H
	DB	028H
	DB	00H
	DB	00H
	DB	00H
	DD	039160H
	DW	05129H
	DB	027H
	DB	028H
	DB	022H
	DB	00H
	DB	028H
	DB	00H
	DB	00H
	DB	00H
	DD	039480H
	DW	0512aH
	DB	028H
	DB	028H
	DB	022H
	DB	00H
	DB	028H
	DB	00H
	DB	00H
	DB	00H
	DD	0397a0H
	DW	0512bH
	DB	027H
	DB	027H
	DB	022H
	DB	00H
	DB	028H
	DB	00H
	DB	00H
	DB	00H
	DD	039aacH
	DW	0512cH
	DB	028H
	DB	028H
	DB	022H
	DB	00H
	DB	028H
	DB	00H
	DB	00H
	DB	00H
	DD	039dccH
	DW	0512dH
	DB	028H
	DB	028H
	DB	022H
	DB	00H
	DB	028H
	DB	00H
	DB	00H
	DB	00H
	DD	03a0ecH
	DW	0512eH
	DB	028H
	DB	027H
	DB	022H
	DB	00H
	DB	028H
	DB	00H
	DB	00H
	DB	00H
	DD	03a3f8H
	DW	0512fH
	DB	028H
	DB	027H
	DB	022H
	DB	00H
	DB	028H
	DB	00H
	DB	00H
	DB	00H
	DD	03a704H
	DW	05130H
	DB	028H
	DB	027H
	DB	022H
	DB	00H
	DB	028H
	DB	00H
	DB	00H
	DB	00H
	DD	03aa10H
	DW	05131H
	DB	028H
	DB	027H
	DB	022H
	DB	00H
	DB	028H
	DB	00H
	DB	00H
	DB	00H
	DD	03ad1cH
	DW	05132H
	DB	028H
	DB	028H
	DB	022H
	DB	00H
	DB	028H
	DB	00H
	DB	00H
	DB	00H
	DD	03b03cH
	DW	05133H
	DB	028H
	DB	028H
	DB	022H
	DB	00H
	DB	028H
	DB	00H
	DB	00H
	DB	00H
	DD	03b35cH
	DW	05134H
	DB	028H
	DB	028H
	DB	022H
	DB	00H
	DB	028H
	DB	00H
	DB	00H
	DB	00H
	DD	03b67cH
	DW	05135H
	DB	028H
	DB	028H
	DB	022H
	DB	00H
	DB	028H
	DB	00H
	DB	00H
	DB	00H
	DD	03b99cH
	DW	05136H
	DB	027H
	DB	026H
	DB	021H
	DB	00H
	DB	028H
	DB	00H
	DB	00H
	DB	00H
	DD	03bc94H
	DW	05137H
	DB	028H
	DB	028H
	DB	022H
	DB	00H
	DB	028H
	DB	00H
	DB	00H
	DB	00H
	DD	03bfb4H
	DW	05138H
	DB	028H
	DB	028H
	DB	022H
	DB	00H
	DB	028H
	DB	00H
	DB	00H
	DB	00H
	DD	03c2d4H
	DW	05139H
	DB	027H
	DB	027H
	DB	022H
	DB	00H
	DB	028H
	DB	00H
	DB	00H
	DB	00H
	DD	03c5e0H
	DW	0513aH
	DB	027H
	DB	028H
	DB	022H
	DB	00H
	DB	028H
	DB	00H
	DB	00H
	DB	00H
	DD	03c900H
	DW	0513bH
	DB	028H
	DB	028H
	DB	022H
	DB	00H
	DB	028H
	DB	00H
	DB	00H
	DB	00H
	DD	03cc20H
	DW	0513cH
	DB	028H
	DB	026H
	DB	021H
	DB	00H
	DB	028H
	DB	00H
	DB	00H
	DB	00H
	DD	03cf18H
	DW	0513dH
	DB	028H
	DB	028H
	DB	022H
	DB	00H
	DB	028H
	DB	00H
	DB	00H
	DB	00H
	DD	03d238H
	DW	0513eH
	DB	027H
	DB	028H
	DB	022H
	DB	00H
	DB	028H
	DB	00H
	DB	00H
	DB	00H
	DD	03d558H
	DW	0513fH
	DB	028H
	DB	027H
	DB	022H
	DB	00H
	DB	028H
	DB	00H
	DB	00H
	DB	00H
	DD	03d864H
	DW	05140H
	DB	028H
	DB	025H
	DB	01fH
	DB	00H
	DB	028H
	DB	00H
	DB	00H
	DB	00H
	DD	03db48H
	DW	05141H
	DB	028H
	DB	028H
	DB	022H
	DB	00H
	DB	028H
	DB	00H
	DB	00H
	DB	00H
	DD	03de68H
	DW	05142H
	DB	028H
	DB	027H
	DB	022H
	DB	00H
	DB	028H
	DB	00H
	DB	00H
	DB	00H
	DD	03e174H
	DW	05143H
	DB	028H
	DB	025H
	DB	01fH
	DB	00H
	DB	028H
	DB	00H
	DB	00H
	DB	00H
	DD	03e458H
	DW	05144H
	DB	028H
	DB	026H
	DB	020H
	DB	00H
	DB	028H
	DB	00H
	DB	00H
	DB	00H
	DD	03e750H
	DW	05145H
	DB	028H
	DB	028H
	DB	022H
	DB	00H
	DB	028H
	DB	00H
	DB	00H
	DB	00H
	DD	03ea70H
	DW	05146H
	DB	028H
	DB	028H
	DB	022H
	DB	00H
	DB	028H
	DB	00H
	DB	00H
	DB	00H
	DD	03ed90H
	DW	05147H
	DB	028H
	DB	028H
	DB	022H
	DB	00H
	DB	028H
	DB	00H
	DB	00H
	DB	00H
	DD	03f0b0H
	DW	05148H
	DB	027H
	DB	028H
	DB	022H
	DB	01H
	DB	028H
	DB	00H
	DB	00H
	DB	00H
	DD	03f3d0H
	DW	05149H
	DB	028H
	DB	028H
	DB	022H
	DB	00H
	DB	028H
	DB	00H
	DB	00H
	DB	00H
	DD	03f6f0H
	DW	0514aH
	DB	028H
	DB	027H
	DB	022H
	DB	00H
	DB	028H
	DB	00H
	DB	00H
	DB	00H
	DD	03f9fcH
	DW	0514bH
	DB	028H
	DB	028H
	DB	022H
	DB	00H
	DB	028H
	DB	00H
	DB	00H
	DB	00H
	DD	03fd1cH
	DW	0514cH
	DB	028H
	DB	027H
	DB	022H
	DB	00H
	DB	028H
	DB	00H
	DB	00H
	DB	00H
	DD	040028H
	DW	0514dH
	DB	028H
	DB	028H
	DB	022H
	DB	00H
	DB	028H
	DB	00H
	DB	00H
	DB	00H
	DD	040348H
	DW	0514eH
	DB	028H
	DB	027H
	DB	021H
	DB	00H
	DB	028H
	DB	00H
	DB	00H
	DB	00H
	DD	040654H
	DW	0514fH
	DB	028H
	DB	027H
	DB	022H
	DB	00H
	DB	028H
	DB	00H
	DB	00H
	DB	00H
	DD	040960H
	DW	05150H
	DB	028H
	DB	026H
	DB	020H
	DB	00H
	DB	028H
	DB	00H
	DB	00H
	DB	00H
	DD	040c58H
	DW	05151H
	DB	028H
	DB	028H
	DB	022H
	DB	00H
	DB	028H
	DB	00H
	DB	00H
	DB	00H
	DD	040f78H
	DW	05152H
	DB	028H
	DB	028H
	DB	022H
	DB	00H
	DB	028H
	DB	00H
	DB	00H
	DB	00H
	DD	041298H
	DW	05153H
	DB	028H
	DB	026H
	DB	020H
	DB	00H
	DB	028H
	DB	00H
	DB	00H
	DB	00H
	DD	041590H
	DW	05154H
	DB	028H
	DB	028H
	DB	022H
	DB	00H
	DB	028H
	DB	00H
	DB	00H
	DB	00H
	DD	0418b0H
	DW	05155H
	DB	028H
	DB	026H
	DB	020H
	DB	00H
	DB	028H
	DB	00H
	DB	00H
	DB	00H
	DD	041ba8H
	DW	05156H
	DB	027H
	DB	028H
	DB	022H
	DB	01H
	DB	028H
	DB	00H
	DB	00H
	DB	00H
	DD	041ec8H
	DW	05157H
	DB	027H
	DB	028H
	DB	022H
	DB	01H
	DB	028H
	DB	00H
	DB	00H
	DB	00H
	DD	0421e8H
	DW	05158H
	DB	028H
	DB	028H
	DB	022H
	DB	00H
	DB	028H
	DB	00H
	DB	00H
	DB	00H
	DD	042508H
	DW	05159H
	DB	028H
	DB	028H
	DB	022H
	DB	00H
	DB	028H
	DB	00H
	DB	00H
	DB	00H
	DD	042828H
	DW	0515aH
	DB	027H
	DB	028H
	DB	022H
	DB	01H
	DB	028H
	DB	00H
	DB	00H
	DB	00H
	DD	042b48H
	DW	0515bH
	DB	028H
	DB	028H
	DB	022H
	DB	00H
	DB	028H
	DB	00H
	DB	00H
	DB	00H
	DD	042e68H
	DW	0515cH
	DB	028H
	DB	028H
	DB	022H
	DB	00H
	DB	028H
	DB	00H
	DB	00H
	DB	00H
	DD	043188H
	DW	0515dH
	DB	028H
	DB	028H
	DB	022H
	DB	00H
	DB	028H
	DB	00H
	DB	00H
	DB	00H
	DD	0434a8H
	DW	0515eH
	DB	027H
	DB	028H
	DB	022H
	DB	00H
	DB	028H
	DB	00H
	DB	00H
	DB	00H
	DD	0437c8H
	DW	0515fH
	DB	028H
	DB	028H
	DB	022H
	DB	00H
	DB	028H
	DB	00H
	DB	00H
	DB	00H
	DD	043ae8H
	DW	05160H
	DB	028H
	DB	028H
	DB	022H
	DB	00H
	DB	028H
	DB	00H
	DB	00H
	DB	00H
	DD	043e08H
	DW	05161H
	DB	028H
	DB	028H
	DB	022H
	DB	00H
	DB	028H
	DB	00H
	DB	00H
	DB	00H
	DD	044128H
	DW	05162H
	DB	028H
	DB	028H
	DB	022H
	DB	00H
	DB	028H
	DB	00H
	DB	00H
	DB	00H
	DD	044448H
	DW	05163H
	DB	028H
	DB	027H
	DB	022H
	DB	00H
	DB	028H
	DB	00H
	DB	00H
	DB	00H
	DD	044754H
	DW	05164H
	DB	029H
	DB	028H
	DB	022H
	DB	00H
	DB	028H
	DB	00H
	DB	00H
	DB	00H
	DD	044a9cH
	DW	05165H
	DB	028H
	DB	026H
	DB	021H
	DB	00H
	DB	028H
	DB	00H
	DB	00H
	DB	00H
	DD	044d94H
	DW	05166H
	DB	025H
	DB	026H
	DB	022H
	DB	02H
	DB	028H
	DB	00H
	DB	00H
	DB	00H
	DD	045066H
	DW	05167H
	DB	022H
	DB	027H
	DB	022H
	DB	03H
	DB	028H
	DB	00H
	DB	00H
	DB	00H
	DD	0452fdH
	DW	05168H
	DB	027H
	DB	026H
	DB	022H
	DB	01H
	DB	028H
	DB	00H
	DB	00H
	DB	00H
	DD	0455f5H
	DW	05169H
	DB	026H
	DB	025H
	DB	020H
	DB	01H
	DB	028H
	DB	00H
	DB	00H
	DB	00H
	DD	0458b4H
	DW	0516aH
	DB	028H
	DB	028H
	DB	022H
	DB	00H
	DB	028H
	DB	00H
	DB	00H
	DB	00H
	DD	045bd4H
	DW	0516bH
	DB	028H
	DB	026H
	DB	020H
	DB	00H
	DB	028H
	DB	00H
	DB	00H
	DB	00H
	DD	045eccH
	DW	0516cH
	DB	028H
	DB	027H
	DB	021H
	DB	00H
	DB	028H
	DB	00H
	DB	00H
	DB	00H
	DD	0461d8H
	DW	0516dH
	DB	028H
	DB	027H
	DB	022H
	DB	00H
	DB	028H
	DB	00H
	DB	00H
	DB	00H
	DD	0464e4H
	DW	0516eH
	DB	028H
	DB	028H
	DB	022H
	DB	00H
	DB	028H
	DB	00H
	DB	00H
	DB	00H
	DD	046804H
	DW	0516fH
	DB	024H
	DB	027H
	DB	022H
	DB	01H
	DB	028H
	DB	00H
	DB	00H
	DB	00H
	DD	046ac2H
	DW	05170H
	DB	027H
	DB	026H
	DB	022H
	DB	00H
	DB	028H
	DB	00H
	DB	00H
	DB	00H
	DD	046dbaH
	DW	05171H
	DB	028H
	DB	026H
	DB	021H
	DB	00H
	DB	028H
	DB	00H
	DB	00H
	DB	00H
	DD	0470b2H
	DW	05172H
	DB	028H
	DB	026H
	DB	020H
	DB	00H
	DB	028H
	DB	00H
	DB	00H
	DB	00H
	DD	0473aaH
	DW	05173H
	DB	028H
	DB	027H
	DB	021H
	DB	00H
	DB	028H
	DB	00H
	DB	00H
	DB	00H
	DD	0476b6H
	DW	05174H
	DB	028H
	DB	027H
	DB	021H
	DB	00H
	DB	028H
	DB	00H
	DB	00H
	DB	00H
	DD	0479c2H
	DW	05175H
	DB	028H
	DB	027H
	DB	021H
	DB	00H
	DB	028H
	DB	00H
	DB	00H
	DB	00H
	DD	047cceH
	DW	05176H
	DB	028H
	DB	027H
	DB	021H
	DB	00H
	DB	028H
	DB	00H
	DB	00H
	DB	00H
	DD	047fdaH
	DW	05177H
	DB	028H
	DB	026H
	DB	020H
	DB	00H
	DB	028H
	DB	00H
	DB	00H
	DB	00H
	DD	0482d2H
	DW	05178H
	DB	028H
	DB	028H
	DB	022H
	DB	00H
	DB	028H
	DB	00H
	DB	00H
	DB	00H
	DD	0485f2H
	DW	05179H
	DB	028H
	DB	028H
	DB	022H
	DB	00H
	DB	028H
	DB	00H
	DB	00H
	DB	00H
	DD	048912H
	DW	0517aH
	DB	028H
	DB	027H
	DB	022H
	DB	00H
	DB	028H
	DB	00H
	DB	00H
	DB	00H
	DD	048c1eH
	DW	0517bH
	DB	028H
	DB	028H
	DB	022H
	DB	00H
	DB	028H
	DB	00H
	DB	00H
	DB	00H
	DD	048f3eH
	DW	0517cH
	DB	028H
	DB	027H
	DB	022H
	DB	00H
	DB	028H
	DB	00H
	DB	00H
	DB	00H
	DD	04924aH
	DW	0517dH
	DB	028H
	DB	027H
	DB	022H
	DB	00H
	DB	028H
	DB	00H
	DB	00H
	DB	00H
	DD	049556H
	DW	0517eH
	DB	027H
	DB	028H
	DB	022H
	DB	01H
	DB	028H
	DB	00H
	DB	00H
	DB	00H
	DD	049876H
	DW	0517fH
	DB	028H
	DB	028H
	DB	022H
	DB	00H
	DB	028H
	DB	00H
	DB	00H
	DB	00H
	DD	049b96H
	DW	05180H
	DB	028H
	DB	028H
	DB	022H
	DB	00H
	DB	028H
	DB	00H
	DB	00H
	DB	00H
	DD	049eb6H
	DW	05181H
	DB	028H
	DB	028H
	DB	022H
	DB	00H
	DB	028H
	DB	00H
	DB	00H
	DB	00H
	DD	04a1d6H
	DW	05182H
	DB	024H
	DB	026H
	DB	020H
	DB	02H
	DB	028H
	DB	00H
	DB	00H
	DB	00H
	DD	04a482H
	DW	05183H
	DB	024H
	DB	026H
	DB	020H
	DB	02H
	DB	028H
	DB	00H
	DB	00H
	DB	00H
	DD	04a72eH
	DW	05184H
	DB	028H
	DB	026H
	DB	020H
	DB	00H
	DB	028H
	DB	00H
	DB	00H
	DB	00H
	DD	04aa26H
	DW	05185H
	DB	022H
	DB	027H
	DB	022H
	DB	03H
	DB	028H
	DB	00H
	DB	00H
	DB	00H
	DD	04acbdH
	DW	05186H
	DB	024H
	DB	026H
	DB	020H
	DB	02H
	DB	028H
	DB	00H
	DB	00H
	DB	00H
	DD	04af69H
	DW	05187H
	DB	028H
	DB	028H
	DB	022H
	DB	00H
	DB	028H
	DB	00H
	DB	00H
	DB	00H
	DD	04b289H
	DW	05188H
	DB	024H
	DB	025H
	DB	020H
	DB	02H
	DB	028H
	DB	00H
	DB	00H
	DB	00H
	DD	04b523H
	DW	05189H
	DB	028H
	DB	026H
	DB	021H
	DB	00H
	DB	028H
	DB	00H
	DB	00H
	DB	00H
	DD	04b81bH
	DW	0518aH
	DB	028H
	DB	025H
	DB	020H
	DB	00H
	DB	028H
	DB	00H
	DB	00H
	DB	00H
	DD	04baffH
	DW	0518bH
	DB	024H
	DB	026H
	DB	020H
	DB	02H
	DB	028H
	DB	00H
	DB	00H
	DB	00H
	DD	04bdabH
	DW	0518cH
	DB	028H
	DB	026H
	DB	020H
	DB	00H
	DB	028H
	DB	00H
	DB	00H
	DB	00H
	DD	04c0a3H
	DW	0518dH
	DB	028H
	DB	026H
	DB	020H
	DB	00H
	DB	028H
	DB	00H
	DB	00H
	DB	00H
	DD	04c39bH
	DW	0518eH
	DB	024H
	DB	025H
	DB	020H
	DB	02H
	DB	028H
	DB	00H
	DB	00H
	DB	00H
	DD	04c635H
	DW	0518fH
	DB	024H
	DB	026H
	DB	020H
	DB	02H
	DB	028H
	DB	00H
	DB	00H
	DB	00H
	DD	04c8e1H
	DW	05190H
	DB	023H
	DB	026H
	DB	020H
	DB	03H
	DB	028H
	DB	00H
	DB	00H
	DB	00H
	DD	04cb8dH
	DW	05191H
	DB	022H
	DB	027H
	DB	021H
	DB	03H
	DB	028H
	DB	00H
	DB	00H
	DB	00H
	DD	04ce24H
	DW	05192H
	DB	024H
	DB	025H
	DB	020H
	DB	02H
	DB	028H
	DB	00H
	DB	00H
	DB	00H
	DD	04d0beH
	DW	05193H
	DB	028H
	DB	028H
	DB	022H
	DB	00H
	DB	028H
	DB	00H
	DB	00H
	DB	00H
	DD	04d3deH
	DW	05194H
	DB	025H
	DB	026H
	DB	020H
	DB	02H
	DB	028H
	DB	00H
	DB	00H
	DB	00H
	DD	04d6b0H
	DW	05195H
	DB	027H
	DB	026H
	DB	020H
	DB	01H
	DB	028H
	DB	00H
	DB	00H
	DB	00H
	DD	04d9a8H
	DW	05196H
	DB	024H
	DB	0cH
	DB	01eH
	DB	02H
	DB	028H
	DB	00H
	DB	00H
	DB	00H
	DD	04da80H
	DW	05197H
	DB	028H
	DB	026H
	DB	020H
	DB	00H
	DB	028H
	DB	00H
	DB	00H
	DB	00H
	DD	04dd78H
	DW	05198H
	DB	028H
	DB	027H
	DB	021H
	DB	00H
	DB	028H
	DB	00H
	DB	00H
	DB	00H
	DD	04e084H
	DW	05199H
	DB	027H
	DB	026H
	DB	020H
	DB	00H
	DB	028H
	DB	00H
	DB	00H
	DB	00H
	DD	04e37cH
	DW	0519aH
	DB	024H
	DB	024H
	DB	01fH
	DB	02H
	DB	028H
	DB	00H
	DB	00H
	DB	00H
	DD	04e604H
	DW	0519bH
	DB	027H
	DB	025H
	DB	020H
	DB	01H
	DB	028H
	DB	00H
	DB	00H
	DB	00H
	DD	04e8e8H
	DW	0519cH
	DB	028H
	DB	027H
	DB	022H
	DB	00H
	DB	028H
	DB	00H
	DB	00H
	DB	00H
	DD	04ebf4H
	DW	0519dH
	DB	027H
	DB	024H
	DB	020H
	DB	01H
	DB	028H
	DB	00H
	DB	00H
	DB	00H
	DD	04eec4H
	DW	0519eH
	DB	028H
	DB	025H
	DB	020H
	DB	00H
	DB	028H
	DB	00H
	DB	00H
	DB	00H
	DD	04f1a8H
	DW	0519fH
	DB	026H
	DB	025H
	DB	020H
	DB	02H
	DB	028H
	DB	00H
	DB	00H
	DB	00H
	DD	04f467H
	DW	051a0H
	DB	028H
	DB	026H
	DB	020H
	DB	00H
	DB	028H
	DB	00H
	DB	00H
	DB	00H
	DD	04f75fH
	DW	051a1H
	DB	028H
	DB	026H
	DB	020H
	DB	00H
	DB	028H
	DB	00H
	DB	00H
	DB	00H
	DD	04fa57H
	DW	051a2H
	DB	027H
	DB	026H
	DB	020H
	DB	01H
	DB	028H
	DB	00H
	DB	00H
	DB	00H
	DD	04fd4fH
	DW	051a3H
	DB	027H
	DB	025H
	DB	020H
	DB	01H
	DB	028H
	DB	00H
	DB	00H
	DB	00H
	DD	050033H
	DW	051a4H
	DB	028H
	DB	026H
	DB	020H
	DB	00H
	DB	028H
	DB	00H
	DB	00H
	DB	00H
	DD	05032bH
	DW	051a5H
	DB	028H
	DB	026H
	DB	020H
	DB	00H
	DB	028H
	DB	00H
	DB	00H
	DB	00H
	DD	050623H
	DW	051a6H
	DB	028H
	DB	026H
	DB	020H
	DB	00H
	DB	028H
	DB	00H
	DB	00H
	DB	00H
	DD	05091bH
	DW	051a7H
	DB	028H
	DB	025H
	DB	020H
	DB	00H
	DB	028H
	DB	00H
	DB	00H
	DB	00H
	DD	050bffH
	DW	051a8H
	DB	026H
	DB	025H
	DB	020H
	DB	01H
	DB	028H
	DB	00H
	DB	00H
	DB	00H
	DD	050ebeH
	DW	051a9H
	DB	027H
	DB	025H
	DB	020H
	DB	00H
	DB	028H
	DB	00H
	DB	00H
	DB	00H
	DD	0511a2H
	DW	051aaH
	DB	027H
	DB	025H
	DB	020H
	DB	01H
	DB	028H
	DB	00H
	DB	00H
	DB	00H
	DD	051486H
	DW	051abH
	DB	0fH
	DB	024H
	DB	020H
	DB	04H
	DB	028H
	DB	00H
	DB	00H
	DB	00H
	DD	0515a6H
	DW	051acH
	DB	028H
	DB	027H
	DB	022H
	DB	00H
	DB	028H
	DB	00H
	DB	00H
	DB	00H
	DD	0518b2H
	DW	051adH
	DB	028H
	DB	028H
	DB	022H
	DB	00H
	DB	028H
	DB	00H
	DB	00H
	DB	00H
	DD	051bd2H
	DW	051aeH
	DB	028H
	DB	024H
	DB	020H
	DB	00H
	DB	028H
	DB	00H
	DB	00H
	DB	00H
	DD	051ea2H
	DW	051afH
	DB	026H
	DB	025H
	DB	020H
	DB	00H
	DB	028H
	DB	00H
	DB	00H
	DB	00H
	DD	052161H
	DW	051b0H
	DB	028H
	DB	026H
	DB	021H
	DB	00H
	DB	028H
	DB	00H
	DB	00H
	DB	00H
	DD	052459H
	DW	051b1H
	DB	028H
	DB	024H
	DB	020H
	DB	00H
	DB	028H
	DB	00H
	DB	00H
	DB	00H
	DD	052729H
	DW	051b2H
	DB	026H
	DB	027H
	DB	022H
	DB	00H
	DB	028H
	DB	00H
	DB	00H
	DB	00H
	DD	052a0eH
	DW	051b3H
	DB	027H
	DB	028H
	DB	022H
	DB	00H
	DB	028H
	DB	00H
	DB	00H
	DB	00H
	DD	052d2eH
	DW	051b4H
	DB	027H
	DB	026H
	DB	020H
	DB	00H
	DB	028H
	DB	00H
	DB	00H
	DB	00H
	DD	053026H
	DW	051b5H
	DB	028H
	DB	026H
	DB	020H
	DB	00H
	DB	028H
	DB	00H
	DB	00H
	DB	00H
	DD	05331eH
	DW	051b6H
	DB	028H
	DB	027H
	DB	022H
	DB	00H
	DB	028H
	DB	00H
	DB	00H
	DB	00H
	DD	05362aH
	DW	051b7H
	DB	028H
	DB	028H
	DB	022H
	DB	00H
	DB	028H
	DB	00H
	DB	00H
	DB	00H
	DD	05394aH
	DW	051b8H
	DB	028H
	DB	027H
	DB	022H
	DB	00H
	DB	028H
	DB	00H
	DB	00H
	DB	00H
	DD	053c56H
	DW	051b9H
	DB	028H
	DB	028H
	DB	022H
	DB	00H
	DB	028H
	DB	00H
	DB	00H
	DB	00H
	DD	053f76H
	DW	051baH
	DB	028H
	DB	026H
	DB	020H
	DB	00H
	DB	028H
	DB	00H
	DB	00H
	DB	00H
	DD	05426eH
	DW	051bbH
	DB	028H
	DB	027H
	DB	022H
	DB	00H
	DB	028H
	DB	00H
	DB	00H
	DB	00H
	DD	05457aH
	DW	051bcH
	DB	028H
	DB	028H
	DB	022H
	DB	00H
	DB	028H
	DB	00H
	DB	00H
	DB	00H
	DD	05489aH
	DW	051bdH
	DB	026H
	DB	026H
	DB	021H
	DB	00H
	DB	028H
	DB	00H
	DB	00H
	DB	00H
	DD	054b6cH
	DW	051beH
	DB	028H
	DB	027H
	DB	021H
	DB	00H
	DB	028H
	DB	00H
	DB	00H
	DB	00H
	DD	054e78H
	DW	051bfH
	DB	028H
	DB	027H
	DB	022H
	DB	00H
	DB	028H
	DB	00H
	DB	00H
	DB	00H
	DD	055184H
	DW	051c0H
	DB	028H
	DB	028H
	DB	022H
	DB	00H
	DB	028H
	DB	00H
	DB	00H
	DB	00H
	DD	0554a4H
	DW	051c1H
	DB	028H
	DB	027H
	DB	022H
	DB	00H
	DB	028H
	DB	00H
	DB	00H
	DB	00H
	DD	0557b0H
	DW	051c2H
	DB	029H
	DB	028H
	DB	022H
	DB	00H
	DB	028H
	DB	00H
	DB	00H
	DB	00H
	DD	055af8H
	DW	051c3H
	DB	028H
	DB	027H
	DB	022H
	DB	00H
	DB	028H
	DB	00H
	DB	00H
	DB	00H
	DD	055e04H
	DW	051c4H
	DB	028H
	DB	027H
	DB	021H
	DB	00H
	DB	028H
	DB	00H
	DB	00H
	DB	00H
	DD	056110H
	DW	051c5H
	DB	026H
	DB	025H
	DB	020H
	DB	00H
	DB	028H
	DB	00H
	DB	00H
	DB	00H
	DD	0563cfH
	DW	051c6H
	DB	027H
	DB	027H
	DB	022H
	DB	00H
	DB	028H
	DB	00H
	DB	00H
	DB	00H
	DD	0566dbH
	DW	051c7H
	DB	028H
	DB	028H
	DB	022H
	DB	00H
	DB	028H
	DB	00H
	DB	00H
	DB	00H
	DD	0569fbH
	DW	051c8H
	DB	028H
	DB	027H
	DB	021H
	DB	00H
	DB	028H
	DB	00H
	DB	00H
	DB	00H
	DD	056d07H
	DW	051c9H
	DB	028H
	DB	028H
	DB	022H
	DB	00H
	DB	028H
	DB	00H
	DB	00H
	DB	00H
	DD	057027H
	DW	051caH
	DB	028H
	DB	028H
	DB	022H
	DB	00H
	DB	028H
	DB	00H
	DB	00H
	DB	00H
	DD	057347H
	DW	051cbH
	DB	026H
	DB	026H
	DB	020H
	DB	00H
	DB	028H
	DB	00H
	DB	00H
	DB	00H
	DD	057619H
	DW	051ccH
	DB	028H
	DB	027H
	DB	021H
	DB	00H
	DB	028H
	DB	00H
	DB	00H
	DB	00H
	DD	057925H
	DW	051cdH
	DB	028H
	DB	027H
	DB	022H
	DB	00H
	DB	028H
	DB	00H
	DB	00H
	DB	00H
	DD	057c31H
	DW	051ceH
	DB	028H
	DB	026H
	DB	022H
	DB	00H
	DB	028H
	DB	00H
	DB	00H
	DB	00H
	DD	057f29H
	DW	051cfH
	DB	028H
	DB	027H
	DB	022H
	DB	00H
	DB	028H
	DB	00H
	DB	00H
	DB	00H
	DD	058235H
	DW	051d0H
	DB	028H
	DB	024H
	DB	020H
	DB	00H
	DB	028H
	DB	00H
	DB	00H
	DB	00H
	DD	058505H
	DW	051d1H
	DB	028H
	DB	028H
	DB	022H
	DB	00H
	DB	028H
	DB	00H
	DB	00H
	DB	00H
	DD	058825H
	DW	051d2H
	DB	028H
	DB	027H
	DB	022H
	DB	00H
	DB	028H
	DB	00H
	DB	00H
	DB	00H
	DD	058b31H
	DW	051d3H
	DB	028H
	DB	025H
	DB	020H
	DB	00H
	DB	028H
	DB	00H
	DB	00H
	DB	00H
	DD	058e15H
	DW	051d4H
	DB	028H
	DB	026H
	DB	021H
	DB	00H
	DB	028H
	DB	00H
	DB	00H
	DB	00H
	DD	05910dH
	DW	051d5H
	DB	028H
	DB	026H
	DB	020H
	DB	00H
	DB	028H
	DB	00H
	DB	00H
	DB	00H
	DD	059405H
	DW	051d6H
	DB	027H
	DB	027H
	DB	022H
	DB	00H
	DB	028H
	DB	00H
	DB	00H
	DB	00H
	DD	059711H
	DW	051d7H
	DB	028H
	DB	027H
	DB	022H
	DB	00H
	DB	028H
	DB	00H
	DB	00H
	DB	00H
	DD	059a1dH
	DW	051d8H
	DB	028H
	DB	028H
	DB	022H
	DB	00H
	DB	028H
	DB	00H
	DB	00H
	DB	00H
	DD	059d3dH
	DW	051d9H
	DB	028H
	DB	025H
	DB	020H
	DB	00H
	DB	028H
	DB	00H
	DB	00H
	DB	00H
	DD	05a021H
	DW	051daH
	DB	028H
	DB	026H
	DB	021H
	DB	00H
	DB	028H
	DB	00H
	DB	00H
	DB	00H
	DD	05a319H
	DW	051dbH
	DB	028H
	DB	028H
	DB	022H
	DB	00H
	DB	028H
	DB	00H
	DB	00H
	DB	00H
	DD	05a639H
	DW	051dcH
	DB	028H
	DB	028H
	DB	022H
	DB	00H
	DB	028H
	DB	00H
	DB	00H
	DB	00H
	DD	05a959H
	DW	051ddH
	DB	028H
	DB	027H
	DB	021H
	DB	00H
	DB	028H
	DB	00H
	DB	00H
	DB	00H
	DD	05ac65H
	DW	051deH
	DB	028H
	DB	027H
	DB	021H
	DB	00H
	DB	028H
	DB	00H
	DB	00H
	DB	00H
	DD	05af71H
	DW	051dfH
	DB	028H
	DB	028H
	DB	022H
	DB	00H
	DB	028H
	DB	00H
	DB	00H
	DB	00H
	DD	05b291H
	DW	051e0H
	DB	028H
	DB	025H
	DB	020H
	DB	00H
	DB	028H
	DB	00H
	DB	00H
	DB	00H
	DD	05b575H
	DW	051e1H
	DB	028H
	DB	025H
	DB	020H
	DB	00H
	DB	028H
	DB	00H
	DB	00H
	DB	00H
	DD	05b859H
	DW	051e2H
	DB	028H
	DB	027H
	DB	022H
	DB	00H
	DB	028H
	DB	00H
	DB	00H
	DB	00H
	DD	05bb65H
	DW	051e3H
	DB	028H
	DB	027H
	DB	022H
	DB	00H
	DB	028H
	DB	00H
	DB	00H
	DB	00H
	DD	05be71H
	DW	051e4H
	DB	028H
	DB	026H
	DB	020H
	DB	00H
	DB	028H
	DB	00H
	DB	00H
	DB	00H
	DD	05c169H
	DW	051e5H
	DB	028H
	DB	026H
	DB	020H
	DB	00H
	DB	028H
	DB	00H
	DB	00H
	DB	00H
	DD	05c461H
	DW	051e6H
	DB	028H
	DB	028H
	DB	022H
	DB	00H
	DB	028H
	DB	00H
	DB	00H
	DB	00H
	DD	05c781H
	DW	051e7H
	DB	028H
	DB	026H
	DB	020H
	DB	00H
	DB	028H
	DB	00H
	DB	00H
	DB	00H
	DD	05ca79H
	DW	051e8H
	DB	028H
	DB	026H
	DB	020H
	DB	00H
	DB	028H
	DB	00H
	DB	00H
	DB	00H
	DD	05cd71H
	DW	051e9H
	DB	028H
	DB	026H
	DB	020H
	DB	00H
	DB	028H
	DB	00H
	DB	00H
	DB	00H
	DD	05d069H
	DW	051eaH
	DB	028H
	DB	026H
	DB	020H
	DB	00H
	DB	028H
	DB	00H
	DB	00H
	DB	00H
	DD	05d361H
	DW	051ebH
	DB	028H
	DB	028H
	DB	022H
	DB	00H
	DB	028H
	DB	00H
	DB	00H
	DB	00H
	DD	05d681H
	DW	051ecH
	DB	028H
	DB	026H
	DB	020H
	DB	00H
	DB	028H
	DB	00H
	DB	00H
	DB	00H
	DD	05d979H
	DW	051edH
	DB	028H
	DB	028H
	DB	022H
	DB	00H
	DB	028H
	DB	00H
	DB	00H
	DB	00H
	DD	05dc99H
	DW	051eeH
	DB	028H
	DB	026H
	DB	020H
	DB	00H
	DB	028H
	DB	00H
	DB	00H
	DB	00H
	DD	05df91H
	DW	051efH
	DB	027H
	DB	028H
	DB	022H
	DB	01H
	DB	028H
	DB	00H
	DB	00H
	DB	00H
	DD	05e2b1H
	DW	051f0H
	DB	028H
	DB	026H
	DB	020H
	DB	00H
	DB	028H
	DB	00H
	DB	00H
	DB	00H
	DD	05e5a9H
	DW	051f1H
	DB	028H
	DB	028H
	DB	022H
	DB	00H
	DB	028H
	DB	00H
	DB	00H
	DB	00H
	DD	05e8c9H
	DW	051f2H
	DB	028H
	DB	026H
	DB	020H
	DB	00H
	DB	028H
	DB	00H
	DB	00H
	DB	00H
	DD	05ebc1H
	DW	051f3H
	DB	027H
	DB	028H
	DB	022H
	DB	01H
	DB	028H
	DB	00H
	DB	00H
	DB	00H
	DD	05eee1H
	DW	051f4H
	DB	028H
	DB	026H
	DB	020H
	DB	00H
	DB	028H
	DB	00H
	DB	00H
	DB	00H
	DD	05f1d9H
	DW	051f5H
	DB	022H
	DB	024H
	DB	01fH
	DB	03H
	DB	028H
	DB	00H
	DB	00H
	DB	00H
	DD	05f43dH
	DW	051f6H
	DB	024H
	DB	027H
	DB	022H
	DB	02H
	DB	028H
	DB	00H
	DB	00H
	DB	00H
	DD	05f6fbH
	DW	051f7H
	DB	024H
	DB	026H
	DB	021H
	DB	02H
	DB	028H
	DB	00H
	DB	00H
	DB	00H
	DD	05f9a7H
	DW	051f8H
	DB	024H
	DB	025H
	DB	020H
	DB	02H
	DB	028H
	DB	00H
	DB	00H
	DB	00H
	DD	05fc41H
	DW	051f9H
	DB	024H
	DB	025H
	DB	01fH
	DB	02H
	DB	028H
	DB	00H
	DB	00H
	DB	00H
	DD	05fedbH
	DW	051faH
	DB	024H
	DB	027H
	DB	022H
	DB	02H
	DB	028H
	DB	00H
	DB	00H
	DB	00H
	DD	060199H
	DW	051fbH
	DB	028H
	DB	027H
	DB	022H
	DB	00H
	DB	028H
	DB	00H
	DB	00H
	DB	00H
	DD	0604a5H
	DW	051fcH
	DB	024H
	DB	027H
	DB	022H
	DB	02H
	DB	028H
	DB	00H
	DB	00H
	DB	00H
	DD	060763H
	DW	051fdH
	DB	024H
	DB	025H
	DB	020H
	DB	02H
	DB	028H
	DB	00H
	DB	00H
	DB	00H
	DD	0609fdH
	DW	051feH
	DB	024H
	DB	025H
	DB	020H
	DB	02H
	DB	028H
	DB	00H
	DB	00H
	DB	00H
	DD	060c97H
	DW	051ffH
	DB	028H
	DB	026H
	DB	021H
	DB	00H
	DB	028H
	DB	00H
	DB	00H
	DB	00H
	DD	060f8fH
	DW	05200H
	DB	026H
	DB	025H
	DB	01fH
	DB	00H
	DB	028H
	DB	00H
	DB	00H
	DB	00H
	DD	06124eH
	DW	05201H
	DB	025H
	DB	024H
	DB	01fH
	DB	01H
	DB	028H
	DB	00H
	DB	00H
	DB	00H
	DD	0614faH
	DW	05202H
	DB	013H
	DB	027H
	DB	021H
	DB	013H
	DB	028H
	DB	00H
	DB	00H
	DB	00H
	DD	061680H
	DW	05203H
	DB	025H
	DB	026H
	DB	020H
	DB	01H
	DB	028H
	DB	00H
	DB	00H
	DB	00H
	DD	061952H
	DW	05204H
	DB	028H
	DB	026H
	DB	020H
	DB	00H
	DB	028H
	DB	00H
	DB	00H
	DB	00H
	DD	061c4aH
	DW	05205H
	DB	028H
	DB	026H
	DB	020H
	DB	00H
	DB	028H
	DB	00H
	DB	00H
	DB	00H
	DD	061f42H
	DW	05206H
	DB	028H
	DB	028H
	DB	022H
	DB	00H
	DB	028H
	DB	00H
	DB	00H
	DB	00H
	DD	062262H
	DW	05207H
	DB	026H
	DB	026H
	DB	021H
	DB	00H
	DB	028H
	DB	00H
	DB	00H
	DB	00H
	DD	062534H
	DW	05208H
	DB	025H
	DB	027H
	DB	022H
	DB	00H
	DB	028H
	DB	00H
	DB	00H
	DB	00H
	DD	062819H
	DW	05209H
	DB	026H
	DB	027H
	DB	022H
	DB	00H
	DB	028H
	DB	00H
	DB	00H
	DB	00H
	DD	062afeH
	DW	0520aH
	DB	026H
	DB	027H
	DB	021H
	DB	00H
	DB	028H
	DB	00H
	DB	00H
	DB	00H
	DD	062de3H
	DW	0520bH
	DB	026H
	DB	027H
	DB	021H
	DB	00H
	DB	028H
	DB	00H
	DB	00H
	DB	00H
	DD	0630c8H
	DW	0520cH
	DB	026H
	DB	027H
	DB	021H
	DB	00H
	DB	028H
	DB	00H
	DB	00H
	DB	00H
	DD	0633adH
	DW	0520dH
	DB	025H
	DB	027H
	DB	022H
	DB	00H
	DB	028H
	DB	00H
	DB	00H
	DB	00H
	DD	063692H
	DW	0520eH
	DB	026H
	DB	027H
	DB	022H
	DB	00H
	DB	028H
	DB	00H
	DB	00H
	DB	00H
	DD	063977H
	DW	0520fH
	DB	026H
	DB	027H
	DB	022H
	DB	00H
	DB	028H
	DB	00H
	DB	00H
	DB	00H
	DD	063c5cH
	DW	05210H
	DB	026H
	DB	027H
	DB	021H
	DB	00H
	DB	028H
	DB	00H
	DB	00H
	DB	00H
	DD	063f41H
	DW	05211H
	DB	026H
	DB	026H
	DB	021H
	DB	00H
	DB	028H
	DB	00H
	DB	00H
	DB	00H
	DD	064213H
	DW	05212H
	DB	026H
	DB	027H
	DB	021H
	DB	00H
	DB	028H
	DB	00H
	DB	00H
	DB	00H
	DD	0644f8H
	DW	05213H
	DB	026H
	DB	026H
	DB	021H
	DB	00H
	DB	028H
	DB	00H
	DB	00H
	DB	00H
	DD	0647caH
	DW	05214H
	DB	026H
	DB	028H
	DB	022H
	DB	00H
	DB	028H
	DB	00H
	DB	00H
	DB	00H
	DD	064ac2H
	DW	05215H
	DB	027H
	DB	025H
	DB	020H
	DB	00H
	DB	028H
	DB	00H
	DB	00H
	DB	00H
	DD	064da6H
	DW	05216H
	DB	026H
	DB	027H
	DB	021H
	DB	00H
	DB	028H
	DB	00H
	DB	00H
	DB	00H
	DD	06508bH
	DW	05217H
	DB	025H
	DB	027H
	DB	021H
	DB	00H
	DB	028H
	DB	00H
	DB	00H
	DB	00H
	DD	065370H
	DW	05218H
	DB	026H
	DB	028H
	DB	022H
	DB	00H
	DB	028H
	DB	00H
	DB	00H
	DB	00H
	DD	065668H
	DW	05219H
	DB	026H
	DB	027H
	DB	021H
	DB	00H
	DB	028H
	DB	00H
	DB	00H
	DB	00H
	DD	06594dH
	DW	0521aH
	DB	024H
	DB	027H
	DB	021H
	DB	02H
	DB	028H
	DB	00H
	DB	00H
	DB	00H
	DD	065c0bH
	DW	0521bH
	DB	026H
	DB	027H
	DB	021H
	DB	00H
	DB	028H
	DB	00H
	DB	00H
	DB	00H
	DD	065ef0H
	DW	0521cH
	DB	026H
	DB	027H
	DB	022H
	DB	00H
	DB	028H
	DB	00H
	DB	00H
	DB	00H
	DD	0661d5H
	DW	0521dH
	DB	026H
	DB	027H
	DB	022H
	DB	00H
	DB	028H
	DB	00H
	DB	00H
	DB	00H
	DD	0664baH
	DW	0521eH
	DB	026H
	DB	027H
	DB	021H
	DB	00H
	DB	028H
	DB	00H
	DB	00H
	DB	00H
	DD	06679fH
	DW	0521fH
	DB	026H
	DB	027H
	DB	021H
	DB	00H
	DB	028H
	DB	00H
	DB	00H
	DB	00H
	DD	066a84H
	DW	05220H
	DB	026H
	DB	028H
	DB	022H
	DB	00H
	DB	028H
	DB	00H
	DB	00H
	DB	00H
	DD	066d7cH
	DW	05221H
	DB	025H
	DB	027H
	DB	021H
	DB	01H
	DB	028H
	DB	00H
	DB	00H
	DB	00H
	DD	067061H
	DW	05222H
	DB	026H
	DB	027H
	DB	021H
	DB	00H
	DB	028H
	DB	00H
	DB	00H
	DB	00H
	DD	067346H
	DW	05223H
	DB	025H
	DB	028H
	DB	022H
	DB	01H
	DB	028H
	DB	00H
	DB	00H
	DB	00H
	DD	06763eH
	DW	05224H
	DB	026H
	DB	027H
	DB	021H
	DB	00H
	DB	028H
	DB	00H
	DB	00H
	DB	00H
	DD	067923H
	DW	05225H
	DB	026H
	DB	027H
	DB	021H
	DB	00H
	DB	028H
	DB	00H
	DB	00H
	DB	00H
	DD	067c08H
	DW	05226H
	DB	026H
	DB	028H
	DB	022H
	DB	00H
	DB	028H
	DB	00H
	DB	00H
	DB	00H
	DD	067f00H
	DW	05227H
	DB	026H
	DB	028H
	DB	022H
	DB	00H
	DB	028H
	DB	00H
	DB	00H
	DB	00H
	DD	0681f8H
	DW	05228H
	DB	026H
	DB	027H
	DB	022H
	DB	00H
	DB	028H
	DB	00H
	DB	00H
	DB	00H
	DD	0684ddH
	DW	05229H
	DB	026H
	DB	026H
	DB	021H
	DB	00H
	DB	028H
	DB	00H
	DB	00H
	DB	00H
	DD	0687afH
	DW	0522aH
	DB	026H
	DB	027H
	DB	022H
	DB	00H
	DB	028H
	DB	00H
	DB	00H
	DB	00H
	DD	068a94H
	DW	0522bH
	DB	026H
	DB	027H
	DB	021H
	DB	00H
	DB	028H
	DB	00H
	DB	00H
	DB	00H
	DD	068d79H
	DW	0522cH
	DB	026H
	DB	028H
	DB	022H
	DB	00H
	DB	028H
	DB	00H
	DB	00H
	DB	00H
	DD	069071H
	DW	0522dH
	DB	026H
	DB	026H
	DB	021H
	DB	00H
	DB	028H
	DB	00H
	DB	00H
	DB	00H
	DD	069343H
	DW	0522eH
	DB	026H
	DB	027H
	DB	021H
	DB	00H
	DB	028H
	DB	00H
	DB	00H
	DB	00H
	DD	069628H
	DW	0522fH
	DB	026H
	DB	027H
	DB	021H
	DB	00H
	DB	028H
	DB	00H
	DB	00H
	DB	00H
	DD	06990dH
	DW	05230H
	DB	026H
	DB	027H
	DB	021H
	DB	00H
	DB	028H
	DB	00H
	DB	00H
	DB	00H
	DD	069bf2H
	DW	05231H
	DB	028H
	DB	027H
	DB	022H
	DB	00H
	DB	028H
	DB	00H
	DB	00H
	DB	00H
	DD	069efeH
	DW	05232H
	DB	026H
	DB	027H
	DB	022H
	DB	00H
	DB	028H
	DB	00H
	DB	00H
	DB	00H
	DD	06a1e3H
	DW	05233H
	DB	026H
	DB	028H
	DB	022H
	DB	00H
	DB	028H
	DB	00H
	DB	00H
	DB	00H
	DD	06a4dbH
	DW	05234H
	DB	026H
	DB	027H
	DB	021H
	DB	00H
	DB	028H
	DB	00H
	DB	00H
	DB	00H
	DD	06a7c0H
	DW	05235H
	DB	026H
	DB	028H
	DB	022H
	DB	00H
	DB	028H
	DB	00H
	DB	00H
	DB	00H
	DD	06aab8H
	DW	05236H
	DB	026H
	DB	028H
	DB	022H
	DB	00H
	DB	028H
	DB	00H
	DB	00H
	DB	00H
	DD	06adb0H
	DW	05237H
	DB	026H
	DB	027H
	DB	021H
	DB	00H
	DB	028H
	DB	00H
	DB	00H
	DB	00H
	DD	06b095H
	DW	05238H
	DB	027H
	DB	028H
	DB	022H
	DB	01H
	DB	028H
	DB	00H
	DB	00H
	DB	00H
	DD	06b3b5H
	DW	05239H
	DB	026H
	DB	028H
	DB	022H
	DB	00H
	DB	028H
	DB	00H
	DB	00H
	DB	00H
	DD	06b6adH
	DW	0523aH
	DB	026H
	DB	027H
	DB	022H
	DB	00H
	DB	028H
	DB	00H
	DB	00H
	DB	00H
	DD	06b992H
	DW	0523bH
	DB	026H
	DB	028H
	DB	022H
	DB	00H
	DB	028H
	DB	00H
	DB	00H
	DB	00H
	DD	06bc8aH
	DW	0523cH
	DB	027H
	DB	028H
	DB	022H
	DB	00H
	DB	028H
	DB	00H
	DB	00H
	DB	00H
	DD	06bfaaH
	DW	0523dH
	DB	026H
	DB	027H
	DB	021H
	DB	00H
	DB	028H
	DB	00H
	DB	00H
	DB	00H
	DD	06c28fH
	DW	0523eH
	DB	026H
	DB	028H
	DB	022H
	DB	00H
	DB	028H
	DB	00H
	DB	00H
	DB	00H
	DD	06c587H
	DW	0523fH
	DB	026H
	DB	028H
	DB	022H
	DB	00H
	DB	028H
	DB	00H
	DB	00H
	DB	00H
	DD	06c87fH
	DW	05240H
	DB	025H
	DB	028H
	DB	022H
	DB	01H
	DB	028H
	DB	00H
	DB	00H
	DB	00H
	DD	06cb77H
	DW	05241H
	DB	026H
	DB	027H
	DB	021H
	DB	00H
	DB	028H
	DB	00H
	DB	00H
	DB	00H
	DD	06ce5cH
	DW	05242H
	DB	026H
	DB	028H
	DB	022H
	DB	00H
	DB	028H
	DB	00H
	DB	00H
	DB	00H
	DD	06d154H
	DW	05243H
	DB	026H
	DB	027H
	DB	022H
	DB	00H
	DB	028H
	DB	00H
	DB	00H
	DB	00H
	DD	06d439H
	DW	05244H
	DB	026H
	DB	026H
	DB	021H
	DB	00H
	DB	028H
	DB	00H
	DB	00H
	DB	00H
	DD	06d70bH
	DW	05245H
	DB	026H
	DB	027H
	DB	021H
	DB	00H
	DB	028H
	DB	00H
	DB	00H
	DB	00H
	DD	06d9f0H
	DW	05246H
	DB	025H
	DB	028H
	DB	022H
	DB	01H
	DB	028H
	DB	00H
	DB	00H
	DB	00H
	DD	06dce8H
	DW	05247H
	DB	026H
	DB	028H
	DB	022H
	DB	00H
	DB	028H
	DB	00H
	DB	00H
	DB	00H
	DD	06dfe0H
	DW	05248H
	DB	024H
	DB	028H
	DB	022H
	DB	02H
	DB	028H
	DB	00H
	DB	00H
	DB	00H
	DD	06e2b0H
	DW	05249H
	DB	026H
	DB	028H
	DB	022H
	DB	00H
	DB	028H
	DB	00H
	DB	00H
	DB	00H
	DD	06e5a8H
	DW	0524aH
	DB	025H
	DB	027H
	DB	022H
	DB	01H
	DB	028H
	DB	00H
	DB	00H
	DB	00H
	DD	06e88dH
	DW	0524bH
	DB	028H
	DB	028H
	DB	022H
	DB	00H
	DB	028H
	DB	00H
	DB	00H
	DB	00H
	DD	06ebadH
	DW	0524cH
	DB	026H
	DB	027H
	DB	022H
	DB	00H
	DB	028H
	DB	00H
	DB	00H
	DB	00H
	DD	06ee92H
	DW	0524dH
	DB	028H
	DB	027H
	DB	022H
	DB	00H
	DB	028H
	DB	00H
	DB	00H
	DB	00H
	DD	06f19eH
	DW	0524eH
	DB	026H
	DB	027H
	DB	022H
	DB	00H
	DB	028H
	DB	00H
	DB	00H
	DB	00H
	DD	06f483H
	DW	0524fH
	DB	027H
	DB	028H
	DB	022H
	DB	00H
	DB	028H
	DB	00H
	DB	00H
	DB	00H
	DD	06f7a3H
	DW	05250H
	DB	024H
	DB	028H
	DB	022H
	DB	02H
	DB	028H
	DB	00H
	DB	00H
	DB	00H
	DD	06fa73H
	DW	05251H
	DB	026H
	DB	027H
	DB	021H
	DB	00H
	DB	028H
	DB	00H
	DB	00H
	DB	00H
	DD	06fd58H
	DW	05252H
	DB	026H
	DB	028H
	DB	022H
	DB	00H
	DB	028H
	DB	00H
	DB	00H
	DB	00H
	DD	070050H
	DW	05253H
	DB	026H
	DB	028H
	DB	022H
	DB	00H
	DB	028H
	DB	00H
	DB	00H
	DB	00H
	DD	070348H
	DW	05254H
	DB	026H
	DB	028H
	DB	022H
	DB	00H
	DB	028H
	DB	00H
	DB	00H
	DB	00H
	DD	070640H
	DW	05255H
	DB	026H
	DB	028H
	DB	022H
	DB	00H
	DB	028H
	DB	00H
	DB	00H
	DB	00H
	DD	070938H
	DW	05256H
	DB	026H
	DB	027H
	DB	022H
	DB	00H
	DB	028H
	DB	00H
	DB	00H
	DB	00H
	DD	070c1dH
	DW	05257H
	DB	026H
	DB	028H
	DB	022H
	DB	00H
	DB	028H
	DB	00H
	DB	00H
	DB	00H
	DD	070f15H
	DW	05258H
	DB	026H
	DB	028H
	DB	022H
	DB	00H
	DB	028H
	DB	00H
	DB	00H
	DB	00H
	DD	07120dH
	DW	05259H
	DB	028H
	DB	028H
	DB	022H
	DB	00H
	DB	028H
	DB	00H
	DB	00H
	DB	00H
	DD	07152dH
	DW	0525aH
	DB	026H
	DB	027H
	DB	022H
	DB	00H
	DB	028H
	DB	00H
	DB	00H
	DB	00H
	DD	071812H
	DW	0525bH
	DB	025H
	DB	026H
	DB	021H
	DB	02H
	DB	028H
	DB	00H
	DB	00H
	DB	00H
	DD	071ae4H
	DW	0525cH
	DB	027H
	DB	028H
	DB	022H
	DB	00H
	DB	028H
	DB	00H
	DB	00H
	DB	00H
	DD	071e04H
	DW	0525dH
	DB	026H
	DB	027H
	DB	021H
	DB	00H
	DB	028H
	DB	00H
	DB	00H
	DB	00H
	DD	0720e9H
	DW	0525eH
	DB	025H
	DB	027H
	DB	021H
	DB	01H
	DB	028H
	DB	00H
	DB	00H
	DB	00H
	DD	0723ceH
	DW	0525fH
	DB	027H
	DB	027H
	DB	021H
	DB	00H
	DB	028H
	DB	00H
	DB	00H
	DB	00H
	DD	0726daH
	DW	05260H
	DB	026H
	DB	028H
	DB	022H
	DB	00H
	DB	028H
	DB	00H
	DB	00H
	DB	00H
	DD	0729d2H
	DW	05261H
	DB	026H
	DB	027H
	DB	021H
	DB	00H
	DB	028H
	DB	00H
	DB	00H
	DB	00H
	DD	072cb7H
	DW	05262H
	DB	026H
	DB	027H
	DB	021H
	DB	00H
	DB	028H
	DB	00H
	DB	00H
	DB	00H
	DD	072f9cH
	DW	05263H
	DB	026H
	DB	028H
	DB	022H
	DB	00H
	DB	028H
	DB	00H
	DB	00H
	DB	00H
	DD	073294H
	DW	05264H
	DB	026H
	DB	028H
	DB	022H
	DB	00H
	DB	028H
	DB	00H
	DB	00H
	DB	00H
	DD	07358cH
	DW	05265H
	DB	026H
	DB	027H
	DB	021H
	DB	00H
	DB	028H
	DB	00H
	DB	00H
	DB	00H
	DD	073871H
	DW	05266H
	DB	026H
	DB	028H
	DB	022H
	DB	00H
	DB	028H
	DB	00H
	DB	00H
	DB	00H
	DD	073b69H
	DW	05267H
	DB	026H
	DB	026H
	DB	021H
	DB	00H
	DB	028H
	DB	00H
	DB	00H
	DB	00H
	DD	073e3bH
	DW	05268H
	DB	026H
	DB	028H
	DB	022H
	DB	00H
	DB	028H
	DB	00H
	DB	00H
	DB	00H
	DD	074133H
	DW	05269H
	DB	026H
	DB	027H
	DB	021H
	DB	00H
	DB	028H
	DB	00H
	DB	00H
	DB	00H
	DD	074418H
	DW	0526aH
	DB	028H
	DB	028H
	DB	022H
	DB	00H
	DB	028H
	DB	00H
	DB	00H
	DB	00H
	DD	074738H
	DW	0526bH
	DB	026H
	DB	028H
	DB	022H
	DB	00H
	DB	028H
	DB	00H
	DB	00H
	DB	00H
	DD	074a30H
	DW	0526cH
	DB	025H
	DB	028H
	DB	022H
	DB	01H
	DB	028H
	DB	00H
	DB	00H
	DB	00H
	DD	074d28H
	DW	0526dH
	DB	026H
	DB	027H
	DB	021H
	DB	00H
	DB	028H
	DB	00H
	DB	00H
	DB	00H
	DD	07500dH
	DW	0526eH
	DB	024H
	DB	028H
	DB	022H
	DB	02H
	DB	028H
	DB	00H
	DB	00H
	DB	00H
	DD	0752ddH
	DW	0526fH
	DB	026H
	DB	026H
	DB	021H
	DB	00H
	DB	028H
	DB	00H
	DB	00H
	DB	00H
	DD	0755afH
	DW	05270H
	DB	026H
	DB	027H
	DB	021H
	DB	00H
	DB	028H
	DB	00H
	DB	00H
	DB	00H
	DD	075894H
	DW	05271H
	DB	026H
	DB	027H
	DB	021H
	DB	00H
	DB	028H
	DB	00H
	DB	00H
	DB	00H
	DD	075b79H
	DW	05272H
	DB	025H
	DB	028H
	DB	022H
	DB	01H
	DB	028H
	DB	00H
	DB	00H
	DB	00H
	DD	075e71H
	DW	05273H
	DB	026H
	DB	027H
	DB	021H
	DB	00H
	DB	028H
	DB	00H
	DB	00H
	DB	00H
	DD	076156H
	DW	05274H
	DB	026H
	DB	028H
	DB	022H
	DB	00H
	DB	028H
	DB	00H
	DB	00H
	DB	00H
	DD	07644eH
	DW	05275H
	DB	026H
	DB	028H
	DB	022H
	DB	00H
	DB	028H
	DB	00H
	DB	00H
	DB	00H
	DD	076746H
	DW	05276H
	DB	026H
	DB	028H
	DB	022H
	DB	00H
	DB	028H
	DB	00H
	DB	00H
	DB	00H
	DD	076a3eH
	DW	05277H
	DB	027H
	DB	028H
	DB	022H
	DB	0ffH
	DB	028H
	DB	00H
	DB	00H
	DB	00H
	DD	076d5eH
	DW	05278H
	DB	026H
	DB	027H
	DB	021H
	DB	00H
	DB	028H
	DB	00H
	DB	00H
	DB	00H
	DD	077043H
	DW	05279H
	DB	026H
	DB	027H
	DB	021H
	DB	00H
	DB	028H
	DB	00H
	DB	00H
	DB	00H
	DD	077328H
	DW	0527aH
	DB	028H
	DB	028H
	DB	022H
	DB	00H
	DB	028H
	DB	00H
	DB	00H
	DB	00H
	DD	077648H
	DW	0527bH
	DB	026H
	DB	028H
	DB	022H
	DB	00H
	DB	028H
	DB	00H
	DB	00H
	DB	00H
	DD	077940H
	DW	0527cH
	DB	026H
	DB	028H
	DB	022H
	DB	00H
	DB	028H
	DB	00H
	DB	00H
	DB	00H
	DD	077c38H
	DW	0527dH
	DB	026H
	DB	028H
	DB	022H
	DB	00H
	DB	028H
	DB	00H
	DB	00H
	DB	00H
	DD	077f30H
	DW	0527eH
	DB	025H
	DB	026H
	DB	021H
	DB	01H
	DB	028H
	DB	00H
	DB	00H
	DB	00H
	DD	078202H
	DW	0527fH
	DB	026H
	DB	028H
	DB	022H
	DB	00H
	DB	028H
	DB	00H
	DB	00H
	DB	00H
	DD	0784faH
	DW	05280H
	DB	026H
	DB	027H
	DB	021H
	DB	00H
	DB	028H
	DB	00H
	DB	00H
	DB	00H
	DD	0787dfH
	DW	05281H
	DB	026H
	DB	028H
	DB	022H
	DB	00H
	DB	028H
	DB	00H
	DB	00H
	DB	00H
	DD	078ad7H
	DW	05282H
	DB	027H
	DB	028H
	DB	022H
	DB	00H
	DB	028H
	DB	00H
	DB	00H
	DB	00H
	DD	078df7H
	DW	05283H
	DB	026H
	DB	028H
	DB	022H
	DB	00H
	DB	028H
	DB	00H
	DB	00H
	DB	00H
	DD	0790efH
	DW	05284H
	DB	026H
	DB	027H
	DB	022H
	DB	00H
	DB	028H
	DB	00H
	DB	00H
	DB	00H
	DD	0793d4H
	DW	05285H
	DB	026H
	DB	028H
	DB	022H
	DB	00H
	DB	028H
	DB	00H
	DB	00H
	DB	00H
	DD	0796ccH
	DW	05286H
	DB	026H
	DB	027H
	DB	022H
	DB	00H
	DB	028H
	DB	00H
	DB	00H
	DB	00H
	DD	0799b1H
	DW	05287H
	DB	026H
	DB	027H
	DB	022H
	DB	00H
	DB	028H
	DB	00H
	DB	00H
	DB	00H
	DD	079c96H
	DW	05288H
	DB	028H
	DB	028H
	DB	022H
	DB	00H
	DB	028H
	DB	00H
	DB	00H
	DB	00H
	DD	079fb6H
	DW	05289H
	DB	026H
	DB	027H
	DB	022H
	DB	00H
	DB	028H
	DB	00H
	DB	00H
	DB	00H
	DD	07a29bH
	DW	0528aH
	DB	026H
	DB	027H
	DB	022H
	DB	00H
	DB	028H
	DB	00H
	DB	00H
	DB	00H
	DD	07a580H
	DW	0528bH
	DB	026H
	DB	027H
	DB	021H
	DB	00H
	DB	028H
	DB	00H
	DB	00H
	DB	00H
	DD	07a865H
	DW	0528cH
	DB	026H
	DB	028H
	DB	022H
	DB	00H
	DB	028H
	DB	00H
	DB	00H
	DB	00H
	DD	07ab5dH
	DW	0528dH
	DB	026H
	DB	028H
	DB	022H
	DB	00H
	DB	028H
	DB	00H
	DB	00H
	DB	00H
	DD	07ae55H
	DW	0528eH
	DB	027H
	DB	028H
	DB	022H
	DB	00H
	DB	028H
	DB	00H
	DB	00H
	DB	00H
	DD	07b175H
	DW	0528fH
	DB	025H
	DB	027H
	DB	022H
	DB	01H
	DB	028H
	DB	00H
	DB	00H
	DB	00H
	DD	07b45aH
	DW	05290H
	DB	026H
	DB	028H
	DB	022H
	DB	00H
	DB	028H
	DB	00H
	DB	00H
	DB	00H
	DD	07b752H
	DW	05291H
	DB	026H
	DB	028H
	DB	022H
	DB	00H
	DB	028H
	DB	00H
	DB	00H
	DB	00H
	DD	07ba4aH
	DW	05292H
	DB	027H
	DB	028H
	DB	022H
	DB	00H
	DB	028H
	DB	00H
	DB	00H
	DB	00H
	DD	07bd6aH
	DW	05293H
	DB	025H
	DB	028H
	DB	022H
	DB	01H
	DB	028H
	DB	00H
	DB	00H
	DB	00H
	DD	07c062H
	DW	05294H
	DB	028H
	DB	028H
	DB	022H
	DB	00H
	DB	028H
	DB	00H
	DB	00H
	DB	00H
	DD	07c382H
	DW	05295H
	DB	027H
	DB	028H
	DB	022H
	DB	00H
	DB	028H
	DB	00H
	DB	00H
	DB	00H
	DD	07c6a2H
	DW	05296H
	DB	026H
	DB	028H
	DB	022H
	DB	00H
	DB	028H
	DB	00H
	DB	00H
	DB	00H
	DD	07c99aH
	DW	05297H
	DB	026H
	DB	028H
	DB	022H
	DB	00H
	DB	028H
	DB	00H
	DB	00H
	DB	00H
	DD	07cc92H
	DW	05298H
	DB	026H
	DB	028H
	DB	022H
	DB	00H
	DB	028H
	DB	00H
	DB	00H
	DB	00H
	DD	07cf8aH
	DW	05299H
	DB	026H
	DB	028H
	DB	022H
	DB	00H
	DB	028H
	DB	00H
	DB	00H
	DB	00H
	DD	07d282H
	DW	0529aH
	DB	026H
	DB	028H
	DB	022H
	DB	00H
	DB	028H
	DB	00H
	DB	00H
	DB	00H
	DD	07d57aH
	DW	0529bH
	DB	026H
	DB	027H
	DB	021H
	DB	00H
	DB	028H
	DB	00H
	DB	00H
	DB	00H
	DD	07d85fH
	DW	0529cH
	DB	028H
	DB	028H
	DB	022H
	DB	00H
	DB	028H
	DB	00H
	DB	00H
	DB	00H
	DD	07db7fH
	DW	0529dH
	DB	026H
	DB	028H
	DB	022H
	DB	00H
	DB	028H
	DB	00H
	DB	00H
	DB	00H
	DD	07de77H
	DW	0529eH
	DB	028H
	DB	028H
	DB	022H
	DB	00H
	DB	028H
	DB	00H
	DB	00H
	DB	00H
	DD	07e197H
	DW	0529fH
	DB	026H
	DB	028H
	DB	022H
	DB	00H
	DB	028H
	DB	00H
	DB	00H
	DB	00H
	DD	07e48fH
	DW	052a0H
	DB	026H
	DB	028H
	DB	022H
	DB	00H
	DB	028H
	DB	00H
	DB	00H
	DB	00H
	DD	07e787H
	DW	052a1H
	DB	028H
	DB	028H
	DB	022H
	DB	00H
	DB	028H
	DB	00H
	DB	00H
	DB	00H
	DD	07eaa7H
	DW	052a2H
	DB	026H
	DB	028H
	DB	022H
	DB	00H
	DB	028H
	DB	00H
	DB	00H
	DB	00H
	DD	07ed9fH
	DW	052a3H
	DB	028H
	DB	028H
	DB	022H
	DB	00H
	DB	028H
	DB	00H
	DB	00H
	DB	00H
	DD	07f0bfH
	DW	052a4H
	DB	027H
	DB	027H
	DB	021H
	DB	00H
	DB	028H
	DB	00H
	DB	00H
	DB	00H
	DD	07f3cbH
	DW	052a5H
	DB	027H
	DB	028H
	DB	022H
	DB	00H
	DB	028H
	DB	00H
	DB	00H
	DB	00H
	DD	07f6ebH
	DW	052a6H
	DB	027H
	DB	027H
	DB	021H
	DB	00H
	DB	028H
	DB	00H
	DB	00H
	DB	00H
	DD	07f9f7H
	DW	052a7H
	DB	027H
	DB	028H
	DB	022H
	DB	00H
	DB	028H
	DB	00H
	DB	00H
	DB	00H
	DD	07fd17H
	DW	052a8H
	DB	026H
	DB	028H
	DB	022H
	DB	00H
	DB	028H
	DB	00H
	DB	00H
	DB	00H
	DD	08000fH
	DW	052a9H
	DB	026H
	DB	028H
	DB	022H
	DB	00H
	DB	028H
	DB	00H
	DB	00H
	DB	00H
	DD	080307H
	DW	052aaH
	DB	027H
	DB	028H
	DB	022H
	DB	00H
	DB	028H
	DB	00H
	DB	00H
	DB	00H
	DD	080627H
	DW	052abH
	DB	026H
	DB	028H
	DB	022H
	DB	00H
	DB	028H
	DB	00H
	DB	00H
	DB	00H
	DD	08091fH
	DW	052acH
	DB	026H
	DB	028H
	DB	022H
	DB	00H
	DB	028H
	DB	00H
	DB	00H
	DB	00H
	DD	080c17H
	DW	052adH
	DB	027H
	DB	027H
	DB	021H
	DB	00H
	DB	028H
	DB	00H
	DB	00H
	DB	00H
	DD	080f23H
	DW	052aeH
	DB	027H
	DB	028H
	DB	022H
	DB	00H
	DB	028H
	DB	00H
	DB	00H
	DB	00H
	DD	081243H
	DW	052afH
	DB	027H
	DB	028H
	DB	022H
	DB	00H
	DB	028H
	DB	00H
	DB	00H
	DB	00H
	DD	081563H
	DW	052b0H
	DB	025H
	DB	028H
	DB	022H
	DB	02H
	DB	028H
	DB	00H
	DB	00H
	DB	00H
	DD	08185bH
	DW	052b1H
	DB	026H
	DB	028H
	DB	022H
	DB	00H
	DB	028H
	DB	00H
	DB	00H
	DB	00H
	DD	081b53H
	DW	052b2H
	DB	027H
	DB	027H
	DB	021H
	DB	00H
	DB	028H
	DB	00H
	DB	00H
	DB	00H
	DD	081e5fH
	DW	052b3H
	DB	027H
	DB	028H
	DB	022H
	DB	00H
	DB	028H
	DB	00H
	DB	00H
	DB	00H
	DD	08217fH
	DW	052b4H
	DB	027H
	DB	028H
	DB	022H
	DB	00H
	DB	028H
	DB	00H
	DB	00H
	DB	00H
	DD	08249fH
	DW	052b5H
	DB	028H
	DB	028H
	DB	022H
	DB	00H
	DB	028H
	DB	00H
	DB	00H
	DB	00H
	DD	0827bfH
	DW	052b6H
	DB	027H
	DB	028H
	DB	022H
	DB	00H
	DB	028H
	DB	00H
	DB	00H
	DB	00H
	DD	082adfH
	DW	052b7H
	DB	027H
	DB	028H
	DB	022H
	DB	00H
	DB	028H
	DB	00H
	DB	00H
	DB	00H
	DD	082dffH
	DW	052b8H
	DB	027H
	DB	028H
	DB	022H
	DB	00H
	DB	028H
	DB	00H
	DB	00H
	DB	00H
	DD	08311fH
	DW	052b9H
	DB	027H
	DB	028H
	DB	022H
	DB	00H
	DB	028H
	DB	00H
	DB	00H
	DB	00H
	DD	08343fH
	DW	052baH
	DB	027H
	DB	027H
	DB	022H
	DB	00H
	DB	028H
	DB	00H
	DB	00H
	DB	00H
	DD	08374bH
	DW	052bbH
	DB	024H
	DB	028H
	DB	022H
	DB	02H
	DB	028H
	DB	00H
	DB	00H
	DB	00H
	DD	083a1bH
	DW	052bcH
	DB	027H
	DB	028H
	DB	022H
	DB	00H
	DB	028H
	DB	00H
	DB	00H
	DB	00H
	DD	083d3bH
	DW	052bdH
	DB	026H
	DB	027H
	DB	021H
	DB	00H
	DB	028H
	DB	00H
	DB	00H
	DB	00H
	DD	084020H
	DW	052beH
	DB	027H
	DB	028H
	DB	022H
	DB	00H
	DB	028H
	DB	00H
	DB	00H
	DB	00H
	DD	084340H
	DW	052bfH
	DB	028H
	DB	028H
	DB	022H
	DB	00H
	DB	028H
	DB	00H
	DB	00H
	DB	00H
	DD	084660H
	DW	052c0H
	DB	027H
	DB	028H
	DB	022H
	DB	00H
	DB	028H
	DB	00H
	DB	00H
	DB	00H
	DD	084980H
	DW	052c1H
	DB	026H
	DB	028H
	DB	022H
	DB	00H
	DB	028H
	DB	00H
	DB	00H
	DB	00H
	DD	084c78H
	DW	052c2H
	DB	027H
	DB	028H
	DB	022H
	DB	00H
	DB	028H
	DB	00H
	DB	00H
	DB	00H
	DD	084f98H
	DW	052c3H
	DB	026H
	DB	028H
	DB	022H
	DB	01H
	DB	028H
	DB	00H
	DB	00H
	DB	00H
	DD	085290H
	DW	052c4H
	DB	027H
	DB	028H
	DB	022H
	DB	00H
	DB	028H
	DB	00H
	DB	00H
	DB	00H
	DD	0855b0H
	DW	052c5H
	DB	026H
	DB	027H
	DB	022H
	DB	00H
	DB	028H
	DB	00H
	DB	00H
	DB	00H
	DD	085895H
	DW	052c6H
	DB	026H
	DB	028H
	DB	022H
	DB	01H
	DB	028H
	DB	00H
	DB	00H
	DB	00H
	DD	085b8dH
	DW	052c7H
	DB	025H
	DB	026H
	DB	020H
	DB	00H
	DB	028H
	DB	00H
	DB	00H
	DB	00H
	DD	085e5fH
	DW	052c8H
	DB	026H
	DB	028H
	DB	022H
	DB	01H
	DB	028H
	DB	00H
	DB	00H
	DB	00H
	DD	086157H
	DW	052c9H
	DB	028H
	DB	028H
	DB	022H
	DB	00H
	DB	028H
	DB	00H
	DB	00H
	DB	00H
	DD	086477H
	DW	052caH
	DB	028H
	DB	028H
	DB	022H
	DB	00H
	DB	028H
	DB	00H
	DB	00H
	DB	00H
	DD	086797H
	DW	052cbH
	DB	027H
	DB	028H
	DB	022H
	DB	00H
	DB	028H
	DB	00H
	DB	00H
	DB	00H
	DD	086ab7H
	DW	052ccH
	DB	027H
	DB	027H
	DB	021H
	DB	00H
	DB	028H
	DB	00H
	DB	00H
	DB	00H
	DD	086dc3H
	DW	052cdH
	DB	027H
	DB	028H
	DB	022H
	DB	00H
	DB	028H
	DB	00H
	DB	00H
	DB	00H
	DD	0870e3H
	DW	052ceH
	DB	027H
	DB	028H
	DB	022H
	DB	00H
	DB	028H
	DB	00H
	DB	00H
	DB	00H
	DD	087403H
	DW	052cfH
	DB	027H
	DB	028H
	DB	022H
	DB	00H
	DB	028H
	DB	00H
	DB	00H
	DB	00H
	DD	087723H
	DW	052d0H
	DB	027H
	DB	028H
	DB	022H
	DB	00H
	DB	028H
	DB	00H
	DB	00H
	DB	00H
	DD	087a43H
	DW	052d1H
	DB	027H
	DB	027H
	DB	022H
	DB	00H
	DB	028H
	DB	00H
	DB	00H
	DB	00H
	DD	087d4fH
	DW	052d2H
	DB	026H
	DB	027H
	DB	022H
	DB	00H
	DB	028H
	DB	00H
	DB	00H
	DB	00H
	DD	088034H
	DW	052d3H
	DB	026H
	DB	028H
	DB	022H
	DB	01H
	DB	028H
	DB	00H
	DB	00H
	DB	00H
	DD	08832cH
	DW	052d4H
	DB	026H
	DB	028H
	DB	022H
	DB	01H
	DB	028H
	DB	00H
	DB	00H
	DB	00H
	DD	088624H
	DW	052d5H
	DB	027H
	DB	028H
	DB	022H
	DB	00H
	DB	028H
	DB	00H
	DB	00H
	DB	00H
	DD	088944H
	DW	052d6H
	DB	025H
	DB	028H
	DB	022H
	DB	02H
	DB	028H
	DB	00H
	DB	00H
	DB	00H
	DD	088c3cH
	DW	052d7H
	DB	027H
	DB	026H
	DB	020H
	DB	00H
	DB	028H
	DB	00H
	DB	00H
	DB	00H
	DD	088f34H
	DW	052d8H
	DB	027H
	DB	028H
	DB	022H
	DB	00H
	DB	028H
	DB	00H
	DB	00H
	DB	00H
	DD	089254H
	DW	052d9H
	DB	028H
	DB	028H
	DB	022H
	DB	00H
	DB	028H
	DB	00H
	DB	00H
	DB	00H
	DD	089574H
	DW	052daH
	DB	027H
	DB	028H
	DB	022H
	DB	00H
	DB	028H
	DB	00H
	DB	00H
	DB	00H
	DD	089894H
	DW	052dbH
	DB	027H
	DB	028H
	DB	022H
	DB	00H
	DB	028H
	DB	00H
	DB	00H
	DB	00H
	DD	089bb4H
	DW	052dcH
	DB	027H
	DB	028H
	DB	022H
	DB	00H
	DB	028H
	DB	00H
	DB	00H
	DB	00H
	DD	089ed4H
	DW	052ddH
	DB	028H
	DB	028H
	DB	022H
	DB	00H
	DB	028H
	DB	00H
	DB	00H
	DB	00H
	DD	08a1f4H
	DW	052deH
	DB	026H
	DB	028H
	DB	022H
	DB	01H
	DB	028H
	DB	00H
	DB	00H
	DB	00H
	DD	08a4ecH
	DW	052dfH
	DB	028H
	DB	027H
	DB	021H
	DB	00H
	DB	028H
	DB	00H
	DB	00H
	DB	00H
	DD	08a7f8H
	DW	052e0H
	DB	026H
	DB	027H
	DB	021H
	DB	00H
	DB	028H
	DB	00H
	DB	00H
	DB	00H
	DD	08aaddH
	DW	052e1H
	DB	027H
	DB	027H
	DB	021H
	DB	00H
	DB	028H
	DB	00H
	DB	00H
	DB	00H
	DD	08ade9H
	DW	052e2H
	DB	028H
	DB	028H
	DB	022H
	DB	00H
	DB	028H
	DB	00H
	DB	00H
	DB	00H
	DD	08b109H
	DW	052e3H
	DB	027H
	DB	028H
	DB	022H
	DB	00H
	DB	028H
	DB	00H
	DB	00H
	DB	00H
	DD	08b429H
	DW	052e4H
	DB	027H
	DB	028H
	DB	022H
	DB	00H
	DB	028H
	DB	00H
	DB	00H
	DB	00H
	DD	08b749H
	DW	052e5H
	DB	028H
	DB	026H
	DB	020H
	DB	00H
	DB	028H
	DB	00H
	DB	00H
	DB	00H
	DD	08ba41H
	DW	052e6H
	DB	027H
	DB	028H
	DB	022H
	DB	00H
	DB	028H
	DB	00H
	DB	00H
	DB	00H
	DD	08bd61H
	DW	052e7H
	DB	027H
	DB	028H
	DB	022H
	DB	00H
	DB	028H
	DB	00H
	DB	00H
	DB	00H
	DD	08c081H
	DW	052e8H
	DB	027H
	DB	028H
	DB	022H
	DB	00H
	DB	028H
	DB	00H
	DB	00H
	DB	00H
	DD	08c3a1H
	DW	052e9H
	DB	027H
	DB	028H
	DB	022H
	DB	00H
	DB	028H
	DB	00H
	DB	00H
	DB	00H
	DD	08c6c1H
	DW	052eaH
	DB	027H
	DB	028H
	DB	022H
	DB	00H
	DB	028H
	DB	00H
	DB	00H
	DB	00H
	DD	08c9e1H
	DW	052ebH
	DB	027H
	DB	028H
	DB	022H
	DB	00H
	DB	028H
	DB	00H
	DB	00H
	DB	00H
	DD	08cd01H
	DW	052ecH
	DB	027H
	DB	028H
	DB	022H
	DB	00H
	DB	028H
	DB	00H
	DB	00H
	DB	00H
	DD	08d021H
	DW	052edH
	DB	027H
	DB	028H
	DB	022H
	DB	00H
	DB	028H
	DB	00H
	DB	00H
	DB	00H
	DD	08d341H
	DW	052eeH
	DB	026H
	DB	028H
	DB	022H
	DB	00H
	DB	028H
	DB	00H
	DB	00H
	DB	00H
	DD	08d639H
	DW	052efH
	DB	027H
	DB	028H
	DB	022H
	DB	00H
	DB	028H
	DB	00H
	DB	00H
	DB	00H
	DD	08d959H
	DW	052f0H
	DB	028H
	DB	028H
	DB	022H
	DB	00H
	DB	028H
	DB	00H
	DB	00H
	DB	00H
	DD	08dc79H
	DW	052f1H
	DB	026H
	DB	027H
	DB	021H
	DB	01H
	DB	028H
	DB	00H
	DB	00H
	DB	00H
	DD	08df5eH
	DW	052f2H
	DB	028H
	DB	028H
	DB	022H
	DB	00H
	DB	028H
	DB	00H
	DB	00H
	DB	00H
	DD	08e27eH
	DW	052f3H
	DB	027H
	DB	028H
	DB	022H
	DB	00H
	DB	028H
	DB	00H
	DB	00H
	DB	00H
	DD	08e59eH
	DW	052f4H
	DB	027H
	DB	028H
	DB	022H
	DB	00H
	DB	028H
	DB	00H
	DB	00H
	DB	00H
	DD	08e8beH
	DW	052f5H
	DB	027H
	DB	028H
	DB	022H
	DB	00H
	DB	028H
	DB	00H
	DB	00H
	DB	00H
	DD	08ebdeH
	DW	052f6H
	DB	028H
	DB	028H
	DB	022H
	DB	00H
	DB	028H
	DB	00H
	DB	00H
	DB	00H
	DD	08eefeH
	DW	052f7H
	DB	027H
	DB	028H
	DB	022H
	DB	00H
	DB	028H
	DB	00H
	DB	00H
	DB	00H
	DD	08f21eH
	DW	052f8H
	DB	027H
	DB	027H
	DB	022H
	DB	00H
	DB	028H
	DB	00H
	DB	00H
	DB	00H
	DD	08f52aH
	DW	052f9H
	DB	026H
	DB	027H
	DB	022H
	DB	00H
	DB	028H
	DB	00H
	DB	00H
	DB	00H
	DD	08f80fH
	DW	052faH
	DB	025H
	DB	027H
	DB	022H
	DB	00H
	DB	028H
	DB	00H
	DB	00H
	DB	00H
	DD	08faf4H
	DW	052fbH
	DB	026H
	DB	027H
	DB	022H
	DB	00H
	DB	028H
	DB	00H
	DB	00H
	DB	00H
	DD	08fdd9H
	DW	052fcH
	DB	026H
	DB	027H
	DB	022H
	DB	00H
	DB	028H
	DB	00H
	DB	00H
	DB	00H
	DD	0900beH
	DW	052fdH
	DB	026H
	DB	027H
	DB	022H
	DB	00H
	DB	028H
	DB	00H
	DB	00H
	DB	00H
	DD	0903a3H
	DW	052feH
	DB	026H
	DB	027H
	DB	022H
	DB	00H
	DB	028H
	DB	00H
	DB	00H
	DB	00H
	DD	090688H
	DW	052ffH
	DB	026H
	DB	028H
	DB	022H
	DB	00H
	DB	028H
	DB	00H
	DB	00H
	DB	00H
	DD	090980H
	DW	05300H
	DB	026H
	DB	027H
	DB	022H
	DB	00H
	DB	028H
	DB	00H
	DB	00H
	DB	00H
	DD	090c65H
	DW	05301H
	DB	028H
	DB	027H
	DB	022H
	DB	00H
	DB	028H
	DB	00H
	DB	00H
	DB	00H
	DD	090f71H
	DW	05302H
	DB	027H
	DB	027H
	DB	022H
	DB	00H
	DB	028H
	DB	00H
	DB	00H
	DB	00H
	DD	09127dH
	DW	05303H
	DB	026H
	DB	027H
	DB	022H
	DB	00H
	DB	028H
	DB	00H
	DB	00H
	DB	00H
	DD	091562H
	DW	05304H
	DB	026H
	DB	027H
	DB	022H
	DB	00H
	DB	028H
	DB	00H
	DB	00H
	DB	00H
	DD	091847H
	DW	05305H
	DB	028H
	DB	027H
	DB	022H
	DB	00H
	DB	028H
	DB	00H
	DB	00H
	DB	00H
	DD	091b53H
	DW	05306H
	DB	026H
	DB	028H
	DB	022H
	DB	00H
	DB	028H
	DB	00H
	DB	00H
	DB	00H
	DD	091e4bH
	DW	05307H
	DB	027H
	DB	027H
	DB	022H
	DB	00H
	DB	028H
	DB	00H
	DB	00H
	DB	00H
	DD	092157H
	DW	05308H
	DB	026H
	DB	027H
	DB	022H
	DB	00H
	DB	028H
	DB	00H
	DB	00H
	DB	00H
	DD	09243cH
	DW	05309H
	DB	026H
	DB	027H
	DB	022H
	DB	00H
	DB	028H
	DB	00H
	DB	00H
	DB	00H
	DD	092721H
	DW	0530aH
	DB	026H
	DB	027H
	DB	022H
	DB	00H
	DB	028H
	DB	00H
	DB	00H
	DB	00H
	DD	092a06H
	DW	0530bH
	DB	027H
	DB	027H
	DB	022H
	DB	00H
	DB	028H
	DB	00H
	DB	00H
	DB	00H
	DD	092d12H
	DW	0530cH
	DB	027H
	DB	027H
	DB	022H
	DB	00H
	DB	028H
	DB	00H
	DB	00H
	DB	00H
	DD	09301eH
	DW	0530dH
	DB	027H
	DB	027H
	DB	022H
	DB	00H
	DB	028H
	DB	00H
	DB	00H
	DB	00H
	DD	09332aH
	DW	0530eH
	DB	027H
	DB	027H
	DB	022H
	DB	00H
	DB	028H
	DB	00H
	DB	00H
	DB	00H
	DD	093636H
	DW	0530fH
	DB	028H
	DB	027H
	DB	022H
	DB	00H
	DB	028H
	DB	00H
	DB	00H
	DB	00H
	DD	093942H
	DW	05310H
	DB	026H
	DB	027H
	DB	022H
	DB	00H
	DB	028H
	DB	00H
	DB	00H
	DB	00H
	DD	093c27H
	DW	05311H
	DB	026H
	DB	027H
	DB	022H
	DB	00H
	DB	028H
	DB	00H
	DB	00H
	DB	00H
	DD	093f0cH
	DW	05312H
	DB	027H
	DB	027H
	DB	022H
	DB	00H
	DB	028H
	DB	00H
	DB	00H
	DB	00H
	DD	094218H
	DW	05313H
	DB	026H
	DB	027H
	DB	022H
	DB	00H
	DB	028H
	DB	00H
	DB	00H
	DB	00H
	DD	0944fdH
	DW	05314H
	DB	026H
	DB	027H
	DB	022H
	DB	00H
	DB	028H
	DB	00H
	DB	00H
	DB	00H
	DD	0947e2H
	DW	05315H
	DB	021H
	DB	025H
	DB	021H
	DB	06H
	DB	028H
	DB	00H
	DB	00H
	DB	00H
	DD	094a57H
	DW	05316H
	DB	028H
	DB	026H
	DB	021H
	DB	00H
	DB	028H
	DB	00H
	DB	00H
	DB	00H
	DD	094d4fH
	DW	05317H
	DB	028H
	DB	026H
	DB	021H
	DB	00H
	DB	028H
	DB	00H
	DB	00H
	DB	00H
	DD	095047H
	DW	05318H
	DB	025H
	DB	027H
	DB	022H
	DB	02H
	DB	028H
	DB	00H
	DB	00H
	DB	00H
	DD	09532cH
	DW	05319H
	DB	028H
	DB	027H
	DB	021H
	DB	00H
	DB	028H
	DB	00H
	DB	00H
	DB	00H
	DD	095638H
	DW	0531aH
	DB	024H
	DB	024H
	DB	020H
	DB	03H
	DB	028H
	DB	00H
	DB	00H
	DB	00H
	DD	0958c0H
	DW	0531bH
	DB	025H
	DB	024H
	DB	020H
	DB	02H
	DB	028H
	DB	00H
	DB	00H
	DB	00H
	DD	095b6cH
	DW	0531cH
	DB	026H
	DB	024H
	DB	020H
	DB	02H
	DB	028H
	DB	00H
	DB	00H
	DB	00H
	DD	095e18H
	DW	0531dH
	DB	025H
	DB	024H
	DB	020H
	DB	02H
	DB	028H
	DB	00H
	DB	00H
	DB	00H
	DD	0960c4H
	DW	0531eH
	DB	024H
	DB	023H
	DB	01fH
	DB	03H
	DB	028H
	DB	00H
	DB	00H
	DB	00H
	DD	09633aH
	DW	0531fH
	DB	025H
	DB	024H
	DB	020H
	DB	02H
	DB	028H
	DB	00H
	DB	00H
	DB	00H
	DD	0965e6H
	DW	05320H
	DB	026H
	DB	025H
	DB	020H
	DB	02H
	DB	028H
	DB	00H
	DB	00H
	DB	00H
	DD	0968a5H
	DW	05321H
	DB	024H
	DB	023H
	DB	01fH
	DB	03H
	DB	028H
	DB	00H
	DB	00H
	DB	00H
	DD	096b1bH
	DW	05322H
	DB	024H
	DB	024H
	DB	020H
	DB	03H
	DB	028H
	DB	00H
	DB	00H
	DB	00H
	DD	096da3H
	DW	05323H
	DB	025H
	DB	024H
	DB	020H
	DB	02H
	DB	028H
	DB	00H
	DB	00H
	DB	00H
	DD	09704fH
	DW	05324H
	DB	024H
	DB	024H
	DB	020H
	DB	03H
	DB	028H
	DB	00H
	DB	00H
	DB	00H
	DD	0972d7H
	DW	05325H
	DB	025H
	DB	024H
	DB	020H
	DB	02H
	DB	028H
	DB	00H
	DB	00H
	DB	00H
	DD	097583H
	DW	05326H
	DB	026H
	DB	024H
	DB	020H
	DB	02H
	DB	028H
	DB	00H
	DB	00H
	DB	00H
	DD	09782fH
	DW	05327H
	DB	026H
	DB	025H
	DB	020H
	DB	02H
	DB	028H
	DB	00H
	DB	00H
	DB	00H
	DD	097aeeH
	DW	05328H
	DB	025H
	DB	024H
	DB	020H
	DB	02H
	DB	028H
	DB	00H
	DB	00H
	DB	00H
	DD	097d9aH
	DW	05329H
	DB	025H
	DB	024H
	DB	020H
	DB	02H
	DB	028H
	DB	00H
	DB	00H
	DB	00H
	DD	098046H
	DW	0532aH
	DB	025H
	DB	024H
	DB	020H
	DB	02H
	DB	028H
	DB	00H
	DB	00H
	DB	00H
	DD	0982f2H
	DW	0532bH
	DB	025H
	DB	024H
	DB	020H
	DB	02H
	DB	028H
	DB	00H
	DB	00H
	DB	00H
	DD	09859eH
	DW	0532cH
	DB	025H
	DB	024H
	DB	020H
	DB	02H
	DB	028H
	DB	00H
	DB	00H
	DB	00H
	DD	09884aH
	DW	0532dH
	DB	026H
	DB	024H
	DB	020H
	DB	02H
	DB	028H
	DB	00H
	DB	00H
	DB	00H
	DD	098af6H
	DW	0532eH
	DB	026H
	DB	024H
	DB	020H
	DB	02H
	DB	028H
	DB	00H
	DB	00H
	DB	00H
	DD	098da2H
	DW	0532fH
	DB	025H
	DB	024H
	DB	020H
	DB	02H
	DB	028H
	DB	00H
	DB	00H
	DB	00H
	DD	09904eH
	DW	05330H
	DB	025H
	DB	024H
	DB	020H
	DB	02H
	DB	028H
	DB	00H
	DB	00H
	DB	00H
	DD	0992faH
	DW	05331H
	DB	025H
	DB	024H
	DB	020H
	DB	02H
	DB	028H
	DB	00H
	DB	00H
	DB	00H
	DD	0995a6H
	DW	05332H
	DB	025H
	DB	024H
	DB	020H
	DB	02H
	DB	028H
	DB	00H
	DB	00H
	DB	00H
	DD	099852H
	DW	05333H
	DB	026H
	DB	024H
	DB	020H
	DB	02H
	DB	028H
	DB	00H
	DB	00H
	DB	00H
	DD	099afeH
	DW	05334H
	DB	025H
	DB	024H
	DB	020H
	DB	02H
	DB	028H
	DB	00H
	DB	00H
	DB	00H
	DD	099daaH
	DW	05335H
	DB	025H
	DB	024H
	DB	020H
	DB	02H
	DB	028H
	DB	00H
	DB	00H
	DB	00H
	DD	09a056H
	DW	05336H
	DB	025H
	DB	024H
	DB	020H
	DB	02H
	DB	028H
	DB	00H
	DB	00H
	DB	00H
	DD	09a302H
	DW	05337H
	DB	025H
	DB	024H
	DB	020H
	DB	02H
	DB	028H
	DB	00H
	DB	00H
	DB	00H
	DD	09a5aeH
	DW	05338H
	DB	024H
	DB	023H
	DB	01fH
	DB	02H
	DB	028H
	DB	00H
	DB	00H
	DB	00H
	DD	09a824H
	DW	05339H
	DB	024H
	DB	023H
	DB	01fH
	DB	03H
	DB	028H
	DB	00H
	DB	00H
	DB	00H
	DD	09aa9aH
	DW	0533aH
	DB	024H
	DB	024H
	DB	020H
	DB	03H
	DB	028H
	DB	00H
	DB	00H
	DB	00H
	DD	09ad22H
	DW	0533bH
	DB	026H
	DB	025H
	DB	020H
	DB	02H
	DB	028H
	DB	00H
	DB	00H
	DB	00H
	DD	09afe1H
	DW	0533cH
	DB	025H
	DB	024H
	DB	020H
	DB	02H
	DB	028H
	DB	00H
	DB	00H
	DB	00H
	DD	09b28dH
	DW	0533dH
	DB	025H
	DB	025H
	DB	020H
	DB	02H
	DB	028H
	DB	00H
	DB	00H
	DB	00H
	DD	09b54cH
	DW	0533eH
	DB	026H
	DB	024H
	DB	020H
	DB	02H
	DB	028H
	DB	00H
	DB	00H
	DB	00H
	DD	09b7f8H
	DW	0533fH
	DB	025H
	DB	025H
	DB	020H
	DB	02H
	DB	028H
	DB	00H
	DB	00H
	DB	00H
	DD	09bab7H
	DW	05340H
	DB	025H
	DB	024H
	DB	020H
	DB	02H
	DB	028H
	DB	00H
	DB	00H
	DB	00H
	DD	09bd63H
	DW	05341H
	DB	026H
	DB	027H
	DB	022H
	DB	01H
	DB	028H
	DB	00H
	DB	00H
	DB	00H
	DD	09c048H
	DW	05342H
	DB	027H
	DB	026H
	DB	020H
	DB	01H
	DB	028H
	DB	00H
	DB	00H
	DB	00H
	DD	09c340H
	DW	05343H
	DB	028H
	DB	026H
	DB	021H
	DB	00H
	DB	028H
	DB	00H
	DB	00H
	DB	00H
	DD	09c638H
	DW	05344H
	DB	028H
	DB	026H
	DB	021H
	DB	00H
	DB	028H
	DB	00H
	DB	00H
	DB	00H
	DD	09c930H
	DW	05345H
	DB	028H
	DB	027H
	DB	021H
	DB	00H
	DB	028H
	DB	00H
	DB	00H
	DB	00H
	DD	09cc3cH
	DW	05346H
	DB	028H
	DB	027H
	DB	022H
	DB	00H
	DB	028H
	DB	00H
	DB	00H
	DB	00H
	DD	09cf48H
	DW	05347H
	DB	028H
	DB	027H
	DB	021H
	DB	00H
	DB	028H
	DB	00H
	DB	00H
	DB	00H
	DD	09d254H
	DW	05348H
	DB	028H
	DB	027H
	DB	022H
	DB	00H
	DB	028H
	DB	00H
	DB	00H
	DB	00H
	DD	09d560H
	DW	05349H
	DB	028H
	DB	027H
	DB	021H
	DB	00H
	DB	028H
	DB	00H
	DB	00H
	DB	00H
	DD	09d86cH
	DW	0534aH
	DB	028H
	DB	027H
	DB	022H
	DB	00H
	DB	028H
	DB	00H
	DB	00H
	DB	00H
	DD	09db78H
	DW	0534bH
	DB	028H
	DB	027H
	DB	022H
	DB	00H
	DB	028H
	DB	00H
	DB	00H
	DB	00H
	DD	09de84H
	DW	0534cH
	DB	028H
	DB	026H
	DB	021H
	DB	00H
	DB	028H
	DB	00H
	DB	00H
	DB	00H
	DD	09e17cH
	DW	0534dH
	DB	027H
	DB	026H
	DB	021H
	DB	01H
	DB	028H
	DB	00H
	DB	00H
	DB	00H
	DD	09e474H
	DW	0534eH
	DB	028H
	DB	027H
	DB	022H
	DB	00H
	DB	028H
	DB	00H
	DB	00H
	DB	00H
	DD	09e780H
	DW	0534fH
	DB	028H
	DB	028H
	DB	022H
	DB	00H
	DB	028H
	DB	00H
	DB	00H
	DB	00H
	DD	09eaa0H
	DW	05350H
	DB	027H
	DB	026H
	DB	021H
	DB	01H
	DB	028H
	DB	00H
	DB	00H
	DB	00H
	DD	09ed98H
	DW	05351H
	DB	026H
	DB	027H
	DB	022H
	DB	01H
	DB	028H
	DB	00H
	DB	00H
	DB	00H
	DD	09f07dH
	DW	05352H
	DB	028H
	DB	027H
	DB	022H
	DB	00H
	DB	028H
	DB	00H
	DB	00H
	DB	00H
	DD	09f389H
	DW	05353H
	DB	028H
	DB	027H
	DB	022H
	DB	00H
	DB	028H
	DB	00H
	DB	00H
	DB	00H
	DD	09f695H
	DW	05354H
	DB	027H
	DB	028H
	DB	022H
	DB	00H
	DB	028H
	DB	00H
	DB	00H
	DB	00H
	DD	09f9b5H
	DW	05355H
	DB	028H
	DB	027H
	DB	022H
	DB	00H
	DB	028H
	DB	00H
	DB	00H
	DB	00H
	DD	09fcc1H
	DW	05356H
	DB	027H
	DB	028H
	DB	022H
	DB	01H
	DB	028H
	DB	00H
	DB	00H
	DB	00H
	DD	09ffe1H
	DW	05357H
	DB	026H
	DB	028H
	DB	022H
	DB	01H
	DB	028H
	DB	00H
	DB	00H
	DB	00H
	DD	0a02d9H
	DW	05358H
	DB	028H
	DB	027H
	DB	022H
	DB	00H
	DB	028H
	DB	00H
	DB	00H
	DB	00H
	DD	0a05e5H
	DW	05359H
	DB	028H
	DB	027H
	DB	022H
	DB	00H
	DB	028H
	DB	00H
	DB	00H
	DB	00H
	DD	0a08f1H
	DW	0535aH
	DB	028H
	DB	027H
	DB	022H
	DB	00H
	DB	028H
	DB	00H
	DB	00H
	DB	00H
	DD	0a0bfdH
	DW	0535bH
	DB	027H
	DB	027H
	DB	022H
	DB	01H
	DB	028H
	DB	00H
	DB	00H
	DB	00H
	DD	0a0f09H
	DW	0535cH
	DB	018H
	DB	026H
	DB	021H
	DB	0dH
	DB	028H
	DB	00H
	DB	00H
	DB	00H
	DD	0a10d1H
	DW	0535dH
	DB	027H
	DB	026H
	DB	021H
	DB	01H
	DB	028H
	DB	00H
	DB	00H
	DB	00H
	DD	0a13c9H
	DW	0535eH
	DB	028H
	DB	027H
	DB	022H
	DB	00H
	DB	028H
	DB	00H
	DB	00H
	DB	00H
	DD	0a16d5H
	DW	0535fH
	DB	026H
	DB	027H
	DB	022H
	DB	02H
	DB	028H
	DB	00H
	DB	00H
	DB	00H
	DD	0a19baH
	DW	05360H
	DB	024H
	DB	027H
	DB	022H
	DB	04H
	DB	028H
	DB	00H
	DB	00H
	DB	00H
	DD	0a1c78H
	DW	05361H
	DB	027H
	DB	026H
	DB	021H
	DB	01H
	DB	028H
	DB	00H
	DB	00H
	DB	00H
	DD	0a1f70H
	DW	05362H
	DB	028H
	DB	028H
	DB	022H
	DB	00H
	DB	028H
	DB	00H
	DB	00H
	DB	00H
	DD	0a2290H
	DW	05363H
	DB	024H
	DB	027H
	DB	022H
	DB	03H
	DB	028H
	DB	00H
	DB	00H
	DB	00H
	DD	0a254eH
	DW	05364H
	DB	024H
	DB	027H
	DB	022H
	DB	03H
	DB	028H
	DB	00H
	DB	00H
	DB	00H
	DD	0a280cH
	DW	05365H
	DB	024H
	DB	027H
	DB	022H
	DB	03H
	DB	028H
	DB	00H
	DB	00H
	DB	00H
	DD	0a2acaH
	DW	05366H
	DB	028H
	DB	027H
	DB	022H
	DB	00H
	DB	028H
	DB	00H
	DB	00H
	DB	00H
	DD	0a2dd6H
	DW	05367H
	DB	026H
	DB	026H
	DB	021H
	DB	02H
	DB	028H
	DB	00H
	DB	00H
	DB	00H
	DD	0a30a8H
	DW	05368H
	DB	024H
	DB	027H
	DB	022H
	DB	02H
	DB	028H
	DB	00H
	DB	00H
	DB	00H
	DD	0a3366H
	DW	05369H
	DB	016H
	DB	024H
	DB	01fH
	DB	010H
	DB	028H
	DB	00H
	DB	00H
	DB	00H
	DD	0a34f2H
	DW	0536aH
	DB	018H
	DB	024H
	DB	01fH
	DB	08H
	DB	028H
	DB	00H
	DB	00H
	DB	00H
	DD	0a36a2H
	DW	0536bH
	DB	028H
	DB	023H
	DB	01fH
	DB	00H
	DB	028H
	DB	00H
	DB	00H
	DB	00H
	DD	0a395eH
	DW	0536cH
	DB	024H
	DB	026H
	DB	021H
	DB	02H
	DB	028H
	DB	00H
	DB	00H
	DB	00H
	DD	0a3c0aH
	DW	0536dH
	DB	026H
	DB	024H
	DB	01fH
	DB	00H
	DB	028H
	DB	00H
	DB	00H
	DB	00H
	DD	0a3eb6H
	DW	0536eH
	DB	028H
	DB	027H
	DB	021H
	DB	00H
	DB	028H
	DB	00H
	DB	00H
	DB	00H
	DD	0a41c2H
	DW	0536fH
	DB	024H
	DB	027H
	DB	021H
	DB	02H
	DB	028H
	DB	00H
	DB	00H
	DB	00H
	DD	0a4480H
	DW	05370H
	DB	024H
	DB	027H
	DB	022H
	DB	02H
	DB	028H
	DB	00H
	DB	00H
	DB	00H
	DD	0a473eH
	DW	05371H
	DB	028H
	DB	028H
	DB	022H
	DB	00H
	DB	028H
	DB	00H
	DB	00H
	DB	00H
	DD	0a4a5eH
	DW	05372H
	DB	026H
	DB	025H
	DB	020H
	DB	00H
	DB	028H
	DB	00H
	DB	00H
	DB	00H
	DD	0a4d1dH
	DW	05373H
	DB	025H
	DB	025H
	DB	020H
	DB	01H
	DB	028H
	DB	00H
	DB	00H
	DB	00H
	DD	0a4fdcH
	DW	05374H
	DB	026H
	DB	027H
	DB	022H
	DB	00H
	DB	028H
	DB	00H
	DB	00H
	DB	00H
	DD	0a52c1H
	DW	05375H
	DB	026H
	DB	028H
	DB	022H
	DB	00H
	DB	028H
	DB	00H
	DB	00H
	DB	00H
	DD	0a55b9H
	DW	05376H
	DB	026H
	DB	028H
	DB	022H
	DB	00H
	DB	028H
	DB	00H
	DB	00H
	DB	00H
	DD	0a58b1H
	DW	05377H
	DB	028H
	DB	027H
	DB	022H
	DB	00H
	DB	028H
	DB	00H
	DB	00H
	DB	00H
	DD	0a5bbdH
	DW	05378H
	DB	026H
	DB	027H
	DB	022H
	DB	00H
	DB	028H
	DB	00H
	DB	00H
	DB	00H
	DD	0a5ea2H
	DW	05379H
	DB	026H
	DB	027H
	DB	022H
	DB	00H
	DB	028H
	DB	00H
	DB	00H
	DB	00H
	DD	0a6187H
	DW	0537aH
	DB	028H
	DB	025H
	DB	020H
	DB	00H
	DB	028H
	DB	00H
	DB	00H
	DB	00H
	DD	0a646bH
	DW	0537bH
	DB	026H
	DB	026H
	DB	021H
	DB	00H
	DB	028H
	DB	00H
	DB	00H
	DB	00H
	DD	0a673dH
	DW	0537cH
	DB	028H
	DB	028H
	DB	022H
	DB	00H
	DB	028H
	DB	00H
	DB	00H
	DB	00H
	DD	0a6a5dH
	DW	0537dH
	DB	025H
	DB	028H
	DB	022H
	DB	01H
	DB	028H
	DB	00H
	DB	00H
	DB	00H
	DD	0a6d55H
	DW	0537eH
	DB	026H
	DB	025H
	DB	020H
	DB	00H
	DB	028H
	DB	00H
	DB	00H
	DB	00H
	DD	0a7014H
	DW	0537fH
	DB	025H
	DB	027H
	DB	021H
	DB	01H
	DB	028H
	DB	00H
	DB	00H
	DB	00H
	DD	0a72f9H
	DW	05380H
	DB	026H
	DB	027H
	DB	021H
	DB	00H
	DB	028H
	DB	00H
	DB	00H
	DB	00H
	DD	0a75deH
	DW	05381H
	DB	028H
	DB	027H
	DB	022H
	DB	00H
	DB	028H
	DB	00H
	DB	00H
	DB	00H
	DD	0a78eaH
	DW	05382H
	DB	027H
	DB	026H
	DB	020H
	DB	00H
	DB	028H
	DB	00H
	DB	00H
	DB	00H
	DD	0a7be2H
	DW	05383H
	DB	027H
	DB	028H
	DB	022H
	DB	00H
	DB	028H
	DB	00H
	DB	00H
	DB	00H
	DD	0a7f02H
	DW	05384H
	DB	028H
	DB	025H
	DB	020H
	DB	00H
	DB	028H
	DB	00H
	DB	00H
	DB	00H
	DD	0a81e6H
	DW	05385H
	DB	027H
	DB	026H
	DB	020H
	DB	00H
	DB	028H
	DB	00H
	DB	00H
	DB	00H
	DD	0a84deH
	DW	05386H
	DB	027H
	DB	026H
	DB	020H
	DB	00H
	DB	028H
	DB	00H
	DB	00H
	DB	00H
	DD	0a87d6H
	DW	05387H
	DB	028H
	DB	025H
	DB	020H
	DB	00H
	DB	028H
	DB	00H
	DB	00H
	DB	00H
	DD	0a8abaH
	DW	05388H
	DB	028H
	DB	026H
	DB	020H
	DB	00H
	DB	028H
	DB	00H
	DB	00H
	DB	00H
	DD	0a8db2H
	DW	05389H
	DB	028H
	DB	026H
	DB	020H
	DB	00H
	DB	028H
	DB	00H
	DB	00H
	DB	00H
	DD	0a90aaH
	DW	0538aH
	DB	027H
	DB	026H
	DB	020H
	DB	00H
	DB	028H
	DB	00H
	DB	00H
	DB	00H
	DD	0a93a2H
	DW	0538bH
	DB	028H
	DB	024H
	DB	01fH
	DB	00H
	DB	028H
	DB	00H
	DB	00H
	DB	00H
	DD	0a9672H
	DW	0538cH
	DB	028H
	DB	026H
	DB	020H
	DB	00H
	DB	028H
	DB	00H
	DB	00H
	DB	00H
	DD	0a996aH
	DW	0538dH
	DB	028H
	DB	026H
	DB	020H
	DB	00H
	DB	028H
	DB	00H
	DB	00H
	DB	00H
	DD	0a9c62H
	DW	0538eH
	DB	028H
	DB	026H
	DB	020H
	DB	00H
	DB	028H
	DB	00H
	DB	00H
	DB	00H
	DD	0a9f5aH
	DW	0538fH
	DB	027H
	DB	026H
	DB	020H
	DB	00H
	DB	028H
	DB	00H
	DB	00H
	DB	00H
	DD	0aa252H
	DW	05390H
	DB	027H
	DB	026H
	DB	020H
	DB	00H
	DB	028H
	DB	00H
	DB	00H
	DB	00H
	DD	0aa54aH
	DW	05391H
	DB	028H
	DB	026H
	DB	020H
	DB	00H
	DB	028H
	DB	00H
	DB	00H
	DB	00H
	DD	0aa842H
	DW	05392H
	DB	027H
	DB	026H
	DB	020H
	DB	00H
	DB	028H
	DB	00H
	DB	00H
	DB	00H
	DD	0aab3aH
	DW	05393H
	DB	027H
	DB	026H
	DB	020H
	DB	00H
	DB	028H
	DB	00H
	DB	00H
	DB	00H
	DD	0aae32H
	DW	05394H
	DB	028H
	DB	026H
	DB	020H
	DB	00H
	DB	028H
	DB	00H
	DB	00H
	DB	00H
	DD	0ab12aH
	DW	05395H
	DB	028H
	DB	026H
	DB	020H
	DB	00H
	DB	028H
	DB	00H
	DB	00H
	DB	00H
	DD	0ab422H
	DW	05396H
	DB	027H
	DB	026H
	DB	020H
	DB	00H
	DB	028H
	DB	00H
	DB	00H
	DB	00H
	DD	0ab71aH
	DW	05397H
	DB	027H
	DB	025H
	DB	020H
	DB	00H
	DB	028H
	DB	00H
	DB	00H
	DB	00H
	DD	0ab9feH
	DW	05398H
	DB	027H
	DB	026H
	DB	020H
	DB	00H
	DB	028H
	DB	00H
	DB	00H
	DB	00H
	DD	0abcf6H
	DW	05399H
	DB	028H
	DB	025H
	DB	020H
	DB	00H
	DB	028H
	DB	00H
	DB	00H
	DB	00H
	DD	0abfdaH
	DW	0539aH
	DB	028H
	DB	026H
	DB	020H
	DB	00H
	DB	028H
	DB	00H
	DB	00H
	DB	00H
	DD	0ac2d2H
	DW	0539bH
	DB	027H
	DB	026H
	DB	020H
	DB	00H
	DB	028H
	DB	00H
	DB	00H
	DB	00H
	DD	0ac5caH
	DW	0539cH
	DB	028H
	DB	026H
	DB	020H
	DB	00H
	DB	028H
	DB	00H
	DB	00H
	DB	00H
	DD	0ac8c2H
	DW	0539dH
	DB	028H
	DB	025H
	DB	020H
	DB	00H
	DB	028H
	DB	00H
	DB	00H
	DB	00H
	DD	0acba6H
	DW	0539eH
	DB	027H
	DB	026H
	DB	020H
	DB	00H
	DB	028H
	DB	00H
	DB	00H
	DB	00H
	DD	0ace9eH
	DW	0539fH
	DB	028H
	DB	026H
	DB	020H
	DB	00H
	DB	028H
	DB	00H
	DB	00H
	DB	00H
	DD	0ad196H
	DW	053a0H
	DB	027H
	DB	026H
	DB	020H
	DB	00H
	DB	028H
	DB	00H
	DB	00H
	DB	00H
	DD	0ad48eH
	DW	053a1H
	DB	028H
	DB	026H
	DB	020H
	DB	00H
	DB	028H
	DB	00H
	DB	00H
	DB	00H
	DD	0ad786H
	DW	053a2H
	DB	027H
	DB	026H
	DB	020H
	DB	00H
	DB	028H
	DB	00H
	DB	00H
	DB	00H
	DD	0ada7eH
	DW	053a3H
	DB	028H
	DB	026H
	DB	020H
	DB	00H
	DB	028H
	DB	00H
	DB	00H
	DB	00H
	DD	0add76H
	DW	053a4H
	DB	028H
	DB	026H
	DB	020H
	DB	00H
	DB	028H
	DB	00H
	DB	00H
	DB	00H
	DD	0ae06eH
	DW	053a5H
	DB	028H
	DB	026H
	DB	020H
	DB	00H
	DB	028H
	DB	00H
	DB	00H
	DB	00H
	DD	0ae366H
	DW	053a6H
	DB	028H
	DB	026H
	DB	020H
	DB	00H
	DB	028H
	DB	00H
	DB	00H
	DB	00H
	DD	0ae65eH
	DW	053a7H
	DB	027H
	DB	026H
	DB	020H
	DB	00H
	DB	028H
	DB	00H
	DB	00H
	DB	00H
	DD	0ae956H
	DW	053a8H
	DB	028H
	DB	026H
	DB	020H
	DB	00H
	DB	028H
	DB	00H
	DB	00H
	DB	00H
	DD	0aec4eH
	DW	053a9H
	DB	028H
	DB	026H
	DB	020H
	DB	00H
	DB	028H
	DB	00H
	DB	00H
	DB	00H
	DD	0aef46H
	DW	053aaH
	DB	028H
	DB	026H
	DB	020H
	DB	00H
	DB	028H
	DB	00H
	DB	00H
	DB	00H
	DD	0af23eH
	DW	053abH
	DB	027H
	DB	026H
	DB	020H
	DB	00H
	DB	028H
	DB	00H
	DB	00H
	DB	00H
	DD	0af536H
	DW	053acH
	DB	028H
	DB	026H
	DB	020H
	DB	00H
	DB	028H
	DB	00H
	DB	00H
	DB	00H
	DD	0af82eH
	DW	053adH
	DB	028H
	DB	026H
	DB	020H
	DB	00H
	DB	028H
	DB	00H
	DB	00H
	DB	00H
	DD	0afb26H
	DW	053aeH
	DB	028H
	DB	026H
	DB	020H
	DB	00H
	DB	028H
	DB	00H
	DB	00H
	DB	00H
	DD	0afe1eH
	DW	053afH
	DB	028H
	DB	026H
	DB	020H
	DB	00H
	DB	028H
	DB	00H
	DB	00H
	DB	00H
	DD	0b0116H
	DW	053b0H
	DB	028H
	DB	026H
	DB	020H
	DB	00H
	DB	028H
	DB	00H
	DB	00H
	DB	00H
	DD	0b040eH
	DW	053b1H
	DB	027H
	DB	026H
	DB	020H
	DB	00H
	DB	028H
	DB	00H
	DB	00H
	DB	00H
	DD	0b0706H
	DW	053b2H
	DB	028H
	DB	025H
	DB	020H
	DB	00H
	DB	028H
	DB	00H
	DB	00H
	DB	00H
	DD	0b09eaH
	DW	053b3H
	DB	028H
	DB	028H
	DB	022H
	DB	00H
	DB	028H
	DB	00H
	DB	00H
	DB	00H
	DD	0b0d0aH
	DW	053b4H
	DB	028H
	DB	025H
	DB	020H
	DB	00H
	DB	028H
	DB	00H
	DB	00H
	DB	00H
	DD	0b0feeH
	DW	053b5H
	DB	028H
	DB	027H
	DB	021H
	DB	00H
	DB	028H
	DB	00H
	DB	00H
	DB	00H
	DD	0b12faH
	DW	053b6H
	DB	025H
	DB	026H
	DB	021H
	DB	02H
	DB	028H
	DB	00H
	DB	00H
	DB	00H
	DD	0b15ccH
	DW	053b7H
	DB	027H
	DB	028H
	DB	022H
	DB	01H
	DB	028H
	DB	00H
	DB	00H
	DB	00H
	DD	0b18ecH
	DW	053b8H
	DB	028H
	DB	028H
	DB	022H
	DB	00H
	DB	028H
	DB	00H
	DB	00H
	DB	00H
	DD	0b1c0cH
	DW	053b9H
	DB	028H
	DB	027H
	DB	021H
	DB	00H
	DB	028H
	DB	00H
	DB	00H
	DB	00H
	DD	0b1f18H
	DW	053baH
	DB	028H
	DB	028H
	DB	022H
	DB	00H
	DB	028H
	DB	00H
	DB	00H
	DB	00H
	DD	0b2238H
	DW	053bbH
	DB	028H
	DB	027H
	DB	022H
	DB	00H
	DB	028H
	DB	00H
	DB	00H
	DB	00H
	DD	0b2544H
	DW	053bcH
	DB	028H
	DB	027H
	DB	022H
	DB	00H
	DB	028H
	DB	00H
	DB	00H
	DB	00H
	DD	0b2850H
	DW	053bdH
	DB	028H
	DB	028H
	DB	022H
	DB	00H
	DB	028H
	DB	00H
	DB	00H
	DB	00H
	DD	0b2b70H
	DW	053beH
	DB	027H
	DB	025H
	DB	020H
	DB	01H
	DB	028H
	DB	00H
	DB	00H
	DB	00H
	DD	0b2e54H
	DW	053bfH
	DB	028H
	DB	026H
	DB	020H
	DB	00H
	DB	028H
	DB	00H
	DB	00H
	DB	00H
	DD	0b314cH
	DW	053c0H
	DB	026H
	DB	028H
	DB	022H
	DB	01H
	DB	028H
	DB	00H
	DB	00H
	DB	00H
	DD	0b3444H
	DW	053c1H
	DB	028H
	DB	026H
	DB	022H
	DB	00H
	DB	028H
	DB	00H
	DB	00H
	DB	00H
	DD	0b373cH
	DW	053c2H
	DB	028H
	DB	028H
	DB	022H
	DB	00H
	DB	028H
	DB	00H
	DB	00H
	DB	00H
	DD	0b3a5cH
	DW	053c3H
	DB	028H
	DB	028H
	DB	022H
	DB	00H
	DB	028H
	DB	00H
	DB	00H
	DB	00H
	DD	0b3d7cH
	DW	053c4H
	DB	028H
	DB	027H
	DB	022H
	DB	00H
	DB	028H
	DB	00H
	DB	00H
	DB	00H
	DD	0b4088H
	DW	053c5H
	DB	028H
	DB	028H
	DB	022H
	DB	00H
	DB	028H
	DB	00H
	DB	00H
	DB	00H
	DD	0b43a8H
	DW	053c6H
	DB	028H
	DB	027H
	DB	021H
	DB	00H
	DB	028H
	DB	00H
	DB	00H
	DB	00H
	DD	0b46b4H
	DW	053c7H
	DB	028H
	DB	027H
	DB	021H
	DB	00H
	DB	028H
	DB	00H
	DB	00H
	DB	00H
	DD	0b49c0H
	DW	053c8H
	DB	027H
	DB	025H
	DB	01fH
	DB	01H
	DB	028H
	DB	00H
	DB	00H
	DB	00H
	DD	0b4ca4H
	DW	053c9H
	DB	028H
	DB	025H
	DB	01fH
	DB	00H
	DB	028H
	DB	00H
	DB	00H
	DB	00H
	DD	0b4f88H
	DW	053caH
	DB	028H
	DB	025H
	DB	01fH
	DB	00H
	DB	028H
	DB	00H
	DB	00H
	DB	00H
	DD	0b526cH
	DW	053cbH
	DB	028H
	DB	027H
	DB	021H
	DB	00H
	DB	028H
	DB	00H
	DB	00H
	DB	00H
	DD	0b5578H
	DW	053ccH
	DB	028H
	DB	025H
	DB	01fH
	DB	00H
	DB	028H
	DB	00H
	DB	00H
	DB	00H
	DD	0b585cH
	DW	053cdH
	DB	028H
	DB	027H
	DB	021H
	DB	00H
	DB	028H
	DB	00H
	DB	00H
	DB	00H
	DD	0b5b68H
	DW	053ceH
	DB	028H
	DB	027H
	DB	022H
	DB	00H
	DB	028H
	DB	00H
	DB	00H
	DB	00H
	DD	0b5e74H
	DW	053cfH
	DB	028H
	DB	028H
	DB	022H
	DB	00H
	DB	028H
	DB	00H
	DB	00H
	DB	00H
	DD	0b6194H
	DW	053d0H
	DB	028H
	DB	027H
	DB	021H
	DB	00H
	DB	028H
	DB	00H
	DB	00H
	DB	00H
	DD	0b64a0H
	DW	053d1H
	DB	028H
	DB	028H
	DB	022H
	DB	00H
	DB	028H
	DB	00H
	DB	00H
	DB	00H
	DD	0b67c0H
	DW	053d2H
	DB	028H
	DB	026H
	DB	020H
	DB	00H
	DB	028H
	DB	00H
	DB	00H
	DB	00H
	DD	0b6ab8H
	DW	053d3H
	DB	028H
	DB	028H
	DB	022H
	DB	00H
	DB	028H
	DB	00H
	DB	00H
	DB	00H
	DD	0b6dd8H
	DW	053d4H
	DB	027H
	DB	027H
	DB	021H
	DB	00H
	DB	028H
	DB	00H
	DB	00H
	DB	00H
	DD	0b70e4H
	DW	053d5H
	DB	028H
	DB	027H
	DB	021H
	DB	00H
	DB	028H
	DB	00H
	DB	00H
	DB	00H
	DD	0b73f0H
	DW	053d6H
	DB	028H
	DB	025H
	DB	020H
	DB	00H
	DB	028H
	DB	00H
	DB	00H
	DB	00H
	DD	0b76d4H
	DW	053d7H
	DB	027H
	DB	027H
	DB	021H
	DB	01H
	DB	028H
	DB	00H
	DB	00H
	DB	00H
	DD	0b79e0H
	DW	053d8H
	DB	028H
	DB	028H
	DB	022H
	DB	00H
	DB	028H
	DB	00H
	DB	00H
	DB	00H
	DD	0b7d00H
	DW	053d9H
	DB	028H
	DB	027H
	DB	021H
	DB	00H
	DB	028H
	DB	00H
	DB	00H
	DB	00H
	DD	0b800cH
	DW	053daH
	DB	026H
	DB	026H
	DB	020H
	DB	02H
	DB	028H
	DB	00H
	DB	00H
	DB	00H
	DD	0b82deH
	DW	053dbH
	DB	028H
	DB	027H
	DB	021H
	DB	00H
	DB	028H
	DB	00H
	DB	00H
	DB	00H
	DD	0b85eaH
	DW	053dcH
	DB	028H
	DB	028H
	DB	022H
	DB	00H
	DB	028H
	DB	00H
	DB	00H
	DB	00H
	DD	0b890aH
	DW	053ddH
	DB	028H
	DB	027H
	DB	022H
	DB	00H
	DB	028H
	DB	00H
	DB	00H
	DB	00H
	DD	0b8c16H
	DW	053deH
	DB	028H
	DB	026H
	DB	020H
	DB	00H
	DB	028H
	DB	00H
	DB	00H
	DB	00H
	DD	0b8f0eH
	DW	053dfH
	DB	028H
	DB	028H
	DB	022H
	DB	00H
	DB	028H
	DB	00H
	DB	00H
	DB	00H
	DD	0b922eH
	DW	053e0H
	DB	028H
	DB	025H
	DB	020H
	DB	00H
	DB	028H
	DB	00H
	DB	00H
	DB	00H
	DD	0b9512H
	DW	053e1H
	DB	028H
	DB	028H
	DB	022H
	DB	00H
	DB	028H
	DB	00H
	DB	00H
	DB	00H
	DD	0b9832H
	DW	053e2H
	DB	028H
	DB	027H
	DB	022H
	DB	00H
	DB	028H
	DB	00H
	DB	00H
	DB	00H
	DD	0b9b3eH
	DW	053e3H
	DB	022H
	DB	023H
	DB	01eH
	DB	03H
	DB	028H
	DB	00H
	DB	00H
	DB	00H
	DD	0b9d91H
	DW	053e4H
	DB	026H
	DB	027H
	DB	022H
	DB	01H
	DB	028H
	DB	00H
	DB	00H
	DB	00H
	DD	0ba076H
	DW	053e5H
	DB	026H
	DB	027H
	DB	022H
	DB	00H
	DB	028H
	DB	00H
	DB	00H
	DB	00H
	DD	0ba35bH
	DW	053e6H
	DB	026H
	DB	026H
	DB	020H
	DB	00H
	DB	028H
	DB	00H
	DB	00H
	DB	00H
	DD	0ba62dH
	DW	053e7H
	DB	026H
	DB	026H
	DB	020H
	DB	00H
	DB	028H
	DB	00H
	DB	00H
	DB	00H
	DD	0ba8ffH
	DW	053e8H
	DB	024H
	DB	025H
	DB	01fH
	DB	02H
	DB	028H
	DB	00H
	DB	00H
	DB	00H
	DD	0bab99H
	DW	053e9H
	DB	024H
	DB	024H
	DB	01fH
	DB	02H
	DB	028H
	DB	00H
	DB	00H
	DB	00H
	DD	0bae21H
	DW	053eaH
	DB	027H
	DB	026H
	DB	020H
	DB	00H
	DB	028H
	DB	00H
	DB	00H
	DB	00H
	DD	0bb119H
	DW	053ebH
	DB	024H
	DB	026H
	DB	021H
	DB	02H
	DB	028H
	DB	00H
	DB	00H
	DB	00H
	DD	0bb3c5H
	DW	053ecH
	DB	024H
	DB	025H
	DB	020H
	DB	01H
	DB	028H
	DB	00H
	DB	00H
	DB	00H
	DD	0bb65fH
	DW	053edH
	DB	026H
	DB	027H
	DB	021H
	DB	02H
	DB	028H
	DB	00H
	DB	00H
	DB	00H
	DD	0bb944H
	DW	053eeH
	DB	026H
	DB	024H
	DB	01fH
	DB	02H
	DB	028H
	DB	00H
	DB	00H
	DB	00H
	DD	0bbbf0H
	DW	053efH
	DB	027H
	DB	024H
	DB	01fH
	DB	01H
	DB	028H
	DB	00H
	DB	00H
	DB	00H
	DD	0bbec0H
	DW	053f0H
	DB	027H
	DB	027H
	DB	022H
	DB	01H
	DB	028H
	DB	00H
	DB	00H
	DB	00H
	DD	0bc1ccH
	DW	053f1H
	DB	026H
	DB	026H
	DB	021H
	DB	02H
	DB	028H
	DB	00H
	DB	00H
	DB	00H
	DD	0bc49eH
	DW	053f2H
	DB	028H
	DB	028H
	DB	022H
	DB	00H
	DB	028H
	DB	00H
	DB	00H
	DB	00H
	DD	0bc7beH
	DW	053f3H
	DB	027H
	DB	028H
	DB	022H
	DB	00H
	DB	028H
	DB	00H
	DB	00H
	DB	00H
	DD	0bcadeH
	DW	053f4H
	DB	028H
	DB	026H
	DB	021H
	DB	00H
	DB	028H
	DB	00H
	DB	00H
	DB	00H
	DD	0bcdd6H
	DW	053f5H
	DB	025H
	DB	024H
	DB	020H
	DB	02H
	DB	028H
	DB	00H
	DB	00H
	DB	00H
	DD	0bd082H
	DW	053f6H
	DB	026H
	DB	027H
	DB	022H
	DB	02H
	DB	028H
	DB	00H
	DB	00H
	DB	00H
	DD	0bd367H
	DW	053f7H
	DB	028H
	DB	026H
	DB	020H
	DB	00H
	DB	028H
	DB	00H
	DB	00H
	DB	00H
	DD	0bd65fH
	DW	053f8H
	DB	024H
	DB	025H
	DB	020H
	DB	01H
	DB	028H
	DB	00H
	DB	00H
	DB	00H
	DD	0bd8f9H
	DW	053f9H
	DB	025H
	DB	026H
	DB	020H
	DB	02H
	DB	028H
	DB	00H
	DB	00H
	DB	00H
	DD	0bdbcbH
	DW	053faH
	DB	026H
	DB	028H
	DB	022H
	DB	02H
	DB	028H
	DB	00H
	DB	00H
	DB	00H
	DD	0bdec3H
	DW	053fbH
	DB	024H
	DB	028H
	DB	022H
	DB	02H
	DB	028H
	DB	00H
	DB	00H
	DB	00H
	DD	0be193H
	DW	053fcH
	DB	024H
	DB	024H
	DB	01fH
	DB	02H
	DB	028H
	DB	00H
	DB	00H
	DB	00H
	DD	0be41bH
	DW	053fdH
	DB	026H
	DB	025H
	DB	020H
	DB	02H
	DB	028H
	DB	00H
	DB	00H
	DB	00H
	DD	0be6daH
	DW	053feH
	DB	021H
	DB	025H
	DB	020H
	DB	03H
	DB	028H
	DB	00H
	DB	00H
	DB	00H
	DD	0be94fH
	DW	053ffH
	DB	025H
	DB	023H
	DB	01fH
	DB	02H
	DB	028H
	DB	00H
	DB	00H
	DB	00H
	DD	0bebe8H
	DW	05400H
	DB	026H
	DB	026H
	DB	021H
	DB	02H
	DB	028H
	DB	00H
	DB	00H
	DB	00H
	DD	0beebaH
	DW	05401H
	DB	026H
	DB	024H
	DB	01fH
	DB	02H
	DB	028H
	DB	00H
	DB	00H
	DB	00H
	DD	0bf166H
	DW	05402H
	DB	028H
	DB	027H
	DB	022H
	DB	00H
	DB	028H
	DB	00H
	DB	00H
	DB	00H
	DD	0bf472H
	DW	05403H
	DB	026H
	DB	027H
	DB	022H
	DB	02H
	DB	028H
	DB	00H
	DB	00H
	DB	00H
	DD	0bf757H
	DW	05404H
	DB	028H
	DB	027H
	DB	022H
	DB	00H
	DB	028H
	DB	00H
	DB	00H
	DB	00H
	DD	0bfa63H
	DW	05405H
	DB	024H
	DB	025H
	DB	020H
	DB	02H
	DB	028H
	DB	00H
	DB	00H
	DB	00H
	DD	0bfcfdH
	DW	05406H
	DB	026H
	DB	028H
	DB	022H
	DB	02H
	DB	028H
	DB	00H
	DB	00H
	DB	00H
	DD	0bfff5H
	DW	05407H
	DB	026H
	DB	025H
	DB	020H
	DB	02H
	DB	028H
	DB	00H
	DB	00H
	DB	00H
	DD	0c02b4H
	DW	05408H
	DB	028H
	DB	027H
	DB	022H
	DB	00H
	DB	028H
	DB	00H
	DB	00H
	DB	00H
	DD	0c05c0H
	DW	05409H
	DB	026H
	DB	027H
	DB	022H
	DB	01H
	DB	028H
	DB	00H
	DB	00H
	DB	00H
	DD	0c08a5H
	DW	0540aH
	DB	023H
	DB	025H
	DB	020H
	DB	03H
	DB	028H
	DB	00H
	DB	00H
	DB	00H
	DD	0c0b3fH
	DW	0540bH
	DB	026H
	DB	027H
	DB	022H
	DB	02H
	DB	028H
	DB	00H
	DB	00H
	DB	00H
	DD	0c0e24H
	DW	0540cH
	DB	024H
	DB	026H
	DB	020H
	DB	02H
	DB	028H
	DB	00H
	DB	00H
	DB	00H
	DD	0c10d0H
	DW	0540dH
	DB	025H
	DB	028H
	DB	022H
	DB	00H
	DB	028H
	DB	00H
	DB	00H
	DB	00H
	DD	0c13c8H
	DW	0540eH
	DB	027H
	DB	026H
	DB	020H
	DB	00H
	DB	028H
	DB	00H
	DB	00H
	DB	00H
	DD	0c16c0H
	DW	0540fH
	DB	027H
	DB	028H
	DB	022H
	DB	01H
	DB	028H
	DB	00H
	DB	00H
	DB	00H
	DD	0c19e0H
	DW	05410H
	DB	026H
	DB	025H
	DB	021H
	DB	02H
	DB	028H
	DB	00H
	DB	00H
	DB	00H
	DD	0c1c9fH
	DW	05411H
	DB	024H
	DB	028H
	DB	022H
	DB	02H
	DB	028H
	DB	00H
	DB	00H
	DB	00H
	DD	0c1f6fH
	DW	05412H
	DB	026H
	DB	026H
	DB	021H
	DB	02H
	DB	028H
	DB	00H
	DB	00H
	DB	00H
	DD	0c2241H
	DW	05413H
	DB	026H
	DB	024H
	DB	01fH
	DB	02H
	DB	028H
	DB	00H
	DB	00H
	DB	00H
	DD	0c24edH
	DW	05414H
	DB	026H
	DB	027H
	DB	022H
	DB	02H
	DB	028H
	DB	00H
	DB	00H
	DB	00H
	DD	0c27d2H
	DW	05415H
	DB	022H
	DB	025H
	DB	020H
	DB	03H
	DB	028H
	DB	00H
	DB	00H
	DB	00H
	DD	0c2a47H
	DW	05416H
	DB	026H
	DB	026H
	DB	021H
	DB	02H
	DB	028H
	DB	00H
	DB	00H
	DB	00H
	DD	0c2d19H
	DW	05417H
	DB	025H
	DB	025H
	DB	020H
	DB	02H
	DB	028H
	DB	00H
	DB	00H
	DB	00H
	DD	0c2fd8H
	DW	05418H
	DB	026H
	DB	027H
	DB	022H
	DB	02H
	DB	028H
	DB	00H
	DB	00H
	DB	00H
	DD	0c32bdH
	DW	05419H
	DB	026H
	DB	028H
	DB	022H
	DB	02H
	DB	028H
	DB	00H
	DB	00H
	DB	00H
	DD	0c35b5H
	DW	0541aH
	DB	026H
	DB	025H
	DB	01fH
	DB	02H
	DB	028H
	DB	00H
	DB	00H
	DB	00H
	DD	0c3874H
	DW	0541bH
	DB	028H
	DB	026H
	DB	020H
	DB	00H
	DB	028H
	DB	00H
	DB	00H
	DB	00H
	DD	0c3b6cH
	DW	0541cH
	DB	026H
	DB	024H
	DB	020H
	DB	02H
	DB	028H
	DB	00H
	DB	00H
	DB	00H
	DD	0c3e18H
	DW	0541dH
	DB	028H
	DB	027H
	DB	022H
	DB	00H
	DB	028H
	DB	00H
	DB	00H
	DB	00H
	DD	0c4124H
	DW	0541eH
	DB	028H
	DB	025H
	DB	020H
	DB	00H
	DB	028H
	DB	00H
	DB	00H
	DB	00H
	DD	0c4408H
	DW	0541fH
	DB	026H
	DB	027H
	DB	021H
	DB	02H
	DB	028H
	DB	00H
	DB	00H
	DB	00H
	DD	0c46edH
	DW	05420H
	DB	026H
	DB	028H
	DB	022H
	DB	02H
	DB	028H
	DB	00H
	DB	00H
	DB	00H
	DD	0c49e5H
	DW	05421H
	DB	026H
	DB	026H
	DB	021H
	DB	02H
	DB	028H
	DB	00H
	DB	00H
	DB	00H
	DD	0c4cb7H
	DW	05422H
	DB	028H
	DB	027H
	DB	022H
	DB	00H
	DB	028H
	DB	00H
	DB	00H
	DB	00H
	DD	0c4fc3H
	DW	05423H
	DB	026H
	DB	027H
	DB	022H
	DB	02H
	DB	028H
	DB	00H
	DB	00H
	DB	00H
	DD	0c52a8H
	DW	05424H
	DB	026H
	DB	028H
	DB	022H
	DB	02H
	DB	028H
	DB	00H
	DB	00H
	DB	00H
	DD	0c55a0H
	DW	05425H
	DB	027H
	DB	024H
	DB	01fH
	DB	01H
	DB	028H
	DB	00H
	DB	00H
	DB	00H
	DD	0c5870H
	DW	05426H
	DB	028H
	DB	025H
	DB	020H
	DB	00H
	DB	028H
	DB	00H
	DB	00H
	DB	00H
	DD	0c5b54H
	DW	05427H
	DB	026H
	DB	025H
	DB	020H
	DB	02H
	DB	028H
	DB	00H
	DB	00H
	DB	00H
	DD	0c5e13H
	DW	05428H
	DB	026H
	DB	027H
	DB	022H
	DB	02H
	DB	028H
	DB	00H
	DB	00H
	DB	00H
	DD	0c60f8H
	DW	05429H
	DB	026H
	DB	027H
	DB	021H
	DB	02H
	DB	028H
	DB	00H
	DB	00H
	DB	00H
	DD	0c63ddH
	DW	0542aH
	DB	026H
	DB	026H
	DB	021H
	DB	02H
	DB	028H
	DB	00H
	DB	00H
	DB	00H
	DD	0c66afH
	DW	0542bH
	DB	028H
	DB	028H
	DB	022H
	DB	00H
	DB	028H
	DB	00H
	DB	00H
	DB	00H
	DD	0c69cfH
	DW	0542cH
	DB	026H
	DB	028H
	DB	022H
	DB	02H
	DB	028H
	DB	00H
	DB	00H
	DB	00H
	DD	0c6cc7H
	DW	0542dH
	DB	026H
	DB	028H
	DB	022H
	DB	02H
	DB	028H
	DB	00H
	DB	00H
	DB	00H
	DD	0c6fbfH
	DW	0542eH
	DB	026H
	DB	028H
	DB	022H
	DB	02H
	DB	028H
	DB	00H
	DB	00H
	DB	00H
	DD	0c72b7H
	DW	0542fH
	DB	025H
	DB	028H
	DB	022H
	DB	00H
	DB	028H
	DB	00H
	DB	00H
	DB	00H
	DD	0c75afH
	DW	05430H
	DB	026H
	DB	028H
	DB	022H
	DB	02H
	DB	028H
	DB	00H
	DB	00H
	DB	00H
	DD	0c78a7H
	DW	05431H
	DB	026H
	DB	028H
	DB	022H
	DB	02H
	DB	028H
	DB	00H
	DB	00H
	DB	00H
	DD	0c7b9fH
	DW	05432H
	DB	023H
	DB	027H
	DB	022H
	DB	02H
	DB	028H
	DB	00H
	DB	00H
	DB	00H
	DD	0c7e5dH
	DW	05433H
	DB	026H
	DB	026H
	DB	020H
	DB	01H
	DB	028H
	DB	00H
	DB	00H
	DB	00H
	DD	0c812fH
	DW	05434H
	DB	026H
	DB	026H
	DB	020H
	DB	01H
	DB	028H
	DB	00H
	DB	00H
	DB	00H
	DD	0c8401H
	DW	05435H
	DB	026H
	DB	027H
	DB	021H
	DB	02H
	DB	028H
	DB	00H
	DB	00H
	DB	00H
	DD	0c86e6H
	DW	05436H
	DB	024H
	DB	027H
	DB	022H
	DB	02H
	DB	028H
	DB	00H
	DB	00H
	DB	00H
	DD	0c89a4H
	DW	05437H
	DB	025H
	DB	027H
	DB	021H
	DB	02H
	DB	028H
	DB	00H
	DB	00H
	DB	00H
	DD	0c8c89H
	DW	05438H
	DB	027H
	DB	025H
	DB	01fH
	DB	01H
	DB	028H
	DB	00H
	DB	00H
	DB	00H
	DD	0c8f6dH
	DW	05439H
	DB	026H
	DB	028H
	DB	022H
	DB	02H
	DB	028H
	DB	00H
	DB	00H
	DB	00H
	DD	0c9265H
	DW	0543aH
	DB	026H
	DB	026H
	DB	020H
	DB	02H
	DB	028H
	DB	00H
	DB	00H
	DB	00H
	DD	0c9537H
	DW	0543bH
	DB	025H
	DB	027H
	DB	022H
	DB	02H
	DB	028H
	DB	00H
	DB	00H
	DB	00H
	DD	0c981cH
	DW	0543cH
	DB	026H
	DB	026H
	DB	021H
	DB	02H
	DB	028H
	DB	00H
	DB	00H
	DB	00H
	DD	0c9aeeH
	DW	0543dH
	DB	026H
	DB	027H
	DB	022H
	DB	02H
	DB	028H
	DB	00H
	DB	00H
	DB	00H
	DD	0c9dd3H
	DW	0543eH
	DB	028H
	DB	025H
	DB	020H
	DB	00H
	DB	028H
	DB	00H
	DB	00H
	DB	00H
	DD	0ca0b7H
	DW	0543fH
	DB	027H
	DB	027H
	DB	022H
	DB	01H
	DB	028H
	DB	00H
	DB	00H
	DB	00H
	DD	0ca3c3H
	DW	05440H
	DB	026H
	DB	024H
	DB	01fH
	DB	02H
	DB	028H
	DB	00H
	DB	00H
	DB	00H
	DD	0ca66fH
	DW	05441H
	DB	024H
	DB	027H
	DB	022H
	DB	02H
	DB	028H
	DB	00H
	DB	00H
	DB	00H
	DD	0ca92dH
	DW	05442H
	DB	022H
	DB	025H
	DB	020H
	DB	03H
	DB	028H
	DB	00H
	DB	00H
	DB	00H
	DD	0caba2H
	DW	05443H
	DB	027H
	DB	026H
	DB	020H
	DB	01H
	DB	028H
	DB	00H
	DB	00H
	DB	00H
	DD	0cae9aH
	DW	05444H
	DB	026H
	DB	025H
	DB	020H
	DB	01H
	DB	028H
	DB	00H
	DB	00H
	DB	00H
	DD	0cb159H
	DW	05445H
	DB	026H
	DB	028H
	DB	022H
	DB	02H
	DB	028H
	DB	00H
	DB	00H
	DB	00H
	DD	0cb451H
	DW	05446H
	DB	027H
	DB	025H
	DB	020H
	DB	01H
	DB	028H
	DB	00H
	DB	00H
	DB	00H
	DD	0cb735H
	DW	05447H
	DB	028H
	DB	027H
	DB	022H
	DB	00H
	DB	028H
	DB	00H
	DB	00H
	DB	00H
	DD	0cba41H
	DW	05448H
	DB	026H
	DB	024H
	DB	020H
	DB	01H
	DB	028H
	DB	00H
	DB	00H
	DB	00H
	DD	0cbcedH
	DW	05449H
	DB	026H
	DB	026H
	DB	020H
	DB	01H
	DB	028H
	DB	00H
	DB	00H
	DB	00H
	DD	0cbfbfH
	DW	0544aH
	DB	027H
	DB	027H
	DB	022H
	DB	01H
	DB	028H
	DB	00H
	DB	00H
	DB	00H
	DD	0cc2cbH
	DW	0544bH
	DB	026H
	DB	028H
	DB	022H
	DB	02H
	DB	028H
	DB	00H
	DB	00H
	DB	00H
	DD	0cc5c3H
	DW	0544cH
	DB	026H
	DB	027H
	DB	022H
	DB	02H
	DB	028H
	DB	00H
	DB	00H
	DB	00H
	DD	0cc8a8H
	DW	0544dH
	DB	026H
	DB	025H
	DB	01fH
	DB	02H
	DB	028H
	DB	00H
	DB	00H
	DB	00H
	DD	0ccb67H
	DW	0544eH
	DB	026H
	DB	025H
	DB	01fH
	DB	02H
	DB	028H
	DB	00H
	DB	00H
	DB	00H
	DD	0cce26H
	DW	0544fH
	DB	027H
	DB	028H
	DB	022H
	DB	01H
	DB	028H
	DB	00H
	DB	00H
	DB	00H
	DD	0cd146H
	DW	05450H
	DB	024H
	DB	027H
	DB	022H
	DB	02H
	DB	028H
	DB	00H
	DB	00H
	DB	00H
	DD	0cd404H
	DW	05451H
	DB	028H
	DB	026H
	DB	021H
	DB	00H
	DB	028H
	DB	00H
	DB	00H
	DB	00H
	DD	0cd6fcH
	DW	05452H
	DB	026H
	DB	026H
	DB	020H
	DB	02H
	DB	028H
	DB	00H
	DB	00H
	DB	00H
	DD	0cd9ceH
	DW	05453H
	DB	026H
	DB	026H
	DB	022H
	DB	02H
	DB	028H
	DB	00H
	DB	00H
	DB	00H
	DD	0cdca0H
	DW	05454H
	DB	026H
	DB	027H
	DB	022H
	DB	02H
	DB	028H
	DB	00H
	DB	00H
	DB	00H
	DD	0cdf85H
	DW	05455H
	DB	026H
	DB	023H
	DB	01fH
	DB	02H
	DB	028H
	DB	00H
	DB	00H
	DB	00H
	DD	0ce21eH
	DW	05456H
	DB	027H
	DB	026H
	DB	020H
	DB	01H
	DB	028H
	DB	00H
	DB	00H
	DB	00H
	DD	0ce516H
	DW	05457H
	DB	027H
	DB	026H
	DB	020H
	DB	01H
	DB	028H
	DB	00H
	DB	00H
	DB	00H
	DD	0ce80eH
	DW	05458H
	DB	027H
	DB	026H
	DB	020H
	DB	00H
	DB	028H
	DB	00H
	DB	00H
	DB	00H
	DD	0ceb06H
	DW	05459H
	DB	023H
	DB	025H
	DB	020H
	DB	03H
	DB	028H
	DB	00H
	DB	00H
	DB	00H
	DD	0ceda0H
	DW	0545aH
	DB	026H
	DB	028H
	DB	022H
	DB	02H
	DB	028H
	DB	00H
	DB	00H
	DB	00H
	DD	0cf098H
	DW	0545bH
	DB	026H
	DB	027H
	DB	022H
	DB	02H
	DB	028H
	DB	00H
	DB	00H
	DB	00H
	DD	0cf37dH
	DW	0545cH
	DB	025H
	DB	027H
	DB	022H
	DB	02H
	DB	028H
	DB	00H
	DB	00H
	DB	00H
	DD	0cf662H
	DW	0545dH
	DB	026H
	DB	028H
	DB	022H
	DB	02H
	DB	028H
	DB	00H
	DB	00H
	DB	00H
	DD	0cf95aH
	DW	0545eH
	DB	025H
	DB	025H
	DB	020H
	DB	01H
	DB	028H
	DB	00H
	DB	00H
	DB	00H
	DD	0cfc19H
	DW	0545fH
	DB	027H
	DB	028H
	DB	022H
	DB	01H
	DB	028H
	DB	00H
	DB	00H
	DB	00H
	DD	0cff39H
	DW	05460H
	DB	027H
	DB	027H
	DB	022H
	DB	01H
	DB	028H
	DB	00H
	DB	00H
	DB	00H
	DD	0d0245H
	DW	05461H
	DB	026H
	DB	026H
	DB	020H
	DB	02H
	DB	028H
	DB	00H
	DB	00H
	DB	00H
	DD	0d0517H
	DW	05462H
	DB	027H
	DB	026H
	DB	020H
	DB	01H
	DB	028H
	DB	00H
	DB	00H
	DB	00H
	DD	0d080fH
	DW	05463H
	DB	026H
	DB	025H
	DB	020H
	DB	02H
	DB	028H
	DB	00H
	DB	00H
	DB	00H
	DD	0d0aceH
	DW	05464H
	DB	026H
	DB	027H
	DB	021H
	DB	02H
	DB	028H
	DB	00H
	DB	00H
	DB	00H
	DD	0d0db3H
	DW	05465H
	DB	026H
	DB	027H
	DB	022H
	DB	02H
	DB	028H
	DB	00H
	DB	00H
	DB	00H
	DD	0d1098H
	DW	05466H
	DB	024H
	DB	028H
	DB	022H
	DB	02H
	DB	028H
	DB	00H
	DB	00H
	DB	00H
	DD	0d1368H
	DW	05467H
	DB	026H
	DB	026H
	DB	020H
	DB	02H
	DB	028H
	DB	00H
	DB	00H
	DB	00H
	DD	0d163aH
	DW	05468H
	DB	026H
	DB	026H
	DB	020H
	DB	00H
	DB	028H
	DB	00H
	DB	00H
	DB	00H
	DD	0d190cH
	DW	05469H
	DB	027H
	DB	026H
	DB	020H
	DB	01H
	DB	028H
	DB	00H
	DB	00H
	DB	00H
	DD	0d1c04H
	DW	0546aH
	DB	027H
	DB	026H
	DB	020H
	DB	01H
	DB	028H
	DB	00H
	DB	00H
	DB	00H
	DD	0d1efcH
	DW	0546bH
	DB	026H
	DB	028H
	DB	022H
	DB	02H
	DB	028H
	DB	00H
	DB	00H
	DB	00H
	DD	0d21f4H
	DW	0546cH
	DB	025H
	DB	025H
	DB	020H
	DB	02H
	DB	028H
	DB	00H
	DB	00H
	DB	00H
	DD	0d24b3H
	DW	0546dH
	DB	026H
	DB	025H
	DB	021H
	DB	02H
	DB	028H
	DB	00H
	DB	00H
	DB	00H
	DD	0d2772H
	DW	0546eH
	DB	026H
	DB	025H
	DB	01fH
	DB	02H
	DB	028H
	DB	00H
	DB	00H
	DB	00H
	DD	0d2a31H
	DW	0546fH
	DB	026H
	DB	024H
	DB	01fH
	DB	02H
	DB	028H
	DB	00H
	DB	00H
	DB	00H
	DD	0d2cddH
	DW	05470H
	DB	028H
	DB	027H
	DB	022H
	DB	00H
	DB	028H
	DB	00H
	DB	00H
	DB	00H
	DD	0d2fe9H
	DW	05471H
	DB	026H
	DB	026H
	DB	021H
	DB	02H
	DB	028H
	DB	00H
	DB	00H
	DB	00H
	DD	0d32bbH
	DW	05472H
	DB	026H
	DB	027H
	DB	022H
	DB	02H
	DB	028H
	DB	00H
	DB	00H
	DB	00H
	DD	0d35a0H
	DW	05473H
	DB	026H
	DB	026H
	DB	021H
	DB	02H
	DB	028H
	DB	00H
	DB	00H
	DB	00H
	DD	0d3872H
	DW	05474H
	DB	025H
	DB	028H
	DB	022H
	DB	02H
	DB	028H
	DB	00H
	DB	00H
	DB	00H
	DD	0d3b6aH
	DW	05475H
	DB	026H
	DB	026H
	DB	020H
	DB	02H
	DB	028H
	DB	00H
	DB	00H
	DB	00H
	DD	0d3e3cH
	DW	05476H
	DB	026H
	DB	028H
	DB	022H
	DB	02H
	DB	028H
	DB	00H
	DB	00H
	DB	00H
	DD	0d4134H
	DW	05477H
	DB	024H
	DB	025H
	DB	020H
	DB	02H
	DB	028H
	DB	00H
	DB	00H
	DB	00H
	DD	0d43ceH
	DW	05478H
	DB	026H
	DB	024H
	DB	020H
	DB	02H
	DB	028H
	DB	00H
	DB	00H
	DB	00H
	DD	0d467aH
	DW	05479H
	DB	026H
	DB	028H
	DB	022H
	DB	02H
	DB	028H
	DB	00H
	DB	00H
	DB	00H
	DD	0d4972H
	DW	0547aH
	DB	026H
	DB	026H
	DB	021H
	DB	02H
	DB	028H
	DB	00H
	DB	00H
	DB	00H
	DD	0d4c44H
	DW	0547bH
	DB	024H
	DB	027H
	DB	022H
	DB	02H
	DB	028H
	DB	00H
	DB	00H
	DB	00H
	DD	0d4f02H
	DW	0547cH
	DB	025H
	DB	025H
	DB	020H
	DB	02H
	DB	028H
	DB	00H
	DB	00H
	DB	00H
	DD	0d51c1H
	DW	0547dH
	DB	027H
	DB	027H
	DB	022H
	DB	00H
	DB	028H
	DB	00H
	DB	00H
	DB	00H
	DD	0d54cdH
	DW	0547eH
	DB	027H
	DB	024H
	DB	020H
	DB	01H
	DB	028H
	DB	00H
	DB	00H
	DB	00H
	DD	0d579dH
	DW	0547fH
	DB	027H
	DB	028H
	DB	022H
	DB	01H
	DB	028H
	DB	00H
	DB	00H
	DB	00H
	DD	0d5abdH
	DW	05480H
	DB	026H
	DB	024H
	DB	020H
	DB	02H
	DB	028H
	DB	00H
	DB	00H
	DB	00H
	DD	0d5d69H
	DW	05481H
	DB	026H
	DB	027H
	DB	022H
	DB	02H
	DB	028H
	DB	00H
	DB	00H
	DB	00H
	DD	0d604eH
	DW	05482H
	DB	026H
	DB	024H
	DB	020H
	DB	02H
	DB	028H
	DB	00H
	DB	00H
	DB	00H
	DD	0d62faH
	DW	05483H
	DB	026H
	DB	027H
	DB	022H
	DB	02H
	DB	028H
	DB	00H
	DB	00H
	DB	00H
	DD	0d65dfH
	DW	05484H
	DB	025H
	DB	027H
	DB	022H
	DB	02H
	DB	028H
	DB	00H
	DB	00H
	DB	00H
	DD	0d68c4H
	DW	05485H
	DB	028H
	DB	026H
	DB	021H
	DB	00H
	DB	028H
	DB	00H
	DB	00H
	DB	00H
	DD	0d6bbcH
	DW	05486H
	DB	026H
	DB	027H
	DB	022H
	DB	02H
	DB	028H
	DB	00H
	DB	00H
	DB	00H
	DD	0d6ea1H
	DW	05487H
	DB	026H
	DB	027H
	DB	022H
	DB	02H
	DB	028H
	DB	00H
	DB	00H
	DB	00H
	DD	0d7186H
	DW	05488H
	DB	025H
	DB	027H
	DB	021H
	DB	02H
	DB	028H
	DB	00H
	DB	00H
	DB	00H
	DD	0d746bH
	DW	05489H
	DB	027H
	DB	027H
	DB	021H
	DB	01H
	DB	028H
	DB	00H
	DB	00H
	DB	00H
	DD	0d7777H
	DW	0548aH
	DB	027H
	DB	026H
	DB	021H
	DB	01H
	DB	028H
	DB	00H
	DB	00H
	DB	00H
	DD	0d7a6fH
	DW	0548bH
	DB	026H
	DB	027H
	DB	022H
	DB	02H
	DB	028H
	DB	00H
	DB	00H
	DB	00H
	DD	0d7d54H
	DW	0548cH
	DB	026H
	DB	026H
	DB	021H
	DB	00H
	DB	028H
	DB	00H
	DB	00H
	DB	00H
	DD	0d8026H
	DW	0548dH
	DB	026H
	DB	028H
	DB	022H
	DB	02H
	DB	028H
	DB	00H
	DB	00H
	DB	00H
	DD	0d831eH
	DW	0548eH
	DB	028H
	DB	028H
	DB	022H
	DB	00H
	DB	028H
	DB	00H
	DB	00H
	DB	00H
	DD	0d863eH
	DW	0548fH
	DB	026H
	DB	027H
	DB	022H
	DB	02H
	DB	028H
	DB	00H
	DB	00H
	DB	00H
	DD	0d8923H
	DW	05490H
	DB	026H
	DB	027H
	DB	022H
	DB	02H
	DB	028H
	DB	00H
	DB	00H
	DB	00H
	DD	0d8c08H
	DW	05491H
	DB	027H
	DB	027H
	DB	021H
	DB	01H
	DB	028H
	DB	00H
	DB	00H
	DB	00H
	DD	0d8f14H
	DW	05492H
	DB	028H
	DB	026H
	DB	020H
	DB	00H
	DB	028H
	DB	00H
	DB	00H
	DB	00H
	DD	0d920cH
	DW	05493H
	DB	026H
	DB	025H
	DB	020H
	DB	02H
	DB	028H
	DB	00H
	DB	00H
	DB	00H
	DD	0d94cbH
	DW	05494H
	DB	026H
	DB	027H
	DB	022H
	DB	02H
	DB	028H
	DB	00H
	DB	00H
	DB	00H
	DD	0d97b0H
	DW	05495H
	DB	026H
	DB	028H
	DB	022H
	DB	02H
	DB	028H
	DB	00H
	DB	00H
	DB	00H
	DD	0d9aa8H
	DW	05496H
	DB	024H
	DB	027H
	DB	021H
	DB	02H
	DB	028H
	DB	00H
	DB	00H
	DB	00H
	DD	0d9d66H
	DW	05497H
	DB	026H
	DB	026H
	DB	022H
	DB	02H
	DB	028H
	DB	00H
	DB	00H
	DB	00H
	DD	0da038H
	DW	05498H
	DB	026H
	DB	027H
	DB	022H
	DB	02H
	DB	028H
	DB	00H
	DB	00H
	DB	00H
	DD	0da31dH
	DW	05499H
	DB	026H
	DB	027H
	DB	022H
	DB	02H
	DB	028H
	DB	00H
	DB	00H
	DB	00H
	DD	0da602H
	DW	0549aH
	DB	026H
	DB	028H
	DB	022H
	DB	02H
	DB	028H
	DB	00H
	DB	00H
	DB	00H
	DD	0da8faH
	DW	0549bH
	DB	026H
	DB	028H
	DB	022H
	DB	02H
	DB	028H
	DB	00H
	DB	00H
	DB	00H
	DD	0dabf2H
	DW	0549cH
	DB	026H
	DB	027H
	DB	022H
	DB	02H
	DB	028H
	DB	00H
	DB	00H
	DB	00H
	DD	0daed7H
	DW	0549dH
	DB	026H
	DB	025H
	DB	021H
	DB	02H
	DB	028H
	DB	00H
	DB	00H
	DB	00H
	DD	0db196H
	DW	0549eH
	DB	026H
	DB	025H
	DB	01fH
	DB	02H
	DB	028H
	DB	00H
	DB	00H
	DB	00H
	DD	0db455H
	DW	0549fH
	DB	027H
	DB	024H
	DB	01fH
	DB	01H
	DB	028H
	DB	00H
	DB	00H
	DB	00H
	DD	0db725H
	DW	054a0H
	DB	027H
	DB	025H
	DB	020H
	DB	01H
	DB	028H
	DB	00H
	DB	00H
	DB	00H
	DD	0dba09H
	DW	054a1H
	DB	025H
	DB	025H
	DB	020H
	DB	02H
	DB	028H
	DB	00H
	DB	00H
	DB	00H
	DD	0dbcc8H
	DW	054a2H
	DB	026H
	DB	025H
	DB	020H
	DB	01H
	DB	028H
	DB	00H
	DB	00H
	DB	00H
	DD	0dbf87H
	DW	054a3H
	DB	026H
	DB	028H
	DB	022H
	DB	02H
	DB	028H
	DB	00H
	DB	00H
	DB	00H
	DD	0dc27fH
	DW	054a4H
	DB	025H
	DB	027H
	DB	022H
	DB	02H
	DB	028H
	DB	00H
	DB	00H
	DB	00H
	DD	0dc564H
	DW	054a5H
	DB	027H
	DB	024H
	DB	020H
	DB	01H
	DB	028H
	DB	00H
	DB	00H
	DB	00H
	DD	0dc834H
	DW	054a6H
	DB	026H
	DB	028H
	DB	022H
	DB	02H
	DB	028H
	DB	00H
	DB	00H
	DB	00H
	DD	0dcb2cH
	DW	054a7H
	DB	024H
	DB	027H
	DB	021H
	DB	02H
	DB	028H
	DB	00H
	DB	00H
	DB	00H
	DD	0dcdeaH
	DW	054a8H
	DB	028H
	DB	028H
	DB	022H
	DB	00H
	DB	028H
	DB	00H
	DB	00H
	DB	00H
	DD	0dd10aH
	DW	054a9H
	DB	026H
	DB	027H
	DB	022H
	DB	02H
	DB	028H
	DB	00H
	DB	00H
	DB	00H
	DD	0dd3efH
	DW	054aaH
	DB	026H
	DB	027H
	DB	022H
	DB	02H
	DB	028H
	DB	00H
	DB	00H
	DB	00H
	DD	0dd6d4H
	DW	054abH
	DB	028H
	DB	025H
	DB	020H
	DB	00H
	DB	028H
	DB	00H
	DB	00H
	DB	00H
	DD	0dd9b8H
	DW	054acH
	DB	026H
	DB	028H
	DB	022H
	DB	02H
	DB	028H
	DB	00H
	DB	00H
	DB	00H
	DD	0ddcb0H
	DW	054adH
	DB	026H
	DB	027H
	DB	022H
	DB	02H
	DB	028H
	DB	00H
	DB	00H
	DB	00H
	DD	0ddf95H
	DW	054aeH
	DB	027H
	DB	027H
	DB	022H
	DB	01H
	DB	028H
	DB	00H
	DB	00H
	DB	00H
	DD	0de2a1H
	DW	054afH
	DB	026H
	DB	027H
	DB	022H
	DB	02H
	DB	028H
	DB	00H
	DB	00H
	DB	00H
	DD	0de586H
	DW	054b0H
	DB	026H
	DB	027H
	DB	022H
	DB	01H
	DB	028H
	DB	00H
	DB	00H
	DB	00H
	DD	0de86bH
	DW	054b1H
	DB	024H
	DB	027H
	DB	022H
	DB	02H
	DB	028H
	DB	00H
	DB	00H
	DB	00H
	DD	0deb29H
	DW	054b2H
	DB	026H
	DB	028H
	DB	022H
	DB	02H
	DB	028H
	DB	00H
	DB	00H
	DB	00H
	DD	0dee21H
	DW	054b3H
	DB	026H
	DB	028H
	DB	022H
	DB	02H
	DB	028H
	DB	00H
	DB	00H
	DB	00H
	DD	0df119H
	DW	054b4H
	DB	026H
	DB	028H
	DB	022H
	DB	02H
	DB	028H
	DB	00H
	DB	00H
	DB	00H
	DD	0df411H
	DW	054b5H
	DB	026H
	DB	027H
	DB	022H
	DB	02H
	DB	028H
	DB	00H
	DB	00H
	DB	00H
	DD	0df6f6H
	DW	054b6H
	DB	026H
	DB	025H
	DB	020H
	DB	02H
	DB	028H
	DB	00H
	DB	00H
	DB	00H
	DD	0df9b5H
	DW	054b7H
	DB	027H
	DB	027H
	DB	021H
	DB	01H
	DB	028H
	DB	00H
	DB	00H
	DB	00H
	DD	0dfcc1H
	DW	054b8H
	DB	028H
	DB	028H
	DB	022H
	DB	00H
	DB	028H
	DB	00H
	DB	00H
	DB	00H
	DD	0dffe1H
	DW	054b9H
	DB	026H
	DB	028H
	DB	022H
	DB	02H
	DB	028H
	DB	00H
	DB	00H
	DB	00H
	DD	0e02d9H
	DW	054baH
	DB	026H
	DB	024H
	DB	020H
	DB	02H
	DB	028H
	DB	00H
	DB	00H
	DB	00H
	DD	0e0585H
	DW	054bbH
	DB	026H
	DB	028H
	DB	022H
	DB	02H
	DB	028H
	DB	00H
	DB	00H
	DB	00H
	DD	0e087dH
	DW	054bcH
	DB	024H
	DB	025H
	DB	020H
	DB	02H
	DB	028H
	DB	00H
	DB	00H
	DB	00H
	DD	0e0b17H
	DW	054bdH
	DB	024H
	DB	025H
	DB	020H
	DB	02H
	DB	028H
	DB	00H
	DB	00H
	DB	00H
	DD	0e0db1H
	DW	054beH
	DB	026H
	DB	027H
	DB	022H
	DB	02H
	DB	028H
	DB	00H
	DB	00H
	DB	00H
	DD	0e1096H
	DW	054bfH
	DB	026H
	DB	027H
	DB	022H
	DB	02H
	DB	028H
	DB	00H
	DB	00H
	DB	00H
	DD	0e137bH
	DW	054c0H
	DB	027H
	DB	028H
	DB	022H
	DB	00H
	DB	028H
	DB	00H
	DB	00H
	DB	00H
	DD	0e169bH
	DW	054c1H
	DB	024H
	DB	025H
	DB	020H
	DB	02H
	DB	028H
	DB	00H
	DB	00H
	DB	00H
	DD	0e1935H
	DW	054c2H
	DB	027H
	DB	025H
	DB	020H
	DB	01H
	DB	028H
	DB	00H
	DB	00H
	DB	00H
	DD	0e1c19H
	DW	054c3H
	DB	024H
	DB	026H
	DB	020H
	DB	02H
	DB	028H
	DB	00H
	DB	00H
	DB	00H
	DD	0e1ec5H
	DW	054c4H
	DB	026H
	DB	026H
	DB	021H
	DB	02H
	DB	028H
	DB	00H
	DB	00H
	DB	00H
	DD	0e2197H
	DW	054c5H
	DB	024H
	DB	027H
	DB	022H
	DB	02H
	DB	028H
	DB	00H
	DB	00H
	DB	00H
	DD	0e2455H
	DW	054c6H
	DB	026H
	DB	028H
	DB	022H
	DB	02H
	DB	028H
	DB	00H
	DB	00H
	DB	00H
	DD	0e274dH
	DW	054c7H
	DB	027H
	DB	026H
	DB	022H
	DB	01H
	DB	028H
	DB	00H
	DB	00H
	DB	00H
	DD	0e2a45H
	DW	054c8H
	DB	026H
	DB	027H
	DB	022H
	DB	02H
	DB	028H
	DB	00H
	DB	00H
	DB	00H
	DD	0e2d2aH
	DW	054c9H
	DB	028H
	DB	028H
	DB	022H
	DB	00H
	DB	028H
	DB	00H
	DB	00H
	DB	00H
	DD	0e304aH
	DW	054caH
	DB	027H
	DB	027H
	DB	022H
	DB	01H
	DB	028H
	DB	00H
	DB	00H
	DB	00H
	DD	0e3356H
	DW	054cbH
	DB	026H
	DB	027H
	DB	022H
	DB	02H
	DB	028H
	DB	00H
	DB	00H
	DB	00H
	DD	0e363bH
	DW	054ccH
	DB	026H
	DB	027H
	DB	021H
	DB	02H
	DB	028H
	DB	00H
	DB	00H
	DB	00H
	DD	0e3920H
	DW	054cdH
	DB	024H
	DB	027H
	DB	022H
	DB	02H
	DB	028H
	DB	00H
	DB	00H
	DB	00H
	DD	0e3bdeH
	DW	054ceH
	DB	026H
	DB	027H
	DB	021H
	DB	02H
	DB	028H
	DB	00H
	DB	00H
	DB	00H
	DD	0e3ec3H
	DW	054cfH
	DB	027H
	DB	026H
	DB	020H
	DB	01H
	DB	028H
	DB	00H
	DB	00H
	DB	00H
	DD	0e41bbH
	DW	054d0H
	DB	026H
	DB	024H
	DB	020H
	DB	02H
	DB	028H
	DB	00H
	DB	00H
	DB	00H
	DD	0e4467H
	DW	054d1H
	DB	026H
	DB	024H
	DB	020H
	DB	02H
	DB	028H
	DB	00H
	DB	00H
	DB	00H
	DD	0e4713H
	DW	054d2H
	DB	026H
	DB	027H
	DB	022H
	DB	02H
	DB	028H
	DB	00H
	DB	00H
	DB	00H
	DD	0e49f8H
	DW	054d3H
	DB	026H
	DB	028H
	DB	022H
	DB	02H
	DB	028H
	DB	00H
	DB	00H
	DB	00H
	DD	0e4cf0H
	DW	054d4H
	DB	026H
	DB	027H
	DB	022H
	DB	02H
	DB	028H
	DB	00H
	DB	00H
	DB	00H
	DD	0e4fd5H
	DW	054d5H
	DB	025H
	DB	027H
	DB	021H
	DB	02H
	DB	028H
	DB	00H
	DB	00H
	DB	00H
	DD	0e52baH
	DW	054d6H
	DB	026H
	DB	027H
	DB	022H
	DB	02H
	DB	028H
	DB	00H
	DB	00H
	DB	00H
	DD	0e559fH
	DW	054d7H
	DB	026H
	DB	027H
	DB	022H
	DB	02H
	DB	028H
	DB	00H
	DB	00H
	DB	00H
	DD	0e5884H
	DW	054d8H
	DB	026H
	DB	027H
	DB	022H
	DB	02H
	DB	028H
	DB	00H
	DB	00H
	DB	00H
	DD	0e5b69H
	DW	054d9H
	DB	026H
	DB	028H
	DB	022H
	DB	02H
	DB	028H
	DB	00H
	DB	00H
	DB	00H
	DD	0e5e61H
	DW	054daH
	DB	026H
	DB	025H
	DB	020H
	DB	02H
	DB	028H
	DB	00H
	DB	00H
	DB	00H
	DD	0e6120H
	DW	054dbH
	DB	028H
	DB	027H
	DB	021H
	DB	00H
	DB	028H
	DB	00H
	DB	00H
	DB	00H
	DD	0e642cH
	DW	054dcH
	DB	026H
	DB	028H
	DB	022H
	DB	02H
	DB	028H
	DB	00H
	DB	00H
	DB	00H
	DD	0e6724H
	DW	054ddH
	DB	026H
	DB	028H
	DB	022H
	DB	02H
	DB	028H
	DB	00H
	DB	00H
	DB	00H
	DD	0e6a1cH
	DW	054deH
	DB	026H
	DB	027H
	DB	022H
	DB	02H
	DB	028H
	DB	00H
	DB	00H
	DB	00H
	DD	0e6d01H
	DW	054dfH
	DB	024H
	DB	027H
	DB	022H
	DB	02H
	DB	028H
	DB	00H
	DB	00H
	DB	00H
	DD	0e6fbfH
	DW	054e0H
	DB	026H
	DB	027H
	DB	022H
	DB	02H
	DB	028H
	DB	00H
	DB	00H
	DB	00H
	DD	0e72a4H
	DW	054e1H
	DB	027H
	DB	026H
	DB	020H
	DB	00H
	DB	028H
	DB	00H
	DB	00H
	DB	00H
	DD	0e759cH
	DW	054e2H
	DB	026H
	DB	026H
	DB	020H
	DB	02H
	DB	028H
	DB	00H
	DB	00H
	DB	00H
	DD	0e786eH
	DW	054e3H
	DB	026H
	DB	025H
	DB	020H
	DB	02H
	DB	028H
	DB	00H
	DB	00H
	DB	00H
	DD	0e7b2dH
	DW	054e4H
	DB	026H
	DB	027H
	DB	022H
	DB	02H
	DB	028H
	DB	00H
	DB	00H
	DB	00H
	DD	0e7e12H
	DW	054e5H
	DB	028H
	DB	025H
	DB	020H
	DB	00H
	DB	028H
	DB	00H
	DB	00H
	DB	00H
	DD	0e80f6H
	DW	054e6H
	DB	026H
	DB	026H
	DB	021H
	DB	02H
	DB	028H
	DB	00H
	DB	00H
	DB	00H
	DD	0e83c8H
	DW	054e7H
	DB	026H
	DB	028H
	DB	022H
	DB	02H
	DB	028H
	DB	00H
	DB	00H
	DB	00H
	DD	0e86c0H
	DW	054e8H
	DB	026H
	DB	028H
	DB	022H
	DB	01H
	DB	028H
	DB	00H
	DB	00H
	DB	00H
	DD	0e89b8H
	DW	054e9H
	DB	027H
	DB	024H
	DB	020H
	DB	01H
	DB	028H
	DB	00H
	DB	00H
	DB	00H
	DD	0e8c88H
	DW	054eaH
	DB	026H
	DB	025H
	DB	020H
	DB	02H
	DB	028H
	DB	00H
	DB	00H
	DB	00H
	DD	0e8f47H
	DW	054ebH
	DB	026H
	DB	026H
	DB	020H
	DB	01H
	DB	028H
	DB	00H
	DB	00H
	DB	00H
	DD	0e9219H
	DW	054ecH
	DB	026H
	DB	027H
	DB	022H
	DB	02H
	DB	028H
	DB	00H
	DB	00H
	DB	00H
	DD	0e94feH
	DW	054edH
	DB	028H
	DB	026H
	DB	020H
	DB	00H
	DB	028H
	DB	00H
	DB	00H
	DB	00H
	DD	0e97f6H
	DW	054eeH
	DB	026H
	DB	028H
	DB	022H
	DB	02H
	DB	028H
	DB	00H
	DB	00H
	DB	00H
	DD	0e9aeeH
	DW	054efH
	DB	027H
	DB	026H
	DB	020H
	DB	01H
	DB	028H
	DB	00H
	DB	00H
	DB	00H
	DD	0e9de6H
	DW	054f0H
	DB	026H
	DB	027H
	DB	022H
	DB	02H
	DB	028H
	DB	00H
	DB	00H
	DB	00H
	DD	0ea0cbH
	DW	054f1H
	DB	026H
	DB	026H
	DB	021H
	DB	02H
	DB	028H
	DB	00H
	DB	00H
	DB	00H
	DD	0ea39dH
	DW	054f2H
	DB	026H
	DB	027H
	DB	022H
	DB	01H
	DB	028H
	DB	00H
	DB	00H
	DB	00H
	DD	0ea682H
	DW	054f3H
	DB	026H
	DB	027H
	DB	022H
	DB	02H
	DB	028H
	DB	00H
	DB	00H
	DB	00H
	DD	0ea967H
	DW	054f4H
	DB	026H
	DB	028H
	DB	022H
	DB	02H
	DB	028H
	DB	00H
	DB	00H
	DB	00H
	DD	0eac5fH
	DW	054f5H
	DB	024H
	DB	027H
	DB	021H
	DB	02H
	DB	028H
	DB	00H
	DB	00H
	DB	00H
	DD	0eaf1dH
	DW	054f6H
	DB	026H
	DB	026H
	DB	021H
	DB	02H
	DB	028H
	DB	00H
	DB	00H
	DB	00H
	DD	0eb1efH
	DW	054f7H
	DB	025H
	DB	027H
	DB	021H
	DB	02H
	DB	028H
	DB	00H
	DB	00H
	DB	00H
	DD	0eb4d4H
	DW	054f8H
	DB	026H
	DB	027H
	DB	021H
	DB	02H
	DB	028H
	DB	00H
	DB	00H
	DB	00H
	DD	0eb7b9H
	DW	054f9H
	DB	026H
	DB	026H
	DB	021H
	DB	02H
	DB	028H
	DB	00H
	DB	00H
	DB	00H
	DD	0eba8bH
	DW	054faH
	DB	025H
	DB	027H
	DB	022H
	DB	02H
	DB	028H
	DB	00H
	DB	00H
	DB	00H
	DD	0ebd70H
	DW	054fbH
	DB	026H
	DB	025H
	DB	020H
	DB	02H
	DB	028H
	DB	00H
	DB	00H
	DB	00H
	DD	0ec02fH
	DW	054fcH
	DB	026H
	DB	028H
	DB	022H
	DB	01H
	DB	028H
	DB	00H
	DB	00H
	DB	00H
	DD	0ec327H
	DW	054fdH
	DB	026H
	DB	026H
	DB	020H
	DB	02H
	DB	028H
	DB	00H
	DB	00H
	DB	00H
	DD	0ec5f9H
	DW	054feH
	DB	026H
	DB	028H
	DB	022H
	DB	02H
	DB	028H
	DB	00H
	DB	00H
	DB	00H
	DD	0ec8f1H
	DW	054ffH
	DB	028H
	DB	028H
	DB	022H
	DB	00H
	DB	028H
	DB	00H
	DB	00H
	DB	00H
	DD	0ecc11H
	DW	05500H
	DB	025H
	DB	026H
	DB	020H
	DB	02H
	DB	028H
	DB	00H
	DB	00H
	DB	00H
	DD	0ecee3H
	DW	05501H
	DB	027H
	DB	027H
	DB	022H
	DB	01H
	DB	028H
	DB	00H
	DB	00H
	DB	00H
	DD	0ed1efH
	DW	05502H
	DB	026H
	DB	027H
	DB	022H
	DB	02H
	DB	028H
	DB	00H
	DB	00H
	DB	00H
	DD	0ed4d4H
	DW	05503H
	DB	024H
	DB	028H
	DB	022H
	DB	02H
	DB	028H
	DB	00H
	DB	00H
	DB	00H
	DD	0ed7a4H
	DW	05504H
	DB	026H
	DB	026H
	DB	020H
	DB	02H
	DB	028H
	DB	00H
	DB	00H
	DB	00H
	DD	0eda76H
	DW	05505H
	DB	026H
	DB	027H
	DB	022H
	DB	02H
	DB	028H
	DB	00H
	DB	00H
	DB	00H
	DD	0edd5bH
	DW	05506H
	DB	026H
	DB	028H
	DB	022H
	DB	02H
	DB	028H
	DB	00H
	DB	00H
	DB	00H
	DD	0ee053H
	DW	05507H
	DB	028H
	DB	026H
	DB	020H
	DB	00H
	DB	028H
	DB	00H
	DB	00H
	DB	00H
	DD	0ee34bH
	DW	05508H
	DB	026H
	DB	025H
	DB	020H
	DB	02H
	DB	028H
	DB	00H
	DB	00H
	DB	00H
	DD	0ee60aH
	DW	05509H
	DB	026H
	DB	027H
	DB	022H
	DB	02H
	DB	028H
	DB	00H
	DB	00H
	DB	00H
	DD	0ee8efH
	DW	0550aH
	DB	027H
	DB	028H
	DB	022H
	DB	01H
	DB	028H
	DB	00H
	DB	00H
	DB	00H
	DD	0eec0fH
	DW	0550bH
	DB	027H
	DB	027H
	DB	022H
	DB	01H
	DB	028H
	DB	00H
	DB	00H
	DB	00H
	DD	0eef1bH
	DW	0550cH
	DB	026H
	DB	025H
	DB	020H
	DB	02H
	DB	028H
	DB	00H
	DB	00H
	DB	00H
	DD	0ef1daH
	DW	0550dH
	DB	026H
	DB	027H
	DB	021H
	DB	02H
	DB	028H
	DB	00H
	DB	00H
	DB	00H
	DD	0ef4bfH
	DW	0550eH
	DB	024H
	DB	026H
	DB	021H
	DB	02H
	DB	028H
	DB	00H
	DB	00H
	DB	00H
	DD	0ef76bH
	DW	0550fH
	DB	026H
	DB	027H
	DB	022H
	DB	02H
	DB	028H
	DB	00H
	DB	00H
	DB	00H
	DD	0efa50H
	DW	05510H
	DB	028H
	DB	027H
	DB	022H
	DB	00H
	DB	028H
	DB	00H
	DB	00H
	DB	00H
	DD	0efd5cH
	DW	05511H
	DB	027H
	DB	025H
	DB	021H
	DB	01H
	DB	028H
	DB	00H
	DB	00H
	DB	00H
	DD	0f0040H
	DW	05512H
	DB	026H
	DB	025H
	DB	020H
	DB	02H
	DB	028H
	DB	00H
	DB	00H
	DB	00H
	DD	0f02ffH
	DW	05513H
	DB	026H
	DB	027H
	DB	022H
	DB	02H
	DB	028H
	DB	00H
	DB	00H
	DB	00H
	DD	0f05e4H
	DW	05514H
	DB	027H
	DB	026H
	DB	020H
	DB	01H
	DB	028H
	DB	00H
	DB	00H
	DB	00H
	DD	0f08dcH
	DW	05515H
	DB	026H
	DB	027H
	DB	022H
	DB	02H
	DB	028H
	DB	00H
	DB	00H
	DB	00H
	DD	0f0bc1H
	DW	05516H
	DB	026H
	DB	024H
	DB	020H
	DB	02H
	DB	028H
	DB	00H
	DB	00H
	DB	00H
	DD	0f0e6dH
	DW	05517H
	DB	027H
	DB	027H
	DB	022H
	DB	01H
	DB	028H
	DB	00H
	DB	00H
	DB	00H
	DD	0f1179H
	DW	05518H
	DB	028H
	DB	025H
	DB	020H
	DB	00H
	DB	028H
	DB	00H
	DB	00H
	DB	00H
	DD	0f145dH
	DW	05519H
	DB	026H
	DB	028H
	DB	022H
	DB	02H
	DB	028H
	DB	00H
	DB	00H
	DB	00H
	DD	0f1755H
	DW	0551aH
	DB	026H
	DB	026H
	DB	020H
	DB	02H
	DB	028H
	DB	00H
	DB	00H
	DB	00H
	DD	0f1a27H
	DW	0551bH
	DB	026H
	DB	028H
	DB	022H
	DB	02H
	DB	028H
	DB	00H
	DB	00H
	DB	00H
	DD	0f1d1fH
	DW	0551cH
	DB	028H
	DB	027H
	DB	022H
	DB	00H
	DB	028H
	DB	00H
	DB	00H
	DB	00H
	DD	0f202bH
	DW	0551dH
	DB	026H
	DB	026H
	DB	020H
	DB	02H
	DB	028H
	DB	00H
	DB	00H
	DB	00H
	DD	0f22fdH
	DW	0551eH
	DB	027H
	DB	028H
	DB	022H
	DB	01H
	DB	028H
	DB	00H
	DB	00H
	DB	00H
	DD	0f261dH
	DW	0551fH
	DB	027H
	DB	026H
	DB	021H
	DB	01H
	DB	028H
	DB	00H
	DB	00H
	DB	00H
	DD	0f2915H
	DW	05520H
	DB	026H
	DB	028H
	DB	022H
	DB	02H
	DB	028H
	DB	00H
	DB	00H
	DB	00H
	DD	0f2c0dH
	DW	05521H
	DB	026H
	DB	025H
	DB	020H
	DB	01H
	DB	028H
	DB	00H
	DB	00H
	DB	00H
	DD	0f2eccH
	DW	05522H
	DB	026H
	DB	028H
	DB	022H
	DB	02H
	DB	028H
	DB	00H
	DB	00H
	DB	00H
	DD	0f31c4H
	DW	05523H
	DB	026H
	DB	027H
	DB	022H
	DB	02H
	DB	028H
	DB	00H
	DB	00H
	DB	00H
	DD	0f34a9H
	DW	05524H
	DB	026H
	DB	028H
	DB	022H
	DB	02H
	DB	028H
	DB	00H
	DB	00H
	DB	00H
	DD	0f37a1H
	DW	05525H
	DB	026H
	DB	027H
	DB	021H
	DB	02H
	DB	028H
	DB	00H
	DB	00H
	DB	00H
	DD	0f3a86H
	DW	05526H
	DB	026H
	DB	028H
	DB	022H
	DB	02H
	DB	028H
	DB	00H
	DB	00H
	DB	00H
	DD	0f3d7eH
	DW	05527H
	DB	024H
	DB	025H
	DB	020H
	DB	02H
	DB	028H
	DB	00H
	DB	00H
	DB	00H
	DD	0f4018H
	DW	05528H
	DB	027H
	DB	025H
	DB	020H
	DB	01H
	DB	028H
	DB	00H
	DB	00H
	DB	00H
	DD	0f42fcH
	DW	05529H
	DB	026H
	DB	026H
	DB	020H
	DB	02H
	DB	028H
	DB	00H
	DB	00H
	DB	00H
	DD	0f45ceH
	DW	0552aH
	DB	026H
	DB	027H
	DB	022H
	DB	02H
	DB	028H
	DB	00H
	DB	00H
	DB	00H
	DD	0f48b3H
	DW	0552bH
	DB	026H
	DB	026H
	DB	022H
	DB	02H
	DB	028H
	DB	00H
	DB	00H
	DB	00H
	DD	0f4b85H
	DW	0552cH
	DB	026H
	DB	028H
	DB	022H
	DB	02H
	DB	028H
	DB	00H
	DB	00H
	DB	00H
	DD	0f4e7dH
	DW	0552dH
	DB	026H
	DB	028H
	DB	022H
	DB	02H
	DB	028H
	DB	00H
	DB	00H
	DB	00H
	DD	0f5175H
	DW	0552eH
	DB	026H
	DB	027H
	DB	022H
	DB	00H
	DB	028H
	DB	00H
	DB	00H
	DB	00H
	DD	0f545aH
	DW	0552fH
	DB	026H
	DB	027H
	DB	022H
	DB	02H
	DB	028H
	DB	00H
	DB	00H
	DB	00H
	DD	0f573fH
	DW	05530H
	DB	024H
	DB	026H
	DB	021H
	DB	02H
	DB	028H
	DB	00H
	DB	00H
	DB	00H
	DD	0f59ebH
	DW	05531H
	DB	026H
	DB	025H
	DB	020H
	DB	01H
	DB	028H
	DB	00H
	DB	00H
	DB	00H
	DD	0f5caaH
	DW	05532H
	DB	026H
	DB	028H
	DB	022H
	DB	02H
	DB	028H
	DB	00H
	DB	00H
	DB	00H
	DD	0f5fa2H
	DW	05533H
	DB	025H
	DB	028H
	DB	022H
	DB	02H
	DB	028H
	DB	00H
	DB	00H
	DB	00H
	DD	0f629aH
	DW	05534H
	DB	026H
	DB	028H
	DB	022H
	DB	02H
	DB	028H
	DB	00H
	DB	00H
	DB	00H
	DD	0f6592H
	DW	05535H
	DB	027H
	DB	027H
	DB	022H
	DB	01H
	DB	028H
	DB	00H
	DB	00H
	DB	00H
	DD	0f689eH
	DW	05536H
	DB	027H
	DB	028H
	DB	022H
	DB	01H
	DB	028H
	DB	00H
	DB	00H
	DB	00H
	DD	0f6bbeH
	DW	05537H
	DB	027H
	DB	028H
	DB	022H
	DB	01H
	DB	028H
	DB	00H
	DB	00H
	DB	00H
	DD	0f6edeH
	DW	05538H
	DB	026H
	DB	027H
	DB	022H
	DB	02H
	DB	028H
	DB	00H
	DB	00H
	DB	00H
	DD	0f71c3H
	DW	05539H
	DB	027H
	DB	028H
	DB	022H
	DB	01H
	DB	028H
	DB	00H
	DB	00H
	DB	00H
	DD	0f74e3H
	DW	0553aH
	DB	026H
	DB	027H
	DB	021H
	DB	02H
	DB	028H
	DB	00H
	DB	00H
	DB	00H
	DD	0f77c8H
	DW	0553bH
	DB	026H
	DB	027H
	DB	022H
	DB	02H
	DB	028H
	DB	00H
	DB	00H
	DB	00H
	DD	0f7aadH
	DW	0553cH
	DB	026H
	DB	027H
	DB	022H
	DB	02H
	DB	028H
	DB	00H
	DB	00H
	DB	00H
	DD	0f7d92H
	DW	0553dH
	DB	026H
	DB	027H
	DB	022H
	DB	02H
	DB	028H
	DB	00H
	DB	00H
	DB	00H
	DD	0f8077H
	DW	0553eH
	DB	026H
	DB	026H
	DB	021H
	DB	02H
	DB	028H
	DB	00H
	DB	00H
	DB	00H
	DD	0f8349H
	DW	0553fH
	DB	026H
	DB	027H
	DB	022H
	DB	02H
	DB	028H
	DB	00H
	DB	00H
	DB	00H
	DD	0f862eH
	DW	05540H
	DB	027H
	DB	026H
	DB	020H
	DB	01H
	DB	028H
	DB	00H
	DB	00H
	DB	00H
	DD	0f8926H
	DW	05541H
	DB	024H
	DB	026H
	DB	020H
	DB	02H
	DB	028H
	DB	00H
	DB	00H
	DB	00H
	DD	0f8bd2H
	DW	05542H
	DB	026H
	DB	026H
	DB	021H
	DB	02H
	DB	028H
	DB	00H
	DB	00H
	DB	00H
	DD	0f8ea4H
	DW	05543H
	DB	026H
	DB	028H
	DB	022H
	DB	01H
	DB	028H
	DB	00H
	DB	00H
	DB	00H
	DD	0f919cH
	DW	05544H
	DB	026H
	DB	025H
	DB	020H
	DB	02H
	DB	028H
	DB	00H
	DB	00H
	DB	00H
	DD	0f945bH
	DW	05545H
	DB	026H
	DB	027H
	DB	022H
	DB	02H
	DB	028H
	DB	00H
	DB	00H
	DB	00H
	DD	0f9740H
	DW	05546H
	DB	026H
	DB	027H
	DB	022H
	DB	01H
	DB	028H
	DB	00H
	DB	00H
	DB	00H
	DD	0f9a25H
	DW	05547H
	DB	026H
	DB	027H
	DB	022H
	DB	01H
	DB	028H
	DB	00H
	DB	00H
	DB	00H
	DD	0f9d0aH
	DW	05548H
	DB	026H
	DB	027H
	DB	022H
	DB	02H
	DB	028H
	DB	00H
	DB	00H
	DB	00H
	DD	0f9fefH
	DW	05549H
	DB	027H
	DB	027H
	DB	022H
	DB	01H
	DB	028H
	DB	00H
	DB	00H
	DB	00H
	DD	0fa2fbH
	DW	0554aH
	DB	027H
	DB	026H
	DB	020H
	DB	01H
	DB	028H
	DB	00H
	DB	00H
	DB	00H
	DD	0fa5f3H
	DW	0554bH
	DB	026H
	DB	025H
	DB	020H
	DB	02H
	DB	028H
	DB	00H
	DB	00H
	DB	00H
	DD	0fa8b2H
	DW	0554cH
	DB	026H
	DB	026H
	DB	022H
	DB	02H
	DB	028H
	DB	00H
	DB	00H
	DB	00H
	DD	0fab84H
	DW	0554dH
	DB	026H
	DB	027H
	DB	022H
	DB	02H
	DB	028H
	DB	00H
	DB	00H
	DB	00H
	DD	0fae69H
	DW	0554eH
	DB	028H
	DB	027H
	DB	022H
	DB	00H
	DB	028H
	DB	00H
	DB	00H
	DB	00H
	DD	0fb175H
	DW	0554fH
	DB	024H
	DB	026H
	DB	020H
	DB	02H
	DB	028H
	DB	00H
	DB	00H
	DB	00H
	DD	0fb421H
	DW	05550H
	DB	026H
	DB	027H
	DB	022H
	DB	02H
	DB	028H
	DB	00H
	DB	00H
	DB	00H
	DD	0fb706H
	DW	05551H
	DB	026H
	DB	028H
	DB	022H
	DB	02H
	DB	028H
	DB	00H
	DB	00H
	DB	00H
	DD	0fb9feH
	DW	05552H
	DB	025H
	DB	025H
	DB	020H
	DB	02H
	DB	028H
	DB	00H
	DB	00H
	DB	00H
	DD	0fbcbdH
	DW	05553H
	DB	028H
	DB	027H
	DB	022H
	DB	00H
	DB	028H
	DB	00H
	DB	00H
	DB	00H
	DD	0fbfc9H
	DW	05554H
	DB	027H
	DB	027H
	DB	022H
	DB	00H
	DB	028H
	DB	00H
	DB	00H
	DB	00H
	DD	0fc2d5H
	DW	05555H
	DB	025H
	DB	027H
	DB	022H
	DB	02H
	DB	028H
	DB	00H
	DB	00H
	DB	00H
	DD	0fc5baH
	DW	05556H
	DB	026H
	DB	027H
	DB	021H
	DB	02H
	DB	028H
	DB	00H
	DB	00H
	DB	00H
	DD	0fc89fH
	DW	05557H
	DB	024H
	DB	027H
	DB	022H
	DB	02H
	DB	028H
	DB	00H
	DB	00H
	DB	00H
	DD	0fcb5dH
	DW	05558H
	DB	026H
	DB	028H
	DB	022H
	DB	02H
	DB	028H
	DB	00H
	DB	00H
	DB	00H
	DD	0fce55H
	DW	05559H
	DB	028H
	DB	027H
	DB	022H
	DB	00H
	DB	028H
	DB	00H
	DB	00H
	DB	00H
	DD	0fd161H
	DW	0555aH
	DB	028H
	DB	025H
	DB	020H
	DB	00H
	DB	028H
	DB	00H
	DB	00H
	DB	00H
	DD	0fd445H
	DW	0555bH
	DB	026H
	DB	027H
	DB	021H
	DB	02H
	DB	028H
	DB	00H
	DB	00H
	DB	00H
	DD	0fd72aH
	DW	0555cH
	DB	027H
	DB	026H
	DB	020H
	DB	01H
	DB	028H
	DB	00H
	DB	00H
	DB	00H
	DD	0fda22H
	DW	0555dH
	DB	024H
	DB	025H
	DB	020H
	DB	02H
	DB	028H
	DB	00H
	DB	00H
	DB	00H
	DD	0fdcbcH
	DW	0555eH
	DB	027H
	DB	025H
	DB	021H
	DB	01H
	DB	028H
	DB	00H
	DB	00H
	DB	00H
	DD	0fdfa0H
	DW	0555fH
	DB	028H
	DB	028H
	DB	022H
	DB	00H
	DB	028H
	DB	00H
	DB	00H
	DB	00H
	DD	0fe2c0H
	DW	05560H
	DB	027H
	DB	026H
	DB	021H
	DB	00H
	DB	028H
	DB	00H
	DB	00H
	DB	00H
	DD	0fe5b8H
	DW	05561H
	DB	027H
	DB	027H
	DB	022H
	DB	01H
	DB	028H
	DB	00H
	DB	00H
	DB	00H
	DD	0fe8c4H
	DW	05562H
	DB	025H
	DB	026H
	DB	020H
	DB	02H
	DB	028H
	DB	00H
	DB	00H
	DB	00H
	DD	0feb96H
	DW	05563H
	DB	025H
	DB	027H
	DB	022H
	DB	02H
	DB	028H
	DB	00H
	DB	00H
	DB	00H
	DD	0fee7bH
	DW	05564H
	DB	026H
	DB	027H
	DB	022H
	DB	02H
	DB	028H
	DB	00H
	DB	00H
	DB	00H
	DD	0ff160H
	DW	05565H
	DB	026H
	DB	028H
	DB	022H
	DB	02H
	DB	028H
	DB	00H
	DB	00H
	DB	00H
	DD	0ff458H
	DW	05566H
	DB	027H
	DB	027H
	DB	022H
	DB	01H
	DB	028H
	DB	00H
	DB	00H
	DB	00H
	DD	0ff764H
	DW	05567H
	DB	026H
	DB	027H
	DB	021H
	DB	02H
	DB	028H
	DB	00H
	DB	00H
	DB	00H
	DD	0ffa49H
	DW	05568H
	DB	027H
	DB	028H
	DB	022H
	DB	01H
	DB	028H
	DB	00H
	DB	00H
	DB	00H
	DD	0ffd69H
	DW	05569H
	DB	026H
	DB	027H
	DB	022H
	DB	02H
	DB	028H
	DB	00H
	DB	00H
	DB	00H
	DD	010004eH
	DW	0556aH
	DB	024H
	DB	027H
	DB	022H
	DB	02H
	DB	028H
	DB	00H
	DB	00H
	DB	00H
	DD	010030cH
	DW	0556bH
	DB	025H
	DB	028H
	DB	022H
	DB	02H
	DB	028H
	DB	00H
	DB	00H
	DB	00H
	DD	0100604H
	DW	0556cH
	DB	028H
	DB	026H
	DB	021H
	DB	00H
	DB	028H
	DB	00H
	DB	00H
	DB	00H
	DD	01008fcH
	DW	0556dH
	DB	027H
	DB	028H
	DB	022H
	DB	01H
	DB	028H
	DB	00H
	DB	00H
	DB	00H
	DD	0100c1cH
	DW	0556eH
	DB	026H
	DB	027H
	DB	022H
	DB	02H
	DB	028H
	DB	00H
	DB	00H
	DB	00H
	DD	0100f01H
	DW	0556fH
	DB	024H
	DB	025H
	DB	020H
	DB	02H
	DB	028H
	DB	00H
	DB	00H
	DB	00H
	DD	010119bH
	DW	05570H
	DB	025H
	DB	026H
	DB	020H
	DB	02H
	DB	028H
	DB	00H
	DB	00H
	DB	00H
	DD	010146dH
	DW	05571H
	DB	026H
	DB	028H
	DB	022H
	DB	02H
	DB	028H
	DB	00H
	DB	00H
	DB	00H
	DD	0101765H
	DW	05572H
	DB	024H
	DB	027H
	DB	022H
	DB	02H
	DB	028H
	DB	00H
	DB	00H
	DB	00H
	DD	0101a23H
	DW	05573H
	DB	026H
	DB	027H
	DB	022H
	DB	02H
	DB	028H
	DB	00H
	DB	00H
	DB	00H
	DD	0101d08H
	DW	05574H
	DB	026H
	DB	027H
	DB	022H
	DB	02H
	DB	028H
	DB	00H
	DB	00H
	DB	00H
	DD	0101fedH
	DW	05575H
	DB	026H
	DB	028H
	DB	022H
	DB	02H
	DB	028H
	DB	00H
	DB	00H
	DB	00H
	DD	01022e5H
	DW	05576H
	DB	026H
	DB	027H
	DB	022H
	DB	02H
	DB	028H
	DB	00H
	DB	00H
	DB	00H
	DD	01025caH
	DW	05577H
	DB	026H
	DB	027H
	DB	022H
	DB	02H
	DB	028H
	DB	00H
	DB	00H
	DB	00H
	DD	01028afH
	DW	05578H
	DB	027H
	DB	028H
	DB	022H
	DB	01H
	DB	028H
	DB	00H
	DB	00H
	DB	00H
	DD	0102bcfH
	DW	05579H
	DB	027H
	DB	026H
	DB	020H
	DB	01H
	DB	028H
	DB	00H
	DB	00H
	DB	00H
	DD	0102ec7H
	DW	0557aH
	DB	026H
	DB	026H
	DB	020H
	DB	02H
	DB	028H
	DB	00H
	DB	00H
	DB	00H
	DD	0103199H
	DW	0557bH
	DB	026H
	DB	027H
	DB	022H
	DB	01H
	DB	028H
	DB	00H
	DB	00H
	DB	00H
	DD	010347eH
	DW	0557cH
	DB	026H
	DB	027H
	DB	022H
	DB	01H
	DB	028H
	DB	00H
	DB	00H
	DB	00H
	DD	0103763H
	DW	0557dH
	DB	027H
	DB	028H
	DB	022H
	DB	01H
	DB	028H
	DB	00H
	DB	00H
	DB	00H
	DD	0103a83H
	DW	0557eH
	DB	026H
	DB	027H
	DB	022H
	DB	02H
	DB	028H
	DB	00H
	DB	00H
	DB	00H
	DD	0103d68H
	DW	0557fH
	DB	026H
	DB	025H
	DB	021H
	DB	02H
	DB	028H
	DB	00H
	DB	00H
	DB	00H
	DD	0104027H
	DW	05580H
	DB	026H
	DB	028H
	DB	022H
	DB	02H
	DB	028H
	DB	00H
	DB	00H
	DB	00H
	DD	010431fH
	DW	05581H
	DB	025H
	DB	026H
	DB	020H
	DB	02H
	DB	028H
	DB	00H
	DB	00H
	DB	00H
	DD	01045f1H
	DW	05582H
	DB	026H
	DB	026H
	DB	020H
	DB	02H
	DB	028H
	DB	00H
	DB	00H
	DB	00H
	DD	01048c3H
	DW	05583H
	DB	025H
	DB	027H
	DB	022H
	DB	02H
	DB	028H
	DB	00H
	DB	00H
	DB	00H
	DD	0104ba8H
	DW	05584H
	DB	028H
	DB	027H
	DB	022H
	DB	00H
	DB	028H
	DB	00H
	DB	00H
	DB	00H
	DD	0104eb4H
	DW	05585H
	DB	026H
	DB	024H
	DB	020H
	DB	02H
	DB	028H
	DB	00H
	DB	00H
	DB	00H
	DD	0105160H
	DW	05586H
	DB	028H
	DB	027H
	DB	022H
	DB	00H
	DB	028H
	DB	00H
	DB	00H
	DB	00H
	DD	010546cH
	DW	05587H
	DB	024H
	DB	028H
	DB	022H
	DB	02H
	DB	028H
	DB	00H
	DB	00H
	DB	00H
	DD	010573cH
	DW	05588H
	DB	027H
	DB	027H
	DB	022H
	DB	01H
	DB	028H
	DB	00H
	DB	00H
	DB	00H
	DD	0105a48H
	DW	05589H
	DB	026H
	DB	028H
	DB	022H
	DB	02H
	DB	028H
	DB	00H
	DB	00H
	DB	00H
	DD	0105d40H
	DW	0558aH
	DB	026H
	DB	028H
	DB	022H
	DB	02H
	DB	028H
	DB	00H
	DB	00H
	DB	00H
	DD	0106038H
	DW	0558bH
	DB	026H
	DB	027H
	DB	022H
	DB	02H
	DB	028H
	DB	00H
	DB	00H
	DB	00H
	DD	010631dH
	DW	0558cH
	DB	025H
	DB	026H
	DB	020H
	DB	00H
	DB	028H
	DB	00H
	DB	00H
	DB	00H
	DD	01065efH
	DW	0558dH
	DB	026H
	DB	027H
	DB	022H
	DB	02H
	DB	028H
	DB	00H
	DB	00H
	DB	00H
	DD	01068d4H
	DW	0558eH
	DB	025H
	DB	026H
	DB	020H
	DB	02H
	DB	028H
	DB	00H
	DB	00H
	DB	00H
	DD	0106ba6H
	DW	0558fH
	DB	026H
	DB	028H
	DB	022H
	DB	02H
	DB	028H
	DB	00H
	DB	00H
	DB	00H
	DD	0106e9eH
	DW	05590H
	DB	026H
	DB	028H
	DB	022H
	DB	02H
	DB	028H
	DB	00H
	DB	00H
	DB	00H
	DD	0107196H
	DW	05591H
	DB	026H
	DB	028H
	DB	022H
	DB	02H
	DB	028H
	DB	00H
	DB	00H
	DB	00H
	DD	010748eH
	DW	05592H
	DB	027H
	DB	027H
	DB	022H
	DB	01H
	DB	028H
	DB	00H
	DB	00H
	DB	00H
	DD	010779aH
	DW	05593H
	DB	026H
	DB	026H
	DB	020H
	DB	02H
	DB	028H
	DB	00H
	DB	00H
	DB	00H
	DD	0107a6cH
	DW	05594H
	DB	026H
	DB	025H
	DB	020H
	DB	02H
	DB	028H
	DB	00H
	DB	00H
	DB	00H
	DD	0107d2bH
	DW	05595H
	DB	026H
	DB	025H
	DB	020H
	DB	02H
	DB	028H
	DB	00H
	DB	00H
	DB	00H
	DD	0107feaH
	DW	05596H
	DB	026H
	DB	027H
	DB	022H
	DB	02H
	DB	028H
	DB	00H
	DB	00H
	DB	00H
	DD	01082cfH
	DW	05597H
	DB	026H
	DB	025H
	DB	020H
	DB	02H
	DB	028H
	DB	00H
	DB	00H
	DB	00H
	DD	010858eH
	DW	05598H
	DB	026H
	DB	027H
	DB	021H
	DB	01H
	DB	028H
	DB	00H
	DB	00H
	DB	00H
	DD	0108873H
	DW	05599H
	DB	026H
	DB	027H
	DB	022H
	DB	02H
	DB	028H
	DB	00H
	DB	00H
	DB	00H
	DD	0108b58H
	DW	0559aH
	DB	026H
	DB	028H
	DB	022H
	DB	02H
	DB	028H
	DB	00H
	DB	00H
	DB	00H
	DD	0108e50H
	DW	0559bH
	DB	026H
	DB	027H
	DB	021H
	DB	02H
	DB	028H
	DB	00H
	DB	00H
	DB	00H
	DD	0109135H
	DW	0559cH
	DB	028H
	DB	027H
	DB	022H
	DB	00H
	DB	028H
	DB	00H
	DB	00H
	DB	00H
	DD	0109441H
	DW	0559dH
	DB	025H
	DB	026H
	DB	021H
	DB	02H
	DB	028H
	DB	00H
	DB	00H
	DB	00H
	DD	0109713H
	DW	0559eH
	DB	024H
	DB	027H
	DB	022H
	DB	02H
	DB	028H
	DB	00H
	DB	00H
	DB	00H
	DD	01099d1H
	DW	0559fH
	DB	024H
	DB	026H
	DB	021H
	DB	02H
	DB	028H
	DB	00H
	DB	00H
	DB	00H
	DD	0109c7dH
	DW	055a0H
	DB	026H
	DB	025H
	DB	021H
	DB	02H
	DB	028H
	DB	00H
	DB	00H
	DB	00H
	DD	0109f3cH
	DW	055a1H
	DB	026H
	DB	027H
	DB	022H
	DB	02H
	DB	028H
	DB	00H
	DB	00H
	DB	00H
	DD	010a221H
	DW	055a2H
	DB	026H
	DB	026H
	DB	021H
	DB	02H
	DB	028H
	DB	00H
	DB	00H
	DB	00H
	DD	010a4f3H
	DW	055a3H
	DB	027H
	DB	028H
	DB	022H
	DB	01H
	DB	028H
	DB	00H
	DB	00H
	DB	00H
	DD	010a813H
	DW	055a4H
	DB	026H
	DB	027H
	DB	022H
	DB	02H
	DB	028H
	DB	00H
	DB	00H
	DB	00H
	DD	010aaf8H
	DW	055a5H
	DB	027H
	DB	028H
	DB	022H
	DB	01H
	DB	028H
	DB	00H
	DB	00H
	DB	00H
	DD	010ae18H
	DW	055a6H
	DB	024H
	DB	025H
	DB	020H
	DB	02H
	DB	028H
	DB	00H
	DB	00H
	DB	00H
	DD	010b0b2H
	DW	055a7H
	DB	026H
	DB	026H
	DB	022H
	DB	02H
	DB	028H
	DB	00H
	DB	00H
	DB	00H
	DD	010b384H
	DW	055a8H
	DB	026H
	DB	028H
	DB	022H
	DB	02H
	DB	028H
	DB	00H
	DB	00H
	DB	00H
	DD	010b67cH
	DW	055a9H
	DB	026H
	DB	027H
	DB	022H
	DB	02H
	DB	028H
	DB	00H
	DB	00H
	DB	00H
	DD	010b961H
	DW	055aaH
	DB	027H
	DB	028H
	DB	022H
	DB	01H
	DB	028H
	DB	00H
	DB	00H
	DB	00H
	DD	010bc81H
	DW	055abH
	DB	026H
	DB	028H
	DB	022H
	DB	02H
	DB	028H
	DB	00H
	DB	00H
	DB	00H
	DD	010bf79H
	DW	055acH
	DB	028H
	DB	026H
	DB	021H
	DB	00H
	DB	028H
	DB	00H
	DB	00H
	DB	00H
	DD	010c271H
	DW	055adH
	DB	026H
	DB	028H
	DB	022H
	DB	02H
	DB	028H
	DB	00H
	DB	00H
	DB	00H
	DD	010c569H
	DW	055aeH
	DB	028H
	DB	025H
	DB	020H
	DB	00H
	DB	028H
	DB	00H
	DB	00H
	DB	00H
	DD	010c84dH
	DW	055afH
	DB	026H
	DB	028H
	DB	022H
	DB	02H
	DB	028H
	DB	00H
	DB	00H
	DB	00H
	DD	010cb45H
	DW	055b0H
	DB	026H
	DB	028H
	DB	022H
	DB	02H
	DB	028H
	DB	00H
	DB	00H
	DB	00H
	DD	010ce3dH
	DW	055b1H
	DB	026H
	DB	026H
	DB	020H
	DB	02H
	DB	028H
	DB	00H
	DB	00H
	DB	00H
	DD	010d10fH
	DW	055b2H
	DB	026H
	DB	027H
	DB	022H
	DB	01H
	DB	028H
	DB	00H
	DB	00H
	DB	00H
	DD	010d3f4H
	DW	055b3H
	DB	027H
	DB	027H
	DB	022H
	DB	01H
	DB	028H
	DB	00H
	DB	00H
	DB	00H
	DD	010d700H
	DW	055b4H
	DB	026H
	DB	028H
	DB	022H
	DB	02H
	DB	028H
	DB	00H
	DB	00H
	DB	00H
	DD	010d9f8H
	DW	055b5H
	DB	027H
	DB	027H
	DB	022H
	DB	01H
	DB	028H
	DB	00H
	DB	00H
	DB	00H
	DD	010dd04H
	DW	055b6H
	DB	026H
	DB	027H
	DB	022H
	DB	01H
	DB	028H
	DB	00H
	DB	00H
	DB	00H
	DD	010dfe9H
	DW	055b7H
	DB	026H
	DB	028H
	DB	022H
	DB	02H
	DB	028H
	DB	00H
	DB	00H
	DB	00H
	DD	010e2e1H
	DW	055b8H
	DB	027H
	DB	027H
	DB	022H
	DB	01H
	DB	028H
	DB	00H
	DB	00H
	DB	00H
	DD	010e5edH
	DW	055b9H
	DB	027H
	DB	026H
	DB	022H
	DB	01H
	DB	028H
	DB	00H
	DB	00H
	DB	00H
	DD	010e8e5H
	DW	055baH
	DB	026H
	DB	027H
	DB	022H
	DB	02H
	DB	028H
	DB	00H
	DB	00H
	DB	00H
	DD	010ebcaH
	DW	055bbH
	DB	026H
	DB	027H
	DB	021H
	DB	02H
	DB	028H
	DB	00H
	DB	00H
	DB	00H
	DD	010eeafH
	DW	055bcH
	DB	027H
	DB	027H
	DB	022H
	DB	01H
	DB	028H
	DB	00H
	DB	00H
	DB	00H
	DD	010f1bbH
	DW	055bdH
	DB	026H
	DB	028H
	DB	022H
	DB	02H
	DB	028H
	DB	00H
	DB	00H
	DB	00H
	DD	010f4b3H
	DW	055beH
	DB	028H
	DB	027H
	DB	022H
	DB	00H
	DB	028H
	DB	00H
	DB	00H
	DB	00H
	DD	010f7bfH
	DW	055bfH
	DB	028H
	DB	025H
	DB	020H
	DB	00H
	DB	028H
	DB	00H
	DB	00H
	DB	00H
	DD	010faa3H
	DW	055c0H
	DB	028H
	DB	028H
	DB	022H
	DB	00H
	DB	028H
	DB	00H
	DB	00H
	DB	00H
	DD	010fdc3H
	DW	055c1H
	DB	026H
	DB	028H
	DB	022H
	DB	02H
	DB	028H
	DB	00H
	DB	00H
	DB	00H
	DD	01100bbH
	DW	055c2H
	DB	026H
	DB	026H
	DB	021H
	DB	02H
	DB	028H
	DB	00H
	DB	00H
	DB	00H
	DD	011038dH
	DW	055c3H
	DB	026H
	DB	028H
	DB	022H
	DB	02H
	DB	028H
	DB	00H
	DB	00H
	DB	00H
	DD	0110685H
	DW	055c4H
	DB	026H
	DB	026H
	DB	020H
	DB	02H
	DB	028H
	DB	00H
	DB	00H
	DB	00H
	DD	0110957H
	DW	055c5H
	DB	026H
	DB	028H
	DB	022H
	DB	02H
	DB	028H
	DB	00H
	DB	00H
	DB	00H
	DD	0110c4fH
	DW	055c6H
	DB	026H
	DB	026H
	DB	021H
	DB	02H
	DB	028H
	DB	00H
	DB	00H
	DB	00H
	DD	0110f21H
	DW	055c7H
	DB	026H
	DB	028H
	DB	022H
	DB	01H
	DB	028H
	DB	00H
	DB	00H
	DB	00H
	DD	0111219H
	DW	055c8H
	DB	026H
	DB	027H
	DB	022H
	DB	02H
	DB	028H
	DB	00H
	DB	00H
	DB	00H
	DD	01114feH
	DW	055c9H
	DB	026H
	DB	027H
	DB	022H
	DB	02H
	DB	028H
	DB	00H
	DB	00H
	DB	00H
	DD	01117e3H
	DW	055caH
	DB	026H
	DB	026H
	DB	020H
	DB	02H
	DB	028H
	DB	00H
	DB	00H
	DB	00H
	DD	0111ab5H
	DW	055cbH
	DB	025H
	DB	028H
	DB	022H
	DB	02H
	DB	028H
	DB	00H
	DB	00H
	DB	00H
	DD	0111dadH
	DW	055ccH
	DB	026H
	DB	027H
	DB	022H
	DB	02H
	DB	028H
	DB	00H
	DB	00H
	DB	00H
	DD	0112092H
	DW	055cdH
	DB	025H
	DB	028H
	DB	022H
	DB	02H
	DB	028H
	DB	00H
	DB	00H
	DB	00H
	DD	011238aH
	DW	055ceH
	DB	025H
	DB	026H
	DB	020H
	DB	02H
	DB	028H
	DB	00H
	DB	00H
	DB	00H
	DD	011265cH
	DW	055cfH
	DB	026H
	DB	027H
	DB	022H
	DB	02H
	DB	028H
	DB	00H
	DB	00H
	DB	00H
	DD	0112941H
	DW	055d0H
	DB	025H
	DB	027H
	DB	022H
	DB	02H
	DB	028H
	DB	00H
	DB	00H
	DB	00H
	DD	0112c26H
	DW	055d1H
	DB	026H
	DB	026H
	DB	022H
	DB	02H
	DB	028H
	DB	00H
	DB	00H
	DB	00H
	DD	0112ef8H
	DW	055d2H
	DB	026H
	DB	027H
	DB	022H
	DB	02H
	DB	028H
	DB	00H
	DB	00H
	DB	00H
	DD	01131ddH
	DW	055d3H
	DB	026H
	DB	025H
	DB	020H
	DB	02H
	DB	028H
	DB	00H
	DB	00H
	DB	00H
	DD	011349cH
	DW	055d4H
	DB	026H
	DB	028H
	DB	022H
	DB	02H
	DB	028H
	DB	00H
	DB	00H
	DB	00H
	DD	0113794H
	DW	055d5H
	DB	026H
	DB	026H
	DB	020H
	DB	02H
	DB	028H
	DB	00H
	DB	00H
	DB	00H
	DD	0113a66H
	DW	055d6H
	DB	026H
	DB	028H
	DB	022H
	DB	02H
	DB	028H
	DB	00H
	DB	00H
	DB	00H
	DD	0113d5eH
	DW	055d7H
	DB	025H
	DB	026H
	DB	020H
	DB	02H
	DB	028H
	DB	00H
	DB	00H
	DB	00H
	DD	0114030H
	DW	055d8H
	DB	026H
	DB	027H
	DB	021H
	DB	02H
	DB	028H
	DB	00H
	DB	00H
	DB	00H
	DD	0114315H
	DW	055d9H
	DB	026H
	DB	028H
	DB	022H
	DB	02H
	DB	028H
	DB	00H
	DB	00H
	DB	00H
	DD	011460dH
	DW	055daH
	DB	027H
	DB	027H
	DB	022H
	DB	01H
	DB	028H
	DB	00H
	DB	00H
	DB	00H
	DD	0114919H
	DW	055dbH
	DB	027H
	DB	027H
	DB	022H
	DB	01H
	DB	028H
	DB	00H
	DB	00H
	DB	00H
	DD	0114c25H
	DW	055dcH
	DB	026H
	DB	027H
	DB	022H
	DB	02H
	DB	028H
	DB	00H
	DB	00H
	DB	00H
	DD	0114f0aH
	DW	055ddH
	DB	025H
	DB	025H
	DB	020H
	DB	02H
	DB	028H
	DB	00H
	DB	00H
	DB	00H
	DD	01151c9H
	DW	055deH
	DB	027H
	DB	027H
	DB	022H
	DB	01H
	DB	028H
	DB	00H
	DB	00H
	DB	00H
	DD	01154d5H
	DW	055dfH
	DB	026H
	DB	026H
	DB	022H
	DB	02H
	DB	028H
	DB	00H
	DB	00H
	DB	00H
	DD	01157a7H
	DW	055e0H
	DB	028H
	DB	027H
	DB	022H
	DB	00H
	DB	028H
	DB	00H
	DB	00H
	DB	00H
	DD	0115ab3H
	DW	055e1H
	DB	027H
	DB	028H
	DB	022H
	DB	01H
	DB	028H
	DB	00H
	DB	00H
	DB	00H
	DD	0115dd3H
	DW	055e2H
	DB	027H
	DB	024H
	DB	020H
	DB	01H
	DB	028H
	DB	00H
	DB	00H
	DB	00H
	DD	01160a3H
	DW	055e3H
	DB	025H
	DB	027H
	DB	021H
	DB	02H
	DB	028H
	DB	00H
	DB	00H
	DB	00H
	DD	0116388H
	DW	055e4H
	DB	026H
	DB	028H
	DB	022H
	DB	02H
	DB	028H
	DB	00H
	DB	00H
	DB	00H
	DD	0116680H
	DW	055e5H
	DB	026H
	DB	027H
	DB	022H
	DB	02H
	DB	028H
	DB	00H
	DB	00H
	DB	00H
	DD	0116965H
	DW	055e6H
	DB	026H
	DB	027H
	DB	022H
	DB	02H
	DB	028H
	DB	00H
	DB	00H
	DB	00H
	DD	0116c4aH
	DW	055e7H
	DB	028H
	DB	028H
	DB	022H
	DB	00H
	DB	028H
	DB	00H
	DB	00H
	DB	00H
	DD	0116f6aH
	DW	055e8H
	DB	026H
	DB	027H
	DB	022H
	DB	02H
	DB	028H
	DB	00H
	DB	00H
	DB	00H
	DD	011724fH
	DW	055e9H
	DB	026H
	DB	028H
	DB	022H
	DB	02H
	DB	028H
	DB	00H
	DB	00H
	DB	00H
	DD	0117547H
	DW	055eaH
	DB	027H
	DB	026H
	DB	021H
	DB	01H
	DB	028H
	DB	00H
	DB	00H
	DB	00H
	DD	011783fH
	DW	055ebH
	DB	026H
	DB	026H
	DB	020H
	DB	02H
	DB	028H
	DB	00H
	DB	00H
	DB	00H
	DD	0117b11H
	DW	055ecH
	DB	026H
	DB	028H
	DB	022H
	DB	02H
	DB	028H
	DB	00H
	DB	00H
	DB	00H
	DD	0117e09H
	DW	055edH
	DB	027H
	DB	027H
	DB	022H
	DB	01H
	DB	028H
	DB	00H
	DB	00H
	DB	00H
	DD	0118115H
	DW	055eeH
	DB	027H
	DB	025H
	DB	020H
	DB	01H
	DB	028H
	DB	00H
	DB	00H
	DB	00H
	DD	01183f9H
	DW	055efH
	DB	027H
	DB	025H
	DB	020H
	DB	01H
	DB	028H
	DB	00H
	DB	00H
	DB	00H
	DD	01186ddH
	DW	055f0H
	DB	025H
	DB	027H
	DB	022H
	DB	02H
	DB	028H
	DB	00H
	DB	00H
	DB	00H
	DD	01189c2H
	DW	055f1H
	DB	026H
	DB	028H
	DB	022H
	DB	02H
	DB	028H
	DB	00H
	DB	00H
	DB	00H
	DD	0118cbaH
	DW	055f2H
	DB	026H
	DB	027H
	DB	021H
	DB	02H
	DB	028H
	DB	00H
	DB	00H
	DB	00H
	DD	0118f9fH
	DW	055f3H
	DB	026H
	DB	027H
	DB	021H
	DB	02H
	DB	028H
	DB	00H
	DB	00H
	DB	00H
	DD	0119284H
	DW	055f4H
	DB	026H
	DB	028H
	DB	022H
	DB	02H
	DB	028H
	DB	00H
	DB	00H
	DB	00H
	DD	011957cH
	DW	055f5H
	DB	026H
	DB	028H
	DB	022H
	DB	02H
	DB	028H
	DB	00H
	DB	00H
	DB	00H
	DD	0119874H
	DW	055f6H
	DB	026H
	DB	025H
	DB	020H
	DB	02H
	DB	028H
	DB	00H
	DB	00H
	DB	00H
	DD	0119b33H
	DW	055f7H
	DB	026H
	DB	028H
	DB	022H
	DB	02H
	DB	028H
	DB	00H
	DB	00H
	DB	00H
	DD	0119e2bH
	DW	055f8H
	DB	028H
	DB	027H
	DB	022H
	DB	00H
	DB	028H
	DB	00H
	DB	00H
	DB	00H
	DD	011a137H
	DW	055f9H
	DB	026H
	DB	028H
	DB	022H
	DB	02H
	DB	028H
	DB	00H
	DB	00H
	DB	00H
	DD	011a42fH
	DW	055faH
	DB	025H
	DB	027H
	DB	022H
	DB	02H
	DB	028H
	DB	00H
	DB	00H
	DB	00H
	DD	011a714H
	DW	055fbH
	DB	026H
	DB	027H
	DB	022H
	DB	02H
	DB	028H
	DB	00H
	DB	00H
	DB	00H
	DD	011a9f9H
	DW	055fcH
	DB	027H
	DB	027H
	DB	022H
	DB	01H
	DB	028H
	DB	00H
	DB	00H
	DB	00H
	DD	011ad05H
	DW	055fdH
	DB	026H
	DB	027H
	DB	022H
	DB	02H
	DB	028H
	DB	00H
	DB	00H
	DB	00H
	DD	011afeaH
	DW	055feH
	DB	027H
	DB	028H
	DB	022H
	DB	01H
	DB	028H
	DB	00H
	DB	00H
	DB	00H
	DD	011b30aH
	DW	055ffH
	DB	027H
	DB	028H
	DB	022H
	DB	01H
	DB	028H
	DB	00H
	DB	00H
	DB	00H
	DD	011b62aH
	DW	05600H
	DB	026H
	DB	027H
	DB	022H
	DB	02H
	DB	028H
	DB	00H
	DB	00H
	DB	00H
	DD	011b90fH
	DW	05601H
	DB	026H
	DB	027H
	DB	022H
	DB	02H
	DB	028H
	DB	00H
	DB	00H
	DB	00H
	DD	011bbf4H
	DW	05602H
	DB	024H
	DB	027H
	DB	022H
	DB	02H
	DB	028H
	DB	00H
	DB	00H
	DB	00H
	DD	011beb2H
	DW	05603H
	DB	026H
	DB	028H
	DB	022H
	DB	01H
	DB	028H
	DB	00H
	DB	00H
	DB	00H
	DD	011c1aaH
	DW	05604H
	DB	026H
	DB	027H
	DB	022H
	DB	02H
	DB	028H
	DB	00H
	DB	00H
	DB	00H
	DD	011c48fH
	DW	05605H
	DB	026H
	DB	026H
	DB	020H
	DB	02H
	DB	028H
	DB	00H
	DB	00H
	DB	00H
	DD	011c761H
	DW	05606H
	DB	026H
	DB	027H
	DB	021H
	DB	02H
	DB	028H
	DB	00H
	DB	00H
	DB	00H
	DD	011ca46H
	DW	05607H
	DB	027H
	DB	028H
	DB	022H
	DB	01H
	DB	028H
	DB	00H
	DB	00H
	DB	00H
	DD	011cd66H
	DW	05608H
	DB	026H
	DB	027H
	DB	022H
	DB	02H
	DB	028H
	DB	00H
	DB	00H
	DB	00H
	DD	011d04bH
	DW	05609H
	DB	028H
	DB	028H
	DB	022H
	DB	00H
	DB	028H
	DB	00H
	DB	00H
	DB	00H
	DD	011d36bH
	DW	0560aH
	DB	026H
	DB	027H
	DB	022H
	DB	02H
	DB	028H
	DB	00H
	DB	00H
	DB	00H
	DD	011d650H
	DW	0560bH
	DB	026H
	DB	028H
	DB	022H
	DB	02H
	DB	028H
	DB	00H
	DB	00H
	DB	00H
	DD	011d948H
	DW	0560cH
	DB	026H
	DB	025H
	DB	020H
	DB	02H
	DB	028H
	DB	00H
	DB	00H
	DB	00H
	DD	011dc07H
	DW	0560dH
	DB	026H
	DB	028H
	DB	022H
	DB	02H
	DB	028H
	DB	00H
	DB	00H
	DB	00H
	DD	011deffH
	DW	0560eH
	DB	026H
	DB	026H
	DB	020H
	DB	02H
	DB	028H
	DB	00H
	DB	00H
	DB	00H
	DD	011e1d1H
	DW	0560fH
	DB	028H
	DB	028H
	DB	022H
	DB	00H
	DB	028H
	DB	00H
	DB	00H
	DB	00H
	DD	011e4f1H
	DW	05610H
	DB	026H
	DB	026H
	DB	020H
	DB	02H
	DB	028H
	DB	00H
	DB	00H
	DB	00H
	DD	011e7c3H
	DW	05611H
	DB	026H
	DB	027H
	DB	021H
	DB	02H
	DB	028H
	DB	00H
	DB	00H
	DB	00H
	DD	011eaa8H
	DW	05612H
	DB	025H
	DB	026H
	DB	021H
	DB	02H
	DB	028H
	DB	00H
	DB	00H
	DB	00H
	DD	011ed7aH
	DW	05613H
	DB	026H
	DB	026H
	DB	020H
	DB	01H
	DB	028H
	DB	00H
	DB	00H
	DB	00H
	DD	011f04cH
	DW	05614H
	DB	026H
	DB	024H
	DB	020H
	DB	02H
	DB	028H
	DB	00H
	DB	00H
	DB	00H
	DD	011f2f8H
	DW	05615H
	DB	026H
	DB	026H
	DB	020H
	DB	01H
	DB	028H
	DB	00H
	DB	00H
	DB	00H
	DD	011f5caH
	DW	05616H
	DB	026H
	DB	027H
	DB	021H
	DB	02H
	DB	028H
	DB	00H
	DB	00H
	DB	00H
	DD	011f8afH
	DW	05617H
	DB	026H
	DB	027H
	DB	022H
	DB	01H
	DB	028H
	DB	00H
	DB	00H
	DB	00H
	DD	011fb94H
	DW	05618H
	DB	025H
	DB	027H
	DB	022H
	DB	02H
	DB	028H
	DB	00H
	DB	00H
	DB	00H
	DD	011fe79H
	DW	05619H
	DB	026H
	DB	028H
	DB	022H
	DB	02H
	DB	028H
	DB	00H
	DB	00H
	DB	00H
	DD	0120171H
	DW	0561aH
	DB	026H
	DB	027H
	DB	022H
	DB	02H
	DB	028H
	DB	00H
	DB	00H
	DB	00H
	DD	0120456H
	DW	0561bH
	DB	027H
	DB	028H
	DB	022H
	DB	01H
	DB	028H
	DB	00H
	DB	00H
	DB	00H
	DD	0120776H
	DW	0561cH
	DB	027H
	DB	028H
	DB	022H
	DB	01H
	DB	028H
	DB	00H
	DB	00H
	DB	00H
	DD	0120a96H
	DW	0561dH
	DB	026H
	DB	028H
	DB	022H
	DB	02H
	DB	028H
	DB	00H
	DB	00H
	DB	00H
	DD	0120d8eH
	DW	0561eH
	DB	025H
	DB	027H
	DB	022H
	DB	02H
	DB	028H
	DB	00H
	DB	00H
	DB	00H
	DD	0121073H
	DW	0561fH
	DB	026H
	DB	028H
	DB	022H
	DB	02H
	DB	028H
	DB	00H
	DB	00H
	DB	00H
	DD	012136bH
	DW	05620H
	DB	026H
	DB	026H
	DB	020H
	DB	02H
	DB	028H
	DB	00H
	DB	00H
	DB	00H
	DD	012163dH
	DW	05621H
	DB	026H
	DB	026H
	DB	021H
	DB	02H
	DB	028H
	DB	00H
	DB	00H
	DB	00H
	DD	012190fH
	DW	05622H
	DB	026H
	DB	025H
	DB	020H
	DB	02H
	DB	028H
	DB	00H
	DB	00H
	DB	00H
	DD	0121bceH
	DW	05623H
	DB	025H
	DB	028H
	DB	022H
	DB	02H
	DB	028H
	DB	00H
	DB	00H
	DB	00H
	DD	0121ec6H
	DW	05624H
	DB	026H
	DB	026H
	DB	020H
	DB	02H
	DB	028H
	DB	00H
	DB	00H
	DB	00H
	DD	0122198H
	DW	05625H
	DB	026H
	DB	028H
	DB	022H
	DB	02H
	DB	028H
	DB	00H
	DB	00H
	DB	00H
	DD	0122490H
	DW	05626H
	DB	026H
	DB	026H
	DB	020H
	DB	01H
	DB	028H
	DB	00H
	DB	00H
	DB	00H
	DD	0122762H
	DW	05627H
	DB	026H
	DB	027H
	DB	022H
	DB	02H
	DB	028H
	DB	00H
	DB	00H
	DB	00H
	DD	0122a47H
	DW	05628H
	DB	027H
	DB	028H
	DB	022H
	DB	01H
	DB	028H
	DB	00H
	DB	00H
	DB	00H
	DD	0122d67H
	DW	05629H
	DB	026H
	DB	027H
	DB	022H
	DB	02H
	DB	028H
	DB	00H
	DB	00H
	DB	00H
	DD	012304cH
	DW	0562aH
	DB	027H
	DB	026H
	DB	020H
	DB	01H
	DB	028H
	DB	00H
	DB	00H
	DB	00H
	DD	0123344H
	DW	0562bH
	DB	027H
	DB	027H
	DB	021H
	DB	01H
	DB	028H
	DB	00H
	DB	00H
	DB	00H
	DD	0123650H
	DW	0562cH
	DB	026H
	DB	025H
	DB	020H
	DB	02H
	DB	028H
	DB	00H
	DB	00H
	DB	00H
	DD	012390fH
	DW	0562dH
	DB	027H
	DB	027H
	DB	021H
	DB	01H
	DB	028H
	DB	00H
	DB	00H
	DB	00H
	DD	0123c1bH
	DW	0562eH
	DB	025H
	DB	028H
	DB	022H
	DB	02H
	DB	028H
	DB	00H
	DB	00H
	DB	00H
	DD	0123f13H
	DW	0562fH
	DB	026H
	DB	027H
	DB	021H
	DB	02H
	DB	028H
	DB	00H
	DB	00H
	DB	00H
	DD	01241f8H
	DW	05630H
	DB	026H
	DB	027H
	DB	021H
	DB	02H
	DB	028H
	DB	00H
	DB	00H
	DB	00H
	DD	01244ddH
	DW	05631H
	DB	026H
	DB	026H
	DB	020H
	DB	02H
	DB	028H
	DB	00H
	DB	00H
	DB	00H
	DD	01247afH
	DW	05632H
	DB	024H
	DB	028H
	DB	022H
	DB	02H
	DB	028H
	DB	00H
	DB	00H
	DB	00H
	DD	0124a7fH
	DW	05633H
	DB	026H
	DB	028H
	DB	022H
	DB	02H
	DB	028H
	DB	00H
	DB	00H
	DB	00H
	DD	0124d77H
	DW	05634H
	DB	026H
	DB	028H
	DB	022H
	DB	02H
	DB	028H
	DB	00H
	DB	00H
	DB	00H
	DD	012506fH
	DW	05635H
	DB	026H
	DB	028H
	DB	022H
	DB	02H
	DB	028H
	DB	00H
	DB	00H
	DB	00H
	DD	0125367H
	DW	05636H
	DB	026H
	DB	028H
	DB	022H
	DB	02H
	DB	028H
	DB	00H
	DB	00H
	DB	00H
	DD	012565fH
	DW	05637H
	DB	026H
	DB	027H
	DB	022H
	DB	02H
	DB	028H
	DB	00H
	DB	00H
	DB	00H
	DD	0125944H
	DW	05638H
	DB	027H
	DB	028H
	DB	022H
	DB	01H
	DB	028H
	DB	00H
	DB	00H
	DB	00H
	DD	0125c64H
	DW	05639H
	DB	026H
	DB	028H
	DB	022H
	DB	02H
	DB	028H
	DB	00H
	DB	00H
	DB	00H
	DD	0125f5cH
	DW	0563aH
	DB	026H
	DB	027H
	DB	021H
	DB	02H
	DB	028H
	DB	00H
	DB	00H
	DB	00H
	DD	0126241H
	DW	0563bH
	DB	025H
	DB	027H
	DB	022H
	DB	02H
	DB	028H
	DB	00H
	DB	00H
	DB	00H
	DD	0126526H
	DW	0563cH
	DB	028H
	DB	025H
	DB	020H
	DB	00H
	DB	028H
	DB	00H
	DB	00H
	DB	00H
	DD	012680aH
	DW	0563dH
	DB	026H
	DB	025H
	DB	020H
	DB	02H
	DB	028H
	DB	00H
	DB	00H
	DB	00H
	DD	0126ac9H
	DW	0563eH
	DB	026H
	DB	025H
	DB	020H
	DB	02H
	DB	028H
	DB	00H
	DB	00H
	DB	00H
	DD	0126d88H
	DW	0563fH
	DB	027H
	DB	026H
	DB	020H
	DB	01H
	DB	028H
	DB	00H
	DB	00H
	DB	00H
	DD	0127080H
	DW	05640H
	DB	026H
	DB	026H
	DB	020H
	DB	02H
	DB	028H
	DB	00H
	DB	00H
	DB	00H
	DD	0127352H
	DW	05641H
	DB	026H
	DB	025H
	DB	020H
	DB	02H
	DB	028H
	DB	00H
	DB	00H
	DB	00H
	DD	0127611H
	DW	05642H
	DB	026H
	DB	028H
	DB	022H
	DB	02H
	DB	028H
	DB	00H
	DB	00H
	DB	00H
	DD	0127909H
	DW	05643H
	DB	026H
	DB	027H
	DB	021H
	DB	02H
	DB	028H
	DB	00H
	DB	00H
	DB	00H
	DD	0127beeH
	DW	05644H
	DB	026H
	DB	026H
	DB	021H
	DB	02H
	DB	028H
	DB	00H
	DB	00H
	DB	00H
	DD	0127ec0H
	DW	05645H
	DB	025H
	DB	028H
	DB	022H
	DB	02H
	DB	028H
	DB	00H
	DB	00H
	DB	00H
	DD	01281b8H
	DW	05646H
	DB	026H
	DB	026H
	DB	020H
	DB	02H
	DB	028H
	DB	00H
	DB	00H
	DB	00H
	DD	012848aH
	DW	05647H
	DB	026H
	DB	027H
	DB	022H
	DB	02H
	DB	028H
	DB	00H
	DB	00H
	DB	00H
	DD	012876fH
	DW	05648H
	DB	026H
	DB	028H
	DB	022H
	DB	02H
	DB	028H
	DB	00H
	DB	00H
	DB	00H
	DD	0128a67H
	DW	05649H
	DB	026H
	DB	027H
	DB	022H
	DB	02H
	DB	028H
	DB	00H
	DB	00H
	DB	00H
	DD	0128d4cH
	DW	0564aH
	DB	025H
	DB	026H
	DB	020H
	DB	02H
	DB	028H
	DB	00H
	DB	00H
	DB	00H
	DD	012901eH
	DW	0564bH
	DB	027H
	DB	028H
	DB	022H
	DB	01H
	DB	028H
	DB	00H
	DB	00H
	DB	00H
	DD	012933eH
	DW	0564cH
	DB	024H
	DB	027H
	DB	022H
	DB	02H
	DB	028H
	DB	00H
	DB	00H
	DB	00H
	DD	01295fcH
	DW	0564dH
	DB	027H
	DB	028H
	DB	022H
	DB	01H
	DB	028H
	DB	00H
	DB	00H
	DB	00H
	DD	012991cH
	DW	0564eH
	DB	027H
	DB	026H
	DB	022H
	DB	01H
	DB	028H
	DB	00H
	DB	00H
	DB	00H
	DD	0129c14H
	DW	0564fH
	DB	027H
	DB	028H
	DB	022H
	DB	01H
	DB	028H
	DB	00H
	DB	00H
	DB	00H
	DD	0129f34H
	DW	05650H
	DB	026H
	DB	025H
	DB	020H
	DB	01H
	DB	028H
	DB	00H
	DB	00H
	DB	00H
	DD	012a1f3H
	DW	05651H
	DB	026H
	DB	027H
	DB	022H
	DB	02H
	DB	028H
	DB	00H
	DB	00H
	DB	00H
	DD	012a4d8H
	DW	05652H
	DB	026H
	DB	028H
	DB	022H
	DB	02H
	DB	028H
	DB	00H
	DB	00H
	DB	00H
	DD	012a7d0H
	DW	05653H
	DB	025H
	DB	026H
	DB	021H
	DB	02H
	DB	028H
	DB	00H
	DB	00H
	DB	00H
	DD	012aaa2H
	DW	05654H
	DB	026H
	DB	027H
	DB	022H
	DB	02H
	DB	028H
	DB	00H
	DB	00H
	DB	00H
	DD	012ad87H
	DW	05655H
	DB	026H
	DB	026H
	DB	021H
	DB	00H
	DB	028H
	DB	00H
	DB	00H
	DB	00H
	DD	012b059H
	DW	05656H
	DB	026H
	DB	026H
	DB	020H
	DB	02H
	DB	028H
	DB	00H
	DB	00H
	DB	00H
	DD	012b32bH
	DW	05657H
	DB	027H
	DB	028H
	DB	022H
	DB	01H
	DB	028H
	DB	00H
	DB	00H
	DB	00H
	DD	012b64bH
	DW	05658H
	DB	026H
	DB	026H
	DB	020H
	DB	02H
	DB	028H
	DB	00H
	DB	00H
	DB	00H
	DD	012b91dH
	DW	05659H
	DB	027H
	DB	028H
	DB	022H
	DB	01H
	DB	028H
	DB	00H
	DB	00H
	DB	00H
	DD	012bc3dH
	DW	0565aH
	DB	027H
	DB	026H
	DB	020H
	DB	01H
	DB	028H
	DB	00H
	DB	00H
	DB	00H
	DD	012bf35H
	DW	0565bH
	DB	027H
	DB	027H
	DB	022H
	DB	01H
	DB	028H
	DB	00H
	DB	00H
	DB	00H
	DD	012c241H
	DW	0565cH
	DB	026H
	DB	027H
	DB	022H
	DB	02H
	DB	028H
	DB	00H
	DB	00H
	DB	00H
	DD	012c526H
	DW	0565dH
	DB	026H
	DB	027H
	DB	022H
	DB	02H
	DB	028H
	DB	00H
	DB	00H
	DB	00H
	DD	012c80bH
	DW	0565eH
	DB	026H
	DB	028H
	DB	022H
	DB	02H
	DB	028H
	DB	00H
	DB	00H
	DB	00H
	DD	012cb03H
	DW	0565fH
	DB	027H
	DB	028H
	DB	022H
	DB	00H
	DB	028H
	DB	00H
	DB	00H
	DB	00H
	DD	012ce23H
	DW	05660H
	DB	026H
	DB	027H
	DB	022H
	DB	02H
	DB	028H
	DB	00H
	DB	00H
	DB	00H
	DD	012d108H
	DW	05661H
	DB	027H
	DB	027H
	DB	022H
	DB	01H
	DB	028H
	DB	00H
	DB	00H
	DB	00H
	DD	012d414H
	DW	05662H
	DB	026H
	DB	028H
	DB	022H
	DB	02H
	DB	028H
	DB	00H
	DB	00H
	DB	00H
	DD	012d70cH
	DW	05663H
	DB	026H
	DB	025H
	DB	020H
	DB	01H
	DB	028H
	DB	00H
	DB	00H
	DB	00H
	DD	012d9cbH
	DW	05664H
	DB	026H
	DB	026H
	DB	021H
	DB	02H
	DB	028H
	DB	00H
	DB	00H
	DB	00H
	DD	012dc9dH
	DW	05665H
	DB	026H
	DB	028H
	DB	022H
	DB	02H
	DB	028H
	DB	00H
	DB	00H
	DB	00H
	DD	012df95H
	DW	05666H
	DB	026H
	DB	027H
	DB	022H
	DB	02H
	DB	028H
	DB	00H
	DB	00H
	DB	00H
	DD	012e27aH
	DW	05667H
	DB	025H
	DB	027H
	DB	022H
	DB	02H
	DB	028H
	DB	00H
	DB	00H
	DB	00H
	DD	012e55fH
	DW	05668H
	DB	028H
	DB	025H
	DB	020H
	DB	00H
	DB	028H
	DB	00H
	DB	00H
	DB	00H
	DD	012e843H
	DW	05669H
	DB	026H
	DB	024H
	DB	020H
	DB	01H
	DB	028H
	DB	00H
	DB	00H
	DB	00H
	DD	012eaefH
	DW	0566aH
	DB	026H
	DB	025H
	DB	020H
	DB	02H
	DB	028H
	DB	00H
	DB	00H
	DB	00H
	DD	012edaeH
	DW	0566bH
	DB	027H
	DB	027H
	DB	022H
	DB	01H
	DB	028H
	DB	00H
	DB	00H
	DB	00H
	DD	012f0baH
	DW	0566cH
	DB	026H
	DB	026H
	DB	022H
	DB	02H
	DB	028H
	DB	00H
	DB	00H
	DB	00H
	DD	012f38cH
	DW	0566dH
	DB	026H
	DB	028H
	DB	022H
	DB	02H
	DB	028H
	DB	00H
	DB	00H
	DB	00H
	DD	012f684H
	DW	0566eH
	DB	026H
	DB	026H
	DB	020H
	DB	02H
	DB	028H
	DB	00H
	DB	00H
	DB	00H
	DD	012f956H
	DW	0566fH
	DB	026H
	DB	027H
	DB	021H
	DB	02H
	DB	028H
	DB	00H
	DB	00H
	DB	00H
	DD	012fc3bH
	DW	05670H
	DB	027H
	DB	028H
	DB	022H
	DB	01H
	DB	028H
	DB	00H
	DB	00H
	DB	00H
	DD	012ff5bH
	DW	05671H
	DB	026H
	DB	027H
	DB	022H
	DB	02H
	DB	028H
	DB	00H
	DB	00H
	DB	00H
	DD	0130240H
	DW	05672H
	DB	026H
	DB	027H
	DB	022H
	DB	02H
	DB	028H
	DB	00H
	DB	00H
	DB	00H
	DD	0130525H
	DW	05673H
	DB	026H
	DB	027H
	DB	021H
	DB	02H
	DB	028H
	DB	00H
	DB	00H
	DB	00H
	DD	013080aH
	DW	05674H
	DB	026H
	DB	028H
	DB	022H
	DB	02H
	DB	028H
	DB	00H
	DB	00H
	DB	00H
	DD	0130b02H
	DW	05675H
	DB	028H
	DB	027H
	DB	022H
	DB	00H
	DB	028H
	DB	00H
	DB	00H
	DB	00H
	DD	0130e0eH
	DW	05676H
	DB	025H
	DB	027H
	DB	022H
	DB	02H
	DB	028H
	DB	00H
	DB	00H
	DB	00H
	DD	01310f3H
	DW	05677H
	DB	026H
	DB	028H
	DB	022H
	DB	02H
	DB	028H
	DB	00H
	DB	00H
	DB	00H
	DD	01313ebH
	DW	05678H
	DB	027H
	DB	028H
	DB	022H
	DB	01H
	DB	028H
	DB	00H
	DB	00H
	DB	00H
	DD	013170bH
	DW	05679H
	DB	025H
	DB	027H
	DB	022H
	DB	02H
	DB	028H
	DB	00H
	DB	00H
	DB	00H
	DD	01319f0H
	DW	0567aH
	DB	026H
	DB	028H
	DB	022H
	DB	02H
	DB	028H
	DB	00H
	DB	00H
	DB	00H
	DD	0131ce8H
	DW	0567bH
	DB	027H
	DB	026H
	DB	022H
	DB	01H
	DB	028H
	DB	00H
	DB	00H
	DB	00H
	DD	0131fe0H
	DW	0567cH
	DB	026H
	DB	027H
	DB	022H
	DB	02H
	DB	028H
	DB	00H
	DB	00H
	DB	00H
	DD	01322c5H
	DW	0567dH
	DB	028H
	DB	028H
	DB	022H
	DB	00H
	DB	028H
	DB	00H
	DB	00H
	DB	00H
	DD	01325e5H
	DW	0567eH
	DB	026H
	DB	028H
	DB	022H
	DB	02H
	DB	028H
	DB	00H
	DB	00H
	DB	00H
	DD	01328ddH
	DW	0567fH
	DB	026H
	DB	025H
	DB	020H
	DB	02H
	DB	028H
	DB	00H
	DB	00H
	DB	00H
	DD	0132b9cH
	DW	05680H
	DB	026H
	DB	027H
	DB	022H
	DB	02H
	DB	028H
	DB	00H
	DB	00H
	DB	00H
	DD	0132e81H
	DW	05681H
	DB	025H
	DB	025H
	DB	020H
	DB	02H
	DB	028H
	DB	00H
	DB	00H
	DB	00H
	DD	0133140H
	DW	05682H
	DB	026H
	DB	025H
	DB	021H
	DB	02H
	DB	028H
	DB	00H
	DB	00H
	DB	00H
	DD	01333ffH
	DW	05683H
	DB	025H
	DB	027H
	DB	022H
	DB	02H
	DB	028H
	DB	00H
	DB	00H
	DB	00H
	DD	01336e4H
	DW	05684H
	DB	026H
	DB	028H
	DB	022H
	DB	02H
	DB	028H
	DB	00H
	DB	00H
	DB	00H
	DD	01339dcH
	DW	05685H
	DB	026H
	DB	027H
	DB	021H
	DB	02H
	DB	028H
	DB	00H
	DB	00H
	DB	00H
	DD	0133cc1H
	DW	05686H
	DB	026H
	DB	028H
	DB	022H
	DB	02H
	DB	028H
	DB	00H
	DB	00H
	DB	00H
	DD	0133fb9H
	DW	05687H
	DB	027H
	DB	028H
	DB	022H
	DB	01H
	DB	028H
	DB	00H
	DB	00H
	DB	00H
	DD	01342d9H
	DW	05688H
	DB	026H
	DB	026H
	DB	020H
	DB	02H
	DB	028H
	DB	00H
	DB	00H
	DB	00H
	DD	01345abH
	DW	05689H
	DB	026H
	DB	027H
	DB	022H
	DB	02H
	DB	028H
	DB	00H
	DB	00H
	DB	00H
	DD	0134890H
	DW	0568aH
	DB	027H
	DB	028H
	DB	022H
	DB	01H
	DB	028H
	DB	00H
	DB	00H
	DB	00H
	DD	0134bb0H
	DW	0568bH
	DB	026H
	DB	028H
	DB	022H
	DB	02H
	DB	028H
	DB	00H
	DB	00H
	DB	00H
	DD	0134ea8H
	DW	0568cH
	DB	026H
	DB	028H
	DB	022H
	DB	02H
	DB	028H
	DB	00H
	DB	00H
	DB	00H
	DD	01351a0H
	DW	0568dH
	DB	026H
	DB	026H
	DB	022H
	DB	02H
	DB	028H
	DB	00H
	DB	00H
	DB	00H
	DD	0135472H
	DW	0568eH
	DB	026H
	DB	027H
	DB	022H
	DB	02H
	DB	028H
	DB	00H
	DB	00H
	DB	00H
	DD	0135757H
	DW	0568fH
	DB	026H
	DB	028H
	DB	022H
	DB	02H
	DB	028H
	DB	00H
	DB	00H
	DB	00H
	DD	0135a4fH
	DW	05690H
	DB	026H
	DB	027H
	DB	022H
	DB	02H
	DB	028H
	DB	00H
	DB	00H
	DB	00H
	DD	0135d34H
	DW	05691H
	DB	027H
	DB	027H
	DB	021H
	DB	01H
	DB	028H
	DB	00H
	DB	00H
	DB	00H
	DD	0136040H
	DW	05692H
	DB	026H
	DB	028H
	DB	022H
	DB	02H
	DB	028H
	DB	00H
	DB	00H
	DB	00H
	DD	0136338H
	DW	05693H
	DB	026H
	DB	027H
	DB	021H
	DB	02H
	DB	028H
	DB	00H
	DB	00H
	DB	00H
	DD	013661dH
	DW	05694H
	DB	026H
	DB	028H
	DB	022H
	DB	02H
	DB	028H
	DB	00H
	DB	00H
	DB	00H
	DD	0136915H
	DW	05695H
	DB	026H
	DB	027H
	DB	022H
	DB	02H
	DB	028H
	DB	00H
	DB	00H
	DB	00H
	DD	0136bfaH
	DW	05696H
	DB	026H
	DB	027H
	DB	022H
	DB	02H
	DB	028H
	DB	00H
	DB	00H
	DB	00H
	DD	0136edfH
	DW	05697H
	DB	027H
	DB	026H
	DB	020H
	DB	01H
	DB	028H
	DB	00H
	DB	00H
	DB	00H
	DD	01371d7H
	DW	05698H
	DB	027H
	DB	026H
	DB	020H
	DB	01H
	DB	028H
	DB	00H
	DB	00H
	DB	00H
	DD	01374cfH
	DW	05699H
	DB	025H
	DB	027H
	DB	022H
	DB	02H
	DB	028H
	DB	00H
	DB	00H
	DB	00H
	DD	01377b4H
	DW	0569aH
	DB	023H
	DB	025H
	DB	020H
	DB	03H
	DB	028H
	DB	00H
	DB	00H
	DB	00H
	DD	0137a4eH
	DW	0569bH
	DB	027H
	DB	027H
	DB	022H
	DB	01H
	DB	028H
	DB	00H
	DB	00H
	DB	00H
	DD	0137d5aH
	DW	0569cH
	DB	027H
	DB	025H
	DB	020H
	DB	01H
	DB	028H
	DB	00H
	DB	00H
	DB	00H
	DD	013803eH
	DW	0569dH
	DB	026H
	DB	028H
	DB	022H
	DB	02H
	DB	028H
	DB	00H
	DB	00H
	DB	00H
	DD	0138336H
	DW	0569eH
	DB	026H
	DB	027H
	DB	022H
	DB	01H
	DB	028H
	DB	00H
	DB	00H
	DB	00H
	DD	013861bH
	DW	0569fH
	DB	027H
	DB	027H
	DB	022H
	DB	01H
	DB	028H
	DB	00H
	DB	00H
	DB	00H
	DD	0138927H
	DW	056a0H
	DB	025H
	DB	027H
	DB	022H
	DB	02H
	DB	028H
	DB	00H
	DB	00H
	DB	00H
	DD	0138c0cH
	DW	056a1H
	DB	026H
	DB	027H
	DB	022H
	DB	02H
	DB	028H
	DB	00H
	DB	00H
	DB	00H
	DD	0138ef1H
	DW	056a2H
	DB	027H
	DB	028H
	DB	022H
	DB	01H
	DB	028H
	DB	00H
	DB	00H
	DB	00H
	DD	0139211H
	DW	056a3H
	DB	028H
	DB	026H
	DB	020H
	DB	00H
	DB	028H
	DB	00H
	DB	00H
	DB	00H
	DD	0139509H
	DW	056a4H
	DB	027H
	DB	028H
	DB	022H
	DB	01H
	DB	028H
	DB	00H
	DB	00H
	DB	00H
	DD	0139829H
	DW	056a5H
	DB	026H
	DB	028H
	DB	022H
	DB	02H
	DB	028H
	DB	00H
	DB	00H
	DB	00H
	DD	0139b21H
	DW	056a6H
	DB	027H
	DB	026H
	DB	020H
	DB	01H
	DB	028H
	DB	00H
	DB	00H
	DB	00H
	DD	0139e19H
	DW	056a7H
	DB	026H
	DB	028H
	DB	022H
	DB	02H
	DB	028H
	DB	00H
	DB	00H
	DB	00H
	DD	013a111H
	DW	056a8H
	DB	026H
	DB	028H
	DB	022H
	DB	02H
	DB	028H
	DB	00H
	DB	00H
	DB	00H
	DD	013a409H
	DW	056a9H
	DB	027H
	DB	028H
	DB	022H
	DB	01H
	DB	028H
	DB	00H
	DB	00H
	DB	00H
	DD	013a729H
	DW	056aaH
	DB	026H
	DB	026H
	DB	020H
	DB	01H
	DB	028H
	DB	00H
	DB	00H
	DB	00H
	DD	013a9fbH
	DW	056abH
	DB	027H
	DB	028H
	DB	022H
	DB	01H
	DB	028H
	DB	00H
	DB	00H
	DB	00H
	DD	013ad1bH
	DW	056acH
	DB	027H
	DB	028H
	DB	022H
	DB	01H
	DB	028H
	DB	00H
	DB	00H
	DB	00H
	DD	013b03bH
	DW	056adH
	DB	028H
	DB	028H
	DB	022H
	DB	00H
	DB	028H
	DB	00H
	DB	00H
	DB	00H
	DD	013b35bH
	DW	056aeH
	DB	027H
	DB	027H
	DB	022H
	DB	00H
	DB	028H
	DB	00H
	DB	00H
	DB	00H
	DD	013b667H
	DW	056afH
	DB	026H
	DB	026H
	DB	021H
	DB	02H
	DB	028H
	DB	00H
	DB	00H
	DB	00H
	DD	013b939H
	DW	056b0H
	DB	026H
	DB	028H
	DB	022H
	DB	02H
	DB	028H
	DB	00H
	DB	00H
	DB	00H
	DD	013bc31H
	DW	056b1H
	DB	026H
	DB	028H
	DB	022H
	DB	02H
	DB	028H
	DB	00H
	DB	00H
	DB	00H
	DD	013bf29H
	DW	056b2H
	DB	028H
	DB	027H
	DB	022H
	DB	00H
	DB	028H
	DB	00H
	DB	00H
	DB	00H
	DD	013c235H
	DW	056b3H
	DB	028H
	DB	027H
	DB	022H
	DB	00H
	DB	028H
	DB	00H
	DB	00H
	DB	00H
	DD	013c541H
	DW	056b4H
	DB	028H
	DB	027H
	DB	021H
	DB	00H
	DB	028H
	DB	00H
	DB	00H
	DB	00H
	DD	013c84dH
	DW	056b5H
	DB	027H
	DB	028H
	DB	022H
	DB	01H
	DB	028H
	DB	00H
	DB	00H
	DB	00H
	DD	013cb6dH
	DW	056b6H
	DB	026H
	DB	027H
	DB	021H
	DB	02H
	DB	028H
	DB	00H
	DB	00H
	DB	00H
	DD	013ce52H
	DW	056b7H
	DB	027H
	DB	028H
	DB	022H
	DB	01H
	DB	028H
	DB	00H
	DB	00H
	DB	00H
	DD	013d172H
	DW	056b8H
	DB	026H
	DB	028H
	DB	022H
	DB	02H
	DB	028H
	DB	00H
	DB	00H
	DB	00H
	DD	013d46aH
	DW	056b9H
	DB	026H
	DB	028H
	DB	022H
	DB	02H
	DB	028H
	DB	00H
	DB	00H
	DB	00H
	DD	013d762H
	DW	056baH
	DB	026H
	DB	027H
	DB	021H
	DB	02H
	DB	028H
	DB	00H
	DB	00H
	DB	00H
	DD	013da47H
	DW	056bbH
	DB	024H
	DB	026H
	DB	020H
	DB	02H
	DB	028H
	DB	00H
	DB	00H
	DB	00H
	DD	013dcf3H
	DW	056bcH
	DB	026H
	DB	027H
	DB	021H
	DB	02H
	DB	028H
	DB	00H
	DB	00H
	DB	00H
	DD	013dfd8H
	DW	056bdH
	DB	026H
	DB	028H
	DB	022H
	DB	02H
	DB	028H
	DB	00H
	DB	00H
	DB	00H
	DD	013e2d0H
	DW	056beH
	DB	026H
	DB	027H
	DB	022H
	DB	01H
	DB	028H
	DB	00H
	DB	00H
	DB	00H
	DD	013e5b5H
	DW	056bfH
	DB	025H
	DB	027H
	DB	022H
	DB	02H
	DB	028H
	DB	00H
	DB	00H
	DB	00H
	DD	013e89aH
	DW	056c0H
	DB	027H
	DB	027H
	DB	022H
	DB	01H
	DB	028H
	DB	00H
	DB	00H
	DB	00H
	DD	013eba6H
	DW	056c1H
	DB	025H
	DB	026H
	DB	020H
	DB	02H
	DB	028H
	DB	00H
	DB	00H
	DB	00H
	DD	013ee78H
	DW	056c2H
	DB	028H
	DB	025H
	DB	020H
	DB	00H
	DB	028H
	DB	00H
	DB	00H
	DB	00H
	DD	013f15cH
	DW	056c3H
	DB	026H
	DB	028H
	DB	022H
	DB	01H
	DB	028H
	DB	00H
	DB	00H
	DB	00H
	DD	013f454H
	DW	056c4H
	DB	026H
	DB	028H
	DB	022H
	DB	02H
	DB	028H
	DB	00H
	DB	00H
	DB	00H
	DD	013f74cH
	DW	056c5H
	DB	027H
	DB	026H
	DB	020H
	DB	01H
	DB	028H
	DB	00H
	DB	00H
	DB	00H
	DD	013fa44H
	DW	056c6H
	DB	026H
	DB	027H
	DB	021H
	DB	02H
	DB	028H
	DB	00H
	DB	00H
	DB	00H
	DD	013fd29H
	DW	056c7H
	DB	026H
	DB	027H
	DB	021H
	DB	02H
	DB	028H
	DB	00H
	DB	00H
	DB	00H
	DD	014000eH
	DW	056c8H
	DB	027H
	DB	028H
	DB	022H
	DB	01H
	DB	028H
	DB	00H
	DB	00H
	DB	00H
	DD	014032eH
	DW	056c9H
	DB	026H
	DB	025H
	DB	020H
	DB	02H
	DB	028H
	DB	00H
	DB	00H
	DB	00H
	DD	01405edH
	DW	056caH
	DB	027H
	DB	028H
	DB	022H
	DB	01H
	DB	028H
	DB	00H
	DB	00H
	DB	00H
	DD	014090dH
	DW	056cbH
	DB	026H
	DB	028H
	DB	022H
	DB	02H
	DB	028H
	DB	00H
	DB	00H
	DB	00H
	DD	0140c05H
	DW	056ccH
	DB	027H
	DB	028H
	DB	022H
	DB	01H
	DB	028H
	DB	00H
	DB	00H
	DB	00H
	DD	0140f25H
	DW	056cdH
	DB	026H
	DB	027H
	DB	022H
	DB	01H
	DB	028H
	DB	00H
	DB	00H
	DB	00H
	DD	014120aH
	DW	056ceH
	DB	024H
	DB	027H
	DB	022H
	DB	02H
	DB	028H
	DB	00H
	DB	00H
	DB	00H
	DD	01414c8H
	DW	056cfH
	DB	027H
	DB	028H
	DB	022H
	DB	00H
	DB	028H
	DB	00H
	DB	00H
	DB	00H
	DD	01417e8H
	DW	056d0H
	DB	026H
	DB	028H
	DB	022H
	DB	02H
	DB	028H
	DB	00H
	DB	00H
	DB	00H
	DD	0141ae0H
	DW	056d1H
	DB	026H
	DB	026H
	DB	020H
	DB	01H
	DB	028H
	DB	00H
	DB	00H
	DB	00H
	DD	0141db2H
	DW	056d2H
	DB	027H
	DB	027H
	DB	022H
	DB	01H
	DB	028H
	DB	00H
	DB	00H
	DB	00H
	DD	01420beH
	DW	056d3H
	DB	026H
	DB	026H
	DB	021H
	DB	02H
	DB	028H
	DB	00H
	DB	00H
	DB	00H
	DD	0142390H
	DW	056d4H
	DB	027H
	DB	028H
	DB	022H
	DB	01H
	DB	028H
	DB	00H
	DB	00H
	DB	00H
	DD	01426b0H
	DW	056d5H
	DB	026H
	DB	028H
	DB	022H
	DB	02H
	DB	028H
	DB	00H
	DB	00H
	DB	00H
	DD	01429a8H
	DW	056d6H
	DB	026H
	DB	027H
	DB	022H
	DB	02H
	DB	028H
	DB	00H
	DB	00H
	DB	00H
	DD	0142c8dH
	DW	056d7H
	DB	024H
	DB	024H
	DB	01fH
	DB	02H
	DB	028H
	DB	00H
	DB	00H
	DB	00H
	DD	0142f15H
	DW	056d8H
	DB	024H
	DB	026H
	DB	020H
	DB	02H
	DB	028H
	DB	00H
	DB	00H
	DB	00H
	DD	01431c1H
	DW	056d9H
	DB	024H
	DB	026H
	DB	020H
	DB	02H
	DB	028H
	DB	00H
	DB	00H
	DB	00H
	DD	014346dH
	DW	056daH
	DB	024H
	DB	026H
	DB	020H
	DB	02H
	DB	028H
	DB	00H
	DB	00H
	DB	00H
	DD	0143719H
	DW	056dbH
	DB	024H
	DB	025H
	DB	01fH
	DB	02H
	DB	028H
	DB	00H
	DB	00H
	DB	00H
	DD	01439b3H
	DW	056dcH
	DB	024H
	DB	026H
	DB	020H
	DB	02H
	DB	028H
	DB	00H
	DB	00H
	DB	00H
	DD	0143c5fH
	DW	056ddH
	DB	024H
	DB	026H
	DB	020H
	DB	02H
	DB	028H
	DB	00H
	DB	00H
	DB	00H
	DD	0143f0bH
	DW	056deH
	DB	024H
	DB	026H
	DB	020H
	DB	02H
	DB	028H
	DB	00H
	DB	00H
	DB	00H
	DD	01441b7H
	DW	056dfH
	DB	024H
	DB	028H
	DB	022H
	DB	02H
	DB	028H
	DB	00H
	DB	00H
	DB	00H
	DD	0144487H
	DW	056e0H
	DB	024H
	DB	026H
	DB	020H
	DB	02H
	DB	028H
	DB	00H
	DB	00H
	DB	00H
	DD	0144733H
	DW	056e1H
	DB	024H
	DB	026H
	DB	020H
	DB	02H
	DB	028H
	DB	00H
	DB	00H
	DB	00H
	DD	01449dfH
	DW	056e2H
	DB	024H
	DB	026H
	DB	020H
	DB	02H
	DB	028H
	DB	00H
	DB	00H
	DB	00H
	DD	0144c8bH
	DW	056e3H
	DB	024H
	DB	026H
	DB	020H
	DB	02H
	DB	028H
	DB	00H
	DB	00H
	DB	00H
	DD	0144f37H
	DW	056e4H
	DB	024H
	DB	025H
	DB	020H
	DB	02H
	DB	028H
	DB	00H
	DB	00H
	DB	00H
	DD	01451d1H
	DW	056e5H
	DB	024H
	DB	026H
	DB	020H
	DB	02H
	DB	028H
	DB	00H
	DB	00H
	DB	00H
	DD	014547dH
	DW	056e6H
	DB	024H
	DB	026H
	DB	020H
	DB	02H
	DB	028H
	DB	00H
	DB	00H
	DB	00H
	DD	0145729H
	DW	056e7H
	DB	024H
	DB	026H
	DB	020H
	DB	02H
	DB	028H
	DB	00H
	DB	00H
	DB	00H
	DD	01459d5H
	DW	056e8H
	DB	024H
	DB	026H
	DB	020H
	DB	02H
	DB	028H
	DB	00H
	DB	00H
	DB	00H
	DD	0145c81H
	DW	056e9H
	DB	024H
	DB	025H
	DB	020H
	DB	02H
	DB	028H
	DB	00H
	DB	00H
	DB	00H
	DD	0145f1bH
	DW	056eaH
	DB	024H
	DB	027H
	DB	022H
	DB	02H
	DB	028H
	DB	00H
	DB	00H
	DB	00H
	DD	01461d9H
	DW	056ebH
	DB	024H
	DB	025H
	DB	020H
	DB	02H
	DB	028H
	DB	00H
	DB	00H
	DB	00H
	DD	0146473H
	DW	056ecH
	DB	024H
	DB	026H
	DB	020H
	DB	02H
	DB	028H
	DB	00H
	DB	00H
	DB	00H
	DD	014671fH
	DW	056edH
	DB	024H
	DB	026H
	DB	020H
	DB	02H
	DB	028H
	DB	00H
	DB	00H
	DB	00H
	DD	01469cbH
	DW	056eeH
	DB	024H
	DB	026H
	DB	020H
	DB	02H
	DB	028H
	DB	00H
	DB	00H
	DB	00H
	DD	0146c77H
	DW	056efH
	DB	024H
	DB	026H
	DB	020H
	DB	02H
	DB	028H
	DB	00H
	DB	00H
	DB	00H
	DD	0146f23H
	DW	056f0H
	DB	024H
	DB	026H
	DB	020H
	DB	02H
	DB	028H
	DB	00H
	DB	00H
	DB	00H
	DD	01471cfH
	DW	056f1H
	DB	024H
	DB	027H
	DB	022H
	DB	02H
	DB	028H
	DB	00H
	DB	00H
	DB	00H
	DD	014748dH
	DW	056f2H
	DB	024H
	DB	026H
	DB	020H
	DB	02H
	DB	028H
	DB	00H
	DB	00H
	DB	00H
	DD	0147739H
	DW	056f3H
	DB	024H
	DB	026H
	DB	020H
	DB	02H
	DB	028H
	DB	00H
	DB	00H
	DB	00H
	DD	01479e5H
	DW	056f4H
	DB	024H
	DB	026H
	DB	020H
	DB	02H
	DB	028H
	DB	00H
	DB	00H
	DB	00H
	DD	0147c91H
	DW	056f5H
	DB	024H
	DB	025H
	DB	020H
	DB	02H
	DB	028H
	DB	00H
	DB	00H
	DB	00H
	DD	0147f2bH
	DW	056f6H
	DB	024H
	DB	026H
	DB	020H
	DB	02H
	DB	028H
	DB	00H
	DB	00H
	DB	00H
	DD	01481d7H
	DW	056f7H
	DB	024H
	DB	026H
	DB	020H
	DB	02H
	DB	028H
	DB	00H
	DB	00H
	DB	00H
	DD	0148483H
	DW	056f8H
	DB	024H
	DB	026H
	DB	020H
	DB	02H
	DB	028H
	DB	00H
	DB	00H
	DB	00H
	DD	014872fH
	DW	056f9H
	DB	024H
	DB	025H
	DB	020H
	DB	02H
	DB	028H
	DB	00H
	DB	00H
	DB	00H
	DD	01489c9H
	DW	056faH
	DB	024H
	DB	026H
	DB	020H
	DB	02H
	DB	028H
	DB	00H
	DB	00H
	DB	00H
	DD	0148c75H
	DW	056fbH
	DB	024H
	DB	026H
	DB	020H
	DB	02H
	DB	028H
	DB	00H
	DB	00H
	DB	00H
	DD	0148f21H
	DW	056fcH
	DB	024H
	DB	026H
	DB	020H
	DB	02H
	DB	028H
	DB	00H
	DB	00H
	DB	00H
	DD	01491cdH
	DW	056fdH
	DB	024H
	DB	026H
	DB	020H
	DB	02H
	DB	028H
	DB	00H
	DB	00H
	DB	00H
	DD	0149479H
	DW	056feH
	DB	024H
	DB	025H
	DB	020H
	DB	02H
	DB	028H
	DB	00H
	DB	00H
	DB	00H
	DD	0149713H
	DW	056ffH
	DB	024H
	DB	025H
	DB	020H
	DB	02H
	DB	028H
	DB	00H
	DB	00H
	DB	00H
	DD	01499adH
	DW	05700H
	DB	024H
	DB	026H
	DB	020H
	DB	02H
	DB	028H
	DB	00H
	DB	00H
	DB	00H
	DD	0149c59H
	DW	05701H
	DB	024H
	DB	026H
	DB	020H
	DB	02H
	DB	028H
	DB	00H
	DB	00H
	DB	00H
	DD	0149f05H
	DW	05702H
	DB	024H
	DB	026H
	DB	020H
	DB	02H
	DB	028H
	DB	00H
	DB	00H
	DB	00H
	DD	014a1b1H
	DW	05703H
	DB	024H
	DB	025H
	DB	020H
	DB	02H
	DB	028H
	DB	00H
	DB	00H
	DB	00H
	DD	014a44bH
	DW	05704H
	DB	024H
	DB	025H
	DB	020H
	DB	02H
	DB	028H
	DB	00H
	DB	00H
	DB	00H
	DD	014a6e5H
	DW	05705H
	DB	024H
	DB	025H
	DB	020H
	DB	02H
	DB	028H
	DB	00H
	DB	00H
	DB	00H
	DD	014a97fH
	DW	05706H
	DB	024H
	DB	025H
	DB	020H
	DB	02H
	DB	028H
	DB	00H
	DB	00H
	DB	00H
	DD	014ac19H
	DW	05707H
	DB	024H
	DB	025H
	DB	020H
	DB	02H
	DB	028H
	DB	00H
	DB	00H
	DB	00H
	DD	014aeb3H
	DW	05708H
	DB	024H
	DB	025H
	DB	020H
	DB	02H
	DB	028H
	DB	00H
	DB	00H
	DB	00H
	DD	014b14dH
	DW	05709H
	DB	024H
	DB	025H
	DB	020H
	DB	02H
	DB	028H
	DB	00H
	DB	00H
	DB	00H
	DD	014b3e7H
	DW	0570aH
	DB	024H
	DB	025H
	DB	020H
	DB	02H
	DB	028H
	DB	00H
	DB	00H
	DB	00H
	DD	014b681H
	DW	0570bH
	DB	024H
	DB	025H
	DB	020H
	DB	02H
	DB	028H
	DB	00H
	DB	00H
	DB	00H
	DD	014b91bH
	DW	0570cH
	DB	024H
	DB	026H
	DB	020H
	DB	02H
	DB	028H
	DB	00H
	DB	00H
	DB	00H
	DD	014bbc7H
	DW	0570dH
	DB	024H
	DB	025H
	DB	020H
	DB	02H
	DB	028H
	DB	00H
	DB	00H
	DB	00H
	DD	014be61H
	DW	0570eH
	DB	024H
	DB	025H
	DB	020H
	DB	02H
	DB	028H
	DB	00H
	DB	00H
	DB	00H
	DD	014c0fbH
	DW	0570fH
	DB	024H
	DB	025H
	DB	020H
	DB	02H
	DB	028H
	DB	00H
	DB	00H
	DB	00H
	DD	014c395H
	DW	05710H
	DB	024H
	DB	025H
	DB	020H
	DB	02H
	DB	028H
	DB	00H
	DB	00H
	DB	00H
	DD	014c62fH
	DW	05711H
	DB	024H
	DB	025H
	DB	020H
	DB	02H
	DB	028H
	DB	00H
	DB	00H
	DB	00H
	DD	014c8c9H
	DW	05712H
	DB	024H
	DB	026H
	DB	020H
	DB	02H
	DB	028H
	DB	00H
	DB	00H
	DB	00H
	DD	014cb75H
	DW	05713H
	DB	024H
	DB	025H
	DB	020H
	DB	02H
	DB	028H
	DB	00H
	DB	00H
	DB	00H
	DD	014ce0fH
	DW	05714H
	DB	024H
	DB	025H
	DB	020H
	DB	02H
	DB	028H
	DB	00H
	DB	00H
	DB	00H
	DD	014d0a9H
	DW	05715H
	DB	024H
	DB	025H
	DB	020H
	DB	02H
	DB	028H
	DB	00H
	DB	00H
	DB	00H
	DD	014d343H
	DW	05716H
	DB	024H
	DB	025H
	DB	020H
	DB	02H
	DB	028H
	DB	00H
	DB	00H
	DB	00H
	DD	014d5ddH
	DW	05717H
	DB	024H
	DB	025H
	DB	020H
	DB	02H
	DB	028H
	DB	00H
	DB	00H
	DB	00H
	DD	014d877H
	DW	05718H
	DB	024H
	DB	025H
	DB	020H
	DB	02H
	DB	028H
	DB	00H
	DB	00H
	DB	00H
	DD	014db11H
	DW	05719H
	DB	024H
	DB	025H
	DB	020H
	DB	02H
	DB	028H
	DB	00H
	DB	00H
	DB	00H
	DD	014ddabH
	DW	0571aH
	DB	024H
	DB	025H
	DB	020H
	DB	02H
	DB	028H
	DB	00H
	DB	00H
	DB	00H
	DD	014e045H
	DW	0571bH
	DB	024H
	DB	026H
	DB	020H
	DB	02H
	DB	028H
	DB	00H
	DB	00H
	DB	00H
	DD	014e2f1H
	DW	0571cH
	DB	024H
	DB	025H
	DB	020H
	DB	02H
	DB	028H
	DB	00H
	DB	00H
	DB	00H
	DD	014e58bH
	DW	0571dH
	DB	024H
	DB	026H
	DB	020H
	DB	02H
	DB	028H
	DB	00H
	DB	00H
	DB	00H
	DD	014e837H
	DW	0571eH
	DB	024H
	DB	026H
	DB	020H
	DB	02H
	DB	028H
	DB	00H
	DB	00H
	DB	00H
	DD	014eae3H
	DW	0571fH
	DB	028H
	DB	026H
	DB	022H
	DB	00H
	DB	028H
	DB	00H
	DB	00H
	DB	00H
	DD	014eddbH
	DW	05720H
	DB	027H
	DB	027H
	DB	022H
	DB	00H
	DB	028H
	DB	00H
	DB	00H
	DB	00H
	DD	014f0e7H
	DW	05721H
	DB	028H
	DB	026H
	DB	022H
	DB	00H
	DB	028H
	DB	00H
	DB	00H
	DB	00H
	DD	014f3dfH
	DW	05722H
	DB	028H
	DB	026H
	DB	021H
	DB	00H
	DB	028H
	DB	00H
	DB	00H
	DB	00H
	DD	014f6d7H
	DW	05723H
	DB	028H
	DB	024H
	DB	020H
	DB	00H
	DB	028H
	DB	00H
	DB	00H
	DB	00H
	DD	014f9a7H
	DW	05724H
	DB	028H
	DB	027H
	DB	022H
	DB	00H
	DB	028H
	DB	00H
	DB	00H
	DB	00H
	DD	014fcb3H
	DW	05725H
	DB	028H
	DB	028H
	DB	022H
	DB	00H
	DB	028H
	DB	00H
	DB	00H
	DB	00H
	DD	014ffd3H
	DW	05726H
	DB	028H
	DB	028H
	DB	022H
	DB	00H
	DB	028H
	DB	00H
	DB	00H
	DB	00H
	DD	01502f3H
	DW	05727H
	DB	028H
	DB	024H
	DB	01fH
	DB	00H
	DB	028H
	DB	00H
	DB	00H
	DB	00H
	DD	01505c3H
	DW	05728H
	DB	027H
	DB	027H
	DB	022H
	DB	00H
	DB	028H
	DB	00H
	DB	00H
	DB	00H
	DD	01508cfH
	DW	05729H
	DB	028H
	DB	027H
	DB	022H
	DB	00H
	DB	028H
	DB	00H
	DB	00H
	DB	00H
	DD	0150bdbH
	DW	0572aH
	DB	028H
	DB	027H
	DB	022H
	DB	00H
	DB	028H
	DB	00H
	DB	00H
	DB	00H
	DD	0150ee7H
	DW	0572bH
	DB	028H
	DB	027H
	DB	022H
	DB	00H
	DB	028H
	DB	00H
	DB	00H
	DB	00H
	DD	01511f3H
	DW	0572cH
	DB	028H
	DB	027H
	DB	022H
	DB	00H
	DB	028H
	DB	00H
	DB	00H
	DB	00H
	DD	01514ffH
	DW	0572dH
	DB	026H
	DB	026H
	DB	022H
	DB	01H
	DB	028H
	DB	00H
	DB	00H
	DB	00H
	DD	01517d1H
	DW	0572eH
	DB	028H
	DB	026H
	DB	022H
	DB	00H
	DB	028H
	DB	00H
	DB	00H
	DB	00H
	DD	0151ac9H
	DW	0572fH
	DB	028H
	DB	026H
	DB	022H
	DB	00H
	DB	028H
	DB	00H
	DB	00H
	DB	00H
	DD	0151dc1H
	DW	05730H
	DB	028H
	DB	027H
	DB	022H
	DB	00H
	DB	028H
	DB	00H
	DB	00H
	DB	00H
	DD	01520cdH
	DW	05731H
	DB	028H
	DB	028H
	DB	022H
	DB	00H
	DB	028H
	DB	00H
	DB	00H
	DB	00H
	DD	01523edH
	DW	05732H
	DB	028H
	DB	027H
	DB	022H
	DB	00H
	DB	028H
	DB	00H
	DB	00H
	DB	00H
	DD	01526f9H
	DW	05733H
	DB	026H
	DB	027H
	DB	021H
	DB	00H
	DB	028H
	DB	00H
	DB	00H
	DB	00H
	DD	01529deH
	DW	05734H
	DB	026H
	DB	027H
	DB	022H
	DB	00H
	DB	028H
	DB	00H
	DB	00H
	DB	00H
	DD	0152cc3H
	DW	05735H
	DB	028H
	DB	026H
	DB	022H
	DB	00H
	DB	028H
	DB	00H
	DB	00H
	DB	00H
	DD	0152fbbH
	DW	05736H
	DB	028H
	DB	026H
	DB	022H
	DB	00H
	DB	028H
	DB	00H
	DB	00H
	DB	00H
	DD	01532b3H
	DW	05737H
	DB	028H
	DB	027H
	DB	022H
	DB	00H
	DB	028H
	DB	00H
	DB	00H
	DB	00H
	DD	01535bfH
	DW	05738H
	DB	026H
	DB	027H
	DB	022H
	DB	00H
	DB	028H
	DB	00H
	DB	00H
	DB	00H
	DD	01538a4H
	DW	05739H
	DB	028H
	DB	028H
	DB	022H
	DB	00H
	DB	028H
	DB	00H
	DB	00H
	DB	00H
	DD	0153bc4H
	DW	0573aH
	DB	027H
	DB	027H
	DB	021H
	DB	00H
	DB	028H
	DB	00H
	DB	00H
	DB	00H
	DD	0153ed0H
	DW	0573bH
	DB	028H
	DB	027H
	DB	021H
	DB	00H
	DB	028H
	DB	00H
	DB	00H
	DB	00H
	DD	01541dcH
	DW	0573cH
	DB	028H
	DB	024H
	DB	020H
	DB	00H
	DB	028H
	DB	00H
	DB	00H
	DB	00H
	DD	01544acH
	DW	0573dH
	DB	027H
	DB	027H
	DB	022H
	DB	00H
	DB	028H
	DB	00H
	DB	00H
	DB	00H
	DD	01547b8H
	DW	0573eH
	DB	028H
	DB	028H
	DB	022H
	DB	00H
	DB	028H
	DB	00H
	DB	00H
	DB	00H
	DD	0154ad8H
	DW	0573fH
	DB	028H
	DB	028H
	DB	022H
	DB	00H
	DB	028H
	DB	00H
	DB	00H
	DB	00H
	DD	0154df8H
	DW	05740H
	DB	028H
	DB	026H
	DB	022H
	DB	00H
	DB	028H
	DB	00H
	DB	00H
	DB	00H
	DD	01550f0H
	DW	05741H
	DB	028H
	DB	028H
	DB	022H
	DB	00H
	DB	028H
	DB	00H
	DB	00H
	DB	00H
	DD	0155410H
	DW	05742H
	DB	028H
	DB	028H
	DB	022H
	DB	00H
	DB	028H
	DB	00H
	DB	00H
	DB	00H
	DD	0155730H
	DW	05743H
	DB	028H
	DB	028H
	DB	022H
	DB	00H
	DB	028H
	DB	00H
	DB	00H
	DB	00H
	DD	0155a50H
	DW	05744H
	DB	028H
	DB	028H
	DB	022H
	DB	00H
	DB	028H
	DB	00H
	DB	00H
	DB	00H
	DD	0155d70H
	DW	05745H
	DB	028H
	DB	027H
	DB	021H
	DB	00H
	DB	028H
	DB	00H
	DB	00H
	DB	00H
	DD	015607cH
	DW	05746H
	DB	028H
	DB	028H
	DB	022H
	DB	00H
	DB	028H
	DB	00H
	DB	00H
	DB	00H
	DD	015639cH
	DW	05747H
	DB	026H
	DB	028H
	DB	022H
	DB	00H
	DB	028H
	DB	00H
	DB	00H
	DB	00H
	DD	0156694H
	DW	05748H
	DB	028H
	DB	028H
	DB	022H
	DB	00H
	DB	028H
	DB	00H
	DB	00H
	DB	00H
	DD	01569b4H
	DW	05749H
	DB	028H
	DB	027H
	DB	022H
	DB	00H
	DB	028H
	DB	00H
	DB	00H
	DB	00H
	DD	0156cc0H
	DW	0574aH
	DB	028H
	DB	028H
	DB	022H
	DB	00H
	DB	028H
	DB	00H
	DB	00H
	DB	00H
	DD	0156fe0H
	DW	0574bH
	DB	028H
	DB	026H
	DB	021H
	DB	00H
	DB	028H
	DB	00H
	DB	00H
	DB	00H
	DD	01572d8H
	DW	0574cH
	DB	028H
	DB	026H
	DB	022H
	DB	00H
	DB	028H
	DB	00H
	DB	00H
	DB	00H
	DD	01575d0H
	DW	0574dH
	DB	028H
	DB	028H
	DB	022H
	DB	00H
	DB	028H
	DB	00H
	DB	00H
	DB	00H
	DD	01578f0H
	DW	0574eH
	DB	028H
	DB	028H
	DB	022H
	DB	00H
	DB	028H
	DB	00H
	DB	00H
	DB	00H
	DD	0157c10H
	DW	0574fH
	DB	028H
	DB	027H
	DB	022H
	DB	00H
	DB	028H
	DB	00H
	DB	00H
	DB	00H
	DD	0157f1cH
	DW	05750H
	DB	027H
	DB	026H
	DB	022H
	DB	01H
	DB	028H
	DB	00H
	DB	00H
	DB	00H
	DD	0158214H
	DW	05751H
	DB	028H
	DB	028H
	DB	022H
	DB	00H
	DB	028H
	DB	00H
	DB	00H
	DB	00H
	DD	0158534H
	DW	05752H
	DB	028H
	DB	026H
	DB	021H
	DB	00H
	DB	028H
	DB	00H
	DB	00H
	DB	00H
	DD	015882cH
	DW	05753H
	DB	028H
	DB	026H
	DB	021H
	DB	00H
	DB	028H
	DB	00H
	DB	00H
	DB	00H
	DD	0158b24H
	DW	05754H
	DB	028H
	DB	027H
	DB	022H
	DB	00H
	DB	028H
	DB	00H
	DB	00H
	DB	00H
	DD	0158e30H
	DW	05755H
	DB	028H
	DB	024H
	DB	020H
	DB	00H
	DB	028H
	DB	00H
	DB	00H
	DB	00H
	DD	0159100H
	DW	05756H
	DB	028H
	DB	024H
	DB	020H
	DB	00H
	DB	028H
	DB	00H
	DB	00H
	DB	00H
	DD	01593d0H
	DW	05757H
	DB	027H
	DB	028H
	DB	022H
	DB	00H
	DB	028H
	DB	00H
	DB	00H
	DB	00H
	DD	01596f0H
	DW	05758H
	DB	028H
	DB	025H
	DB	021H
	DB	00H
	DB	028H
	DB	00H
	DB	00H
	DB	00H
	DD	01599d4H
	DW	05759H
	DB	028H
	DB	024H
	DB	020H
	DB	00H
	DB	028H
	DB	00H
	DB	00H
	DB	00H
	DD	0159ca4H
	DW	0575aH
	DB	028H
	DB	026H
	DB	021H
	DB	00H
	DB	028H
	DB	00H
	DB	00H
	DB	00H
	DD	0159f9cH
	DW	0575bH
	DB	028H
	DB	028H
	DB	022H
	DB	00H
	DB	028H
	DB	00H
	DB	00H
	DB	00H
	DD	015a2bcH
	DW	0575cH
	DB	028H
	DB	028H
	DB	022H
	DB	00H
	DB	028H
	DB	00H
	DB	00H
	DB	00H
	DD	015a5dcH
	DW	0575dH
	DB	028H
	DB	028H
	DB	022H
	DB	00H
	DB	028H
	DB	00H
	DB	00H
	DB	00H
	DD	015a8fcH
	DW	0575eH
	DB	027H
	DB	027H
	DB	022H
	DB	00H
	DB	028H
	DB	00H
	DB	00H
	DB	00H
	DD	015ac08H
	DW	0575fH
	DB	028H
	DB	028H
	DB	022H
	DB	00H
	DB	028H
	DB	00H
	DB	00H
	DB	00H
	DD	015af28H
	DW	05760H
	DB	028H
	DB	025H
	DB	021H
	DB	00H
	DB	028H
	DB	00H
	DB	00H
	DB	00H
	DD	015b20cH
	DW	05761H
	DB	028H
	DB	028H
	DB	022H
	DB	00H
	DB	028H
	DB	00H
	DB	00H
	DB	00H
	DD	015b52cH
	DW	05762H
	DB	028H
	DB	027H
	DB	022H
	DB	00H
	DB	028H
	DB	00H
	DB	00H
	DB	00H
	DD	015b838H
	DW	05763H
	DB	028H
	DB	026H
	DB	022H
	DB	00H
	DB	028H
	DB	00H
	DB	00H
	DB	00H
	DD	015bb30H
	DW	05764H
	DB	026H
	DB	027H
	DB	022H
	DB	00H
	DB	028H
	DB	00H
	DB	00H
	DB	00H
	DD	015be15H
	DW	05765H
	DB	028H
	DB	025H
	DB	021H
	DB	00H
	DB	028H
	DB	00H
	DB	00H
	DB	00H
	DD	015c0f9H
	DW	05766H
	DB	028H
	DB	026H
	DB	022H
	DB	00H
	DB	028H
	DB	00H
	DB	00H
	DB	00H
	DD	015c3f1H
	DW	05767H
	DB	028H
	DB	026H
	DB	021H
	DB	00H
	DB	028H
	DB	00H
	DB	00H
	DB	00H
	DD	015c6e9H
	DW	05768H
	DB	027H
	DB	027H
	DB	022H
	DB	00H
	DB	028H
	DB	00H
	DB	00H
	DB	00H
	DD	015c9f5H
	DW	05769H
	DB	028H
	DB	027H
	DB	022H
	DB	00H
	DB	028H
	DB	00H
	DB	00H
	DB	00H
	DD	015cd01H
	DW	0576aH
	DB	028H
	DB	027H
	DB	022H
	DB	00H
	DB	028H
	DB	00H
	DB	00H
	DB	00H
	DD	015d00dH
	DW	0576bH
	DB	028H
	DB	027H
	DB	022H
	DB	00H
	DB	028H
	DB	00H
	DB	00H
	DB	00H
	DD	015d319H
	DW	0576cH
	DB	028H
	DB	027H
	DB	021H
	DB	00H
	DB	028H
	DB	00H
	DB	00H
	DB	00H
	DD	015d625H
	DW	0576dH
	DB	028H
	DB	028H
	DB	022H
	DB	00H
	DB	028H
	DB	00H
	DB	00H
	DB	00H
	DD	015d945H
	DW	0576eH
	DB	028H
	DB	027H
	DB	022H
	DB	00H
	DB	028H
	DB	00H
	DB	00H
	DB	00H
	DD	015dc51H
	DW	0576fH
	DB	028H
	DB	026H
	DB	022H
	DB	00H
	DB	028H
	DB	00H
	DB	00H
	DB	00H
	DD	015df49H
	DW	05770H
	DB	026H
	DB	028H
	DB	022H
	DB	00H
	DB	028H
	DB	00H
	DB	00H
	DB	00H
	DD	015e241H
	DW	05771H
	DB	028H
	DB	027H
	DB	022H
	DB	00H
	DB	028H
	DB	00H
	DB	00H
	DB	00H
	DD	015e54dH
	DW	05772H
	DB	027H
	DB	028H
	DB	022H
	DB	00H
	DB	028H
	DB	00H
	DB	00H
	DB	00H
	DD	015e86dH
	DW	05773H
	DB	026H
	DB	028H
	DB	022H
	DB	00H
	DB	028H
	DB	00H
	DB	00H
	DB	00H
	DD	015eb65H
	DW	05774H
	DB	028H
	DB	026H
	DB	022H
	DB	00H
	DB	028H
	DB	00H
	DB	00H
	DB	00H
	DD	015ee5dH
	DW	05775H
	DB	028H
	DB	025H
	DB	021H
	DB	00H
	DB	028H
	DB	00H
	DB	00H
	DB	00H
	DD	015f141H
	DW	05776H
	DB	028H
	DB	027H
	DB	022H
	DB	00H
	DB	028H
	DB	00H
	DB	00H
	DB	00H
	DD	015f44dH
	DW	05777H
	DB	028H
	DB	028H
	DB	022H
	DB	00H
	DB	028H
	DB	00H
	DB	00H
	DB	00H
	DD	015f76dH
	DW	05778H
	DB	026H
	DB	027H
	DB	022H
	DB	00H
	DB	028H
	DB	00H
	DB	00H
	DB	00H
	DD	015fa52H
	DW	05779H
	DB	028H
	DB	028H
	DB	022H
	DB	00H
	DB	028H
	DB	00H
	DB	00H
	DB	00H
	DD	015fd72H
	DW	0577aH
	DB	028H
	DB	028H
	DB	022H
	DB	00H
	DB	028H
	DB	00H
	DB	00H
	DB	00H
	DD	0160092H
	DW	0577bH
	DB	028H
	DB	028H
	DB	022H
	DB	00H
	DB	028H
	DB	00H
	DB	00H
	DB	00H
	DD	01603b2H
	DW	0577cH
	DB	028H
	DB	028H
	DB	022H
	DB	00H
	DB	028H
	DB	00H
	DB	00H
	DB	00H
	DD	01606d2H
	DW	0577dH
	DB	028H
	DB	028H
	DB	022H
	DB	00H
	DB	028H
	DB	00H
	DB	00H
	DB	00H
	DD	01609f2H
	DW	0577eH
	DB	028H
	DB	027H
	DB	022H
	DB	00H
	DB	028H
	DB	00H
	DB	00H
	DB	00H
	DD	0160cfeH
	DW	0577fH
	DB	028H
	DB	027H
	DB	022H
	DB	00H
	DB	028H
	DB	00H
	DB	00H
	DB	00H
	DD	016100aH
	DW	05780H
	DB	028H
	DB	026H
	DB	021H
	DB	00H
	DB	028H
	DB	00H
	DB	00H
	DB	00H
	DD	0161302H
	DW	05781H
	DB	028H
	DB	028H
	DB	022H
	DB	00H
	DB	028H
	DB	00H
	DB	00H
	DB	00H
	DD	0161622H
	DW	05782H
	DB	028H
	DB	025H
	DB	021H
	DB	00H
	DB	028H
	DB	00H
	DB	00H
	DB	00H
	DD	0161906H
	DW	05783H
	DB	028H
	DB	026H
	DB	022H
	DB	00H
	DB	028H
	DB	00H
	DB	00H
	DB	00H
	DD	0161bfeH
	DW	05784H
	DB	028H
	DB	026H
	DB	022H
	DB	00H
	DB	028H
	DB	00H
	DB	00H
	DB	00H
	DD	0161ef6H
	DW	05785H
	DB	028H
	DB	027H
	DB	022H
	DB	00H
	DB	028H
	DB	00H
	DB	00H
	DB	00H
	DD	0162202H
	DW	05786H
	DB	027H
	DB	028H
	DB	022H
	DB	00H
	DB	028H
	DB	00H
	DB	00H
	DB	00H
	DD	0162522H
	DW	05787H
	DB	027H
	DB	027H
	DB	022H
	DB	00H
	DB	028H
	DB	00H
	DB	00H
	DB	00H
	DD	016282eH
	DW	05788H
	DB	028H
	DB	027H
	DB	022H
	DB	00H
	DB	028H
	DB	00H
	DB	00H
	DB	00H
	DD	0162b3aH
	DW	05789H
	DB	028H
	DB	027H
	DB	022H
	DB	00H
	DB	028H
	DB	00H
	DB	00H
	DB	00H
	DD	0162e46H
	DW	0578aH
	DB	028H
	DB	027H
	DB	021H
	DB	00H
	DB	028H
	DB	00H
	DB	00H
	DB	00H
	DD	0163152H
	DW	0578bH
	DB	028H
	DB	026H
	DB	021H
	DB	00H
	DB	028H
	DB	00H
	DB	00H
	DB	00H
	DD	016344aH
	DW	0578cH
	DB	027H
	DB	028H
	DB	022H
	DB	00H
	DB	028H
	DB	00H
	DB	00H
	DB	00H
	DD	016376aH
	DW	0578dH
	DB	026H
	DB	027H
	DB	022H
	DB	00H
	DB	028H
	DB	00H
	DB	00H
	DB	00H
	DD	0163a4fH
	DW	0578eH
	DB	028H
	DB	028H
	DB	022H
	DB	00H
	DB	028H
	DB	00H
	DB	00H
	DB	00H
	DD	0163d6fH
	DW	0578fH
	DB	028H
	DB	027H
	DB	022H
	DB	00H
	DB	028H
	DB	00H
	DB	00H
	DB	00H
	DD	016407bH
	DW	05790H
	DB	028H
	DB	027H
	DB	022H
	DB	00H
	DB	028H
	DB	00H
	DB	00H
	DB	00H
	DD	0164387H
	DW	05791H
	DB	028H
	DB	028H
	DB	022H
	DB	00H
	DB	028H
	DB	00H
	DB	00H
	DB	00H
	DD	01646a7H
	DW	05792H
	DB	027H
	DB	027H
	DB	022H
	DB	01H
	DB	028H
	DB	00H
	DB	00H
	DB	00H
	DD	01649b3H
	DW	05793H
	DB	028H
	DB	028H
	DB	022H
	DB	00H
	DB	028H
	DB	00H
	DB	00H
	DB	00H
	DD	0164cd3H
	DW	05794H
	DB	028H
	DB	025H
	DB	020H
	DB	00H
	DB	028H
	DB	00H
	DB	00H
	DB	00H
	DD	0164fb7H
	DW	05795H
	DB	028H
	DB	025H
	DB	021H
	DB	00H
	DB	028H
	DB	00H
	DB	00H
	DB	00H
	DD	016529bH
	DW	05796H
	DB	027H
	DB	027H
	DB	022H
	DB	00H
	DB	028H
	DB	00H
	DB	00H
	DB	00H
	DD	01655a7H
	DW	05797H
	DB	028H
	DB	028H
	DB	022H
	DB	00H
	DB	028H
	DB	00H
	DB	00H
	DB	00H
	DD	01658c7H
	DW	05798H
	DB	028H
	DB	026H
	DB	021H
	DB	00H
	DB	028H
	DB	00H
	DB	00H
	DB	00H
	DD	0165bbfH
	DW	05799H
	DB	028H
	DB	028H
	DB	022H
	DB	00H
	DB	028H
	DB	00H
	DB	00H
	DB	00H
	DD	0165edfH
	DW	0579aH
	DB	027H
	DB	027H
	DB	022H
	DB	00H
	DB	028H
	DB	00H
	DB	00H
	DB	00H
	DD	01661ebH
	DW	0579bH
	DB	028H
	DB	027H
	DB	022H
	DB	00H
	DB	028H
	DB	00H
	DB	00H
	DB	00H
	DD	01664f7H
	DW	0579cH
	DB	028H
	DB	026H
	DB	021H
	DB	00H
	DB	028H
	DB	00H
	DB	00H
	DB	00H
	DD	01667efH
	DW	0579dH
	DB	028H
	DB	028H
	DB	022H
	DB	00H
	DB	028H
	DB	00H
	DB	00H
	DB	00H
	DD	0166b0fH
	DW	0579eH
	DB	028H
	DB	027H
	DB	022H
	DB	00H
	DB	028H
	DB	00H
	DB	00H
	DB	00H
	DD	0166e1bH
	DW	0579fH
	DB	028H
	DB	027H
	DB	022H
	DB	00H
	DB	028H
	DB	00H
	DB	00H
	DB	00H
	DD	0167127H
	DW	057a0H
	DB	028H
	DB	028H
	DB	022H
	DB	00H
	DB	028H
	DB	00H
	DB	00H
	DB	00H
	DD	0167447H
	DW	057a1H
	DB	028H
	DB	027H
	DB	022H
	DB	00H
	DB	028H
	DB	00H
	DB	00H
	DB	00H
	DD	0167753H
	DW	057a2H
	DB	028H
	DB	027H
	DB	022H
	DB	00H
	DB	028H
	DB	00H
	DB	00H
	DB	00H
	DD	0167a5fH
	DW	057a3H
	DB	028H
	DB	026H
	DB	022H
	DB	00H
	DB	028H
	DB	00H
	DB	00H
	DB	00H
	DD	0167d57H
	DW	057a4H
	DB	028H
	DB	026H
	DB	022H
	DB	00H
	DB	028H
	DB	00H
	DB	00H
	DB	00H
	DD	016804fH
	DW	057a5H
	DB	028H
	DB	027H
	DB	021H
	DB	00H
	DB	028H
	DB	00H
	DB	00H
	DB	00H
	DD	016835bH
	DW	057a6H
	DB	028H
	DB	025H
	DB	020H
	DB	00H
	DB	028H
	DB	00H
	DB	00H
	DB	00H
	DD	016863fH
	DW	057a7H
	DB	026H
	DB	027H
	DB	022H
	DB	00H
	DB	028H
	DB	00H
	DB	00H
	DB	00H
	DD	0168924H
	DW	057a8H
	DB	028H
	DB	028H
	DB	022H
	DB	00H
	DB	028H
	DB	00H
	DB	00H
	DB	00H
	DD	0168c44H
	DW	057a9H
	DB	028H
	DB	025H
	DB	020H
	DB	00H
	DB	028H
	DB	00H
	DB	00H
	DB	00H
	DD	0168f28H
	DW	057aaH
	DB	028H
	DB	028H
	DB	022H
	DB	00H
	DB	028H
	DB	00H
	DB	00H
	DB	00H
	DD	0169248H
	DW	057abH
	DB	028H
	DB	026H
	DB	022H
	DB	00H
	DB	028H
	DB	00H
	DB	00H
	DB	00H
	DD	0169540H
	DW	057acH
	DB	028H
	DB	027H
	DB	021H
	DB	00H
	DB	028H
	DB	00H
	DB	00H
	DB	00H
	DD	016984cH
	DW	057adH
	DB	028H
	DB	025H
	DB	021H
	DB	00H
	DB	028H
	DB	00H
	DB	00H
	DB	00H
	DD	0169b30H
	DW	057aeH
	DB	028H
	DB	027H
	DB	022H
	DB	00H
	DB	028H
	DB	00H
	DB	00H
	DB	00H
	DD	0169e3cH
	DW	057afH
	DB	028H
	DB	027H
	DB	022H
	DB	00H
	DB	028H
	DB	00H
	DB	00H
	DB	00H
	DD	016a148H
	DW	057b0H
	DB	028H
	DB	027H
	DB	022H
	DB	00H
	DB	028H
	DB	00H
	DB	00H
	DB	00H
	DD	016a454H
	DW	057b1H
	DB	027H
	DB	027H
	DB	022H
	DB	00H
	DB	028H
	DB	00H
	DB	00H
	DB	00H
	DD	016a760H
	DW	057b2H
	DB	028H
	DB	027H
	DB	022H
	DB	00H
	DB	028H
	DB	00H
	DB	00H
	DB	00H
	DD	016aa6cH
	DW	057b3H
	DB	028H
	DB	027H
	DB	022H
	DB	00H
	DB	028H
	DB	00H
	DB	00H
	DB	00H
	DD	016ad78H
	DW	057b4H
	DB	028H
	DB	027H
	DB	022H
	DB	00H
	DB	028H
	DB	00H
	DB	00H
	DB	00H
	DD	016b084H
	DW	057b5H
	DB	028H
	DB	028H
	DB	022H
	DB	00H
	DB	028H
	DB	00H
	DB	00H
	DB	00H
	DD	016b3a4H
	DW	057b6H
	DB	028H
	DB	027H
	DB	022H
	DB	00H
	DB	028H
	DB	00H
	DB	00H
	DB	00H
	DD	016b6b0H
	DW	057b7H
	DB	028H
	DB	028H
	DB	022H
	DB	00H
	DB	028H
	DB	00H
	DB	00H
	DB	00H
	DD	016b9d0H
	DW	057b8H
	DB	028H
	DB	028H
	DB	022H
	DB	00H
	DB	028H
	DB	00H
	DB	00H
	DB	00H
	DD	016bcf0H
	DW	057b9H
	DB	028H
	DB	027H
	DB	022H
	DB	00H
	DB	028H
	DB	00H
	DB	00H
	DB	00H
	DD	016bffcH
	DW	057baH
	DB	028H
	DB	027H
	DB	021H
	DB	00H
	DB	028H
	DB	00H
	DB	00H
	DB	00H
	DD	016c308H
	DW	057bbH
	DB	028H
	DB	027H
	DB	021H
	DB	00H
	DB	028H
	DB	00H
	DB	00H
	DB	00H
	DD	016c614H
	DW	057bcH
	DB	028H
	DB	027H
	DB	022H
	DB	00H
	DB	028H
	DB	00H
	DB	00H
	DB	00H
	DD	016c920H
	DW	057bdH
	DB	028H
	DB	027H
	DB	022H
	DB	00H
	DB	028H
	DB	00H
	DB	00H
	DB	00H
	DD	016cc2cH
	DW	057beH
	DB	028H
	DB	026H
	DB	021H
	DB	00H
	DB	028H
	DB	00H
	DB	00H
	DB	00H
	DD	016cf24H
	DW	057bfH
	DB	027H
	DB	028H
	DB	022H
	DB	00H
	DB	028H
	DB	00H
	DB	00H
	DB	00H
	DD	016d244H
	DW	057c0H
	DB	028H
	DB	025H
	DB	021H
	DB	00H
	DB	028H
	DB	00H
	DB	00H
	DB	00H
	DD	016d528H
	DW	057c1H
	DB	028H
	DB	028H
	DB	022H
	DB	00H
	DB	028H
	DB	00H
	DB	00H
	DB	00H
	DD	016d848H
	DW	057c2H
	DB	028H
	DB	028H
	DB	022H
	DB	00H
	DB	028H
	DB	00H
	DB	00H
	DB	00H
	DD	016db68H
	DW	057c3H
	DB	028H
	DB	027H
	DB	022H
	DB	00H
	DB	028H
	DB	00H
	DB	00H
	DB	00H
	DD	016de74H
	DW	057c4H
	DB	028H
	DB	027H
	DB	022H
	DB	00H
	DB	028H
	DB	00H
	DB	00H
	DB	00H
	DD	016e180H
	DW	057c5H
	DB	028H
	DB	025H
	DB	021H
	DB	00H
	DB	028H
	DB	00H
	DB	00H
	DB	00H
	DD	016e464H
	DW	057c6H
	DB	027H
	DB	028H
	DB	022H
	DB	00H
	DB	028H
	DB	00H
	DB	00H
	DB	00H
	DD	016e784H
	DW	057c7H
	DB	026H
	DB	026H
	DB	021H
	DB	00H
	DB	028H
	DB	00H
	DB	00H
	DB	00H
	DD	016ea56H
	DW	057c8H
	DB	028H
	DB	028H
	DB	022H
	DB	00H
	DB	028H
	DB	00H
	DB	00H
	DB	00H
	DD	016ed76H
	DW	057c9H
	DB	028H
	DB	028H
	DB	022H
	DB	00H
	DB	028H
	DB	00H
	DB	00H
	DB	00H
	DD	016f096H
	DW	057caH
	DB	028H
	DB	025H
	DB	021H
	DB	00H
	DB	028H
	DB	00H
	DB	00H
	DB	00H
	DD	016f37aH
	DW	057cbH
	DB	028H
	DB	026H
	DB	022H
	DB	00H
	DB	028H
	DB	00H
	DB	00H
	DB	00H
	DD	016f672H
	DW	057ccH
	DB	028H
	DB	028H
	DB	022H
	DB	00H
	DB	028H
	DB	00H
	DB	00H
	DB	00H
	DD	016f992H
	DW	057cdH
	DB	026H
	DB	026H
	DB	021H
	DB	00H
	DB	028H
	DB	00H
	DB	00H
	DB	00H
	DD	016fc64H
	DW	057ceH
	DB	028H
	DB	028H
	DB	022H
	DB	00H
	DB	028H
	DB	00H
	DB	00H
	DB	00H
	DD	016ff84H
	DW	057cfH
	DB	028H
	DB	028H
	DB	022H
	DB	00H
	DB	028H
	DB	00H
	DB	00H
	DB	00H
	DD	01702a4H
	DW	057d0H
	DB	028H
	DB	027H
	DB	021H
	DB	00H
	DB	028H
	DB	00H
	DB	00H
	DB	00H
	DD	01705b0H
	DW	057d1H
	DB	028H
	DB	027H
	DB	022H
	DB	00H
	DB	028H
	DB	00H
	DB	00H
	DB	00H
	DD	01708bcH
	DW	057d2H
	DB	027H
	DB	028H
	DB	022H
	DB	00H
	DB	028H
	DB	00H
	DB	00H
	DB	00H
	DD	0170bdcH
	DW	057d3H
	DB	027H
	DB	028H
	DB	022H
	DB	00H
	DB	028H
	DB	00H
	DB	00H
	DB	00H
	DD	0170efcH
	DW	057d4H
	DB	028H
	DB	028H
	DB	022H
	DB	00H
	DB	028H
	DB	00H
	DB	00H
	DB	00H
	DD	017121cH
	DW	057d5H
	DB	028H
	DB	027H
	DB	022H
	DB	00H
	DB	028H
	DB	00H
	DB	00H
	DB	00H
	DD	0171528H
	DW	057d6H
	DB	028H
	DB	027H
	DB	022H
	DB	00H
	DB	028H
	DB	00H
	DB	00H
	DB	00H
	DD	0171834H
	DW	057d7H
	DB	028H
	DB	027H
	DB	021H
	DB	00H
	DB	028H
	DB	00H
	DB	00H
	DB	00H
	DD	0171b40H
	DW	057d8H
	DB	028H
	DB	027H
	DB	022H
	DB	00H
	DB	028H
	DB	00H
	DB	00H
	DB	00H
	DD	0171e4cH
	DW	057d9H
	DB	028H
	DB	028H
	DB	022H
	DB	00H
	DB	028H
	DB	00H
	DB	00H
	DB	00H
	DD	017216cH
	DW	057daH
	DB	027H
	DB	027H
	DB	021H
	DB	00H
	DB	028H
	DB	00H
	DB	00H
	DB	00H
	DD	0172478H
	DW	057dbH
	DB	027H
	DB	028H
	DB	022H
	DB	00H
	DB	028H
	DB	00H
	DB	00H
	DB	00H
	DD	0172798H
	DW	057dcH
	DB	028H
	DB	027H
	DB	022H
	DB	00H
	DB	028H
	DB	00H
	DB	00H
	DB	00H
	DD	0172aa4H
	DW	057ddH
	DB	028H
	DB	027H
	DB	022H
	DB	00H
	DB	028H
	DB	00H
	DB	00H
	DB	00H
	DD	0172db0H
	DW	057deH
	DB	028H
	DB	027H
	DB	022H
	DB	00H
	DB	028H
	DB	00H
	DB	00H
	DB	00H
	DD	01730bcH
	DW	057dfH
	DB	028H
	DB	027H
	DB	022H
	DB	00H
	DB	028H
	DB	00H
	DB	00H
	DB	00H
	DD	01733c8H
	DW	057e0H
	DB	028H
	DB	027H
	DB	022H
	DB	00H
	DB	028H
	DB	00H
	DB	00H
	DB	00H
	DD	01736d4H
	DW	057e1H
	DB	028H
	DB	025H
	DB	021H
	DB	00H
	DB	028H
	DB	00H
	DB	00H
	DB	00H
	DD	01739b8H
	DW	057e2H
	DB	028H
	DB	027H
	DB	022H
	DB	00H
	DB	028H
	DB	00H
	DB	00H
	DB	00H
	DD	0173cc4H
	DW	057e3H
	DB	028H
	DB	027H
	DB	022H
	DB	00H
	DB	028H
	DB	00H
	DB	00H
	DB	00H
	DD	0173fd0H
	DW	057e4H
	DB	028H
	DB	027H
	DB	022H
	DB	00H
	DB	028H
	DB	00H
	DB	00H
	DB	00H
	DD	01742dcH
	DW	057e5H
	DB	028H
	DB	028H
	DB	022H
	DB	00H
	DB	028H
	DB	00H
	DB	00H
	DB	00H
	DD	01745fcH
	DW	057e6H
	DB	028H
	DB	028H
	DB	022H
	DB	00H
	DB	028H
	DB	00H
	DB	00H
	DB	00H
	DD	017491cH
	DW	057e7H
	DB	028H
	DB	028H
	DB	022H
	DB	00H
	DB	028H
	DB	00H
	DB	00H
	DB	00H
	DD	0174c3cH
	DW	057e8H
	DB	028H
	DB	027H
	DB	021H
	DB	00H
	DB	028H
	DB	00H
	DB	00H
	DB	00H
	DD	0174f48H
	DW	057e9H
	DB	028H
	DB	028H
	DB	022H
	DB	00H
	DB	028H
	DB	00H
	DB	00H
	DB	00H
	DD	0175268H
	DW	057eaH
	DB	028H
	DB	026H
	DB	022H
	DB	00H
	DB	028H
	DB	00H
	DB	00H
	DB	00H
	DD	0175560H
	DW	057ebH
	DB	027H
	DB	027H
	DB	022H
	DB	00H
	DB	028H
	DB	00H
	DB	00H
	DB	00H
	DD	017586cH
	DW	057ecH
	DB	028H
	DB	027H
	DB	022H
	DB	00H
	DB	028H
	DB	00H
	DB	00H
	DB	00H
	DD	0175b78H
	DW	057edH
	DB	028H
	DB	028H
	DB	022H
	DB	00H
	DB	028H
	DB	00H
	DB	00H
	DB	00H
	DD	0175e98H
	DW	057eeH
	DB	028H
	DB	028H
	DB	022H
	DB	00H
	DB	028H
	DB	00H
	DB	00H
	DB	00H
	DD	01761b8H
	DW	057efH
	DB	028H
	DB	027H
	DB	022H
	DB	00H
	DB	028H
	DB	00H
	DB	00H
	DB	00H
	DD	01764c4H
	DW	057f0H
	DB	028H
	DB	027H
	DB	022H
	DB	00H
	DB	028H
	DB	00H
	DB	00H
	DB	00H
	DD	01767d0H
	DW	057f1H
	DB	028H
	DB	028H
	DB	022H
	DB	00H
	DB	028H
	DB	00H
	DB	00H
	DB	00H
	DD	0176af0H
	DW	057f2H
	DB	028H
	DB	027H
	DB	022H
	DB	00H
	DB	028H
	DB	00H
	DB	00H
	DB	00H
	DD	0176dfcH
	DW	057f3H
	DB	026H
	DB	027H
	DB	022H
	DB	00H
	DB	028H
	DB	00H
	DB	00H
	DB	00H
	DD	01770e1H
	DW	057f4H
	DB	028H
	DB	026H
	DB	021H
	DB	00H
	DB	028H
	DB	00H
	DB	00H
	DB	00H
	DD	01773d9H
	DW	057f5H
	DB	027H
	DB	025H
	DB	021H
	DB	00H
	DB	028H
	DB	00H
	DB	00H
	DB	00H
	DD	01776bdH
	DW	057f6H
	DB	028H
	DB	028H
	DB	022H
	DB	00H
	DB	028H
	DB	00H
	DB	00H
	DB	00H
	DD	01779ddH
	DW	057f7H
	DB	028H
	DB	027H
	DB	021H
	DB	00H
	DB	028H
	DB	00H
	DB	00H
	DB	00H
	DD	0177ce9H
	DW	057f8H
	DB	026H
	DB	027H
	DB	021H
	DB	00H
	DB	028H
	DB	00H
	DB	00H
	DB	00H
	DD	0177fceH
	DW	057f9H
	DB	028H
	DB	027H
	DB	022H
	DB	00H
	DB	028H
	DB	00H
	DB	00H
	DB	00H
	DD	01782daH
	DW	057faH
	DB	028H
	DB	027H
	DB	022H
	DB	00H
	DB	028H
	DB	00H
	DB	00H
	DB	00H
	DD	01785e6H
	DW	057fbH
	DB	027H
	DB	027H
	DB	022H
	DB	00H
	DB	028H
	DB	00H
	DB	00H
	DB	00H
	DD	01788f2H
	DW	057fcH
	DB	028H
	DB	028H
	DB	022H
	DB	00H
	DB	028H
	DB	00H
	DB	00H
	DB	00H
	DD	0178c12H
	DW	057fdH
	DB	028H
	DB	027H
	DB	022H
	DB	00H
	DB	028H
	DB	00H
	DB	00H
	DB	00H
	DD	0178f1eH
	DW	057feH
	DB	028H
	DB	024H
	DB	020H
	DB	00H
	DB	028H
	DB	00H
	DB	00H
	DB	00H
	DD	01791eeH
	DW	057ffH
	DB	028H
	DB	026H
	DB	022H
	DB	00H
	DB	028H
	DB	00H
	DB	00H
	DB	00H
	DD	00H
	DW	05800H
	DB	027H
	DB	027H
	DB	022H
	DB	00H
	DB	028H
	DB	00H
	DB	00H
	DB	00H
	DD	030cH
	DW	05801H
	DB	028H
	DB	027H
	DB	022H
	DB	00H
	DB	028H
	DB	00H
	DB	00H
	DB	00H
	DD	0618H
	DW	05802H
	DB	028H
	DB	026H
	DB	022H
	DB	00H
	DB	028H
	DB	00H
	DB	00H
	DB	00H
	DD	0910H
	DW	05803H
	DB	028H
	DB	027H
	DB	022H
	DB	00H
	DB	028H
	DB	00H
	DB	00H
	DB	00H
	DD	0c1cH
	DW	05804H
	DB	028H
	DB	028H
	DB	022H
	DB	00H
	DB	028H
	DB	00H
	DB	00H
	DB	00H
	DD	0f3cH
	DW	05805H
	DB	028H
	DB	025H
	DB	020H
	DB	00H
	DB	028H
	DB	00H
	DB	00H
	DB	00H
	DD	01220H
	DW	05806H
	DB	028H
	DB	027H
	DB	022H
	DB	00H
	DB	028H
	DB	00H
	DB	00H
	DB	00H
	DD	0152cH
	DW	05807H
	DB	027H
	DB	026H
	DB	022H
	DB	01H
	DB	028H
	DB	00H
	DB	00H
	DB	00H
	DD	01824H
	DW	05808H
	DB	027H
	DB	028H
	DB	022H
	DB	00H
	DB	028H
	DB	00H
	DB	00H
	DB	00H
	DD	01b44H
	DW	05809H
	DB	028H
	DB	027H
	DB	022H
	DB	00H
	DB	028H
	DB	00H
	DB	00H
	DB	00H
	DD	01e50H
	DW	0580aH
	DB	028H
	DB	025H
	DB	020H
	DB	00H
	DB	028H
	DB	00H
	DB	00H
	DB	00H
	DD	02134H
	DW	0580bH
	DB	026H
	DB	028H
	DB	022H
	DB	00H
	DB	028H
	DB	00H
	DB	00H
	DB	00H
	DD	0242cH
	DW	0580cH
	DB	026H
	DB	026H
	DB	021H
	DB	00H
	DB	028H
	DB	00H
	DB	00H
	DB	00H
	DD	026feH
	DW	0580dH
	DB	028H
	DB	028H
	DB	022H
	DB	00H
	DB	028H
	DB	00H
	DB	00H
	DB	00H
	DD	02a1eH
	DW	0580eH
	DB	028H
	DB	027H
	DB	021H
	DB	00H
	DB	028H
	DB	00H
	DB	00H
	DB	00H
	DD	02d2aH
	DW	0580fH
	DB	028H
	DB	026H
	DB	022H
	DB	00H
	DB	028H
	DB	00H
	DB	00H
	DB	00H
	DD	03022H
	DW	05810H
	DB	028H
	DB	028H
	DB	022H
	DB	00H
	DB	028H
	DB	00H
	DB	00H
	DB	00H
	DD	03342H
	DW	05811H
	DB	028H
	DB	027H
	DB	022H
	DB	00H
	DB	028H
	DB	00H
	DB	00H
	DB	00H
	DD	0364eH
	DW	05812H
	DB	028H
	DB	027H
	DB	022H
	DB	00H
	DB	028H
	DB	00H
	DB	00H
	DB	00H
	DD	0395aH
	DW	05813H
	DB	028H
	DB	028H
	DB	022H
	DB	00H
	DB	028H
	DB	00H
	DB	00H
	DB	00H
	DD	03c7aH
	DW	05814H
	DB	028H
	DB	026H
	DB	021H
	DB	00H
	DB	028H
	DB	00H
	DB	00H
	DB	00H
	DD	03f72H
	DW	05815H
	DB	028H
	DB	026H
	DB	022H
	DB	00H
	DB	028H
	DB	00H
	DB	00H
	DB	00H
	DD	0426aH
	DW	05816H
	DB	027H
	DB	027H
	DB	022H
	DB	00H
	DB	028H
	DB	00H
	DB	00H
	DB	00H
	DD	04576H
	DW	05817H
	DB	028H
	DB	028H
	DB	022H
	DB	00H
	DB	028H
	DB	00H
	DB	00H
	DB	00H
	DD	04896H
	DW	05818H
	DB	028H
	DB	026H
	DB	022H
	DB	00H
	DB	028H
	DB	00H
	DB	00H
	DB	00H
	DD	04b8eH
	DW	05819H
	DB	028H
	DB	026H
	DB	022H
	DB	00H
	DB	028H
	DB	00H
	DB	00H
	DB	00H
	DD	04e86H
	DW	0581aH
	DB	028H
	DB	027H
	DB	022H
	DB	00H
	DB	028H
	DB	00H
	DB	00H
	DB	00H
	DD	05192H
	DW	0581bH
	DB	027H
	DB	027H
	DB	022H
	DB	00H
	DB	028H
	DB	00H
	DB	00H
	DB	00H
	DD	0549eH
	DW	0581cH
	DB	028H
	DB	027H
	DB	022H
	DB	00H
	DB	028H
	DB	00H
	DB	00H
	DB	00H
	DD	057aaH
	DW	0581dH
	DB	027H
	DB	027H
	DB	021H
	DB	00H
	DB	028H
	DB	00H
	DB	00H
	DB	00H
	DD	05ab6H
	DW	0581eH
	DB	028H
	DB	027H
	DB	022H
	DB	00H
	DB	028H
	DB	00H
	DB	00H
	DB	00H
	DD	05dc2H
	DW	0581fH
	DB	028H
	DB	027H
	DB	022H
	DB	00H
	DB	028H
	DB	00H
	DB	00H
	DB	00H
	DD	060ceH
	DW	05820H
	DB	028H
	DB	027H
	DB	022H
	DB	00H
	DB	028H
	DB	00H
	DB	00H
	DB	00H
	DD	063daH
	DW	05821H
	DB	028H
	DB	026H
	DB	022H
	DB	00H
	DB	028H
	DB	00H
	DB	00H
	DB	00H
	DD	066d2H
	DW	05822H
	DB	028H
	DB	027H
	DB	022H
	DB	00H
	DB	028H
	DB	00H
	DB	00H
	DB	00H
	DD	069deH
	DW	05823H
	DB	027H
	DB	027H
	DB	021H
	DB	00H
	DB	028H
	DB	00H
	DB	00H
	DB	00H
	DD	06ceaH
	DW	05824H
	DB	028H
	DB	028H
	DB	022H
	DB	00H
	DB	028H
	DB	00H
	DB	00H
	DB	00H
	DD	0700aH
	DW	05825H
	DB	028H
	DB	026H
	DB	022H
	DB	00H
	DB	028H
	DB	00H
	DB	00H
	DB	00H
	DD	07302H
	DW	05826H
	DB	028H
	DB	027H
	DB	022H
	DB	00H
	DB	028H
	DB	00H
	DB	00H
	DB	00H
	DD	0760eH
	DW	05827H
	DB	028H
	DB	028H
	DB	022H
	DB	00H
	DB	028H
	DB	00H
	DB	00H
	DB	00H
	DD	0792eH
	DW	05828H
	DB	027H
	DB	027H
	DB	022H
	DB	00H
	DB	028H
	DB	00H
	DB	00H
	DB	00H
	DD	07c3aH
	DW	05829H
	DB	028H
	DB	027H
	DB	022H
	DB	00H
	DB	028H
	DB	00H
	DB	00H
	DB	00H
	DD	07f46H
	DW	0582aH
	DB	028H
	DB	026H
	DB	022H
	DB	00H
	DB	028H
	DB	00H
	DB	00H
	DB	00H
	DD	0823eH
	DW	0582bH
	DB	028H
	DB	028H
	DB	022H
	DB	00H
	DB	028H
	DB	00H
	DB	00H
	DB	00H
	DD	0855eH
	DW	0582cH
	DB	028H
	DB	027H
	DB	022H
	DB	00H
	DB	028H
	DB	00H
	DB	00H
	DB	00H
	DD	0886aH
	DW	0582dH
	DB	028H
	DB	027H
	DB	022H
	DB	00H
	DB	028H
	DB	00H
	DB	00H
	DB	00H
	DD	08b76H
	DW	0582eH
	DB	028H
	DB	027H
	DB	022H
	DB	00H
	DB	028H
	DB	00H
	DB	00H
	DB	00H
	DD	08e82H
	DW	0582fH
	DB	028H
	DB	028H
	DB	022H
	DB	00H
	DB	028H
	DB	00H
	DB	00H
	DB	00H
	DD	091a2H
	DW	05830H
	DB	027H
	DB	027H
	DB	022H
	DB	00H
	DB	028H
	DB	00H
	DB	00H
	DB	00H
	DD	094aeH
	DW	05831H
	DB	028H
	DB	027H
	DB	022H
	DB	00H
	DB	028H
	DB	00H
	DB	00H
	DB	00H
	DD	097baH
	DW	05832H
	DB	028H
	DB	025H
	DB	021H
