; Listing generated by Microsoft (R) Optimizing Compiler Version 19.31.31104.0 

	TITLE	F:\MyProject\STM32F769_Keyboard\TouchGFX\build\Debug\obj\TypedTextDatabase.obj
	.686P
	.XMM
	include listing.inc
	.model	flat

INCLUDELIB MSVCRTD
INCLUDELIB OLDNAMES

PUBLIC	?typedText_database_DEFAULT@@3QBUTypedTextData@TypedText@touchgfx@@B ; typedText_database_DEFAULT
PUBLIC	?typedTextDatabaseArray@@3QBQBUTypedTextData@TypedText@touchgfx@@B ; typedTextDatabaseArray
msvcjmc	SEGMENT
__70B5BA90_concurrencysal@h DB 01H
__35156B19_sal@h DB 01H
__8DB56A60_vadefs@h DB 01H
__3ECF3657_vcruntime@h DB 01H
__D1309CD7_corecrt@h DB 01H
__913F199D_assert@h DB 01H
__F5B80406_stdint@h DB 01H
__4DF99823_Config@hpp DB 01H
__B2B90886_Types@hpp DB 01H
__C167BAC9_stdarg@h DB 01H
__0A1906C0_Unicode@hpp DB 01H
__BA97441C_Font@hpp DB 01H
__3F8F9BAF_Texts@hpp DB 01H
__61A8F1C7_TypedText@hpp DB 01H
__7E68CDD4_ConstFont@hpp DB 01H
__01CD29F0_GeneratedFont@hpp DB 01H
__5AC34C78_TypedTextDatabase@hpp DB 01H
__76BE34D9_TypedTextDatabase@cpp DB 01H
msvcjmc	ENDS
CONST	SEGMENT
?typedText_database_DEFAULT@@3QBUTypedTextData@TypedText@touchgfx@@B DB 06H ; typedText_database_DEFAULT
	DB	00H
	DB	03H
	DB	00H
	DB	06H
	DB	00H
	DB	04H
	DB	01H
	DB	04H
	DB	01H
	DB	04H
	DB	01H
	DB	04H
	DB	01H
	DB	04H
	DB	01H
	DB	06H
	DB	00H
	DB	04H
	DB	01H
	DB	04H
	DB	01H
	DB	04H
	DB	01H
	DB	04H
	DB	01H
	DB	04H
	DB	01H
	DB	04H
	DB	01H
	DB	04H
	DB	01H
	DB	04H
	DB	01H
	DB	04H
	DB	01H
	DB	04H
	DB	01H
	DB	04H
	DB	01H
	DB	04H
	DB	01H
	DB	04H
	DB	01H
	DB	04H
	DB	01H
	DB	04H
	DB	01H
	DB	04H
	DB	01H
	DB	04H
	DB	01H
	DB	04H
	DB	01H
	DB	04H
	DB	01H
	DB	04H
	DB	01H
	DB	04H
	DB	01H
	DB	04H
	DB	01H
	DB	04H
	DB	01H
	DB	04H
	DB	01H
	DB	04H
	DB	01H
	DB	04H
	DB	01H
	DB	04H
	DB	01H
	DB	04H
	DB	01H
	DB	04H
	DB	01H
	DB	04H
	DB	01H
	DB	04H
	DB	01H
	DB	04H
	DB	01H
	DB	04H
	DB	01H
	DB	04H
	DB	01H
	DB	04H
	DB	01H
	DB	04H
	DB	01H
	DB	04H
	DB	01H
	DB	04H
	DB	01H
	DB	04H
	DB	01H
	DB	04H
	DB	01H
	DB	04H
	DB	01H
	DB	04H
	DB	01H
	DB	04H
	DB	01H
	DB	04H
	DB	01H
	DB	04H
	DB	01H
	DB	04H
	DB	01H
	DB	04H
	DB	01H
	DB	04H
	DB	01H
	DB	04H
	DB	01H
	DB	04H
	DB	01H
	DB	04H
	DB	01H
	DB	04H
	DB	01H
	DB	05H
	DB	01H
	DB	05H
	DB	01H
	DB	04H
	DB	01H
	DB	04H
	DB	01H
	DB	04H
	DB	01H
	DB	04H
	DB	01H
	DB	04H
	DB	01H
	DB	04H
	DB	01H
	DB	04H
	DB	01H
	DB	04H
	DB	01H
	DB	04H
	DB	01H
	DB	04H
	DB	01H
	DB	04H
	DB	01H
	DB	04H
	DB	01H
	DB	04H
	DB	01H
	DB	04H
	DB	01H
	DB	04H
	DB	01H
	DB	04H
	DB	01H
	DB	04H
	DB	01H
	DB	04H
	DB	01H
	DB	04H
	DB	01H
	DB	04H
	DB	01H
	DB	04H
	DB	01H
	DB	04H
	DB	01H
	DB	04H
	DB	01H
	DB	04H
	DB	01H
	DB	04H
	DB	01H
	DB	04H
	DB	01H
	DB	04H
	DB	01H
	DB	04H
	DB	01H
	DB	04H
	DB	01H
	DB	04H
	DB	01H
	DB	04H
	DB	01H
	DB	04H
	DB	01H
	DB	04H
	DB	01H
	DB	04H
	DB	01H
	DB	04H
	DB	01H
	DB	04H
	DB	01H
	DB	04H
	DB	01H
	DB	04H
	DB	01H
	DB	00H
	DB	00H
	DB	00H
	DB	00H
	DB	00H
	DB	00H
	DB	00H
	DB	00H
	DB	00H
	DB	00H
	DB	00H
	DB	00H
	DB	06H
	DB	01H
	DB	06H
	DB	00H
	DB	06H
	DB	01H
	DB	06H
	DB	00H
	DB	06H
	DB	01H
	DB	06H
	DB	00H
	DB	06H
	DB	01H
	DB	06H
	DB	00H
	DB	06H
	DB	01H
	DB	06H
	DB	00H
	ORG $+2
?typedTextDatabaseArray@@3QBQBUTypedTextData@TypedText@touchgfx@@B DD FLAT:?typedText_database_DEFAULT@@3QBUTypedTextData@TypedText@touchgfx@@B ; typedTextDatabaseArray
CONST	ENDS
PUBLIC	?getInstance@TypedTextDatabase@@YAPBUTypedTextData@TypedText@touchgfx@@G@Z ; TypedTextDatabase::getInstance
PUBLIC	?getFonts@TypedTextDatabase@@YAPAPBVFont@touchgfx@@XZ ; TypedTextDatabase::getFonts
PUBLIC	?setFont@TypedTextDatabase@@YAPBVFont@touchgfx@@GPBV23@@Z ; TypedTextDatabase::setFont
PUBLIC	?resetFont@TypedTextDatabase@@YAXG@Z		; TypedTextDatabase::resetFont
PUBLIC	?getInstanceSize@TypedTextDatabase@@YAGXZ	; TypedTextDatabase::getInstanceSize
PUBLIC	__JustMyCode_Default
PUBLIC	?touchgfx_fonts@@3PAPBVFont@touchgfx@@A		; touchgfx_fonts
EXTRN	?getFont_verdana_28_4bpp@@YAAAVGeneratedFont@touchgfx@@XZ:PROC ; getFont_verdana_28_4bpp
EXTRN	?getFont_verdana_40_4bpp@@YAAAVGeneratedFont@touchgfx@@XZ:PROC ; getFont_verdana_40_4bpp
EXTRN	?getFont_verdana_10_4bpp@@YAAAVGeneratedFont@touchgfx@@XZ:PROC ; getFont_verdana_10_4bpp
EXTRN	?getFont_MicrosoftYaHei_32_4bpp@@YAAAVGeneratedFont@touchgfx@@XZ:PROC ; getFont_MicrosoftYaHei_32_4bpp
EXTRN	?getFont_MicrosoftYaHei_Bold_30_4bpp@@YAAAVGeneratedFont@touchgfx@@XZ:PROC ; getFont_MicrosoftYaHei_Bold_30_4bpp
EXTRN	?getFont_MicrosoftYaHei_Bold_28_4bpp@@YAAAVGeneratedFont@touchgfx@@XZ:PROC ; getFont_MicrosoftYaHei_Bold_28_4bpp
EXTRN	?getFont_MicrosoftYaHei_Bold_40_4bpp@@YAAAVGeneratedFont@touchgfx@@XZ:PROC ; getFont_MicrosoftYaHei_Bold_40_4bpp
EXTRN	@__CheckForDebuggerJustMyCode@4:PROC
EXTRN	__RTC_CheckEsp:PROC
EXTRN	__RTC_InitBase:PROC
EXTRN	__RTC_Shutdown:PROC
_BSS	SEGMENT
?touchgfx_fonts@@3PAPBVFont@touchgfx@@A DD 07H DUP (?)	; touchgfx_fonts
_BSS	ENDS
CRT$XCU	SEGMENT
?touchgfx_fonts$initializer$@@3P6AXXZA DD FLAT:??__Etouchgfx_fonts@@YAXXZ ; touchgfx_fonts$initializer$
CRT$XCU	ENDS
;	COMDAT rtc$TMZ
rtc$TMZ	SEGMENT
__RTC_Shutdown.rtc$TMZ DD FLAT:__RTC_Shutdown
rtc$TMZ	ENDS
;	COMDAT rtc$IMZ
rtc$IMZ	SEGMENT
__RTC_InitBase.rtc$IMZ DD FLAT:__RTC_InitBase
rtc$IMZ	ENDS
; Function compile flags: /Odt
;	COMDAT __JustMyCode_Default
_TEXT	SEGMENT
__JustMyCode_Default PROC				; COMDAT
	push	ebp
	mov	ebp, esp
	pop	ebp
	ret	0
__JustMyCode_Default ENDP
_TEXT	ENDS
; Function compile flags: /Odtp /RTCsu /ZI
;	COMDAT ??__Etouchgfx_fonts@@YAXXZ
text$di	SEGMENT
??__Etouchgfx_fonts@@YAXXZ PROC				; `dynamic initializer for 'touchgfx_fonts'', COMDAT
; File F:\MyProject\STM32F769_Keyboard\TouchGFX\generated\texts\src\TypedTextDatabase.cpp
; Line 24
	push	ebp
	mov	ebp, esp
	sub	esp, 192				; 000000c0H
	push	ebx
	push	esi
	push	edi
	mov	edi, ebp
	xor	ecx, ecx
	mov	eax, -858993460				; ccccccccH
	rep stosd
	mov	ecx, OFFSET __76BE34D9_TypedTextDatabase@cpp
	call	@__CheckForDebuggerJustMyCode@4
; Line 17
	call	?getFont_verdana_28_4bpp@@YAAAVGeneratedFont@touchgfx@@XZ ; getFont_verdana_28_4bpp
	mov	DWORD PTR ?touchgfx_fonts@@3PAPBVFont@touchgfx@@A, eax
; Line 18
	call	?getFont_verdana_40_4bpp@@YAAAVGeneratedFont@touchgfx@@XZ ; getFont_verdana_40_4bpp
	mov	DWORD PTR ?touchgfx_fonts@@3PAPBVFont@touchgfx@@A+4, eax
; Line 19
	call	?getFont_verdana_10_4bpp@@YAAAVGeneratedFont@touchgfx@@XZ ; getFont_verdana_10_4bpp
	mov	DWORD PTR ?touchgfx_fonts@@3PAPBVFont@touchgfx@@A+8, eax
; Line 20
	call	?getFont_MicrosoftYaHei_32_4bpp@@YAAAVGeneratedFont@touchgfx@@XZ ; getFont_MicrosoftYaHei_32_4bpp
	mov	DWORD PTR ?touchgfx_fonts@@3PAPBVFont@touchgfx@@A+12, eax
; Line 21
	call	?getFont_MicrosoftYaHei_Bold_30_4bpp@@YAAAVGeneratedFont@touchgfx@@XZ ; getFont_MicrosoftYaHei_Bold_30_4bpp
	mov	DWORD PTR ?touchgfx_fonts@@3PAPBVFont@touchgfx@@A+16, eax
; Line 22
	call	?getFont_MicrosoftYaHei_Bold_28_4bpp@@YAAAVGeneratedFont@touchgfx@@XZ ; getFont_MicrosoftYaHei_Bold_28_4bpp
	mov	DWORD PTR ?touchgfx_fonts@@3PAPBVFont@touchgfx@@A+20, eax
; Line 23
	call	?getFont_MicrosoftYaHei_Bold_40_4bpp@@YAAAVGeneratedFont@touchgfx@@XZ ; getFont_MicrosoftYaHei_Bold_40_4bpp
	mov	DWORD PTR ?touchgfx_fonts@@3PAPBVFont@touchgfx@@A+24, eax
	pop	edi
	pop	esi
	pop	ebx
	add	esp, 192				; 000000c0H
	cmp	ebp, esp
	call	__RTC_CheckEsp
	mov	esp, ebp
	pop	ebp
	ret	0
??__Etouchgfx_fonts@@YAXXZ ENDP				; `dynamic initializer for 'touchgfx_fonts''
text$di	ENDS
; Function compile flags: /Odtp /RTCsu /ZI
;	COMDAT ?getInstanceSize@TypedTextDatabase@@YAGXZ
_TEXT	SEGMENT
?getInstanceSize@TypedTextDatabase@@YAGXZ PROC		; TypedTextDatabase::getInstanceSize, COMDAT
; File F:\MyProject\STM32F769_Keyboard\TouchGFX\generated\texts\src\TypedTextDatabase.cpp
; Line 163
	push	ebp
	mov	ebp, esp
	sub	esp, 192				; 000000c0H
	push	ebx
	push	esi
	push	edi
	mov	edi, ebp
	xor	ecx, ecx
	mov	eax, -858993460				; ccccccccH
	rep stosd
	mov	ecx, OFFSET __76BE34D9_TypedTextDatabase@cpp
	call	@__CheckForDebuggerJustMyCode@4
; Line 164
	mov	eax, 117				; 00000075H
; Line 165
	pop	edi
	pop	esi
	pop	ebx
	add	esp, 192				; 000000c0H
	cmp	ebp, esp
	call	__RTC_CheckEsp
	mov	esp, ebp
	pop	ebp
	ret	0
?getInstanceSize@TypedTextDatabase@@YAGXZ ENDP		; TypedTextDatabase::getInstanceSize
_TEXT	ENDS
; Function compile flags: /Odtp /RTCsu /ZI
;	COMDAT ?resetFont@TypedTextDatabase@@YAXG@Z
_TEXT	SEGMENT
tv65 = -196						; size = 4
_fontId$ = 8						; size = 2
?resetFont@TypedTextDatabase@@YAXG@Z PROC		; TypedTextDatabase::resetFont, COMDAT
; File F:\MyProject\STM32F769_Keyboard\TouchGFX\generated\texts\src\TypedTextDatabase.cpp
; Line 180
	push	ebp
	mov	ebp, esp
	sub	esp, 196				; 000000c4H
	push	ebx
	push	esi
	push	edi
	lea	edi, DWORD PTR [ebp-4]
	mov	ecx, 1
	mov	eax, -858993460				; ccccccccH
	rep stosd
	mov	ecx, OFFSET __76BE34D9_TypedTextDatabase@cpp
	call	@__CheckForDebuggerJustMyCode@4
; Line 181
	movzx	eax, WORD PTR _fontId$[ebp]
	mov	DWORD PTR tv65[ebp], eax
	cmp	DWORD PTR tv65[ebp], 6
	ja	$LN1@resetFont
	mov	ecx, DWORD PTR tv65[ebp]
	jmp	DWORD PTR $LN12@resetFont[ecx*4]
$LN4@resetFont:
; Line 184
	call	?getFont_verdana_28_4bpp@@YAAAVGeneratedFont@touchgfx@@XZ ; getFont_verdana_28_4bpp
	mov	ecx, 4
	imul	edx, ecx, 0
	mov	DWORD PTR ?touchgfx_fonts@@3PAPBVFont@touchgfx@@A[edx], eax
; Line 185
	jmp	SHORT $LN1@resetFont
$LN5@resetFont:
; Line 187
	call	?getFont_verdana_40_4bpp@@YAAAVGeneratedFont@touchgfx@@XZ ; getFont_verdana_40_4bpp
	mov	ecx, 4
	shl	ecx, 0
	mov	DWORD PTR ?touchgfx_fonts@@3PAPBVFont@touchgfx@@A[ecx], eax
; Line 188
	jmp	SHORT $LN1@resetFont
$LN6@resetFont:
; Line 190
	call	?getFont_verdana_10_4bpp@@YAAAVGeneratedFont@touchgfx@@XZ ; getFont_verdana_10_4bpp
	mov	ecx, 4
	shl	ecx, 1
	mov	DWORD PTR ?touchgfx_fonts@@3PAPBVFont@touchgfx@@A[ecx], eax
; Line 191
	jmp	SHORT $LN1@resetFont
$LN7@resetFont:
; Line 193
	call	?getFont_MicrosoftYaHei_32_4bpp@@YAAAVGeneratedFont@touchgfx@@XZ ; getFont_MicrosoftYaHei_32_4bpp
	mov	ecx, 4
	imul	edx, ecx, 3
	mov	DWORD PTR ?touchgfx_fonts@@3PAPBVFont@touchgfx@@A[edx], eax
; Line 194
	jmp	SHORT $LN1@resetFont
$LN8@resetFont:
; Line 196
	call	?getFont_MicrosoftYaHei_Bold_30_4bpp@@YAAAVGeneratedFont@touchgfx@@XZ ; getFont_MicrosoftYaHei_Bold_30_4bpp
	mov	ecx, 4
	shl	ecx, 2
	mov	DWORD PTR ?touchgfx_fonts@@3PAPBVFont@touchgfx@@A[ecx], eax
; Line 197
	jmp	SHORT $LN1@resetFont
$LN9@resetFont:
; Line 199
	call	?getFont_MicrosoftYaHei_Bold_28_4bpp@@YAAAVGeneratedFont@touchgfx@@XZ ; getFont_MicrosoftYaHei_Bold_28_4bpp
	mov	ecx, 4
	imul	edx, ecx, 5
	mov	DWORD PTR ?touchgfx_fonts@@3PAPBVFont@touchgfx@@A[edx], eax
; Line 200
	jmp	SHORT $LN1@resetFont
$LN10@resetFont:
; Line 202
	call	?getFont_MicrosoftYaHei_Bold_40_4bpp@@YAAAVGeneratedFont@touchgfx@@XZ ; getFont_MicrosoftYaHei_Bold_40_4bpp
	mov	ecx, 4
	imul	edx, ecx, 6
	mov	DWORD PTR ?touchgfx_fonts@@3PAPBVFont@touchgfx@@A[edx], eax
$LN1@resetFont:
; Line 205
	pop	edi
	pop	esi
	pop	ebx
	add	esp, 196				; 000000c4H
	cmp	ebp, esp
	call	__RTC_CheckEsp
	mov	esp, ebp
	pop	ebp
	ret	0
	npad	3
$LN12@resetFont:
	DD	$LN4@resetFont
	DD	$LN5@resetFont
	DD	$LN6@resetFont
	DD	$LN7@resetFont
	DD	$LN8@resetFont
	DD	$LN9@resetFont
	DD	$LN10@resetFont
?resetFont@TypedTextDatabase@@YAXG@Z ENDP		; TypedTextDatabase::resetFont
_TEXT	ENDS
; Function compile flags: /Odtp /RTCsu /ZI
;	COMDAT ?setFont@TypedTextDatabase@@YAPBVFont@touchgfx@@GPBV23@@Z
_TEXT	SEGMENT
_old$ = -8						; size = 4
_fontId$ = 8						; size = 2
_font$ = 12						; size = 4
?setFont@TypedTextDatabase@@YAPBVFont@touchgfx@@GPBV23@@Z PROC ; TypedTextDatabase::setFont, COMDAT
; File F:\MyProject\STM32F769_Keyboard\TouchGFX\generated\texts\src\TypedTextDatabase.cpp
; Line 173
	push	ebp
	mov	ebp, esp
	sub	esp, 204				; 000000ccH
	push	ebx
	push	esi
	push	edi
	lea	edi, DWORD PTR [ebp-12]
	mov	ecx, 3
	mov	eax, -858993460				; ccccccccH
	rep stosd
	mov	ecx, OFFSET __76BE34D9_TypedTextDatabase@cpp
	call	@__CheckForDebuggerJustMyCode@4
; Line 174
	movzx	eax, WORD PTR _fontId$[ebp]
	mov	ecx, DWORD PTR ?touchgfx_fonts@@3PAPBVFont@touchgfx@@A[eax*4]
	mov	DWORD PTR _old$[ebp], ecx
; Line 175
	movzx	eax, WORD PTR _fontId$[ebp]
	mov	ecx, DWORD PTR _font$[ebp]
	mov	DWORD PTR ?touchgfx_fonts@@3PAPBVFont@touchgfx@@A[eax*4], ecx
; Line 176
	mov	eax, DWORD PTR _old$[ebp]
; Line 177
	pop	edi
	pop	esi
	pop	ebx
	add	esp, 204				; 000000ccH
	cmp	ebp, esp
	call	__RTC_CheckEsp
	mov	esp, ebp
	pop	ebp
	ret	0
?setFont@TypedTextDatabase@@YAPBVFont@touchgfx@@GPBV23@@Z ENDP ; TypedTextDatabase::setFont
_TEXT	ENDS
; Function compile flags: /Odtp /RTCsu /ZI
;	COMDAT ?getFonts@TypedTextDatabase@@YAPAPBVFont@touchgfx@@XZ
_TEXT	SEGMENT
?getFonts@TypedTextDatabase@@YAPAPBVFont@touchgfx@@XZ PROC ; TypedTextDatabase::getFonts, COMDAT
; File F:\MyProject\STM32F769_Keyboard\TouchGFX\generated\texts\src\TypedTextDatabase.cpp
; Line 168
	push	ebp
	mov	ebp, esp
	sub	esp, 192				; 000000c0H
	push	ebx
	push	esi
	push	edi
	mov	edi, ebp
	xor	ecx, ecx
	mov	eax, -858993460				; ccccccccH
	rep stosd
	mov	ecx, OFFSET __76BE34D9_TypedTextDatabase@cpp
	call	@__CheckForDebuggerJustMyCode@4
; Line 169
	mov	eax, OFFSET ?touchgfx_fonts@@3PAPBVFont@touchgfx@@A ; touchgfx_fonts
; Line 170
	pop	edi
	pop	esi
	pop	ebx
	add	esp, 192				; 000000c0H
	cmp	ebp, esp
	call	__RTC_CheckEsp
	mov	esp, ebp
	pop	ebp
	ret	0
?getFonts@TypedTextDatabase@@YAPAPBVFont@touchgfx@@XZ ENDP ; TypedTextDatabase::getFonts
_TEXT	ENDS
; Function compile flags: /Odtp /RTCsu /ZI
;	COMDAT ?getInstance@TypedTextDatabase@@YAPBUTypedTextData@TypedText@touchgfx@@G@Z
_TEXT	SEGMENT
_id$ = 8						; size = 2
?getInstance@TypedTextDatabase@@YAPBUTypedTextData@TypedText@touchgfx@@G@Z PROC ; TypedTextDatabase::getInstance, COMDAT
; File F:\MyProject\STM32F769_Keyboard\TouchGFX\generated\texts\src\TypedTextDatabase.cpp
; Line 158
	push	ebp
	mov	ebp, esp
	sub	esp, 192				; 000000c0H
	push	ebx
	push	esi
	push	edi
	mov	edi, ebp
	xor	ecx, ecx
	mov	eax, -858993460				; ccccccccH
	rep stosd
	mov	ecx, OFFSET __76BE34D9_TypedTextDatabase@cpp
	call	@__CheckForDebuggerJustMyCode@4
; Line 159
	movzx	eax, WORD PTR _id$[ebp]
	mov	eax, DWORD PTR ?typedTextDatabaseArray@@3QBQBUTypedTextData@TypedText@touchgfx@@B[eax*4]
; Line 160
	pop	edi
	pop	esi
	pop	ebx
	add	esp, 192				; 000000c0H
	cmp	ebp, esp
	call	__RTC_CheckEsp
	mov	esp, ebp
	pop	ebp
	ret	0
?getInstance@TypedTextDatabase@@YAPBUTypedTextData@TypedText@touchgfx@@G@Z ENDP ; TypedTextDatabase::getInstance
_TEXT	ENDS
END
